ARM GAS  C:\Users\r\AppData\Local\Temp\cc1ZHhx7.s 			page 1


   1              		.syntax unified
   2              		.cpu cortex-m3
   3              		.fpu softvfp
   4              		.eabi_attribute 20, 1
   5              		.eabi_attribute 21, 1
   6              		.eabi_attribute 23, 3
   7              		.eabi_attribute 24, 1
   8              		.eabi_attribute 25, 1
   9              		.eabi_attribute 26, 1
  10              		.eabi_attribute 30, 6
  11              		.eabi_attribute 34, 1
  12              		.eabi_attribute 18, 4
  13              		.thumb
  14              		.syntax unified
  15              		.file	"cyfitter_cfg.c"
  16              		.text
  17              	.Ltext0:
  18              		.cfi_sections	.debug_frame
  19              		.section	.text.CYMEMZERO,"ax",%progbits
  20              		.align	2
  21              		.thumb
  22              		.thumb_func
  23              		.type	CYMEMZERO, %function
  24              	CYMEMZERO:
  25              	.LFB0:
  26              		.file 1 "Generated_Source\\PSoC5\\cyfitter_cfg.c"
   1:Generated_Source\PSoC5/cyfitter_cfg.c **** 
   2:Generated_Source\PSoC5/cyfitter_cfg.c **** /*******************************************************************************
   3:Generated_Source\PSoC5/cyfitter_cfg.c **** * File Name: cyfitter_cfg.c
   4:Generated_Source\PSoC5/cyfitter_cfg.c **** * 
   5:Generated_Source\PSoC5/cyfitter_cfg.c **** * PSoC Creator  4.2
   6:Generated_Source\PSoC5/cyfitter_cfg.c **** *
   7:Generated_Source\PSoC5/cyfitter_cfg.c **** * Description:
   8:Generated_Source\PSoC5/cyfitter_cfg.c **** * This file contains device initialization code.
   9:Generated_Source\PSoC5/cyfitter_cfg.c **** * Except for the user defined sections in CyClockStartupError(), this file should not be modified.
  10:Generated_Source\PSoC5/cyfitter_cfg.c **** * This file is automatically generated by PSoC Creator.
  11:Generated_Source\PSoC5/cyfitter_cfg.c **** *
  12:Generated_Source\PSoC5/cyfitter_cfg.c **** ********************************************************************************
  13:Generated_Source\PSoC5/cyfitter_cfg.c **** * Copyright (c) 2007-2018 Cypress Semiconductor.  All rights reserved.
  14:Generated_Source\PSoC5/cyfitter_cfg.c **** * You may use this file only in accordance with the license, terms, conditions, 
  15:Generated_Source\PSoC5/cyfitter_cfg.c **** * disclaimers, and limitations in the end user license agreement accompanying 
  16:Generated_Source\PSoC5/cyfitter_cfg.c **** * the software package with which this file was provided.
  17:Generated_Source\PSoC5/cyfitter_cfg.c **** ********************************************************************************/
  18:Generated_Source\PSoC5/cyfitter_cfg.c **** 
  19:Generated_Source\PSoC5/cyfitter_cfg.c **** #include <string.h>
  20:Generated_Source\PSoC5/cyfitter_cfg.c **** #include "cytypes.h"
  21:Generated_Source\PSoC5/cyfitter_cfg.c **** #include "cydevice_trm.h"
  22:Generated_Source\PSoC5/cyfitter_cfg.c **** #include "cyfitter.h"
  23:Generated_Source\PSoC5/cyfitter_cfg.c **** #include "CyLib.h"
  24:Generated_Source\PSoC5/cyfitter_cfg.c **** #include "cyfitter_cfg.h"
  25:Generated_Source\PSoC5/cyfitter_cfg.c **** 
  26:Generated_Source\PSoC5/cyfitter_cfg.c **** #define CY_NEED_CYCLOCKSTARTUPERROR 1
  27:Generated_Source\PSoC5/cyfitter_cfg.c **** 
  28:Generated_Source\PSoC5/cyfitter_cfg.c **** 
  29:Generated_Source\PSoC5/cyfitter_cfg.c **** #if defined(__GNUC__) || defined(__ARMCC_VERSION)
  30:Generated_Source\PSoC5/cyfitter_cfg.c ****     #define CYPACKED 
  31:Generated_Source\PSoC5/cyfitter_cfg.c ****     #define CYPACKED_ATTR __attribute__ ((packed))
ARM GAS  C:\Users\r\AppData\Local\Temp\cc1ZHhx7.s 			page 2


  32:Generated_Source\PSoC5/cyfitter_cfg.c ****     #define CYALIGNED __attribute__ ((aligned))
  33:Generated_Source\PSoC5/cyfitter_cfg.c ****     #define CY_CFG_UNUSED __attribute__ ((unused))
  34:Generated_Source\PSoC5/cyfitter_cfg.c ****     #ifndef CY_CFG_SECTION
  35:Generated_Source\PSoC5/cyfitter_cfg.c ****         #define CY_CFG_SECTION __attribute__ ((section(".psocinit")))
  36:Generated_Source\PSoC5/cyfitter_cfg.c ****     #endif
  37:Generated_Source\PSoC5/cyfitter_cfg.c ****     
  38:Generated_Source\PSoC5/cyfitter_cfg.c ****     #if defined(__ARMCC_VERSION)
  39:Generated_Source\PSoC5/cyfitter_cfg.c ****         #define CY_CFG_MEMORY_BARRIER() __memory_changed()
  40:Generated_Source\PSoC5/cyfitter_cfg.c ****     #else
  41:Generated_Source\PSoC5/cyfitter_cfg.c ****         #define CY_CFG_MEMORY_BARRIER() __sync_synchronize()
  42:Generated_Source\PSoC5/cyfitter_cfg.c ****     #endif
  43:Generated_Source\PSoC5/cyfitter_cfg.c ****     
  44:Generated_Source\PSoC5/cyfitter_cfg.c **** #elif defined(__ICCARM__)
  45:Generated_Source\PSoC5/cyfitter_cfg.c ****     #include <intrinsics.h>
  46:Generated_Source\PSoC5/cyfitter_cfg.c **** 
  47:Generated_Source\PSoC5/cyfitter_cfg.c ****     #define CYPACKED __packed
  48:Generated_Source\PSoC5/cyfitter_cfg.c ****     #define CYPACKED_ATTR 
  49:Generated_Source\PSoC5/cyfitter_cfg.c ****     #define CYALIGNED _Pragma("data_alignment=4")
  50:Generated_Source\PSoC5/cyfitter_cfg.c ****     #define CY_CFG_UNUSED _Pragma("diag_suppress=Pe177")
  51:Generated_Source\PSoC5/cyfitter_cfg.c ****     #define CY_CFG_SECTION _Pragma("location=\".psocinit\"")
  52:Generated_Source\PSoC5/cyfitter_cfg.c ****     
  53:Generated_Source\PSoC5/cyfitter_cfg.c ****     #define CY_CFG_MEMORY_BARRIER() __DMB()
  54:Generated_Source\PSoC5/cyfitter_cfg.c ****     
  55:Generated_Source\PSoC5/cyfitter_cfg.c **** #else
  56:Generated_Source\PSoC5/cyfitter_cfg.c ****     #error Unsupported toolchain
  57:Generated_Source\PSoC5/cyfitter_cfg.c **** #endif
  58:Generated_Source\PSoC5/cyfitter_cfg.c **** 
  59:Generated_Source\PSoC5/cyfitter_cfg.c **** #ifndef CYCODE
  60:Generated_Source\PSoC5/cyfitter_cfg.c ****     #define CYCODE
  61:Generated_Source\PSoC5/cyfitter_cfg.c **** #endif
  62:Generated_Source\PSoC5/cyfitter_cfg.c **** #ifndef CYDATA
  63:Generated_Source\PSoC5/cyfitter_cfg.c ****     #define CYDATA
  64:Generated_Source\PSoC5/cyfitter_cfg.c **** #endif
  65:Generated_Source\PSoC5/cyfitter_cfg.c **** #ifndef CYFAR
  66:Generated_Source\PSoC5/cyfitter_cfg.c ****     #define CYFAR
  67:Generated_Source\PSoC5/cyfitter_cfg.c **** #endif
  68:Generated_Source\PSoC5/cyfitter_cfg.c **** #ifndef CYXDATA
  69:Generated_Source\PSoC5/cyfitter_cfg.c ****     #define CYXDATA
  70:Generated_Source\PSoC5/cyfitter_cfg.c **** #endif
  71:Generated_Source\PSoC5/cyfitter_cfg.c **** 
  72:Generated_Source\PSoC5/cyfitter_cfg.c **** 
  73:Generated_Source\PSoC5/cyfitter_cfg.c **** CY_CFG_UNUSED
  74:Generated_Source\PSoC5/cyfitter_cfg.c **** static void CYMEMZERO(void *s, size_t n);
  75:Generated_Source\PSoC5/cyfitter_cfg.c **** CY_CFG_UNUSED
  76:Generated_Source\PSoC5/cyfitter_cfg.c **** static void CYMEMZERO(void *s, size_t n)
  77:Generated_Source\PSoC5/cyfitter_cfg.c **** {
  27              		.loc 1 77 0
  28              		.cfi_startproc
  29              		@ args = 0, pretend = 0, frame = 8
  30              		@ frame_needed = 1, uses_anonymous_args = 0
  31 0000 80B5     		push	{r7, lr}
  32              		.cfi_def_cfa_offset 8
  33              		.cfi_offset 7, -8
  34              		.cfi_offset 14, -4
  35 0002 82B0     		sub	sp, sp, #8
  36              		.cfi_def_cfa_offset 16
  37 0004 00AF     		add	r7, sp, #0
ARM GAS  C:\Users\r\AppData\Local\Temp\cc1ZHhx7.s 			page 3


  38              		.cfi_def_cfa_register 7
  39 0006 7860     		str	r0, [r7, #4]
  40 0008 3960     		str	r1, [r7]
  78:Generated_Source\PSoC5/cyfitter_cfg.c **** 	(void)memset(s, 0, n);
  41              		.loc 1 78 0
  42 000a 3A68     		ldr	r2, [r7]
  43 000c 0021     		movs	r1, #0
  44 000e 7868     		ldr	r0, [r7, #4]
  45 0010 FFF7FEFF 		bl	memset
  79:Generated_Source\PSoC5/cyfitter_cfg.c **** }
  46              		.loc 1 79 0
  47 0014 00BF     		nop
  48 0016 0837     		adds	r7, r7, #8
  49              		.cfi_def_cfa_offset 8
  50 0018 BD46     		mov	sp, r7
  51              		.cfi_def_cfa_register 13
  52              		@ sp needed
  53 001a 80BD     		pop	{r7, pc}
  54              		.cfi_endproc
  55              	.LFE0:
  56              		.size	CYMEMZERO, .-CYMEMZERO
  57              		.section	.text.CYCONFIGCPY,"ax",%progbits
  58              		.align	2
  59              		.thumb
  60              		.thumb_func
  61              		.type	CYCONFIGCPY, %function
  62              	CYCONFIGCPY:
  63              	.LFB1:
  80:Generated_Source\PSoC5/cyfitter_cfg.c **** CY_CFG_UNUSED
  81:Generated_Source\PSoC5/cyfitter_cfg.c **** static void CYCONFIGCPY(void *dest, const void *src, size_t n);
  82:Generated_Source\PSoC5/cyfitter_cfg.c **** CY_CFG_UNUSED
  83:Generated_Source\PSoC5/cyfitter_cfg.c **** static void CYCONFIGCPY(void *dest, const void *src, size_t n)
  84:Generated_Source\PSoC5/cyfitter_cfg.c **** {
  64              		.loc 1 84 0
  65              		.cfi_startproc
  66              		@ args = 0, pretend = 0, frame = 16
  67              		@ frame_needed = 1, uses_anonymous_args = 0
  68 0000 80B5     		push	{r7, lr}
  69              		.cfi_def_cfa_offset 8
  70              		.cfi_offset 7, -8
  71              		.cfi_offset 14, -4
  72 0002 84B0     		sub	sp, sp, #16
  73              		.cfi_def_cfa_offset 24
  74 0004 00AF     		add	r7, sp, #0
  75              		.cfi_def_cfa_register 7
  76 0006 F860     		str	r0, [r7, #12]
  77 0008 B960     		str	r1, [r7, #8]
  78 000a 7A60     		str	r2, [r7, #4]
  85:Generated_Source\PSoC5/cyfitter_cfg.c **** 	(void)memcpy(dest, src, n);
  79              		.loc 1 85 0
  80 000c 7A68     		ldr	r2, [r7, #4]
  81 000e B968     		ldr	r1, [r7, #8]
  82 0010 F868     		ldr	r0, [r7, #12]
  83 0012 FFF7FEFF 		bl	memcpy
  86:Generated_Source\PSoC5/cyfitter_cfg.c **** }
  84              		.loc 1 86 0
  85 0016 00BF     		nop
ARM GAS  C:\Users\r\AppData\Local\Temp\cc1ZHhx7.s 			page 4


  86 0018 1037     		adds	r7, r7, #16
  87              		.cfi_def_cfa_offset 8
  88 001a BD46     		mov	sp, r7
  89              		.cfi_def_cfa_register 13
  90              		@ sp needed
  91 001c 80BD     		pop	{r7, pc}
  92              		.cfi_endproc
  93              	.LFE1:
  94              		.size	CYCONFIGCPY, .-CYCONFIGCPY
  95 001e 00BF     		.section	.text.CYCONFIGCPYCODE,"ax",%progbits
  96              		.align	2
  97              		.thumb
  98              		.thumb_func
  99              		.type	CYCONFIGCPYCODE, %function
 100              	CYCONFIGCPYCODE:
 101              	.LFB2:
  87:Generated_Source\PSoC5/cyfitter_cfg.c **** CY_CFG_UNUSED
  88:Generated_Source\PSoC5/cyfitter_cfg.c **** static void CYCONFIGCPYCODE(void *dest, const void *src, size_t n);
  89:Generated_Source\PSoC5/cyfitter_cfg.c **** CY_CFG_UNUSED
  90:Generated_Source\PSoC5/cyfitter_cfg.c **** static void CYCONFIGCPYCODE(void *dest, const void *src, size_t n)
  91:Generated_Source\PSoC5/cyfitter_cfg.c **** {
 102              		.loc 1 91 0
 103              		.cfi_startproc
 104              		@ args = 0, pretend = 0, frame = 16
 105              		@ frame_needed = 1, uses_anonymous_args = 0
 106 0000 80B5     		push	{r7, lr}
 107              		.cfi_def_cfa_offset 8
 108              		.cfi_offset 7, -8
 109              		.cfi_offset 14, -4
 110 0002 84B0     		sub	sp, sp, #16
 111              		.cfi_def_cfa_offset 24
 112 0004 00AF     		add	r7, sp, #0
 113              		.cfi_def_cfa_register 7
 114 0006 F860     		str	r0, [r7, #12]
 115 0008 B960     		str	r1, [r7, #8]
 116 000a 7A60     		str	r2, [r7, #4]
  92:Generated_Source\PSoC5/cyfitter_cfg.c **** 	(void)memcpy(dest, src, n);
 117              		.loc 1 92 0
 118 000c 7A68     		ldr	r2, [r7, #4]
 119 000e B968     		ldr	r1, [r7, #8]
 120 0010 F868     		ldr	r0, [r7, #12]
 121 0012 FFF7FEFF 		bl	memcpy
  93:Generated_Source\PSoC5/cyfitter_cfg.c **** }
 122              		.loc 1 93 0
 123 0016 00BF     		nop
 124 0018 1037     		adds	r7, r7, #16
 125              		.cfi_def_cfa_offset 8
 126 001a BD46     		mov	sp, r7
 127              		.cfi_def_cfa_register 13
 128              		@ sp needed
 129 001c 80BD     		pop	{r7, pc}
 130              		.cfi_endproc
 131              	.LFE2:
 132              		.size	CYCONFIGCPYCODE, .-CYCONFIGCPYCODE
 133 001e 00BF     		.section	.text.CyClockStartupError,"ax",%progbits
 134              		.align	2
 135              		.thumb
ARM GAS  C:\Users\r\AppData\Local\Temp\cc1ZHhx7.s 			page 5


 136              		.thumb_func
 137              		.type	CyClockStartupError, %function
 138              	CyClockStartupError:
 139              	.LFB3:
  94:Generated_Source\PSoC5/cyfitter_cfg.c **** 
  95:Generated_Source\PSoC5/cyfitter_cfg.c **** 
  96:Generated_Source\PSoC5/cyfitter_cfg.c **** 
  97:Generated_Source\PSoC5/cyfitter_cfg.c **** 
  98:Generated_Source\PSoC5/cyfitter_cfg.c **** /* Clock startup error codes                                                   */
  99:Generated_Source\PSoC5/cyfitter_cfg.c **** #define CYCLOCKSTART_NO_ERROR    0u
 100:Generated_Source\PSoC5/cyfitter_cfg.c **** #define CYCLOCKSTART_XTAL_ERROR  1u
 101:Generated_Source\PSoC5/cyfitter_cfg.c **** #define CYCLOCKSTART_32KHZ_ERROR 2u
 102:Generated_Source\PSoC5/cyfitter_cfg.c **** #define CYCLOCKSTART_PLL_ERROR   3u
 103:Generated_Source\PSoC5/cyfitter_cfg.c **** #define CYCLOCKSTART_FLL_ERROR   4u
 104:Generated_Source\PSoC5/cyfitter_cfg.c **** #define CYCLOCKSTART_WCO_ERROR   5u
 105:Generated_Source\PSoC5/cyfitter_cfg.c **** 
 106:Generated_Source\PSoC5/cyfitter_cfg.c **** 
 107:Generated_Source\PSoC5/cyfitter_cfg.c **** #ifdef CY_NEED_CYCLOCKSTARTUPERROR
 108:Generated_Source\PSoC5/cyfitter_cfg.c **** /*******************************************************************************
 109:Generated_Source\PSoC5/cyfitter_cfg.c **** * Function Name: CyClockStartupError
 110:Generated_Source\PSoC5/cyfitter_cfg.c **** ********************************************************************************
 111:Generated_Source\PSoC5/cyfitter_cfg.c **** * Summary:
 112:Generated_Source\PSoC5/cyfitter_cfg.c **** *  If an error is encountered during clock configuration (crystal startup error,
 113:Generated_Source\PSoC5/cyfitter_cfg.c **** *  PLL lock error, etc.), the system will end up here.  Unless reimplemented by
 114:Generated_Source\PSoC5/cyfitter_cfg.c **** *  the customer, this function will stop in an infinite loop.
 115:Generated_Source\PSoC5/cyfitter_cfg.c **** *
 116:Generated_Source\PSoC5/cyfitter_cfg.c **** * Parameters:
 117:Generated_Source\PSoC5/cyfitter_cfg.c **** *   void
 118:Generated_Source\PSoC5/cyfitter_cfg.c **** *
 119:Generated_Source\PSoC5/cyfitter_cfg.c **** * Return:
 120:Generated_Source\PSoC5/cyfitter_cfg.c **** *   void
 121:Generated_Source\PSoC5/cyfitter_cfg.c **** *
 122:Generated_Source\PSoC5/cyfitter_cfg.c **** *******************************************************************************/
 123:Generated_Source\PSoC5/cyfitter_cfg.c **** CY_CFG_UNUSED
 124:Generated_Source\PSoC5/cyfitter_cfg.c **** static void CyClockStartupError(uint8 errorCode);
 125:Generated_Source\PSoC5/cyfitter_cfg.c **** CY_CFG_UNUSED
 126:Generated_Source\PSoC5/cyfitter_cfg.c **** static void CyClockStartupError(uint8 errorCode)
 127:Generated_Source\PSoC5/cyfitter_cfg.c **** {
 140              		.loc 1 127 0
 141              		.cfi_startproc
 142              		@ args = 0, pretend = 0, frame = 8
 143              		@ frame_needed = 1, uses_anonymous_args = 0
 144              		@ link register save eliminated.
 145 0000 80B4     		push	{r7}
 146              		.cfi_def_cfa_offset 4
 147              		.cfi_offset 7, -4
 148 0002 83B0     		sub	sp, sp, #12
 149              		.cfi_def_cfa_offset 16
 150 0004 00AF     		add	r7, sp, #0
 151              		.cfi_def_cfa_register 7
 152 0006 0346     		mov	r3, r0
 153 0008 FB71     		strb	r3, [r7, #7]
 154              	.L5:
 128:Generated_Source\PSoC5/cyfitter_cfg.c ****     /* To remove the compiler warning if errorCode not used.                */
 129:Generated_Source\PSoC5/cyfitter_cfg.c ****     errorCode = errorCode;
 130:Generated_Source\PSoC5/cyfitter_cfg.c **** 
 131:Generated_Source\PSoC5/cyfitter_cfg.c ****     /* If we have a clock startup error (bad MHz crystal, PLL lock, etc.),  */
ARM GAS  C:\Users\r\AppData\Local\Temp\cc1ZHhx7.s 			page 6


 132:Generated_Source\PSoC5/cyfitter_cfg.c ****     /* we will end up here to allow the customer to implement something to  */
 133:Generated_Source\PSoC5/cyfitter_cfg.c ****     /* deal with the clock condition.                                       */
 134:Generated_Source\PSoC5/cyfitter_cfg.c **** 
 135:Generated_Source\PSoC5/cyfitter_cfg.c **** #ifdef CY_CFG_CLOCK_STARTUP_ERROR_CALLBACK
 136:Generated_Source\PSoC5/cyfitter_cfg.c ****     CY_CFG_Clock_Startup_ErrorCallback();
 137:Generated_Source\PSoC5/cyfitter_cfg.c **** #else
 138:Generated_Source\PSoC5/cyfitter_cfg.c ****     /*  If not using CY_CFG_CLOCK_STARTUP_ERROR_CALLBACK, place your clock startup code here. */
 139:Generated_Source\PSoC5/cyfitter_cfg.c ****     /* `#START CyClockStartupError` */
 140:Generated_Source\PSoC5/cyfitter_cfg.c **** 
 141:Generated_Source\PSoC5/cyfitter_cfg.c ****     /* If we have a clock startup error (bad MHz crystal, PLL lock, etc.),  */
 142:Generated_Source\PSoC5/cyfitter_cfg.c ****     /* we will end up here to allow the customer to implement something to  */
 143:Generated_Source\PSoC5/cyfitter_cfg.c ****     /* deal with the clock condition.                                       */
 144:Generated_Source\PSoC5/cyfitter_cfg.c **** 
 145:Generated_Source\PSoC5/cyfitter_cfg.c ****     /* `#END` */
 146:Generated_Source\PSoC5/cyfitter_cfg.c **** 
 147:Generated_Source\PSoC5/cyfitter_cfg.c ****     while(1) {}
 155              		.loc 1 147 0 discriminator 1
 156 000a FEE7     		b	.L5
 157              		.cfi_endproc
 158              	.LFE3:
 159              		.size	CyClockStartupError, .-CyClockStartupError
 160              		.section	.text.cfg_write_bytes32,"ax",%progbits
 161              		.align	2
 162              		.thumb
 163              		.thumb_func
 164              		.type	cfg_write_bytes32, %function
 165              	cfg_write_bytes32:
 166              	.LFB4:
 148:Generated_Source\PSoC5/cyfitter_cfg.c **** #endif /* CY_CFG_CLOCK_STARTUP_ERROR_CALLBACK */
 149:Generated_Source\PSoC5/cyfitter_cfg.c **** }
 150:Generated_Source\PSoC5/cyfitter_cfg.c **** #endif
 151:Generated_Source\PSoC5/cyfitter_cfg.c **** 
 152:Generated_Source\PSoC5/cyfitter_cfg.c **** #define CY_CFG_BASE_ADDR_COUNT 42u
 153:Generated_Source\PSoC5/cyfitter_cfg.c **** CYPACKED typedef struct
 154:Generated_Source\PSoC5/cyfitter_cfg.c **** {
 155:Generated_Source\PSoC5/cyfitter_cfg.c **** 	uint8 offset;
 156:Generated_Source\PSoC5/cyfitter_cfg.c **** 	uint8 value;
 157:Generated_Source\PSoC5/cyfitter_cfg.c **** } CYPACKED_ATTR cy_cfg_addrvalue_t;
 158:Generated_Source\PSoC5/cyfitter_cfg.c **** 
 159:Generated_Source\PSoC5/cyfitter_cfg.c **** 
 160:Generated_Source\PSoC5/cyfitter_cfg.c **** 
 161:Generated_Source\PSoC5/cyfitter_cfg.c **** /*******************************************************************************
 162:Generated_Source\PSoC5/cyfitter_cfg.c **** * Function Name: cfg_write_bytes32
 163:Generated_Source\PSoC5/cyfitter_cfg.c **** ********************************************************************************
 164:Generated_Source\PSoC5/cyfitter_cfg.c **** * Summary:
 165:Generated_Source\PSoC5/cyfitter_cfg.c **** *  This function is used for setting up the chip configuration areas that
 166:Generated_Source\PSoC5/cyfitter_cfg.c **** *  contain relatively sparse data.
 167:Generated_Source\PSoC5/cyfitter_cfg.c **** *
 168:Generated_Source\PSoC5/cyfitter_cfg.c **** * Parameters:
 169:Generated_Source\PSoC5/cyfitter_cfg.c **** *   void
 170:Generated_Source\PSoC5/cyfitter_cfg.c **** *
 171:Generated_Source\PSoC5/cyfitter_cfg.c **** * Return:
 172:Generated_Source\PSoC5/cyfitter_cfg.c **** *   void
 173:Generated_Source\PSoC5/cyfitter_cfg.c **** *
 174:Generated_Source\PSoC5/cyfitter_cfg.c **** *******************************************************************************/
 175:Generated_Source\PSoC5/cyfitter_cfg.c **** static void cfg_write_bytes32(const uint32 addr_table[], const cy_cfg_addrvalue_t data_table[]);
 176:Generated_Source\PSoC5/cyfitter_cfg.c **** static void cfg_write_bytes32(const uint32 addr_table[], const cy_cfg_addrvalue_t data_table[])
ARM GAS  C:\Users\r\AppData\Local\Temp\cc1ZHhx7.s 			page 7


 177:Generated_Source\PSoC5/cyfitter_cfg.c **** {
 167              		.loc 1 177 0
 168              		.cfi_startproc
 169              		@ args = 0, pretend = 0, frame = 24
 170              		@ frame_needed = 1, uses_anonymous_args = 0
 171              		@ link register save eliminated.
 172 0000 80B4     		push	{r7}
 173              		.cfi_def_cfa_offset 4
 174              		.cfi_offset 7, -4
 175 0002 87B0     		sub	sp, sp, #28
 176              		.cfi_def_cfa_offset 32
 177 0004 00AF     		add	r7, sp, #0
 178              		.cfi_def_cfa_register 7
 179 0006 7860     		str	r0, [r7, #4]
 180 0008 3960     		str	r1, [r7]
 178:Generated_Source\PSoC5/cyfitter_cfg.c **** 	/* For 32-bit little-endian architectures */
 179:Generated_Source\PSoC5/cyfitter_cfg.c **** 	uint32 i, j = 0u;
 181              		.loc 1 179 0
 182 000a 0023     		movs	r3, #0
 183 000c 3B61     		str	r3, [r7, #16]
 180:Generated_Source\PSoC5/cyfitter_cfg.c **** 	for (i = 0u; i < CY_CFG_BASE_ADDR_COUNT; i++)
 184              		.loc 1 180 0
 185 000e 0023     		movs	r3, #0
 186 0010 7B61     		str	r3, [r7, #20]
 187 0012 27E0     		b	.L7
 188              	.L10:
 189              	.LBB2:
 181:Generated_Source\PSoC5/cyfitter_cfg.c **** 	{
 182:Generated_Source\PSoC5/cyfitter_cfg.c **** 		uint32 baseAddr = addr_table[i];
 190              		.loc 1 182 0
 191 0014 7B69     		ldr	r3, [r7, #20]
 192 0016 9B00     		lsls	r3, r3, #2
 193 0018 7A68     		ldr	r2, [r7, #4]
 194 001a 1344     		add	r3, r3, r2
 195 001c 1B68     		ldr	r3, [r3]
 196 001e BB60     		str	r3, [r7, #8]
 183:Generated_Source\PSoC5/cyfitter_cfg.c **** 		uint8 count = (uint8)baseAddr;
 197              		.loc 1 183 0
 198 0020 BB68     		ldr	r3, [r7, #8]
 199 0022 FB73     		strb	r3, [r7, #15]
 184:Generated_Source\PSoC5/cyfitter_cfg.c **** 		baseAddr &= 0xFFFFFF00u;
 200              		.loc 1 184 0
 201 0024 BB68     		ldr	r3, [r7, #8]
 202 0026 23F0FF03 		bic	r3, r3, #255
 203 002a BB60     		str	r3, [r7, #8]
 185:Generated_Source\PSoC5/cyfitter_cfg.c **** 		while (count != 0u)
 204              		.loc 1 185 0
 205 002c 14E0     		b	.L8
 206              	.L9:
 186:Generated_Source\PSoC5/cyfitter_cfg.c **** 		{
 187:Generated_Source\PSoC5/cyfitter_cfg.c **** 			CY_SET_REG8((void *)(baseAddr + data_table[j].offset), data_table[j].value);
 207              		.loc 1 187 0
 208 002e 3B69     		ldr	r3, [r7, #16]
 209 0030 5B00     		lsls	r3, r3, #1
 210 0032 3A68     		ldr	r2, [r7]
 211 0034 1344     		add	r3, r3, r2
 212 0036 1B78     		ldrb	r3, [r3]	@ zero_extendqisi2
ARM GAS  C:\Users\r\AppData\Local\Temp\cc1ZHhx7.s 			page 8


 213 0038 1A46     		mov	r2, r3
 214 003a BB68     		ldr	r3, [r7, #8]
 215 003c 1344     		add	r3, r3, r2
 216 003e 1946     		mov	r1, r3
 217 0040 3B69     		ldr	r3, [r7, #16]
 218 0042 5B00     		lsls	r3, r3, #1
 219 0044 3A68     		ldr	r2, [r7]
 220 0046 1344     		add	r3, r3, r2
 221 0048 5B78     		ldrb	r3, [r3, #1]	@ zero_extendqisi2
 222 004a 0B70     		strb	r3, [r1]
 188:Generated_Source\PSoC5/cyfitter_cfg.c **** 			j++;
 223              		.loc 1 188 0
 224 004c 3B69     		ldr	r3, [r7, #16]
 225 004e 0133     		adds	r3, r3, #1
 226 0050 3B61     		str	r3, [r7, #16]
 189:Generated_Source\PSoC5/cyfitter_cfg.c **** 			count--;
 227              		.loc 1 189 0
 228 0052 FB7B     		ldrb	r3, [r7, #15]	@ zero_extendqisi2
 229 0054 013B     		subs	r3, r3, #1
 230 0056 FB73     		strb	r3, [r7, #15]
 231              	.L8:
 185:Generated_Source\PSoC5/cyfitter_cfg.c **** 		{
 232              		.loc 1 185 0
 233 0058 FB7B     		ldrb	r3, [r7, #15]	@ zero_extendqisi2
 234 005a 002B     		cmp	r3, #0
 235 005c E7D1     		bne	.L9
 236              	.LBE2:
 180:Generated_Source\PSoC5/cyfitter_cfg.c **** 	{
 237              		.loc 1 180 0 discriminator 2
 238 005e 7B69     		ldr	r3, [r7, #20]
 239 0060 0133     		adds	r3, r3, #1
 240 0062 7B61     		str	r3, [r7, #20]
 241              	.L7:
 180:Generated_Source\PSoC5/cyfitter_cfg.c **** 	{
 242              		.loc 1 180 0 is_stmt 0 discriminator 1
 243 0064 7B69     		ldr	r3, [r7, #20]
 244 0066 292B     		cmp	r3, #41
 245 0068 D4D9     		bls	.L10
 190:Generated_Source\PSoC5/cyfitter_cfg.c **** 		}
 191:Generated_Source\PSoC5/cyfitter_cfg.c **** 	}
 192:Generated_Source\PSoC5/cyfitter_cfg.c **** }
 246              		.loc 1 192 0 is_stmt 1
 247 006a 00BF     		nop
 248 006c 1C37     		adds	r7, r7, #28
 249              		.cfi_def_cfa_offset 4
 250 006e BD46     		mov	sp, r7
 251              		.cfi_def_cfa_register 13
 252              		@ sp needed
 253 0070 80BC     		pop	{r7}
 254              		.cfi_restore 7
 255              		.cfi_def_cfa_offset 0
 256 0072 7047     		bx	lr
 257              		.cfi_endproc
 258              	.LFE4:
 259              		.size	cfg_write_bytes32, .-cfg_write_bytes32
 260              		.section	.text.ClockSetup,"ax",%progbits
 261              		.align	2
ARM GAS  C:\Users\r\AppData\Local\Temp\cc1ZHhx7.s 			page 9


 262              		.thumb
 263              		.thumb_func
 264              		.type	ClockSetup, %function
 265              	ClockSetup:
 266              	.LFB5:
 193:Generated_Source\PSoC5/cyfitter_cfg.c **** 
 194:Generated_Source\PSoC5/cyfitter_cfg.c **** /*******************************************************************************
 195:Generated_Source\PSoC5/cyfitter_cfg.c **** * Function Name: ClockSetup
 196:Generated_Source\PSoC5/cyfitter_cfg.c **** ********************************************************************************
 197:Generated_Source\PSoC5/cyfitter_cfg.c **** *
 198:Generated_Source\PSoC5/cyfitter_cfg.c **** * Summary:
 199:Generated_Source\PSoC5/cyfitter_cfg.c **** *  Performs the initialization of all of the clocks in the device based on the
 200:Generated_Source\PSoC5/cyfitter_cfg.c **** *  settings in the Clock tab of the DWR.  This includes enabling the requested
 201:Generated_Source\PSoC5/cyfitter_cfg.c **** *  clocks and setting the necessary dividers to produce the desired frequency. 
 202:Generated_Source\PSoC5/cyfitter_cfg.c **** *
 203:Generated_Source\PSoC5/cyfitter_cfg.c **** * Parameters:
 204:Generated_Source\PSoC5/cyfitter_cfg.c **** *  void
 205:Generated_Source\PSoC5/cyfitter_cfg.c **** *
 206:Generated_Source\PSoC5/cyfitter_cfg.c **** * Return:
 207:Generated_Source\PSoC5/cyfitter_cfg.c **** *  void
 208:Generated_Source\PSoC5/cyfitter_cfg.c **** *
 209:Generated_Source\PSoC5/cyfitter_cfg.c **** *******************************************************************************/
 210:Generated_Source\PSoC5/cyfitter_cfg.c **** static void ClockSetup(void);
 211:Generated_Source\PSoC5/cyfitter_cfg.c **** static void ClockSetup(void)
 212:Generated_Source\PSoC5/cyfitter_cfg.c **** {
 267              		.loc 1 212 0
 268              		.cfi_startproc
 269              		@ args = 0, pretend = 0, frame = 8
 270              		@ frame_needed = 1, uses_anonymous_args = 0
 271 0000 80B5     		push	{r7, lr}
 272              		.cfi_def_cfa_offset 8
 273              		.cfi_offset 7, -8
 274              		.cfi_offset 14, -4
 275 0002 82B0     		sub	sp, sp, #8
 276              		.cfi_def_cfa_offset 16
 277 0004 00AF     		add	r7, sp, #0
 278              		.cfi_def_cfa_register 7
 213:Generated_Source\PSoC5/cyfitter_cfg.c **** 	uint32 timeout;
 214:Generated_Source\PSoC5/cyfitter_cfg.c **** 	uint8 pllLock;
 215:Generated_Source\PSoC5/cyfitter_cfg.c **** 
 216:Generated_Source\PSoC5/cyfitter_cfg.c **** 
 217:Generated_Source\PSoC5/cyfitter_cfg.c **** 	/* Configure Digital Clocks based on settings from Clock DWR */
 218:Generated_Source\PSoC5/cyfitter_cfg.c **** 	CY_SET_XTND_REG16((void CYFAR *)(CYREG_CLKDIST_DCFG0_CFG0), 0x0000u);
 279              		.loc 1 218 0
 280 0006 3A4B     		ldr	r3, .L16
 281 0008 0022     		movs	r2, #0
 282 000a 1A80     		strh	r2, [r3]	@ movhi
 219:Generated_Source\PSoC5/cyfitter_cfg.c **** 	CY_SET_XTND_REG8((void CYFAR *)(CYREG_CLKDIST_DCFG0_CFG0 + 0x2u), 0x58u);
 283              		.loc 1 219 0
 284 000c 394B     		ldr	r3, .L16+4
 285 000e 5822     		movs	r2, #88
 286 0010 1A70     		strb	r2, [r3]
 220:Generated_Source\PSoC5/cyfitter_cfg.c **** 	CY_SET_XTND_REG16((void CYFAR *)(CYREG_CLKDIST_DCFG1_CFG0), 0x0001u);
 287              		.loc 1 220 0
 288 0012 394B     		ldr	r3, .L16+8
 289 0014 0122     		movs	r2, #1
 290 0016 1A80     		strh	r2, [r3]	@ movhi
ARM GAS  C:\Users\r\AppData\Local\Temp\cc1ZHhx7.s 			page 10


 221:Generated_Source\PSoC5/cyfitter_cfg.c **** 	CY_SET_XTND_REG8((void CYFAR *)(CYREG_CLKDIST_DCFG1_CFG0 + 0x2u), 0x18u);
 291              		.loc 1 221 0
 292 0018 384B     		ldr	r3, .L16+12
 293 001a 1822     		movs	r2, #24
 294 001c 1A70     		strb	r2, [r3]
 222:Generated_Source\PSoC5/cyfitter_cfg.c **** 	CY_SET_XTND_REG16((void CYFAR *)(CYREG_CLKDIST_DCFG2_CFG0), 0x0031u);
 295              		.loc 1 222 0
 296 001e 384B     		ldr	r3, .L16+16
 297 0020 3122     		movs	r2, #49
 298 0022 1A80     		strh	r2, [r3]	@ movhi
 223:Generated_Source\PSoC5/cyfitter_cfg.c **** 	CY_SET_XTND_REG8((void CYFAR *)(CYREG_CLKDIST_DCFG2_CFG0 + 0x2u), 0x18u);
 299              		.loc 1 223 0
 300 0024 374B     		ldr	r3, .L16+20
 301 0026 1822     		movs	r2, #24
 302 0028 1A70     		strb	r2, [r3]
 224:Generated_Source\PSoC5/cyfitter_cfg.c **** 	CY_SET_XTND_REG16((void CYFAR *)(CYREG_CLKDIST_DCFG3_CFG0), 0x1869u);
 303              		.loc 1 224 0
 304 002a 374B     		ldr	r3, .L16+24
 305 002c 41F66902 		movw	r2, #6249
 306 0030 1A80     		strh	r2, [r3]	@ movhi
 225:Generated_Source\PSoC5/cyfitter_cfg.c **** 	CY_SET_XTND_REG8((void CYFAR *)(CYREG_CLKDIST_DCFG3_CFG0 + 0x2u), 0x18u);
 307              		.loc 1 225 0
 308 0032 364B     		ldr	r3, .L16+28
 309 0034 1822     		movs	r2, #24
 310 0036 1A70     		strb	r2, [r3]
 226:Generated_Source\PSoC5/cyfitter_cfg.c **** 
 227:Generated_Source\PSoC5/cyfitter_cfg.c **** 	/* Configure ILO based on settings from Clock DWR */
 228:Generated_Source\PSoC5/cyfitter_cfg.c **** 	CY_SET_XTND_REG8((void CYFAR *)(CYREG_SLOWCLK_ILO_CR0), 0x06u);
 311              		.loc 1 228 0
 312 0038 354B     		ldr	r3, .L16+32
 313 003a 0622     		movs	r2, #6
 314 003c 1A70     		strb	r2, [r3]
 229:Generated_Source\PSoC5/cyfitter_cfg.c **** 
 230:Generated_Source\PSoC5/cyfitter_cfg.c **** 	/* Configure IMO based on settings from Clock DWR */
 231:Generated_Source\PSoC5/cyfitter_cfg.c **** 	CY_SET_XTND_REG8((void CYFAR *)(CYREG_FASTCLK_IMO_CR), 0x52u);
 315              		.loc 1 231 0
 316 003e 354B     		ldr	r3, .L16+36
 317 0040 5222     		movs	r2, #82
 318 0042 1A70     		strb	r2, [r3]
 232:Generated_Source\PSoC5/cyfitter_cfg.c **** 	CY_SET_XTND_REG8((void CYFAR *)(CYREG_IMO_TR1), (CY_GET_XTND_REG8((void CYFAR *)CYREG_FLSHID_CUST_
 319              		.loc 1 232 0
 320 0044 344B     		ldr	r3, .L16+40
 321 0046 354A     		ldr	r2, .L16+44
 322 0048 1278     		ldrb	r2, [r2]
 323 004a D2B2     		uxtb	r2, r2
 324 004c 1A70     		strb	r2, [r3]
 233:Generated_Source\PSoC5/cyfitter_cfg.c **** 
 234:Generated_Source\PSoC5/cyfitter_cfg.c **** 	/* Configure PLL based on settings from Clock DWR */
 235:Generated_Source\PSoC5/cyfitter_cfg.c **** 	CY_SET_XTND_REG16((void CYFAR *)(CYREG_FASTCLK_PLL_P), 0x0B19u);
 325              		.loc 1 235 0
 326 004e 344B     		ldr	r3, .L16+48
 327 0050 40F61932 		movw	r2, #2841
 328 0054 1A80     		strh	r2, [r3]	@ movhi
 236:Generated_Source\PSoC5/cyfitter_cfg.c **** 	CY_SET_XTND_REG16((void CYFAR *)(CYREG_FASTCLK_PLL_CFG0), 0x1251u);
 329              		.loc 1 236 0
 330 0056 334B     		ldr	r3, .L16+52
 331 0058 41F25122 		movw	r2, #4689
ARM GAS  C:\Users\r\AppData\Local\Temp\cc1ZHhx7.s 			page 11


 332 005c 1A80     		strh	r2, [r3]	@ movhi
 237:Generated_Source\PSoC5/cyfitter_cfg.c **** 	/* Wait up to 250us for the PLL to lock */
 238:Generated_Source\PSoC5/cyfitter_cfg.c **** 	pllLock = 0u;
 333              		.loc 1 238 0
 334 005e 0023     		movs	r3, #0
 335 0060 FB70     		strb	r3, [r7, #3]
 239:Generated_Source\PSoC5/cyfitter_cfg.c **** 	for (timeout = 250u / 10u; (timeout > 0u) && (pllLock != 0x03u); timeout--)
 336              		.loc 1 239 0
 337 0062 1923     		movs	r3, #25
 338 0064 7B60     		str	r3, [r7, #4]
 339 0066 14E0     		b	.L12
 340              	.L14:
 240:Generated_Source\PSoC5/cyfitter_cfg.c **** 	{ 
 241:Generated_Source\PSoC5/cyfitter_cfg.c **** 		pllLock = 0x03u & ((uint8)((uint8)pllLock << 1) | ((CY_GET_XTND_REG8((void CYFAR *)CYREG_FASTCLK_
 341              		.loc 1 241 0 discriminator 4
 342 0068 FB78     		ldrb	r3, [r7, #3]
 343 006a 5B00     		lsls	r3, r3, #1
 344 006c DAB2     		uxtb	r2, r3
 345 006e 2E4B     		ldr	r3, .L16+56
 346 0070 1B78     		ldrb	r3, [r3]
 347 0072 DBB2     		uxtb	r3, r3
 348 0074 03F00103 		and	r3, r3, #1
 349 0078 DBB2     		uxtb	r3, r3
 350 007a 1343     		orrs	r3, r3, r2
 351 007c DBB2     		uxtb	r3, r3
 352 007e 03F00303 		and	r3, r3, #3
 353 0082 FB70     		strb	r3, [r7, #3]
 242:Generated_Source\PSoC5/cyfitter_cfg.c **** 		CyDelayCycles(10u * 48u); /* Delay 10us based on 48MHz clock */
 354              		.loc 1 242 0 discriminator 4
 355 0084 4FF4F070 		mov	r0, #480
 356 0088 FFF7FEFF 		bl	CyDelayCycles
 239:Generated_Source\PSoC5/cyfitter_cfg.c **** 	for (timeout = 250u / 10u; (timeout > 0u) && (pllLock != 0x03u); timeout--)
 357              		.loc 1 239 0 discriminator 4
 358 008c 7B68     		ldr	r3, [r7, #4]
 359 008e 013B     		subs	r3, r3, #1
 360 0090 7B60     		str	r3, [r7, #4]
 361              	.L12:
 239:Generated_Source\PSoC5/cyfitter_cfg.c **** 	for (timeout = 250u / 10u; (timeout > 0u) && (pllLock != 0x03u); timeout--)
 362              		.loc 1 239 0 is_stmt 0 discriminator 1
 363 0092 7B68     		ldr	r3, [r7, #4]
 364 0094 002B     		cmp	r3, #0
 365 0096 02D0     		beq	.L13
 239:Generated_Source\PSoC5/cyfitter_cfg.c **** 	for (timeout = 250u / 10u; (timeout > 0u) && (pllLock != 0x03u); timeout--)
 366              		.loc 1 239 0 discriminator 3
 367 0098 FB78     		ldrb	r3, [r7, #3]	@ zero_extendqisi2
 368 009a 032B     		cmp	r3, #3
 369 009c E4D1     		bne	.L14
 370              	.L13:
 243:Generated_Source\PSoC5/cyfitter_cfg.c **** 	}
 244:Generated_Source\PSoC5/cyfitter_cfg.c **** 	/* If we ran out of time the PLL didn't lock so go to the error function */
 245:Generated_Source\PSoC5/cyfitter_cfg.c **** 	if (timeout == 0u)
 371              		.loc 1 245 0 is_stmt 1
 372 009e 7B68     		ldr	r3, [r7, #4]
 373 00a0 002B     		cmp	r3, #0
 374 00a2 02D1     		bne	.L15
 246:Generated_Source\PSoC5/cyfitter_cfg.c **** 	{
 247:Generated_Source\PSoC5/cyfitter_cfg.c **** 		CyClockStartupError(CYCLOCKSTART_PLL_ERROR);
ARM GAS  C:\Users\r\AppData\Local\Temp\cc1ZHhx7.s 			page 12


 375              		.loc 1 247 0
 376 00a4 0320     		movs	r0, #3
 377 00a6 FFF7FEFF 		bl	CyClockStartupError
 378              	.L15:
 248:Generated_Source\PSoC5/cyfitter_cfg.c **** 	}
 249:Generated_Source\PSoC5/cyfitter_cfg.c **** 
 250:Generated_Source\PSoC5/cyfitter_cfg.c **** 	/* Configure Bus/Master Clock based on settings from Clock DWR */
 251:Generated_Source\PSoC5/cyfitter_cfg.c **** 	CY_SET_XTND_REG16((void CYFAR *)(CYREG_CLKDIST_MSTR0), 0x0100u);
 379              		.loc 1 251 0
 380 00aa 204B     		ldr	r3, .L16+60
 381 00ac 4FF48072 		mov	r2, #256
 382 00b0 1A80     		strh	r2, [r3]	@ movhi
 252:Generated_Source\PSoC5/cyfitter_cfg.c **** 	CY_SET_XTND_REG8((void CYFAR *)(CYREG_CLKDIST_MSTR0), 0x07u);
 383              		.loc 1 252 0
 384 00b2 1E4B     		ldr	r3, .L16+60
 385 00b4 0722     		movs	r2, #7
 386 00b6 1A70     		strb	r2, [r3]
 253:Generated_Source\PSoC5/cyfitter_cfg.c **** 	CY_SET_XTND_REG8((void CYFAR *)(CYREG_CLKDIST_BCFG0), 0x00u);
 387              		.loc 1 253 0
 388 00b8 1D4B     		ldr	r3, .L16+64
 389 00ba 0022     		movs	r2, #0
 390 00bc 1A70     		strb	r2, [r3]
 254:Generated_Source\PSoC5/cyfitter_cfg.c **** 	CY_SET_XTND_REG8((void CYFAR *)(CYREG_CLKDIST_BCFG2), 0x48u);
 391              		.loc 1 254 0
 392 00be 1D4B     		ldr	r3, .L16+68
 393 00c0 4822     		movs	r2, #72
 394 00c2 1A70     		strb	r2, [r3]
 255:Generated_Source\PSoC5/cyfitter_cfg.c **** 	CY_SET_XTND_REG8((void CYFAR *)(CYREG_CLKDIST_MSTR0), 0x00u);
 395              		.loc 1 255 0
 396 00c4 194B     		ldr	r3, .L16+60
 397 00c6 0022     		movs	r2, #0
 398 00c8 1A70     		strb	r2, [r3]
 256:Generated_Source\PSoC5/cyfitter_cfg.c **** 
 257:Generated_Source\PSoC5/cyfitter_cfg.c **** 	/* Configure USB Clock based on settings from Clock DWR */
 258:Generated_Source\PSoC5/cyfitter_cfg.c **** 	CY_SET_XTND_REG8((void CYFAR *)(CYREG_CLKDIST_UCFG), 0x00u);
 399              		.loc 1 258 0
 400 00ca 1B4B     		ldr	r3, .L16+72
 401 00cc 0022     		movs	r2, #0
 402 00ce 1A70     		strb	r2, [r3]
 259:Generated_Source\PSoC5/cyfitter_cfg.c **** 	CY_SET_XTND_REG8((void CYFAR *)(CYREG_CLKDIST_LD), 0x02u);
 403              		.loc 1 259 0
 404 00d0 1A4B     		ldr	r3, .L16+76
 405 00d2 0222     		movs	r2, #2
 406 00d4 1A70     		strb	r2, [r3]
 260:Generated_Source\PSoC5/cyfitter_cfg.c **** 
 261:Generated_Source\PSoC5/cyfitter_cfg.c **** 	CY_SET_XTND_REG8((void CYFAR *)(CYREG_PM_ACT_CFG2), ((CY_GET_XTND_REG8((void CYFAR *)CYREG_PM_ACT_
 407              		.loc 1 261 0
 408 00d6 1A4A     		ldr	r2, .L16+80
 409 00d8 194B     		ldr	r3, .L16+80
 410 00da 1B78     		ldrb	r3, [r3]
 411 00dc DBB2     		uxtb	r3, r3
 412 00de 43F00F03 		orr	r3, r3, #15
 413 00e2 DBB2     		uxtb	r3, r3
 414 00e4 1370     		strb	r3, [r2]
 262:Generated_Source\PSoC5/cyfitter_cfg.c **** }
 415              		.loc 1 262 0
 416 00e6 00BF     		nop
ARM GAS  C:\Users\r\AppData\Local\Temp\cc1ZHhx7.s 			page 13


 417 00e8 0837     		adds	r7, r7, #8
 418              		.cfi_def_cfa_offset 8
 419 00ea BD46     		mov	sp, r7
 420              		.cfi_def_cfa_register 13
 421              		@ sp needed
 422 00ec 80BD     		pop	{r7, pc}
 423              	.L17:
 424 00ee 00BF     		.align	2
 425              	.L16:
 426 00f0 80400040 		.word	1073758336
 427 00f4 82400040 		.word	1073758338
 428 00f8 84400040 		.word	1073758340
 429 00fc 86400040 		.word	1073758342
 430 0100 88400040 		.word	1073758344
 431 0104 8A400040 		.word	1073758346
 432 0108 8C400040 		.word	1073758348
 433 010c 8E400040 		.word	1073758350
 434 0110 00430040 		.word	1073758976
 435 0114 00420040 		.word	1073758720
 436 0118 A1460040 		.word	1073759905
 437 011c 0F010049 		.word	1224737039
 438 0120 22420040 		.word	1073758754
 439 0124 20420040 		.word	1073758752
 440 0128 25420040 		.word	1073758757
 441 012c 04400040 		.word	1073758212
 442 0130 06400040 		.word	1073758214
 443 0134 08400040 		.word	1073758216
 444 0138 09400040 		.word	1073758217
 445 013c 01400040 		.word	1073758209
 446 0140 A2430040 		.word	1073759138
 447              		.cfi_endproc
 448              	.LFE5:
 449              		.size	ClockSetup, .-ClockSetup
 450              		.section	.text.AnalogSetDefault,"ax",%progbits
 451              		.align	2
 452              		.thumb
 453              		.thumb_func
 454              		.type	AnalogSetDefault, %function
 455              	AnalogSetDefault:
 456              	.LFB6:
 263:Generated_Source\PSoC5/cyfitter_cfg.c **** 
 264:Generated_Source\PSoC5/cyfitter_cfg.c **** 
 265:Generated_Source\PSoC5/cyfitter_cfg.c **** /* Analog API Functions */
 266:Generated_Source\PSoC5/cyfitter_cfg.c **** 
 267:Generated_Source\PSoC5/cyfitter_cfg.c **** 
 268:Generated_Source\PSoC5/cyfitter_cfg.c **** /*******************************************************************************
 269:Generated_Source\PSoC5/cyfitter_cfg.c **** * Function Name: AnalogSetDefault
 270:Generated_Source\PSoC5/cyfitter_cfg.c **** ********************************************************************************
 271:Generated_Source\PSoC5/cyfitter_cfg.c **** *
 272:Generated_Source\PSoC5/cyfitter_cfg.c **** * Summary:
 273:Generated_Source\PSoC5/cyfitter_cfg.c **** *  Sets up the analog portions of the chip to default values based on chip
 274:Generated_Source\PSoC5/cyfitter_cfg.c **** *  configuration options from the project.
 275:Generated_Source\PSoC5/cyfitter_cfg.c **** *
 276:Generated_Source\PSoC5/cyfitter_cfg.c **** * Parameters:
 277:Generated_Source\PSoC5/cyfitter_cfg.c **** *  void
 278:Generated_Source\PSoC5/cyfitter_cfg.c **** *
 279:Generated_Source\PSoC5/cyfitter_cfg.c **** * Return:
ARM GAS  C:\Users\r\AppData\Local\Temp\cc1ZHhx7.s 			page 14


 280:Generated_Source\PSoC5/cyfitter_cfg.c **** *  void
 281:Generated_Source\PSoC5/cyfitter_cfg.c **** *
 282:Generated_Source\PSoC5/cyfitter_cfg.c **** *******************************************************************************/
 283:Generated_Source\PSoC5/cyfitter_cfg.c **** static void AnalogSetDefault(void);
 284:Generated_Source\PSoC5/cyfitter_cfg.c **** static void AnalogSetDefault(void)
 285:Generated_Source\PSoC5/cyfitter_cfg.c **** {
 457              		.loc 1 285 0
 458              		.cfi_startproc
 459              		@ args = 0, pretend = 0, frame = 8
 460              		@ frame_needed = 1, uses_anonymous_args = 0
 461              		@ link register save eliminated.
 462 0000 80B4     		push	{r7}
 463              		.cfi_def_cfa_offset 4
 464              		.cfi_offset 7, -4
 465 0002 83B0     		sub	sp, sp, #12
 466              		.cfi_def_cfa_offset 16
 467 0004 00AF     		add	r7, sp, #0
 468              		.cfi_def_cfa_register 7
 286:Generated_Source\PSoC5/cyfitter_cfg.c **** 	uint8 bg_xover_inl_trim = CY_GET_XTND_REG8((void CYFAR *)(CYREG_FLSHID_MFG_CFG_BG_XOVER_INL_TRIM +
 469              		.loc 1 286 0
 470 0006 124B     		ldr	r3, .L19
 471 0008 1B78     		ldrb	r3, [r3]
 472 000a FB71     		strb	r3, [r7, #7]
 287:Generated_Source\PSoC5/cyfitter_cfg.c **** 	CY_SET_XTND_REG8((void CYFAR *)(CYREG_BG_DFT0), (bg_xover_inl_trim & 0x07u));
 473              		.loc 1 287 0
 474 000c 114A     		ldr	r2, .L19+4
 475 000e FB79     		ldrb	r3, [r7, #7]
 476 0010 03F00703 		and	r3, r3, #7
 477 0014 DBB2     		uxtb	r3, r3
 478 0016 1370     		strb	r3, [r2]
 288:Generated_Source\PSoC5/cyfitter_cfg.c **** 	CY_SET_XTND_REG8((void CYFAR *)(CYREG_BG_DFT1), ((bg_xover_inl_trim >> 4) & 0x0Fu));
 479              		.loc 1 288 0
 480 0018 0F4A     		ldr	r2, .L19+8
 481 001a FB79     		ldrb	r3, [r7, #7]	@ zero_extendqisi2
 482 001c 1B09     		lsrs	r3, r3, #4
 483 001e DBB2     		uxtb	r3, r3
 484 0020 1370     		strb	r3, [r2]
 289:Generated_Source\PSoC5/cyfitter_cfg.c **** 	CY_SET_XTND_REG8((void CYFAR *)CYREG_PRT0_AG, 0x01u);
 485              		.loc 1 289 0
 486 0022 0E4B     		ldr	r3, .L19+12
 487 0024 0122     		movs	r2, #1
 488 0026 1A70     		strb	r2, [r3]
 290:Generated_Source\PSoC5/cyfitter_cfg.c **** 	CY_SET_XTND_REG8((void CYFAR *)CYREG_LPF0_CR0, 0x05u);
 489              		.loc 1 290 0
 490 0028 0D4B     		ldr	r3, .L19+16
 491 002a 0522     		movs	r2, #5
 492 002c 1A70     		strb	r2, [r3]
 291:Generated_Source\PSoC5/cyfitter_cfg.c **** 	CY_SET_XTND_REG8((void CYFAR *)CYREG_DAC0_SW0, 0x01u);
 493              		.loc 1 291 0
 494 002e 0D4B     		ldr	r3, .L19+20
 495 0030 0122     		movs	r2, #1
 496 0032 1A70     		strb	r2, [r3]
 292:Generated_Source\PSoC5/cyfitter_cfg.c **** 	CY_SET_XTND_REG8((void CYFAR *)CYREG_DAC2_SW0, 0x10u);
 497              		.loc 1 292 0
 498 0034 0C4B     		ldr	r3, .L19+24
 499 0036 1022     		movs	r2, #16
 500 0038 1A70     		strb	r2, [r3]
ARM GAS  C:\Users\r\AppData\Local\Temp\cc1ZHhx7.s 			page 15


 293:Generated_Source\PSoC5/cyfitter_cfg.c **** 	CY_SET_XTND_REG8((void CYFAR *)CYREG_DAC2_SW2, 0x01u);
 501              		.loc 1 293 0
 502 003a 0C4B     		ldr	r3, .L19+28
 503 003c 0122     		movs	r2, #1
 504 003e 1A70     		strb	r2, [r3]
 294:Generated_Source\PSoC5/cyfitter_cfg.c **** 	CY_SET_XTND_REG8((void CYFAR *)CYREG_PUMP_CR0, 0x44u);
 505              		.loc 1 294 0
 506 0040 0B4B     		ldr	r3, .L19+32
 507 0042 4422     		movs	r2, #68
 508 0044 1A70     		strb	r2, [r3]
 295:Generated_Source\PSoC5/cyfitter_cfg.c **** }
 509              		.loc 1 295 0
 510 0046 00BF     		nop
 511 0048 0C37     		adds	r7, r7, #12
 512              		.cfi_def_cfa_offset 4
 513 004a BD46     		mov	sp, r7
 514              		.cfi_def_cfa_register 13
 515              		@ sp needed
 516 004c 80BC     		pop	{r7}
 517              		.cfi_restore 7
 518              		.cfi_def_cfa_offset 0
 519 004e 7047     		bx	lr
 520              	.L20:
 521              		.align	2
 522              	.L19:
 523 0050 CF010049 		.word	1224737231
 524 0054 6E580040 		.word	1073764462
 525 0058 6F580040 		.word	1073764463
 526 005c 0D510040 		.word	1073762573
 527 0060 78580040 		.word	1073764472
 528 0064 805A0040 		.word	1073764992
 529 0068 905A0040 		.word	1073765008
 530 006c 925A0040 		.word	1073765010
 531 0070 76580040 		.word	1073764470
 532              		.cfi_endproc
 533              	.LFE6:
 534              		.size	AnalogSetDefault, .-AnalogSetDefault
 535              		.section	.text.SetAnalogRoutingPumps,"ax",%progbits
 536              		.align	2
 537              		.global	SetAnalogRoutingPumps
 538              		.thumb
 539              		.thumb_func
 540              		.type	SetAnalogRoutingPumps, %function
 541              	SetAnalogRoutingPumps:
 542              	.LFB7:
 296:Generated_Source\PSoC5/cyfitter_cfg.c **** 
 297:Generated_Source\PSoC5/cyfitter_cfg.c **** 
 298:Generated_Source\PSoC5/cyfitter_cfg.c **** /*******************************************************************************
 299:Generated_Source\PSoC5/cyfitter_cfg.c **** * Function Name: SetAnalogRoutingPumps
 300:Generated_Source\PSoC5/cyfitter_cfg.c **** ********************************************************************************
 301:Generated_Source\PSoC5/cyfitter_cfg.c **** *
 302:Generated_Source\PSoC5/cyfitter_cfg.c **** * Summary:
 303:Generated_Source\PSoC5/cyfitter_cfg.c **** * Enables or disables the analog pumps feeding analog routing switches.
 304:Generated_Source\PSoC5/cyfitter_cfg.c **** * Intended to be called at startup, based on the Vdda system configuration;
 305:Generated_Source\PSoC5/cyfitter_cfg.c **** * may be called during operation when the user informs us that the Vdda voltage
 306:Generated_Source\PSoC5/cyfitter_cfg.c **** * crossed the pump threshold.
 307:Generated_Source\PSoC5/cyfitter_cfg.c **** *
ARM GAS  C:\Users\r\AppData\Local\Temp\cc1ZHhx7.s 			page 16


 308:Generated_Source\PSoC5/cyfitter_cfg.c **** * Parameters:
 309:Generated_Source\PSoC5/cyfitter_cfg.c **** *  enabled - 1 to enable the pumps, 0 to disable the pumps
 310:Generated_Source\PSoC5/cyfitter_cfg.c **** *
 311:Generated_Source\PSoC5/cyfitter_cfg.c **** * Return:
 312:Generated_Source\PSoC5/cyfitter_cfg.c **** *  void
 313:Generated_Source\PSoC5/cyfitter_cfg.c **** *
 314:Generated_Source\PSoC5/cyfitter_cfg.c **** *******************************************************************************/
 315:Generated_Source\PSoC5/cyfitter_cfg.c **** void SetAnalogRoutingPumps(uint8 enabled)
 316:Generated_Source\PSoC5/cyfitter_cfg.c **** {
 543              		.loc 1 316 0
 544              		.cfi_startproc
 545              		@ args = 0, pretend = 0, frame = 16
 546              		@ frame_needed = 1, uses_anonymous_args = 0
 547              		@ link register save eliminated.
 548 0000 80B4     		push	{r7}
 549              		.cfi_def_cfa_offset 4
 550              		.cfi_offset 7, -4
 551 0002 85B0     		sub	sp, sp, #20
 552              		.cfi_def_cfa_offset 24
 553 0004 00AF     		add	r7, sp, #0
 554              		.cfi_def_cfa_register 7
 555 0006 0346     		mov	r3, r0
 556 0008 FB71     		strb	r3, [r7, #7]
 317:Generated_Source\PSoC5/cyfitter_cfg.c **** 	uint8 regValue = CY_GET_XTND_REG8((void CYFAR *)CYREG_PUMP_CR0);
 557              		.loc 1 317 0
 558 000a 0B4B     		ldr	r3, .L24
 559 000c 1B78     		ldrb	r3, [r3]
 560 000e FB73     		strb	r3, [r7, #15]
 318:Generated_Source\PSoC5/cyfitter_cfg.c **** 	if (enabled != 0u)
 561              		.loc 1 318 0
 562 0010 FB79     		ldrb	r3, [r7, #7]	@ zero_extendqisi2
 563 0012 002B     		cmp	r3, #0
 564 0014 04D0     		beq	.L22
 319:Generated_Source\PSoC5/cyfitter_cfg.c **** 	{
 320:Generated_Source\PSoC5/cyfitter_cfg.c **** 		regValue |= 0x22u;
 565              		.loc 1 320 0
 566 0016 FB7B     		ldrb	r3, [r7, #15]
 567 0018 43F02203 		orr	r3, r3, #34
 568 001c FB73     		strb	r3, [r7, #15]
 569 001e 03E0     		b	.L23
 570              	.L22:
 321:Generated_Source\PSoC5/cyfitter_cfg.c **** 	}
 322:Generated_Source\PSoC5/cyfitter_cfg.c **** 	else
 323:Generated_Source\PSoC5/cyfitter_cfg.c **** 	{
 324:Generated_Source\PSoC5/cyfitter_cfg.c **** 		regValue &= (uint8)~0x22u;
 571              		.loc 1 324 0
 572 0020 FB7B     		ldrb	r3, [r7, #15]
 573 0022 23F02203 		bic	r3, r3, #34
 574 0026 FB73     		strb	r3, [r7, #15]
 575              	.L23:
 325:Generated_Source\PSoC5/cyfitter_cfg.c **** 	}
 326:Generated_Source\PSoC5/cyfitter_cfg.c **** 	CY_SET_XTND_REG8((void CYFAR *)CYREG_PUMP_CR0, regValue);
 576              		.loc 1 326 0
 577 0028 034A     		ldr	r2, .L24
 578 002a FB7B     		ldrb	r3, [r7, #15]
 579 002c 1370     		strb	r3, [r2]
 327:Generated_Source\PSoC5/cyfitter_cfg.c **** }
ARM GAS  C:\Users\r\AppData\Local\Temp\cc1ZHhx7.s 			page 17


 580              		.loc 1 327 0
 581 002e 00BF     		nop
 582 0030 1437     		adds	r7, r7, #20
 583              		.cfi_def_cfa_offset 4
 584 0032 BD46     		mov	sp, r7
 585              		.cfi_def_cfa_register 13
 586              		@ sp needed
 587 0034 80BC     		pop	{r7}
 588              		.cfi_restore 7
 589              		.cfi_def_cfa_offset 0
 590 0036 7047     		bx	lr
 591              	.L25:
 592              		.align	2
 593              	.L24:
 594 0038 76580040 		.word	1073764470
 595              		.cfi_endproc
 596              	.LFE7:
 597              		.size	SetAnalogRoutingPumps, .-SetAnalogRoutingPumps
 598              		.section	.text.cyfitter_cfg,"ax",%progbits
 599              		.align	2
 600              		.global	cyfitter_cfg
 601              		.thumb
 602              		.thumb_func
 603              		.type	cyfitter_cfg, %function
 604              	cyfitter_cfg:
 605              	.LFB8:
 328:Generated_Source\PSoC5/cyfitter_cfg.c **** 
 329:Generated_Source\PSoC5/cyfitter_cfg.c **** 
 330:Generated_Source\PSoC5/cyfitter_cfg.c **** 
 331:Generated_Source\PSoC5/cyfitter_cfg.c **** 
 332:Generated_Source\PSoC5/cyfitter_cfg.c **** /*******************************************************************************
 333:Generated_Source\PSoC5/cyfitter_cfg.c **** * Function Name: cyfitter_cfg
 334:Generated_Source\PSoC5/cyfitter_cfg.c **** ********************************************************************************
 335:Generated_Source\PSoC5/cyfitter_cfg.c **** * Summary:
 336:Generated_Source\PSoC5/cyfitter_cfg.c **** *  This function is called by the start-up code for the selected device. It
 337:Generated_Source\PSoC5/cyfitter_cfg.c **** *  performs all of the necessary device configuration based on the design
 338:Generated_Source\PSoC5/cyfitter_cfg.c **** *  settings.  This includes settings from the Design Wide Resources (DWR) such
 339:Generated_Source\PSoC5/cyfitter_cfg.c **** *  as Clocks and Pins as well as any component configuration that is necessary.
 340:Generated_Source\PSoC5/cyfitter_cfg.c **** *
 341:Generated_Source\PSoC5/cyfitter_cfg.c **** * Parameters:
 342:Generated_Source\PSoC5/cyfitter_cfg.c **** *   void
 343:Generated_Source\PSoC5/cyfitter_cfg.c **** *
 344:Generated_Source\PSoC5/cyfitter_cfg.c **** * Return:
 345:Generated_Source\PSoC5/cyfitter_cfg.c **** *   void
 346:Generated_Source\PSoC5/cyfitter_cfg.c **** *
 347:Generated_Source\PSoC5/cyfitter_cfg.c **** *******************************************************************************/
 348:Generated_Source\PSoC5/cyfitter_cfg.c **** 
 349:Generated_Source\PSoC5/cyfitter_cfg.c **** void cyfitter_cfg(void)
 350:Generated_Source\PSoC5/cyfitter_cfg.c **** {
 606              		.loc 1 350 0
 607              		.cfi_startproc
 608              		@ args = 0, pretend = 0, frame = 24
 609              		@ frame_needed = 1, uses_anonymous_args = 0
 610 0000 80B5     		push	{r7, lr}
 611              		.cfi_def_cfa_offset 8
 612              		.cfi_offset 7, -8
 613              		.cfi_offset 14, -4
ARM GAS  C:\Users\r\AppData\Local\Temp\cc1ZHhx7.s 			page 18


 614 0002 86B0     		sub	sp, sp, #24
 615              		.cfi_def_cfa_offset 32
 616 0004 00AF     		add	r7, sp, #0
 617              		.cfi_def_cfa_register 7
 351:Generated_Source\PSoC5/cyfitter_cfg.c **** 	/* IOPINS0_0 Address: CYREG_PRT0_DR Size (bytes): 10 */
 352:Generated_Source\PSoC5/cyfitter_cfg.c **** 	static const uint8 CYCODE BS_IOPINS0_0_VAL[] = {
 353:Generated_Source\PSoC5/cyfitter_cfg.c **** 		0x02u, 0x00u, 0x30u, 0xCEu, 0xCEu, 0x00u, 0x4Cu, 0x00u, 0x01u, 0x01u};
 354:Generated_Source\PSoC5/cyfitter_cfg.c **** 
 355:Generated_Source\PSoC5/cyfitter_cfg.c **** 	/* IOPINS0_7 Address: CYREG_PRT12_DM0 Size (bytes): 8 */
 356:Generated_Source\PSoC5/cyfitter_cfg.c **** 	static const uint8 CYCODE BS_IOPINS0_7_VAL[] = {
 357:Generated_Source\PSoC5/cyfitter_cfg.c **** 		0x30u, 0x00u, 0x00u, 0x00u, 0x00u, 0x00u, 0x00u, 0x00u};
 358:Generated_Source\PSoC5/cyfitter_cfg.c **** 
 359:Generated_Source\PSoC5/cyfitter_cfg.c **** 	/* IOPINS1_7 Address: CYREG_PRT12_DM0 + 0x00000009u Size (bytes): 5 */
 360:Generated_Source\PSoC5/cyfitter_cfg.c **** 	static const uint8 CYCODE BS_IOPINS1_7_VAL[] = {
 361:Generated_Source\PSoC5/cyfitter_cfg.c **** 		0x00u, 0x00u, 0x00u, 0x00u, 0x10u};
 362:Generated_Source\PSoC5/cyfitter_cfg.c **** 
 363:Generated_Source\PSoC5/cyfitter_cfg.c **** 	/* IOPINS0_8 Address: CYREG_PRT15_DR Size (bytes): 10 */
 364:Generated_Source\PSoC5/cyfitter_cfg.c **** 	static const uint8 CYCODE BS_IOPINS0_8_VAL[] = {
 365:Generated_Source\PSoC5/cyfitter_cfg.c **** 		0x40u, 0x00u, 0x00u, 0x30u, 0x30u, 0x00u, 0x20u, 0x00u, 0xC0u, 0x00u};
 366:Generated_Source\PSoC5/cyfitter_cfg.c **** 
 367:Generated_Source\PSoC5/cyfitter_cfg.c **** 	/* IOPINS0_1 Address: CYREG_PRT1_DM0 Size (bytes): 8 */
 368:Generated_Source\PSoC5/cyfitter_cfg.c **** 	static const uint8 CYCODE BS_IOPINS0_1_VAL[] = {
 369:Generated_Source\PSoC5/cyfitter_cfg.c **** 		0x00u, 0x0Bu, 0x0Bu, 0x00u, 0x00u, 0x00u, 0x00u, 0x00u};
 370:Generated_Source\PSoC5/cyfitter_cfg.c **** 
 371:Generated_Source\PSoC5/cyfitter_cfg.c **** 	/* IOPINS0_2 Address: CYREG_PRT2_DM0 Size (bytes): 8 */
 372:Generated_Source\PSoC5/cyfitter_cfg.c **** 	static const uint8 CYCODE BS_IOPINS0_2_VAL[] = {
 373:Generated_Source\PSoC5/cyfitter_cfg.c **** 		0x33u, 0xCCu, 0xCCu, 0x00u, 0xCCu, 0x00u, 0x00u, 0x01u};
 374:Generated_Source\PSoC5/cyfitter_cfg.c **** 
 375:Generated_Source\PSoC5/cyfitter_cfg.c **** 	/* IOPINS0_3 Address: CYREG_PRT3_DR Size (bytes): 10 */
 376:Generated_Source\PSoC5/cyfitter_cfg.c **** 	static const uint8 CYCODE BS_IOPINS0_3_VAL[] = {
 377:Generated_Source\PSoC5/cyfitter_cfg.c **** 		0x10u, 0x00u, 0x22u, 0x1Cu, 0x1Cu, 0x00u, 0x0Cu, 0x00u, 0x00u, 0x01u};
 378:Generated_Source\PSoC5/cyfitter_cfg.c **** 
 379:Generated_Source\PSoC5/cyfitter_cfg.c **** 	/* IOPINS0_4 Address: CYREG_PRT4_DM0 Size (bytes): 8 */
 380:Generated_Source\PSoC5/cyfitter_cfg.c **** 	static const uint8 CYCODE BS_IOPINS0_4_VAL[] = {
 381:Generated_Source\PSoC5/cyfitter_cfg.c **** 		0xCCu, 0x30u, 0x30u, 0x00u, 0x10u, 0x00u, 0x00u, 0x01u};
 382:Generated_Source\PSoC5/cyfitter_cfg.c **** 
 383:Generated_Source\PSoC5/cyfitter_cfg.c **** 	/* IOPINS0_5 Address: CYREG_PRT5_DM0 Size (bytes): 8 */
 384:Generated_Source\PSoC5/cyfitter_cfg.c **** 	static const uint8 CYCODE BS_IOPINS0_5_VAL[] = {
 385:Generated_Source\PSoC5/cyfitter_cfg.c **** 		0x0Cu, 0x03u, 0x03u, 0x00u, 0x03u, 0x00u, 0x00u, 0x01u};
 386:Generated_Source\PSoC5/cyfitter_cfg.c **** 
 387:Generated_Source\PSoC5/cyfitter_cfg.c **** 	/* IOPINS0_6 Address: CYREG_PRT6_DM0 Size (bytes): 8 */
 388:Generated_Source\PSoC5/cyfitter_cfg.c **** 	static const uint8 CYCODE BS_IOPINS0_6_VAL[] = {
 389:Generated_Source\PSoC5/cyfitter_cfg.c **** 		0xCCu, 0x33u, 0x33u, 0x00u, 0x30u, 0x00u, 0x00u, 0x01u};
 390:Generated_Source\PSoC5/cyfitter_cfg.c **** 
 391:Generated_Source\PSoC5/cyfitter_cfg.c **** 	/* PHUB_CFGMEM1 Address: CYREG_PHUB_CFGMEM1_CFG0 Size (bytes): 4 */
 392:Generated_Source\PSoC5/cyfitter_cfg.c **** 	static const uint8 CYCODE BS_PHUB_CFGMEM1_VAL[] = {
 393:Generated_Source\PSoC5/cyfitter_cfg.c **** 		0x00u, 0x01u, 0x00u, 0x00u};
 394:Generated_Source\PSoC5/cyfitter_cfg.c **** 
 395:Generated_Source\PSoC5/cyfitter_cfg.c **** 	/* PHUB_CFGMEM2 Address: CYREG_PHUB_CFGMEM2_CFG0 Size (bytes): 4 */
 396:Generated_Source\PSoC5/cyfitter_cfg.c **** 	static const uint8 CYCODE BS_PHUB_CFGMEM2_VAL[] = {
 397:Generated_Source\PSoC5/cyfitter_cfg.c **** 		0x00u, 0x02u, 0x00u, 0x00u};
 398:Generated_Source\PSoC5/cyfitter_cfg.c **** 
 399:Generated_Source\PSoC5/cyfitter_cfg.c **** 	/* PHUB_CFGMEM3 Address: CYREG_PHUB_CFGMEM3_CFG0 Size (bytes): 4 */
 400:Generated_Source\PSoC5/cyfitter_cfg.c **** 	static const uint8 CYCODE BS_PHUB_CFGMEM3_VAL[] = {
 401:Generated_Source\PSoC5/cyfitter_cfg.c **** 		0x00u, 0x03u, 0x00u, 0x00u};
 402:Generated_Source\PSoC5/cyfitter_cfg.c **** 
 403:Generated_Source\PSoC5/cyfitter_cfg.c **** #ifdef CYGlobalIntDisable
ARM GAS  C:\Users\r\AppData\Local\Temp\cc1ZHhx7.s 			page 19


 404:Generated_Source\PSoC5/cyfitter_cfg.c **** 	/* Disable interrupts by default. Let user enable if/when they want. */
 405:Generated_Source\PSoC5/cyfitter_cfg.c **** 	CYGlobalIntDisable
 618              		.loc 1 405 0
 619              		.syntax unified
 620              	@ 405 "Generated_Source\PSoC5\cyfitter_cfg.c" 1
 621 0006 72B6     		CPSID   i
 622              	@ 0 "" 2
 406:Generated_Source\PSoC5/cyfitter_cfg.c **** #endif
 407:Generated_Source\PSoC5/cyfitter_cfg.c **** 
 408:Generated_Source\PSoC5/cyfitter_cfg.c **** 
 409:Generated_Source\PSoC5/cyfitter_cfg.c **** 	/* Set Flash Cycles based on max possible frequency in case a glitch occurs during ClockSetup(). *
 410:Generated_Source\PSoC5/cyfitter_cfg.c **** 	CY_SET_XTND_REG8((void CYFAR *)(CYREG_CACHE_CC_CTL), (((CYDEV_INSTRUCT_CACHE_ENABLED) != 0) ? 0x61
 623              		.loc 1 410 0
 624              		.thumb
 625              		.syntax unified
 626 0008 644B     		ldr	r3, .L31
 627 000a 6122     		movs	r2, #97
 628 000c 1A70     		strb	r2, [r3]
 411:Generated_Source\PSoC5/cyfitter_cfg.c **** 	/* Setup clocks based on selections from Clock DWR */
 412:Generated_Source\PSoC5/cyfitter_cfg.c **** 	ClockSetup();
 629              		.loc 1 412 0
 630 000e FFF7FEFF 		bl	ClockSetup
 413:Generated_Source\PSoC5/cyfitter_cfg.c **** 	/* Set Flash Cycles based on newly configured 50.00MHz Bus Clock. */
 414:Generated_Source\PSoC5/cyfitter_cfg.c **** 	CY_SET_XTND_REG8((void CYFAR *)(CYREG_CACHE_CC_CTL), (((CYDEV_INSTRUCT_CACHE_ENABLED) != 0) ? 0xC1
 631              		.loc 1 414 0
 632 0012 624B     		ldr	r3, .L31
 633 0014 C122     		movs	r2, #193
 634 0016 1A70     		strb	r2, [r3]
 415:Generated_Source\PSoC5/cyfitter_cfg.c **** 	/* Enable/Disable Debug functionality based on settings from System DWR */
 416:Generated_Source\PSoC5/cyfitter_cfg.c **** 	CY_SET_XTND_REG8((void CYFAR *)CYREG_MLOGIC_DEBUG, (CY_GET_XTND_REG8((void CYFAR *)CYREG_MLOGIC_DE
 635              		.loc 1 416 0
 636 0018 614A     		ldr	r2, .L31+4
 637 001a 614B     		ldr	r3, .L31+4
 638 001c 1B78     		ldrb	r3, [r3]
 639 001e DBB2     		uxtb	r3, r3
 640 0020 43F00403 		orr	r3, r3, #4
 641 0024 DBB2     		uxtb	r3, r3
 642 0026 1370     		strb	r3, [r2]
 643              	.LBB3:
 417:Generated_Source\PSoC5/cyfitter_cfg.c **** 
 418:Generated_Source\PSoC5/cyfitter_cfg.c **** 	{
 419:Generated_Source\PSoC5/cyfitter_cfg.c **** 		static const uint32 CYCODE cy_cfg_addr_table[] = {
 420:Generated_Source\PSoC5/cyfitter_cfg.c **** 			0x40004501u, /* Base address: 0x40004500 Count: 1 */
 421:Generated_Source\PSoC5/cyfitter_cfg.c **** 			0x40004F02u, /* Base address: 0x40004F00 Count: 2 */
 422:Generated_Source\PSoC5/cyfitter_cfg.c **** 			0x4000520Fu, /* Base address: 0x40005200 Count: 15 */
 423:Generated_Source\PSoC5/cyfitter_cfg.c **** 			0x40006401u, /* Base address: 0x40006400 Count: 1 */
 424:Generated_Source\PSoC5/cyfitter_cfg.c **** 			0x40006501u, /* Base address: 0x40006500 Count: 1 */
 425:Generated_Source\PSoC5/cyfitter_cfg.c **** 			0x4001003Eu, /* Base address: 0x40010000 Count: 62 */
 426:Generated_Source\PSoC5/cyfitter_cfg.c **** 			0x4001013Eu, /* Base address: 0x40010100 Count: 62 */
 427:Generated_Source\PSoC5/cyfitter_cfg.c **** 			0x4001024Du, /* Base address: 0x40010200 Count: 77 */
 428:Generated_Source\PSoC5/cyfitter_cfg.c **** 			0x4001034Fu, /* Base address: 0x40010300 Count: 79 */
 429:Generated_Source\PSoC5/cyfitter_cfg.c **** 			0x4001044Du, /* Base address: 0x40010400 Count: 77 */
 430:Generated_Source\PSoC5/cyfitter_cfg.c **** 			0x4001055Au, /* Base address: 0x40010500 Count: 90 */
 431:Generated_Source\PSoC5/cyfitter_cfg.c **** 			0x4001064Du, /* Base address: 0x40010600 Count: 77 */
 432:Generated_Source\PSoC5/cyfitter_cfg.c **** 			0x4001074Du, /* Base address: 0x40010700 Count: 77 */
 433:Generated_Source\PSoC5/cyfitter_cfg.c **** 			0x4001084Eu, /* Base address: 0x40010800 Count: 78 */
 434:Generated_Source\PSoC5/cyfitter_cfg.c **** 			0x40010952u, /* Base address: 0x40010900 Count: 82 */
ARM GAS  C:\Users\r\AppData\Local\Temp\cc1ZHhx7.s 			page 20


 435:Generated_Source\PSoC5/cyfitter_cfg.c **** 			0x40010A53u, /* Base address: 0x40010A00 Count: 83 */
 436:Generated_Source\PSoC5/cyfitter_cfg.c **** 			0x40010B61u, /* Base address: 0x40010B00 Count: 97 */
 437:Generated_Source\PSoC5/cyfitter_cfg.c **** 			0x40010C49u, /* Base address: 0x40010C00 Count: 73 */
 438:Generated_Source\PSoC5/cyfitter_cfg.c **** 			0x40010D54u, /* Base address: 0x40010D00 Count: 84 */
 439:Generated_Source\PSoC5/cyfitter_cfg.c **** 			0x40010E52u, /* Base address: 0x40010E00 Count: 82 */
 440:Generated_Source\PSoC5/cyfitter_cfg.c **** 			0x40010F3Du, /* Base address: 0x40010F00 Count: 61 */
 441:Generated_Source\PSoC5/cyfitter_cfg.c **** 			0x40011455u, /* Base address: 0x40011400 Count: 85 */
 442:Generated_Source\PSoC5/cyfitter_cfg.c **** 			0x40011549u, /* Base address: 0x40011500 Count: 73 */
 443:Generated_Source\PSoC5/cyfitter_cfg.c **** 			0x40011648u, /* Base address: 0x40011600 Count: 72 */
 444:Generated_Source\PSoC5/cyfitter_cfg.c **** 			0x40011741u, /* Base address: 0x40011700 Count: 65 */
 445:Generated_Source\PSoC5/cyfitter_cfg.c **** 			0x40011804u, /* Base address: 0x40011800 Count: 4 */
 446:Generated_Source\PSoC5/cyfitter_cfg.c **** 			0x40011911u, /* Base address: 0x40011900 Count: 17 */
 447:Generated_Source\PSoC5/cyfitter_cfg.c **** 			0x40011B08u, /* Base address: 0x40011B00 Count: 8 */
 448:Generated_Source\PSoC5/cyfitter_cfg.c **** 			0x40014019u, /* Base address: 0x40014000 Count: 25 */
 449:Generated_Source\PSoC5/cyfitter_cfg.c **** 			0x4001411Au, /* Base address: 0x40014100 Count: 26 */
 450:Generated_Source\PSoC5/cyfitter_cfg.c **** 			0x40014211u, /* Base address: 0x40014200 Count: 17 */
 451:Generated_Source\PSoC5/cyfitter_cfg.c **** 			0x4001430Au, /* Base address: 0x40014300 Count: 10 */
 452:Generated_Source\PSoC5/cyfitter_cfg.c **** 			0x4001440Fu, /* Base address: 0x40014400 Count: 15 */
 453:Generated_Source\PSoC5/cyfitter_cfg.c **** 			0x4001451Au, /* Base address: 0x40014500 Count: 26 */
 454:Generated_Source\PSoC5/cyfitter_cfg.c **** 			0x40014611u, /* Base address: 0x40014600 Count: 17 */
 455:Generated_Source\PSoC5/cyfitter_cfg.c **** 			0x40014712u, /* Base address: 0x40014700 Count: 18 */
 456:Generated_Source\PSoC5/cyfitter_cfg.c **** 			0x4001480Fu, /* Base address: 0x40014800 Count: 15 */
 457:Generated_Source\PSoC5/cyfitter_cfg.c **** 			0x4001490Cu, /* Base address: 0x40014900 Count: 12 */
 458:Generated_Source\PSoC5/cyfitter_cfg.c **** 			0x40014C06u, /* Base address: 0x40014C00 Count: 6 */
 459:Generated_Source\PSoC5/cyfitter_cfg.c **** 			0x40014D0Du, /* Base address: 0x40014D00 Count: 13 */
 460:Generated_Source\PSoC5/cyfitter_cfg.c **** 			0x40015002u, /* Base address: 0x40015000 Count: 2 */
 461:Generated_Source\PSoC5/cyfitter_cfg.c **** 			0x40015104u, /* Base address: 0x40015100 Count: 4 */
 462:Generated_Source\PSoC5/cyfitter_cfg.c **** 		};
 463:Generated_Source\PSoC5/cyfitter_cfg.c **** 
 464:Generated_Source\PSoC5/cyfitter_cfg.c **** 		static const cy_cfg_addrvalue_t CYCODE cy_cfg_data_table[] = {
 465:Generated_Source\PSoC5/cyfitter_cfg.c **** 			{0x7Eu, 0x02u},
 466:Generated_Source\PSoC5/cyfitter_cfg.c **** 			{0x01u, 0x20u},
 467:Generated_Source\PSoC5/cyfitter_cfg.c **** 			{0x0Au, 0x36u},
 468:Generated_Source\PSoC5/cyfitter_cfg.c **** 			{0x00u, 0x04u},
 469:Generated_Source\PSoC5/cyfitter_cfg.c **** 			{0x01u, 0x44u},
 470:Generated_Source\PSoC5/cyfitter_cfg.c **** 			{0x04u, 0x30u},
 471:Generated_Source\PSoC5/cyfitter_cfg.c **** 			{0x10u, 0xC8u},
 472:Generated_Source\PSoC5/cyfitter_cfg.c **** 			{0x11u, 0x44u},
 473:Generated_Source\PSoC5/cyfitter_cfg.c **** 			{0x19u, 0x08u},
 474:Generated_Source\PSoC5/cyfitter_cfg.c **** 			{0x1Cu, 0x30u},
 475:Generated_Source\PSoC5/cyfitter_cfg.c **** 			{0x21u, 0x10u},
 476:Generated_Source\PSoC5/cyfitter_cfg.c **** 			{0x24u, 0x44u},
 477:Generated_Source\PSoC5/cyfitter_cfg.c **** 			{0x28u, 0x02u},
 478:Generated_Source\PSoC5/cyfitter_cfg.c **** 			{0x29u, 0x01u},
 479:Generated_Source\PSoC5/cyfitter_cfg.c **** 			{0x30u, 0x20u},
 480:Generated_Source\PSoC5/cyfitter_cfg.c **** 			{0x31u, 0x30u},
 481:Generated_Source\PSoC5/cyfitter_cfg.c **** 			{0x78u, 0x20u},
 482:Generated_Source\PSoC5/cyfitter_cfg.c **** 			{0x7Cu, 0x40u},
 483:Generated_Source\PSoC5/cyfitter_cfg.c **** 			{0x20u, 0x01u},
 484:Generated_Source\PSoC5/cyfitter_cfg.c **** 			{0x84u, 0x0Fu},
 485:Generated_Source\PSoC5/cyfitter_cfg.c **** 			{0x0Cu, 0x44u},
 486:Generated_Source\PSoC5/cyfitter_cfg.c **** 			{0x0Eu, 0x88u},
 487:Generated_Source\PSoC5/cyfitter_cfg.c **** 			{0x12u, 0x70u},
 488:Generated_Source\PSoC5/cyfitter_cfg.c **** 			{0x14u, 0x99u},
 489:Generated_Source\PSoC5/cyfitter_cfg.c **** 			{0x16u, 0x22u},
 490:Generated_Source\PSoC5/cyfitter_cfg.c **** 			{0x1Au, 0x07u},
 491:Generated_Source\PSoC5/cyfitter_cfg.c **** 			{0x26u, 0x08u},
ARM GAS  C:\Users\r\AppData\Local\Temp\cc1ZHhx7.s 			page 21


 492:Generated_Source\PSoC5/cyfitter_cfg.c **** 			{0x2Au, 0x80u},
 493:Generated_Source\PSoC5/cyfitter_cfg.c **** 			{0x2Cu, 0xAAu},
 494:Generated_Source\PSoC5/cyfitter_cfg.c **** 			{0x2Eu, 0x55u},
 495:Generated_Source\PSoC5/cyfitter_cfg.c **** 			{0x30u, 0xF0u},
 496:Generated_Source\PSoC5/cyfitter_cfg.c **** 			{0x34u, 0x0Fu},
 497:Generated_Source\PSoC5/cyfitter_cfg.c **** 			{0x40u, 0x43u},
 498:Generated_Source\PSoC5/cyfitter_cfg.c **** 			{0x41u, 0x02u},
 499:Generated_Source\PSoC5/cyfitter_cfg.c **** 			{0x42u, 0x10u},
 500:Generated_Source\PSoC5/cyfitter_cfg.c **** 			{0x45u, 0xECu},
 501:Generated_Source\PSoC5/cyfitter_cfg.c **** 			{0x46u, 0x2Du},
 502:Generated_Source\PSoC5/cyfitter_cfg.c **** 			{0x47u, 0x0Fu},
 503:Generated_Source\PSoC5/cyfitter_cfg.c **** 			{0x48u, 0x1Fu},
 504:Generated_Source\PSoC5/cyfitter_cfg.c **** 			{0x49u, 0xFFu},
 505:Generated_Source\PSoC5/cyfitter_cfg.c **** 			{0x4Au, 0xFFu},
 506:Generated_Source\PSoC5/cyfitter_cfg.c **** 			{0x4Bu, 0xFFu},
 507:Generated_Source\PSoC5/cyfitter_cfg.c **** 			{0x4Fu, 0x2Cu},
 508:Generated_Source\PSoC5/cyfitter_cfg.c **** 			{0x56u, 0x01u},
 509:Generated_Source\PSoC5/cyfitter_cfg.c **** 			{0x58u, 0x04u},
 510:Generated_Source\PSoC5/cyfitter_cfg.c **** 			{0x5Au, 0x04u},
 511:Generated_Source\PSoC5/cyfitter_cfg.c **** 			{0x5Bu, 0x04u},
 512:Generated_Source\PSoC5/cyfitter_cfg.c **** 			{0x5Cu, 0x01u},
 513:Generated_Source\PSoC5/cyfitter_cfg.c **** 			{0x5Du, 0x01u},
 514:Generated_Source\PSoC5/cyfitter_cfg.c **** 			{0x5Fu, 0x01u},
 515:Generated_Source\PSoC5/cyfitter_cfg.c **** 			{0x60u, 0x08u},
 516:Generated_Source\PSoC5/cyfitter_cfg.c **** 			{0x62u, 0xC8u},
 517:Generated_Source\PSoC5/cyfitter_cfg.c **** 			{0x66u, 0x80u},
 518:Generated_Source\PSoC5/cyfitter_cfg.c **** 			{0x68u, 0x40u},
 519:Generated_Source\PSoC5/cyfitter_cfg.c **** 			{0x69u, 0x40u},
 520:Generated_Source\PSoC5/cyfitter_cfg.c **** 			{0x6Eu, 0x08u},
 521:Generated_Source\PSoC5/cyfitter_cfg.c **** 			{0x84u, 0x56u},
 522:Generated_Source\PSoC5/cyfitter_cfg.c **** 			{0x86u, 0xA9u},
 523:Generated_Source\PSoC5/cyfitter_cfg.c **** 			{0x87u, 0x01u},
 524:Generated_Source\PSoC5/cyfitter_cfg.c **** 			{0x88u, 0xC0u},
 525:Generated_Source\PSoC5/cyfitter_cfg.c **** 			{0x8Cu, 0xC0u},
 526:Generated_Source\PSoC5/cyfitter_cfg.c **** 			{0x90u, 0x55u},
 527:Generated_Source\PSoC5/cyfitter_cfg.c **** 			{0x92u, 0xAAu},
 528:Generated_Source\PSoC5/cyfitter_cfg.c **** 			{0x94u, 0x0Fu},
 529:Generated_Source\PSoC5/cyfitter_cfg.c **** 			{0x96u, 0x30u},
 530:Generated_Source\PSoC5/cyfitter_cfg.c **** 			{0x9Au, 0xFFu},
 531:Generated_Source\PSoC5/cyfitter_cfg.c **** 			{0xA0u, 0x33u},
 532:Generated_Source\PSoC5/cyfitter_cfg.c **** 			{0xA2u, 0x0Cu},
 533:Generated_Source\PSoC5/cyfitter_cfg.c **** 			{0xA6u, 0x3Fu},
 534:Generated_Source\PSoC5/cyfitter_cfg.c **** 			{0xA7u, 0x02u},
 535:Generated_Source\PSoC5/cyfitter_cfg.c **** 			{0xA8u, 0xC0u},
 536:Generated_Source\PSoC5/cyfitter_cfg.c **** 			{0xACu, 0x3Fu},
 537:Generated_Source\PSoC5/cyfitter_cfg.c **** 			{0xADu, 0x01u},
 538:Generated_Source\PSoC5/cyfitter_cfg.c **** 			{0xAEu, 0xC0u},
 539:Generated_Source\PSoC5/cyfitter_cfg.c **** 			{0xAFu, 0x02u},
 540:Generated_Source\PSoC5/cyfitter_cfg.c **** 			{0xB6u, 0xFFu},
 541:Generated_Source\PSoC5/cyfitter_cfg.c **** 			{0xB7u, 0x03u},
 542:Generated_Source\PSoC5/cyfitter_cfg.c **** 			{0xBEu, 0x40u},
 543:Generated_Source\PSoC5/cyfitter_cfg.c **** 			{0xBFu, 0x40u},
 544:Generated_Source\PSoC5/cyfitter_cfg.c **** 			{0xD8u, 0x04u},
 545:Generated_Source\PSoC5/cyfitter_cfg.c **** 			{0xD9u, 0x04u},
 546:Generated_Source\PSoC5/cyfitter_cfg.c **** 			{0xDFu, 0x01u},
 547:Generated_Source\PSoC5/cyfitter_cfg.c **** 			{0x00u, 0x40u},
 548:Generated_Source\PSoC5/cyfitter_cfg.c **** 			{0x04u, 0x04u},
ARM GAS  C:\Users\r\AppData\Local\Temp\cc1ZHhx7.s 			page 22


 549:Generated_Source\PSoC5/cyfitter_cfg.c **** 			{0x06u, 0x08u},
 550:Generated_Source\PSoC5/cyfitter_cfg.c **** 			{0x07u, 0x01u},
 551:Generated_Source\PSoC5/cyfitter_cfg.c **** 			{0x08u, 0x28u},
 552:Generated_Source\PSoC5/cyfitter_cfg.c **** 			{0x0Au, 0x44u},
 553:Generated_Source\PSoC5/cyfitter_cfg.c **** 			{0x0Du, 0x04u},
 554:Generated_Source\PSoC5/cyfitter_cfg.c **** 			{0x0Eu, 0x08u},
 555:Generated_Source\PSoC5/cyfitter_cfg.c **** 			{0x0Fu, 0x80u},
 556:Generated_Source\PSoC5/cyfitter_cfg.c **** 			{0x10u, 0x28u},
 557:Generated_Source\PSoC5/cyfitter_cfg.c **** 			{0x13u, 0x80u},
 558:Generated_Source\PSoC5/cyfitter_cfg.c **** 			{0x14u, 0x24u},
 559:Generated_Source\PSoC5/cyfitter_cfg.c **** 			{0x15u, 0x41u},
 560:Generated_Source\PSoC5/cyfitter_cfg.c **** 			{0x1Au, 0x44u},
 561:Generated_Source\PSoC5/cyfitter_cfg.c **** 			{0x1Du, 0x40u},
 562:Generated_Source\PSoC5/cyfitter_cfg.c **** 			{0x27u, 0x02u},
 563:Generated_Source\PSoC5/cyfitter_cfg.c **** 			{0x2Du, 0x44u},
 564:Generated_Source\PSoC5/cyfitter_cfg.c **** 			{0x2Eu, 0x08u},
 565:Generated_Source\PSoC5/cyfitter_cfg.c **** 			{0x2Fu, 0x02u},
 566:Generated_Source\PSoC5/cyfitter_cfg.c **** 			{0x39u, 0x80u},
 567:Generated_Source\PSoC5/cyfitter_cfg.c **** 			{0x3Bu, 0x40u},
 568:Generated_Source\PSoC5/cyfitter_cfg.c **** 			{0x3Eu, 0x04u},
 569:Generated_Source\PSoC5/cyfitter_cfg.c **** 			{0x40u, 0x48u},
 570:Generated_Source\PSoC5/cyfitter_cfg.c **** 			{0x41u, 0x09u},
 571:Generated_Source\PSoC5/cyfitter_cfg.c **** 			{0x42u, 0x02u},
 572:Generated_Source\PSoC5/cyfitter_cfg.c **** 			{0x49u, 0x06u},
 573:Generated_Source\PSoC5/cyfitter_cfg.c **** 			{0x52u, 0x48u},
 574:Generated_Source\PSoC5/cyfitter_cfg.c **** 			{0x53u, 0x20u},
 575:Generated_Source\PSoC5/cyfitter_cfg.c **** 			{0x58u, 0x40u},
 576:Generated_Source\PSoC5/cyfitter_cfg.c **** 			{0x59u, 0x28u},
 577:Generated_Source\PSoC5/cyfitter_cfg.c **** 			{0x5Au, 0x02u},
 578:Generated_Source\PSoC5/cyfitter_cfg.c **** 			{0x61u, 0x82u},
 579:Generated_Source\PSoC5/cyfitter_cfg.c **** 			{0x62u, 0x10u},
 580:Generated_Source\PSoC5/cyfitter_cfg.c **** 			{0x63u, 0x20u},
 581:Generated_Source\PSoC5/cyfitter_cfg.c **** 			{0x64u, 0x80u},
 582:Generated_Source\PSoC5/cyfitter_cfg.c **** 			{0x65u, 0x02u},
 583:Generated_Source\PSoC5/cyfitter_cfg.c **** 			{0x68u, 0x20u},
 584:Generated_Source\PSoC5/cyfitter_cfg.c **** 			{0x69u, 0x90u},
 585:Generated_Source\PSoC5/cyfitter_cfg.c **** 			{0x6Bu, 0x40u},
 586:Generated_Source\PSoC5/cyfitter_cfg.c **** 			{0x70u, 0x09u},
 587:Generated_Source\PSoC5/cyfitter_cfg.c **** 			{0x73u, 0x05u},
 588:Generated_Source\PSoC5/cyfitter_cfg.c **** 			{0x78u, 0x10u},
 589:Generated_Source\PSoC5/cyfitter_cfg.c **** 			{0x7Au, 0x08u},
 590:Generated_Source\PSoC5/cyfitter_cfg.c **** 			{0x80u, 0x02u},
 591:Generated_Source\PSoC5/cyfitter_cfg.c **** 			{0x81u, 0x0Eu},
 592:Generated_Source\PSoC5/cyfitter_cfg.c **** 			{0x83u, 0x80u},
 593:Generated_Source\PSoC5/cyfitter_cfg.c **** 			{0x84u, 0x40u},
 594:Generated_Source\PSoC5/cyfitter_cfg.c **** 			{0x86u, 0x40u},
 595:Generated_Source\PSoC5/cyfitter_cfg.c **** 			{0x89u, 0x08u},
 596:Generated_Source\PSoC5/cyfitter_cfg.c **** 			{0x8Cu, 0x01u},
 597:Generated_Source\PSoC5/cyfitter_cfg.c **** 			{0xC0u, 0xE1u},
 598:Generated_Source\PSoC5/cyfitter_cfg.c **** 			{0xC2u, 0x7Eu},
 599:Generated_Source\PSoC5/cyfitter_cfg.c **** 			{0xC4u, 0xF7u},
 600:Generated_Source\PSoC5/cyfitter_cfg.c **** 			{0xCAu, 0x50u},
 601:Generated_Source\PSoC5/cyfitter_cfg.c **** 			{0xCEu, 0x40u},
 602:Generated_Source\PSoC5/cyfitter_cfg.c **** 			{0xD0u, 0x0Fu},
 603:Generated_Source\PSoC5/cyfitter_cfg.c **** 			{0xD6u, 0x0Fu},
 604:Generated_Source\PSoC5/cyfitter_cfg.c **** 			{0xD8u, 0x0Fu},
 605:Generated_Source\PSoC5/cyfitter_cfg.c **** 			{0xE0u, 0x18u},
ARM GAS  C:\Users\r\AppData\Local\Temp\cc1ZHhx7.s 			page 23


 606:Generated_Source\PSoC5/cyfitter_cfg.c **** 			{0xE2u, 0x01u},
 607:Generated_Source\PSoC5/cyfitter_cfg.c **** 			{0xE4u, 0x01u},
 608:Generated_Source\PSoC5/cyfitter_cfg.c **** 			{0xE6u, 0x08u},
 609:Generated_Source\PSoC5/cyfitter_cfg.c **** 			{0x00u, 0x48u},
 610:Generated_Source\PSoC5/cyfitter_cfg.c **** 			{0x01u, 0x02u},
 611:Generated_Source\PSoC5/cyfitter_cfg.c **** 			{0x02u, 0x10u},
 612:Generated_Source\PSoC5/cyfitter_cfg.c **** 			{0x04u, 0x02u},
 613:Generated_Source\PSoC5/cyfitter_cfg.c **** 			{0x06u, 0x01u},
 614:Generated_Source\PSoC5/cyfitter_cfg.c **** 			{0x07u, 0x10u},
 615:Generated_Source\PSoC5/cyfitter_cfg.c **** 			{0x0Au, 0x38u},
 616:Generated_Source\PSoC5/cyfitter_cfg.c **** 			{0x0Fu, 0x08u},
 617:Generated_Source\PSoC5/cyfitter_cfg.c **** 			{0x10u, 0x20u},
 618:Generated_Source\PSoC5/cyfitter_cfg.c **** 			{0x11u, 0x02u},
 619:Generated_Source\PSoC5/cyfitter_cfg.c **** 			{0x12u, 0x40u},
 620:Generated_Source\PSoC5/cyfitter_cfg.c **** 			{0x14u, 0x50u},
 621:Generated_Source\PSoC5/cyfitter_cfg.c **** 			{0x16u, 0x28u},
 622:Generated_Source\PSoC5/cyfitter_cfg.c **** 			{0x17u, 0x01u},
 623:Generated_Source\PSoC5/cyfitter_cfg.c **** 			{0x1Bu, 0x04u},
 624:Generated_Source\PSoC5/cyfitter_cfg.c **** 			{0x1Cu, 0x01u},
 625:Generated_Source\PSoC5/cyfitter_cfg.c **** 			{0x1Du, 0x02u},
 626:Generated_Source\PSoC5/cyfitter_cfg.c **** 			{0x1Eu, 0x02u},
 627:Generated_Source\PSoC5/cyfitter_cfg.c **** 			{0x20u, 0x02u},
 628:Generated_Source\PSoC5/cyfitter_cfg.c **** 			{0x22u, 0x05u},
 629:Generated_Source\PSoC5/cyfitter_cfg.c **** 			{0x24u, 0x02u},
 630:Generated_Source\PSoC5/cyfitter_cfg.c **** 			{0x25u, 0x02u},
 631:Generated_Source\PSoC5/cyfitter_cfg.c **** 			{0x26u, 0x01u},
 632:Generated_Source\PSoC5/cyfitter_cfg.c **** 			{0x28u, 0x02u},
 633:Generated_Source\PSoC5/cyfitter_cfg.c **** 			{0x2Au, 0x01u},
 634:Generated_Source\PSoC5/cyfitter_cfg.c **** 			{0x2Du, 0x08u},
 635:Generated_Source\PSoC5/cyfitter_cfg.c **** 			{0x2Eu, 0x40u},
 636:Generated_Source\PSoC5/cyfitter_cfg.c **** 			{0x2Fu, 0x10u},
 637:Generated_Source\PSoC5/cyfitter_cfg.c **** 			{0x31u, 0x18u},
 638:Generated_Source\PSoC5/cyfitter_cfg.c **** 			{0x32u, 0x04u},
 639:Generated_Source\PSoC5/cyfitter_cfg.c **** 			{0x33u, 0x04u},
 640:Generated_Source\PSoC5/cyfitter_cfg.c **** 			{0x34u, 0x78u},
 641:Generated_Source\PSoC5/cyfitter_cfg.c **** 			{0x35u, 0x01u},
 642:Generated_Source\PSoC5/cyfitter_cfg.c **** 			{0x36u, 0x03u},
 643:Generated_Source\PSoC5/cyfitter_cfg.c **** 			{0x37u, 0x02u},
 644:Generated_Source\PSoC5/cyfitter_cfg.c **** 			{0x39u, 0x80u},
 645:Generated_Source\PSoC5/cyfitter_cfg.c **** 			{0x3Au, 0x80u},
 646:Generated_Source\PSoC5/cyfitter_cfg.c **** 			{0x3Fu, 0x41u},
 647:Generated_Source\PSoC5/cyfitter_cfg.c **** 			{0x56u, 0x08u},
 648:Generated_Source\PSoC5/cyfitter_cfg.c **** 			{0x58u, 0x04u},
 649:Generated_Source\PSoC5/cyfitter_cfg.c **** 			{0x59u, 0x04u},
 650:Generated_Source\PSoC5/cyfitter_cfg.c **** 			{0x5Bu, 0x04u},
 651:Generated_Source\PSoC5/cyfitter_cfg.c **** 			{0x5Cu, 0x11u},
 652:Generated_Source\PSoC5/cyfitter_cfg.c **** 			{0x5Du, 0x90u},
 653:Generated_Source\PSoC5/cyfitter_cfg.c **** 			{0x5Fu, 0x01u},
 654:Generated_Source\PSoC5/cyfitter_cfg.c **** 			{0x83u, 0x80u},
 655:Generated_Source\PSoC5/cyfitter_cfg.c **** 			{0x84u, 0x50u},
 656:Generated_Source\PSoC5/cyfitter_cfg.c **** 			{0x86u, 0xA0u},
 657:Generated_Source\PSoC5/cyfitter_cfg.c **** 			{0x87u, 0x07u},
 658:Generated_Source\PSoC5/cyfitter_cfg.c **** 			{0x88u, 0x60u},
 659:Generated_Source\PSoC5/cyfitter_cfg.c **** 			{0x8Au, 0x90u},
 660:Generated_Source\PSoC5/cyfitter_cfg.c **** 			{0x8Bu, 0x08u},
 661:Generated_Source\PSoC5/cyfitter_cfg.c **** 			{0x8Cu, 0x0Fu},
 662:Generated_Source\PSoC5/cyfitter_cfg.c **** 			{0x8Eu, 0xF0u},
ARM GAS  C:\Users\r\AppData\Local\Temp\cc1ZHhx7.s 			page 24


 663:Generated_Source\PSoC5/cyfitter_cfg.c **** 			{0x90u, 0x05u},
 664:Generated_Source\PSoC5/cyfitter_cfg.c **** 			{0x92u, 0x0Au},
 665:Generated_Source\PSoC5/cyfitter_cfg.c **** 			{0x95u, 0xAAu},
 666:Generated_Source\PSoC5/cyfitter_cfg.c **** 			{0x97u, 0x55u},
 667:Generated_Source\PSoC5/cyfitter_cfg.c **** 			{0x98u, 0x30u},
 668:Generated_Source\PSoC5/cyfitter_cfg.c **** 			{0x9Au, 0xC0u},
 669:Generated_Source\PSoC5/cyfitter_cfg.c **** 			{0x9Bu, 0x70u},
 670:Generated_Source\PSoC5/cyfitter_cfg.c **** 			{0xA4u, 0x03u},
 671:Generated_Source\PSoC5/cyfitter_cfg.c **** 			{0xA5u, 0x44u},
 672:Generated_Source\PSoC5/cyfitter_cfg.c **** 			{0xA6u, 0x0Cu},
 673:Generated_Source\PSoC5/cyfitter_cfg.c **** 			{0xA7u, 0x88u},
 674:Generated_Source\PSoC5/cyfitter_cfg.c **** 			{0xA8u, 0x06u},
 675:Generated_Source\PSoC5/cyfitter_cfg.c **** 			{0xA9u, 0x99u},
 676:Generated_Source\PSoC5/cyfitter_cfg.c **** 			{0xAAu, 0x09u},
 677:Generated_Source\PSoC5/cyfitter_cfg.c **** 			{0xABu, 0x22u},
 678:Generated_Source\PSoC5/cyfitter_cfg.c **** 			{0xB3u, 0x0Fu},
 679:Generated_Source\PSoC5/cyfitter_cfg.c **** 			{0xB4u, 0xFFu},
 680:Generated_Source\PSoC5/cyfitter_cfg.c **** 			{0xB5u, 0xF0u},
 681:Generated_Source\PSoC5/cyfitter_cfg.c **** 			{0xBEu, 0x10u},
 682:Generated_Source\PSoC5/cyfitter_cfg.c **** 			{0xD8u, 0x04u},
 683:Generated_Source\PSoC5/cyfitter_cfg.c **** 			{0xD9u, 0x04u},
 684:Generated_Source\PSoC5/cyfitter_cfg.c **** 			{0xDCu, 0x10u},
 685:Generated_Source\PSoC5/cyfitter_cfg.c **** 			{0xDFu, 0x01u},
 686:Generated_Source\PSoC5/cyfitter_cfg.c **** 			{0x00u, 0x08u},
 687:Generated_Source\PSoC5/cyfitter_cfg.c **** 			{0x03u, 0x06u},
 688:Generated_Source\PSoC5/cyfitter_cfg.c **** 			{0x05u, 0x16u},
 689:Generated_Source\PSoC5/cyfitter_cfg.c **** 			{0x09u, 0x20u},
 690:Generated_Source\PSoC5/cyfitter_cfg.c **** 			{0x0Au, 0x40u},
 691:Generated_Source\PSoC5/cyfitter_cfg.c **** 			{0x0Du, 0x09u},
 692:Generated_Source\PSoC5/cyfitter_cfg.c **** 			{0x0Eu, 0x02u},
 693:Generated_Source\PSoC5/cyfitter_cfg.c **** 			{0x0Fu, 0x02u},
 694:Generated_Source\PSoC5/cyfitter_cfg.c **** 			{0x12u, 0x18u},
 695:Generated_Source\PSoC5/cyfitter_cfg.c **** 			{0x16u, 0x80u},
 696:Generated_Source\PSoC5/cyfitter_cfg.c **** 			{0x17u, 0x58u},
 697:Generated_Source\PSoC5/cyfitter_cfg.c **** 			{0x18u, 0x04u},
 698:Generated_Source\PSoC5/cyfitter_cfg.c **** 			{0x1Bu, 0x10u},
 699:Generated_Source\PSoC5/cyfitter_cfg.c **** 			{0x1Du, 0x14u},
 700:Generated_Source\PSoC5/cyfitter_cfg.c **** 			{0x1Eu, 0x02u},
 701:Generated_Source\PSoC5/cyfitter_cfg.c **** 			{0x21u, 0x04u},
 702:Generated_Source\PSoC5/cyfitter_cfg.c **** 			{0x22u, 0x10u},
 703:Generated_Source\PSoC5/cyfitter_cfg.c **** 			{0x25u, 0x01u},
 704:Generated_Source\PSoC5/cyfitter_cfg.c **** 			{0x26u, 0x20u},
 705:Generated_Source\PSoC5/cyfitter_cfg.c **** 			{0x27u, 0x1Au},
 706:Generated_Source\PSoC5/cyfitter_cfg.c **** 			{0x28u, 0x08u},
 707:Generated_Source\PSoC5/cyfitter_cfg.c **** 			{0x2Au, 0x08u},
 708:Generated_Source\PSoC5/cyfitter_cfg.c **** 			{0x2Du, 0x08u},
 709:Generated_Source\PSoC5/cyfitter_cfg.c **** 			{0x2Fu, 0x02u},
 710:Generated_Source\PSoC5/cyfitter_cfg.c **** 			{0x31u, 0x08u},
 711:Generated_Source\PSoC5/cyfitter_cfg.c **** 			{0x32u, 0x10u},
 712:Generated_Source\PSoC5/cyfitter_cfg.c **** 			{0x35u, 0x44u},
 713:Generated_Source\PSoC5/cyfitter_cfg.c **** 			{0x36u, 0x22u},
 714:Generated_Source\PSoC5/cyfitter_cfg.c **** 			{0x39u, 0x18u},
 715:Generated_Source\PSoC5/cyfitter_cfg.c **** 			{0x3Bu, 0x01u},
 716:Generated_Source\PSoC5/cyfitter_cfg.c **** 			{0x3Cu, 0x0Au},
 717:Generated_Source\PSoC5/cyfitter_cfg.c **** 			{0x3Eu, 0x40u},
 718:Generated_Source\PSoC5/cyfitter_cfg.c **** 			{0x5Du, 0x40u},
 719:Generated_Source\PSoC5/cyfitter_cfg.c **** 			{0x66u, 0x80u},
ARM GAS  C:\Users\r\AppData\Local\Temp\cc1ZHhx7.s 			page 25


 720:Generated_Source\PSoC5/cyfitter_cfg.c **** 			{0x6Cu, 0x22u},
 721:Generated_Source\PSoC5/cyfitter_cfg.c **** 			{0x6Eu, 0x08u},
 722:Generated_Source\PSoC5/cyfitter_cfg.c **** 			{0x6Fu, 0x08u},
 723:Generated_Source\PSoC5/cyfitter_cfg.c **** 			{0x81u, 0x03u},
 724:Generated_Source\PSoC5/cyfitter_cfg.c **** 			{0x82u, 0x02u},
 725:Generated_Source\PSoC5/cyfitter_cfg.c **** 			{0x85u, 0x20u},
 726:Generated_Source\PSoC5/cyfitter_cfg.c **** 			{0x8Au, 0x01u},
 727:Generated_Source\PSoC5/cyfitter_cfg.c **** 			{0x8Bu, 0x04u},
 728:Generated_Source\PSoC5/cyfitter_cfg.c **** 			{0x8Eu, 0x04u},
 729:Generated_Source\PSoC5/cyfitter_cfg.c **** 			{0x91u, 0x10u},
 730:Generated_Source\PSoC5/cyfitter_cfg.c **** 			{0x92u, 0x40u},
 731:Generated_Source\PSoC5/cyfitter_cfg.c **** 			{0x93u, 0x45u},
 732:Generated_Source\PSoC5/cyfitter_cfg.c **** 			{0x94u, 0x04u},
 733:Generated_Source\PSoC5/cyfitter_cfg.c **** 			{0x95u, 0x0Fu},
 734:Generated_Source\PSoC5/cyfitter_cfg.c **** 			{0x96u, 0x02u},
 735:Generated_Source\PSoC5/cyfitter_cfg.c **** 			{0x98u, 0xB2u},
 736:Generated_Source\PSoC5/cyfitter_cfg.c **** 			{0x99u, 0x40u},
 737:Generated_Source\PSoC5/cyfitter_cfg.c **** 			{0x9Au, 0x40u},
 738:Generated_Source\PSoC5/cyfitter_cfg.c **** 			{0x9Bu, 0x40u},
 739:Generated_Source\PSoC5/cyfitter_cfg.c **** 			{0x9Cu, 0x0Cu},
 740:Generated_Source\PSoC5/cyfitter_cfg.c **** 			{0x9Du, 0x20u},
 741:Generated_Source\PSoC5/cyfitter_cfg.c **** 			{0x9Eu, 0x02u},
 742:Generated_Source\PSoC5/cyfitter_cfg.c **** 			{0x9Fu, 0x01u},
 743:Generated_Source\PSoC5/cyfitter_cfg.c **** 			{0xA1u, 0x08u},
 744:Generated_Source\PSoC5/cyfitter_cfg.c **** 			{0xA3u, 0x20u},
 745:Generated_Source\PSoC5/cyfitter_cfg.c **** 			{0xA5u, 0x82u},
 746:Generated_Source\PSoC5/cyfitter_cfg.c **** 			{0xA6u, 0x04u},
 747:Generated_Source\PSoC5/cyfitter_cfg.c **** 			{0xA7u, 0x42u},
 748:Generated_Source\PSoC5/cyfitter_cfg.c **** 			{0xABu, 0x10u},
 749:Generated_Source\PSoC5/cyfitter_cfg.c **** 			{0xAFu, 0x02u},
 750:Generated_Source\PSoC5/cyfitter_cfg.c **** 			{0xB2u, 0x18u},
 751:Generated_Source\PSoC5/cyfitter_cfg.c **** 			{0xC0u, 0x77u},
 752:Generated_Source\PSoC5/cyfitter_cfg.c **** 			{0xC2u, 0xBAu},
 753:Generated_Source\PSoC5/cyfitter_cfg.c **** 			{0xC4u, 0xF6u},
 754:Generated_Source\PSoC5/cyfitter_cfg.c **** 			{0xCAu, 0x56u},
 755:Generated_Source\PSoC5/cyfitter_cfg.c **** 			{0xCCu, 0xF6u},
 756:Generated_Source\PSoC5/cyfitter_cfg.c **** 			{0xCEu, 0xD7u},
 757:Generated_Source\PSoC5/cyfitter_cfg.c **** 			{0xD6u, 0x10u},
 758:Generated_Source\PSoC5/cyfitter_cfg.c **** 			{0xD8u, 0x10u},
 759:Generated_Source\PSoC5/cyfitter_cfg.c **** 			{0xE2u, 0x45u},
 760:Generated_Source\PSoC5/cyfitter_cfg.c **** 			{0xE4u, 0x01u},
 761:Generated_Source\PSoC5/cyfitter_cfg.c **** 			{0xE6u, 0x06u},
 762:Generated_Source\PSoC5/cyfitter_cfg.c **** 			{0xE8u, 0x01u},
 763:Generated_Source\PSoC5/cyfitter_cfg.c **** 			{0xECu, 0x02u},
 764:Generated_Source\PSoC5/cyfitter_cfg.c **** 			{0xEEu, 0x81u},
 765:Generated_Source\PSoC5/cyfitter_cfg.c **** 			{0x05u, 0x84u},
 766:Generated_Source\PSoC5/cyfitter_cfg.c **** 			{0x07u, 0x79u},
 767:Generated_Source\PSoC5/cyfitter_cfg.c **** 			{0x0Cu, 0x55u},
 768:Generated_Source\PSoC5/cyfitter_cfg.c **** 			{0x0Eu, 0xAAu},
 769:Generated_Source\PSoC5/cyfitter_cfg.c **** 			{0x10u, 0x0Fu},
 770:Generated_Source\PSoC5/cyfitter_cfg.c **** 			{0x12u, 0xF0u},
 771:Generated_Source\PSoC5/cyfitter_cfg.c **** 			{0x13u, 0x07u},
 772:Generated_Source\PSoC5/cyfitter_cfg.c **** 			{0x15u, 0x82u},
 773:Generated_Source\PSoC5/cyfitter_cfg.c **** 			{0x17u, 0x7Cu},
 774:Generated_Source\PSoC5/cyfitter_cfg.c **** 			{0x18u, 0xFFu},
 775:Generated_Source\PSoC5/cyfitter_cfg.c **** 			{0x19u, 0x78u},
 776:Generated_Source\PSoC5/cyfitter_cfg.c **** 			{0x1Cu, 0xFFu},
ARM GAS  C:\Users\r\AppData\Local\Temp\cc1ZHhx7.s 			page 26


 777:Generated_Source\PSoC5/cyfitter_cfg.c **** 			{0x1Du, 0x18u},
 778:Generated_Source\PSoC5/cyfitter_cfg.c **** 			{0x1Fu, 0x60u},
 779:Generated_Source\PSoC5/cyfitter_cfg.c **** 			{0x20u, 0x33u},
 780:Generated_Source\PSoC5/cyfitter_cfg.c **** 			{0x21u, 0x28u},
 781:Generated_Source\PSoC5/cyfitter_cfg.c **** 			{0x22u, 0xCCu},
 782:Generated_Source\PSoC5/cyfitter_cfg.c **** 			{0x23u, 0x50u},
 783:Generated_Source\PSoC5/cyfitter_cfg.c **** 			{0x25u, 0x30u},
 784:Generated_Source\PSoC5/cyfitter_cfg.c **** 			{0x26u, 0xFFu},
 785:Generated_Source\PSoC5/cyfitter_cfg.c **** 			{0x27u, 0x48u},
 786:Generated_Source\PSoC5/cyfitter_cfg.c **** 			{0x28u, 0x69u},
 787:Generated_Source\PSoC5/cyfitter_cfg.c **** 			{0x29u, 0x81u},
 788:Generated_Source\PSoC5/cyfitter_cfg.c **** 			{0x2Au, 0x96u},
 789:Generated_Source\PSoC5/cyfitter_cfg.c **** 			{0x2Bu, 0x7Au},
 790:Generated_Source\PSoC5/cyfitter_cfg.c **** 			{0x2Fu, 0x80u},
 791:Generated_Source\PSoC5/cyfitter_cfg.c **** 			{0x31u, 0x7Fu},
 792:Generated_Source\PSoC5/cyfitter_cfg.c **** 			{0x32u, 0xFFu},
 793:Generated_Source\PSoC5/cyfitter_cfg.c **** 			{0x37u, 0x80u},
 794:Generated_Source\PSoC5/cyfitter_cfg.c **** 			{0x3Eu, 0x04u},
 795:Generated_Source\PSoC5/cyfitter_cfg.c **** 			{0x3Fu, 0x40u},
 796:Generated_Source\PSoC5/cyfitter_cfg.c **** 			{0x54u, 0x01u},
 797:Generated_Source\PSoC5/cyfitter_cfg.c **** 			{0x58u, 0x04u},
 798:Generated_Source\PSoC5/cyfitter_cfg.c **** 			{0x59u, 0x04u},
 799:Generated_Source\PSoC5/cyfitter_cfg.c **** 			{0x5Bu, 0x04u},
 800:Generated_Source\PSoC5/cyfitter_cfg.c **** 			{0x5Cu, 0x10u},
 801:Generated_Source\PSoC5/cyfitter_cfg.c **** 			{0x5Du, 0x10u},
 802:Generated_Source\PSoC5/cyfitter_cfg.c **** 			{0x5Fu, 0x01u},
 803:Generated_Source\PSoC5/cyfitter_cfg.c **** 			{0x80u, 0x01u},
 804:Generated_Source\PSoC5/cyfitter_cfg.c **** 			{0x82u, 0xFEu},
 805:Generated_Source\PSoC5/cyfitter_cfg.c **** 			{0x86u, 0x01u},
 806:Generated_Source\PSoC5/cyfitter_cfg.c **** 			{0x87u, 0xFEu},
 807:Generated_Source\PSoC5/cyfitter_cfg.c **** 			{0x88u, 0x7Eu},
 808:Generated_Source\PSoC5/cyfitter_cfg.c **** 			{0x89u, 0x97u},
 809:Generated_Source\PSoC5/cyfitter_cfg.c **** 			{0x8Au, 0x80u},
 810:Generated_Source\PSoC5/cyfitter_cfg.c **** 			{0x8Bu, 0x68u},
 811:Generated_Source\PSoC5/cyfitter_cfg.c **** 			{0x8Cu, 0xABu},
 812:Generated_Source\PSoC5/cyfitter_cfg.c **** 			{0x8Du, 0x54u},
 813:Generated_Source\PSoC5/cyfitter_cfg.c **** 			{0x8Eu, 0x54u},
 814:Generated_Source\PSoC5/cyfitter_cfg.c **** 			{0x8Fu, 0xABu},
 815:Generated_Source\PSoC5/cyfitter_cfg.c **** 			{0x91u, 0x32u},
 816:Generated_Source\PSoC5/cyfitter_cfg.c **** 			{0x93u, 0xCCu},
 817:Generated_Source\PSoC5/cyfitter_cfg.c **** 			{0x94u, 0x34u},
 818:Generated_Source\PSoC5/cyfitter_cfg.c **** 			{0x96u, 0xCBu},
 819:Generated_Source\PSoC5/cyfitter_cfg.c **** 			{0x97u, 0x01u},
 820:Generated_Source\PSoC5/cyfitter_cfg.c **** 			{0x9Au, 0xFFu},
 821:Generated_Source\PSoC5/cyfitter_cfg.c **** 			{0x9Bu, 0x01u},
 822:Generated_Source\PSoC5/cyfitter_cfg.c **** 			{0x9Fu, 0x01u},
 823:Generated_Source\PSoC5/cyfitter_cfg.c **** 			{0xA2u, 0x01u},
 824:Generated_Source\PSoC5/cyfitter_cfg.c **** 			{0xA6u, 0x01u},
 825:Generated_Source\PSoC5/cyfitter_cfg.c **** 			{0xA7u, 0xFFu},
 826:Generated_Source\PSoC5/cyfitter_cfg.c **** 			{0xA8u, 0x86u},
 827:Generated_Source\PSoC5/cyfitter_cfg.c **** 			{0xA9u, 0x0Eu},
 828:Generated_Source\PSoC5/cyfitter_cfg.c **** 			{0xAAu, 0x78u},
 829:Generated_Source\PSoC5/cyfitter_cfg.c **** 			{0xABu, 0xF0u},
 830:Generated_Source\PSoC5/cyfitter_cfg.c **** 			{0xACu, 0x98u},
 831:Generated_Source\PSoC5/cyfitter_cfg.c **** 			{0xADu, 0x01u},
 832:Generated_Source\PSoC5/cyfitter_cfg.c **** 			{0xAEu, 0x66u},
 833:Generated_Source\PSoC5/cyfitter_cfg.c **** 			{0xAFu, 0xFEu},
ARM GAS  C:\Users\r\AppData\Local\Temp\cc1ZHhx7.s 			page 27


 834:Generated_Source\PSoC5/cyfitter_cfg.c **** 			{0xB1u, 0xFFu},
 835:Generated_Source\PSoC5/cyfitter_cfg.c **** 			{0xB6u, 0xFFu},
 836:Generated_Source\PSoC5/cyfitter_cfg.c **** 			{0xBEu, 0x40u},
 837:Generated_Source\PSoC5/cyfitter_cfg.c **** 			{0xBFu, 0x01u},
 838:Generated_Source\PSoC5/cyfitter_cfg.c **** 			{0xD8u, 0x04u},
 839:Generated_Source\PSoC5/cyfitter_cfg.c **** 			{0xD9u, 0x04u},
 840:Generated_Source\PSoC5/cyfitter_cfg.c **** 			{0xDBu, 0x04u},
 841:Generated_Source\PSoC5/cyfitter_cfg.c **** 			{0xDFu, 0x01u},
 842:Generated_Source\PSoC5/cyfitter_cfg.c **** 			{0x00u, 0x40u},
 843:Generated_Source\PSoC5/cyfitter_cfg.c **** 			{0x01u, 0x02u},
 844:Generated_Source\PSoC5/cyfitter_cfg.c **** 			{0x02u, 0x40u},
 845:Generated_Source\PSoC5/cyfitter_cfg.c **** 			{0x04u, 0x60u},
 846:Generated_Source\PSoC5/cyfitter_cfg.c **** 			{0x06u, 0x80u},
 847:Generated_Source\PSoC5/cyfitter_cfg.c **** 			{0x07u, 0x10u},
 848:Generated_Source\PSoC5/cyfitter_cfg.c **** 			{0x08u, 0x20u},
 849:Generated_Source\PSoC5/cyfitter_cfg.c **** 			{0x0Bu, 0x82u},
 850:Generated_Source\PSoC5/cyfitter_cfg.c **** 			{0x0Cu, 0x20u},
 851:Generated_Source\PSoC5/cyfitter_cfg.c **** 			{0x0Fu, 0x20u},
 852:Generated_Source\PSoC5/cyfitter_cfg.c **** 			{0x10u, 0x20u},
 853:Generated_Source\PSoC5/cyfitter_cfg.c **** 			{0x11u, 0x01u},
 854:Generated_Source\PSoC5/cyfitter_cfg.c **** 			{0x12u, 0x80u},
 855:Generated_Source\PSoC5/cyfitter_cfg.c **** 			{0x13u, 0x10u},
 856:Generated_Source\PSoC5/cyfitter_cfg.c **** 			{0x14u, 0x05u},
 857:Generated_Source\PSoC5/cyfitter_cfg.c **** 			{0x15u, 0x09u},
 858:Generated_Source\PSoC5/cyfitter_cfg.c **** 			{0x19u, 0x08u},
 859:Generated_Source\PSoC5/cyfitter_cfg.c **** 			{0x1Cu, 0x02u},
 860:Generated_Source\PSoC5/cyfitter_cfg.c **** 			{0x21u, 0x02u},
 861:Generated_Source\PSoC5/cyfitter_cfg.c **** 			{0x23u, 0x01u},
 862:Generated_Source\PSoC5/cyfitter_cfg.c **** 			{0x26u, 0x02u},
 863:Generated_Source\PSoC5/cyfitter_cfg.c **** 			{0x28u, 0x4Au},
 864:Generated_Source\PSoC5/cyfitter_cfg.c **** 			{0x2Au, 0x04u},
 865:Generated_Source\PSoC5/cyfitter_cfg.c **** 			{0x2Cu, 0x2Cu},
 866:Generated_Source\PSoC5/cyfitter_cfg.c **** 			{0x2Eu, 0x80u},
 867:Generated_Source\PSoC5/cyfitter_cfg.c **** 			{0x2Fu, 0x03u},
 868:Generated_Source\PSoC5/cyfitter_cfg.c **** 			{0x30u, 0x20u},
 869:Generated_Source\PSoC5/cyfitter_cfg.c **** 			{0x31u, 0x0Au},
 870:Generated_Source\PSoC5/cyfitter_cfg.c **** 			{0x33u, 0x40u},
 871:Generated_Source\PSoC5/cyfitter_cfg.c **** 			{0x34u, 0x21u},
 872:Generated_Source\PSoC5/cyfitter_cfg.c **** 			{0x36u, 0x80u},
 873:Generated_Source\PSoC5/cyfitter_cfg.c **** 			{0x37u, 0x19u},
 874:Generated_Source\PSoC5/cyfitter_cfg.c **** 			{0x3Au, 0x08u},
 875:Generated_Source\PSoC5/cyfitter_cfg.c **** 			{0x3Cu, 0x40u},
 876:Generated_Source\PSoC5/cyfitter_cfg.c **** 			{0x3Du, 0x04u},
 877:Generated_Source\PSoC5/cyfitter_cfg.c **** 			{0x3Fu, 0xB0u},
 878:Generated_Source\PSoC5/cyfitter_cfg.c **** 			{0x41u, 0x0Au},
 879:Generated_Source\PSoC5/cyfitter_cfg.c **** 			{0x42u, 0x60u},
 880:Generated_Source\PSoC5/cyfitter_cfg.c **** 			{0x5Au, 0x40u},
 881:Generated_Source\PSoC5/cyfitter_cfg.c **** 			{0x6Cu, 0x18u},
 882:Generated_Source\PSoC5/cyfitter_cfg.c **** 			{0x6Du, 0x06u},
 883:Generated_Source\PSoC5/cyfitter_cfg.c **** 			{0x6Fu, 0x01u},
 884:Generated_Source\PSoC5/cyfitter_cfg.c **** 			{0x74u, 0x44u},
 885:Generated_Source\PSoC5/cyfitter_cfg.c **** 			{0x75u, 0x01u},
 886:Generated_Source\PSoC5/cyfitter_cfg.c **** 			{0x77u, 0x04u},
 887:Generated_Source\PSoC5/cyfitter_cfg.c **** 			{0x80u, 0x10u},
 888:Generated_Source\PSoC5/cyfitter_cfg.c **** 			{0x85u, 0x80u},
 889:Generated_Source\PSoC5/cyfitter_cfg.c **** 			{0x87u, 0x01u},
 890:Generated_Source\PSoC5/cyfitter_cfg.c **** 			{0x89u, 0x01u},
ARM GAS  C:\Users\r\AppData\Local\Temp\cc1ZHhx7.s 			page 28


 891:Generated_Source\PSoC5/cyfitter_cfg.c **** 			{0x8Au, 0x08u},
 892:Generated_Source\PSoC5/cyfitter_cfg.c **** 			{0x8Eu, 0x10u},
 893:Generated_Source\PSoC5/cyfitter_cfg.c **** 			{0x8Fu, 0x24u},
 894:Generated_Source\PSoC5/cyfitter_cfg.c **** 			{0x91u, 0x08u},
 895:Generated_Source\PSoC5/cyfitter_cfg.c **** 			{0x92u, 0x20u},
 896:Generated_Source\PSoC5/cyfitter_cfg.c **** 			{0x93u, 0x40u},
 897:Generated_Source\PSoC5/cyfitter_cfg.c **** 			{0x95u, 0x07u},
 898:Generated_Source\PSoC5/cyfitter_cfg.c **** 			{0x98u, 0xBAu},
 899:Generated_Source\PSoC5/cyfitter_cfg.c **** 			{0x99u, 0x10u},
 900:Generated_Source\PSoC5/cyfitter_cfg.c **** 			{0x9Au, 0x40u},
 901:Generated_Source\PSoC5/cyfitter_cfg.c **** 			{0x9Bu, 0x02u},
 902:Generated_Source\PSoC5/cyfitter_cfg.c **** 			{0x9Cu, 0x04u},
 903:Generated_Source\PSoC5/cyfitter_cfg.c **** 			{0x9Du, 0x08u},
 904:Generated_Source\PSoC5/cyfitter_cfg.c **** 			{0x9Eu, 0x08u},
 905:Generated_Source\PSoC5/cyfitter_cfg.c **** 			{0x9Fu, 0x05u},
 906:Generated_Source\PSoC5/cyfitter_cfg.c **** 			{0xA0u, 0x20u},
 907:Generated_Source\PSoC5/cyfitter_cfg.c **** 			{0xA1u, 0x08u},
 908:Generated_Source\PSoC5/cyfitter_cfg.c **** 			{0xA3u, 0x31u},
 909:Generated_Source\PSoC5/cyfitter_cfg.c **** 			{0xA4u, 0x05u},
 910:Generated_Source\PSoC5/cyfitter_cfg.c **** 			{0xA5u, 0xA0u},
 911:Generated_Source\PSoC5/cyfitter_cfg.c **** 			{0xA6u, 0x02u},
 912:Generated_Source\PSoC5/cyfitter_cfg.c **** 			{0xA7u, 0x42u},
 913:Generated_Source\PSoC5/cyfitter_cfg.c **** 			{0xAAu, 0x08u},
 914:Generated_Source\PSoC5/cyfitter_cfg.c **** 			{0xABu, 0x08u},
 915:Generated_Source\PSoC5/cyfitter_cfg.c **** 			{0xACu, 0x08u},
 916:Generated_Source\PSoC5/cyfitter_cfg.c **** 			{0xADu, 0x02u},
 917:Generated_Source\PSoC5/cyfitter_cfg.c **** 			{0xAEu, 0x10u},
 918:Generated_Source\PSoC5/cyfitter_cfg.c **** 			{0xB4u, 0x02u},
 919:Generated_Source\PSoC5/cyfitter_cfg.c **** 			{0xB5u, 0x40u},
 920:Generated_Source\PSoC5/cyfitter_cfg.c **** 			{0xC0u, 0xF1u},
 921:Generated_Source\PSoC5/cyfitter_cfg.c **** 			{0xC2u, 0x6Bu},
 922:Generated_Source\PSoC5/cyfitter_cfg.c **** 			{0xC4u, 0xFEu},
 923:Generated_Source\PSoC5/cyfitter_cfg.c **** 			{0xCAu, 0x7Fu},
 924:Generated_Source\PSoC5/cyfitter_cfg.c **** 			{0xCCu, 0xFFu},
 925:Generated_Source\PSoC5/cyfitter_cfg.c **** 			{0xCEu, 0x72u},
 926:Generated_Source\PSoC5/cyfitter_cfg.c **** 			{0xD6u, 0x08u},
 927:Generated_Source\PSoC5/cyfitter_cfg.c **** 			{0xE2u, 0x08u},
 928:Generated_Source\PSoC5/cyfitter_cfg.c **** 			{0xE4u, 0x08u},
 929:Generated_Source\PSoC5/cyfitter_cfg.c **** 			{0xE6u, 0x03u},
 930:Generated_Source\PSoC5/cyfitter_cfg.c **** 			{0xEAu, 0x06u},
 931:Generated_Source\PSoC5/cyfitter_cfg.c **** 			{0xEEu, 0xC8u},
 932:Generated_Source\PSoC5/cyfitter_cfg.c **** 			{0x00u, 0x04u},
 933:Generated_Source\PSoC5/cyfitter_cfg.c **** 			{0x02u, 0x08u},
 934:Generated_Source\PSoC5/cyfitter_cfg.c **** 			{0x03u, 0x80u},
 935:Generated_Source\PSoC5/cyfitter_cfg.c **** 			{0x08u, 0x02u},
 936:Generated_Source\PSoC5/cyfitter_cfg.c **** 			{0x0Au, 0x01u},
 937:Generated_Source\PSoC5/cyfitter_cfg.c **** 			{0x0Fu, 0x08u},
 938:Generated_Source\PSoC5/cyfitter_cfg.c **** 			{0x13u, 0x20u},
 939:Generated_Source\PSoC5/cyfitter_cfg.c **** 			{0x15u, 0x09u},
 940:Generated_Source\PSoC5/cyfitter_cfg.c **** 			{0x16u, 0x20u},
 941:Generated_Source\PSoC5/cyfitter_cfg.c **** 			{0x17u, 0x02u},
 942:Generated_Source\PSoC5/cyfitter_cfg.c **** 			{0x18u, 0x01u},
 943:Generated_Source\PSoC5/cyfitter_cfg.c **** 			{0x1Au, 0x02u},
 944:Generated_Source\PSoC5/cyfitter_cfg.c **** 			{0x1Bu, 0x40u},
 945:Generated_Source\PSoC5/cyfitter_cfg.c **** 			{0x1Cu, 0x08u},
 946:Generated_Source\PSoC5/cyfitter_cfg.c **** 			{0x1Eu, 0x04u},
 947:Generated_Source\PSoC5/cyfitter_cfg.c **** 			{0x1Fu, 0x17u},
ARM GAS  C:\Users\r\AppData\Local\Temp\cc1ZHhx7.s 			page 29


 948:Generated_Source\PSoC5/cyfitter_cfg.c **** 			{0x20u, 0x13u},
 949:Generated_Source\PSoC5/cyfitter_cfg.c **** 			{0x22u, 0x2Cu},
 950:Generated_Source\PSoC5/cyfitter_cfg.c **** 			{0x25u, 0x04u},
 951:Generated_Source\PSoC5/cyfitter_cfg.c **** 			{0x26u, 0x10u},
 952:Generated_Source\PSoC5/cyfitter_cfg.c **** 			{0x27u, 0x08u},
 953:Generated_Source\PSoC5/cyfitter_cfg.c **** 			{0x29u, 0x0Au},
 954:Generated_Source\PSoC5/cyfitter_cfg.c **** 			{0x2Bu, 0x05u},
 955:Generated_Source\PSoC5/cyfitter_cfg.c **** 			{0x2Du, 0x50u},
 956:Generated_Source\PSoC5/cyfitter_cfg.c **** 			{0x2Fu, 0xA0u},
 957:Generated_Source\PSoC5/cyfitter_cfg.c **** 			{0x30u, 0x0Fu},
 958:Generated_Source\PSoC5/cyfitter_cfg.c **** 			{0x32u, 0x30u},
 959:Generated_Source\PSoC5/cyfitter_cfg.c **** 			{0x33u, 0xC0u},
 960:Generated_Source\PSoC5/cyfitter_cfg.c **** 			{0x35u, 0x30u},
 961:Generated_Source\PSoC5/cyfitter_cfg.c **** 			{0x37u, 0x0Fu},
 962:Generated_Source\PSoC5/cyfitter_cfg.c **** 			{0x3Eu, 0x05u},
 963:Generated_Source\PSoC5/cyfitter_cfg.c **** 			{0x3Fu, 0x14u},
 964:Generated_Source\PSoC5/cyfitter_cfg.c **** 			{0x58u, 0x04u},
 965:Generated_Source\PSoC5/cyfitter_cfg.c **** 			{0x59u, 0x04u},
 966:Generated_Source\PSoC5/cyfitter_cfg.c **** 			{0x5Cu, 0x10u},
 967:Generated_Source\PSoC5/cyfitter_cfg.c **** 			{0x5Fu, 0x01u},
 968:Generated_Source\PSoC5/cyfitter_cfg.c **** 			{0x81u, 0x9Bu},
 969:Generated_Source\PSoC5/cyfitter_cfg.c **** 			{0x84u, 0x43u},
 970:Generated_Source\PSoC5/cyfitter_cfg.c **** 			{0x85u, 0x9Bu},
 971:Generated_Source\PSoC5/cyfitter_cfg.c **** 			{0x86u, 0x2Cu},
 972:Generated_Source\PSoC5/cyfitter_cfg.c **** 			{0x89u, 0x1Bu},
 973:Generated_Source\PSoC5/cyfitter_cfg.c **** 			{0x8Au, 0x08u},
 974:Generated_Source\PSoC5/cyfitter_cfg.c **** 			{0x8Bu, 0x80u},
 975:Generated_Source\PSoC5/cyfitter_cfg.c **** 			{0x8Du, 0x9Au},
 976:Generated_Source\PSoC5/cyfitter_cfg.c **** 			{0x8Fu, 0x01u},
 977:Generated_Source\PSoC5/cyfitter_cfg.c **** 			{0x93u, 0x01u},
 978:Generated_Source\PSoC5/cyfitter_cfg.c **** 			{0x95u, 0x9Bu},
 979:Generated_Source\PSoC5/cyfitter_cfg.c **** 			{0x98u, 0x35u},
 980:Generated_Source\PSoC5/cyfitter_cfg.c **** 			{0x99u, 0x04u},
 981:Generated_Source\PSoC5/cyfitter_cfg.c **** 			{0x9Au, 0x42u},
 982:Generated_Source\PSoC5/cyfitter_cfg.c **** 			{0x9Bu, 0xB0u},
 983:Generated_Source\PSoC5/cyfitter_cfg.c **** 			{0x9Cu, 0x01u},
 984:Generated_Source\PSoC5/cyfitter_cfg.c **** 			{0x9Du, 0x04u},
 985:Generated_Source\PSoC5/cyfitter_cfg.c **** 			{0x9Eu, 0x5Eu},
 986:Generated_Source\PSoC5/cyfitter_cfg.c **** 			{0x9Fu, 0x1Au},
 987:Generated_Source\PSoC5/cyfitter_cfg.c **** 			{0xA1u, 0xE2u},
 988:Generated_Source\PSoC5/cyfitter_cfg.c **** 			{0xA3u, 0x04u},
 989:Generated_Source\PSoC5/cyfitter_cfg.c **** 			{0xA4u, 0x04u},
 990:Generated_Source\PSoC5/cyfitter_cfg.c **** 			{0xA5u, 0x64u},
 991:Generated_Source\PSoC5/cyfitter_cfg.c **** 			{0xA6u, 0x03u},
 992:Generated_Source\PSoC5/cyfitter_cfg.c **** 			{0xA7u, 0x08u},
 993:Generated_Source\PSoC5/cyfitter_cfg.c **** 			{0xABu, 0x40u},
 994:Generated_Source\PSoC5/cyfitter_cfg.c **** 			{0xADu, 0x80u},
 995:Generated_Source\PSoC5/cyfitter_cfg.c **** 			{0xB0u, 0x40u},
 996:Generated_Source\PSoC5/cyfitter_cfg.c **** 			{0xB2u, 0x38u},
 997:Generated_Source\PSoC5/cyfitter_cfg.c **** 			{0xB3u, 0x01u},
 998:Generated_Source\PSoC5/cyfitter_cfg.c **** 			{0xB4u, 0x07u},
 999:Generated_Source\PSoC5/cyfitter_cfg.c **** 			{0xB5u, 0xE0u},
1000:Generated_Source\PSoC5/cyfitter_cfg.c **** 			{0xB7u, 0x1Eu},
1001:Generated_Source\PSoC5/cyfitter_cfg.c **** 			{0xBAu, 0x20u},
1002:Generated_Source\PSoC5/cyfitter_cfg.c **** 			{0xBBu, 0xB0u},
1003:Generated_Source\PSoC5/cyfitter_cfg.c **** 			{0xBEu, 0x01u},
1004:Generated_Source\PSoC5/cyfitter_cfg.c **** 			{0xBFu, 0x04u},
ARM GAS  C:\Users\r\AppData\Local\Temp\cc1ZHhx7.s 			page 30


1005:Generated_Source\PSoC5/cyfitter_cfg.c **** 			{0xD8u, 0x04u},
1006:Generated_Source\PSoC5/cyfitter_cfg.c **** 			{0xD9u, 0x04u},
1007:Generated_Source\PSoC5/cyfitter_cfg.c **** 			{0xDBu, 0x04u},
1008:Generated_Source\PSoC5/cyfitter_cfg.c **** 			{0xDFu, 0x01u},
1009:Generated_Source\PSoC5/cyfitter_cfg.c **** 			{0x03u, 0x28u},
1010:Generated_Source\PSoC5/cyfitter_cfg.c **** 			{0x05u, 0x10u},
1011:Generated_Source\PSoC5/cyfitter_cfg.c **** 			{0x06u, 0x80u},
1012:Generated_Source\PSoC5/cyfitter_cfg.c **** 			{0x09u, 0x20u},
1013:Generated_Source\PSoC5/cyfitter_cfg.c **** 			{0x0Au, 0x02u},
1014:Generated_Source\PSoC5/cyfitter_cfg.c **** 			{0x0Cu, 0x08u},
1015:Generated_Source\PSoC5/cyfitter_cfg.c **** 			{0x0Fu, 0x0Au},
1016:Generated_Source\PSoC5/cyfitter_cfg.c **** 			{0x11u, 0x08u},
1017:Generated_Source\PSoC5/cyfitter_cfg.c **** 			{0x15u, 0x08u},
1018:Generated_Source\PSoC5/cyfitter_cfg.c **** 			{0x16u, 0x40u},
1019:Generated_Source\PSoC5/cyfitter_cfg.c **** 			{0x18u, 0x04u},
1020:Generated_Source\PSoC5/cyfitter_cfg.c **** 			{0x1Au, 0x80u},
1021:Generated_Source\PSoC5/cyfitter_cfg.c **** 			{0x1Bu, 0x08u},
1022:Generated_Source\PSoC5/cyfitter_cfg.c **** 			{0x1Cu, 0x40u},
1023:Generated_Source\PSoC5/cyfitter_cfg.c **** 			{0x1Du, 0x08u},
1024:Generated_Source\PSoC5/cyfitter_cfg.c **** 			{0x20u, 0x28u},
1025:Generated_Source\PSoC5/cyfitter_cfg.c **** 			{0x21u, 0xA0u},
1026:Generated_Source\PSoC5/cyfitter_cfg.c **** 			{0x23u, 0x04u},
1027:Generated_Source\PSoC5/cyfitter_cfg.c **** 			{0x26u, 0x80u},
1028:Generated_Source\PSoC5/cyfitter_cfg.c **** 			{0x27u, 0x28u},
1029:Generated_Source\PSoC5/cyfitter_cfg.c **** 			{0x28u, 0x01u},
1030:Generated_Source\PSoC5/cyfitter_cfg.c **** 			{0x2Au, 0x10u},
1031:Generated_Source\PSoC5/cyfitter_cfg.c **** 			{0x2Bu, 0xA0u},
1032:Generated_Source\PSoC5/cyfitter_cfg.c **** 			{0x2Eu, 0x28u},
1033:Generated_Source\PSoC5/cyfitter_cfg.c **** 			{0x2Fu, 0x02u},
1034:Generated_Source\PSoC5/cyfitter_cfg.c **** 			{0x30u, 0x06u},
1035:Generated_Source\PSoC5/cyfitter_cfg.c **** 			{0x31u, 0xA0u},
1036:Generated_Source\PSoC5/cyfitter_cfg.c **** 			{0x32u, 0x02u},
1037:Generated_Source\PSoC5/cyfitter_cfg.c **** 			{0x34u, 0x08u},
1038:Generated_Source\PSoC5/cyfitter_cfg.c **** 			{0x35u, 0x10u},
1039:Generated_Source\PSoC5/cyfitter_cfg.c **** 			{0x36u, 0x80u},
1040:Generated_Source\PSoC5/cyfitter_cfg.c **** 			{0x37u, 0x01u},
1041:Generated_Source\PSoC5/cyfitter_cfg.c **** 			{0x39u, 0x54u},
1042:Generated_Source\PSoC5/cyfitter_cfg.c **** 			{0x3Au, 0x02u},
1043:Generated_Source\PSoC5/cyfitter_cfg.c **** 			{0x3Du, 0x02u},
1044:Generated_Source\PSoC5/cyfitter_cfg.c **** 			{0x3Fu, 0x42u},
1045:Generated_Source\PSoC5/cyfitter_cfg.c **** 			{0x58u, 0x90u},
1046:Generated_Source\PSoC5/cyfitter_cfg.c **** 			{0x59u, 0x06u},
1047:Generated_Source\PSoC5/cyfitter_cfg.c **** 			{0x63u, 0x01u},
1048:Generated_Source\PSoC5/cyfitter_cfg.c **** 			{0x7Cu, 0x04u},
1049:Generated_Source\PSoC5/cyfitter_cfg.c **** 			{0x7Du, 0x08u},
1050:Generated_Source\PSoC5/cyfitter_cfg.c **** 			{0x82u, 0x04u},
1051:Generated_Source\PSoC5/cyfitter_cfg.c **** 			{0x87u, 0x08u},
1052:Generated_Source\PSoC5/cyfitter_cfg.c **** 			{0x8Bu, 0x08u},
1053:Generated_Source\PSoC5/cyfitter_cfg.c **** 			{0x90u, 0x10u},
1054:Generated_Source\PSoC5/cyfitter_cfg.c **** 			{0x91u, 0x08u},
1055:Generated_Source\PSoC5/cyfitter_cfg.c **** 			{0x93u, 0x41u},
1056:Generated_Source\PSoC5/cyfitter_cfg.c **** 			{0x94u, 0x40u},
1057:Generated_Source\PSoC5/cyfitter_cfg.c **** 			{0x98u, 0x98u},
1058:Generated_Source\PSoC5/cyfitter_cfg.c **** 			{0x99u, 0x16u},
1059:Generated_Source\PSoC5/cyfitter_cfg.c **** 			{0x9Au, 0x28u},
1060:Generated_Source\PSoC5/cyfitter_cfg.c **** 			{0x9Bu, 0x01u},
1061:Generated_Source\PSoC5/cyfitter_cfg.c **** 			{0x9Eu, 0x04u},
ARM GAS  C:\Users\r\AppData\Local\Temp\cc1ZHhx7.s 			page 31


1062:Generated_Source\PSoC5/cyfitter_cfg.c **** 			{0x9Fu, 0x60u},
1063:Generated_Source\PSoC5/cyfitter_cfg.c **** 			{0xA0u, 0x48u},
1064:Generated_Source\PSoC5/cyfitter_cfg.c **** 			{0xA1u, 0x01u},
1065:Generated_Source\PSoC5/cyfitter_cfg.c **** 			{0xA3u, 0x04u},
1066:Generated_Source\PSoC5/cyfitter_cfg.c **** 			{0xA6u, 0x80u},
1067:Generated_Source\PSoC5/cyfitter_cfg.c **** 			{0xA7u, 0x02u},
1068:Generated_Source\PSoC5/cyfitter_cfg.c **** 			{0xADu, 0x04u},
1069:Generated_Source\PSoC5/cyfitter_cfg.c **** 			{0xAFu, 0x4Au},
1070:Generated_Source\PSoC5/cyfitter_cfg.c **** 			{0xB0u, 0x40u},
1071:Generated_Source\PSoC5/cyfitter_cfg.c **** 			{0xB4u, 0x02u},
1072:Generated_Source\PSoC5/cyfitter_cfg.c **** 			{0xB5u, 0x25u},
1073:Generated_Source\PSoC5/cyfitter_cfg.c **** 			{0xB7u, 0x24u},
1074:Generated_Source\PSoC5/cyfitter_cfg.c **** 			{0xC0u, 0x56u},
1075:Generated_Source\PSoC5/cyfitter_cfg.c **** 			{0xC2u, 0xE3u},
1076:Generated_Source\PSoC5/cyfitter_cfg.c **** 			{0xC4u, 0x34u},
1077:Generated_Source\PSoC5/cyfitter_cfg.c **** 			{0xCAu, 0x7Fu},
1078:Generated_Source\PSoC5/cyfitter_cfg.c **** 			{0xCCu, 0xFFu},
1079:Generated_Source\PSoC5/cyfitter_cfg.c **** 			{0xCEu, 0x9Fu},
1080:Generated_Source\PSoC5/cyfitter_cfg.c **** 			{0xD6u, 0x0Fu},
1081:Generated_Source\PSoC5/cyfitter_cfg.c **** 			{0xD8u, 0x08u},
1082:Generated_Source\PSoC5/cyfitter_cfg.c **** 			{0xE0u, 0x08u},
1083:Generated_Source\PSoC5/cyfitter_cfg.c **** 			{0xE2u, 0x25u},
1084:Generated_Source\PSoC5/cyfitter_cfg.c **** 			{0xE6u, 0x01u},
1085:Generated_Source\PSoC5/cyfitter_cfg.c **** 			{0xECu, 0x02u},
1086:Generated_Source\PSoC5/cyfitter_cfg.c **** 			{0x02u, 0x08u},
1087:Generated_Source\PSoC5/cyfitter_cfg.c **** 			{0x06u, 0x10u},
1088:Generated_Source\PSoC5/cyfitter_cfg.c **** 			{0x07u, 0x1Cu},
1089:Generated_Source\PSoC5/cyfitter_cfg.c **** 			{0x09u, 0x02u},
1090:Generated_Source\PSoC5/cyfitter_cfg.c **** 			{0x0Au, 0x04u},
1091:Generated_Source\PSoC5/cyfitter_cfg.c **** 			{0x0Bu, 0x81u},
1092:Generated_Source\PSoC5/cyfitter_cfg.c **** 			{0x0Fu, 0x20u},
1093:Generated_Source\PSoC5/cyfitter_cfg.c **** 			{0x10u, 0x0Au},
1094:Generated_Source\PSoC5/cyfitter_cfg.c **** 			{0x11u, 0x02u},
1095:Generated_Source\PSoC5/cyfitter_cfg.c **** 			{0x12u, 0x14u},
1096:Generated_Source\PSoC5/cyfitter_cfg.c **** 			{0x13u, 0x41u},
1097:Generated_Source\PSoC5/cyfitter_cfg.c **** 			{0x19u, 0x28u},
1098:Generated_Source\PSoC5/cyfitter_cfg.c **** 			{0x1Au, 0x02u},
1099:Generated_Source\PSoC5/cyfitter_cfg.c **** 			{0x1Bu, 0x14u},
1100:Generated_Source\PSoC5/cyfitter_cfg.c **** 			{0x1Du, 0x02u},
1101:Generated_Source\PSoC5/cyfitter_cfg.c **** 			{0x1Fu, 0x01u},
1102:Generated_Source\PSoC5/cyfitter_cfg.c **** 			{0x21u, 0x24u},
1103:Generated_Source\PSoC5/cyfitter_cfg.c **** 			{0x23u, 0x08u},
1104:Generated_Source\PSoC5/cyfitter_cfg.c **** 			{0x24u, 0x01u},
1105:Generated_Source\PSoC5/cyfitter_cfg.c **** 			{0x25u, 0x01u},
1106:Generated_Source\PSoC5/cyfitter_cfg.c **** 			{0x27u, 0x02u},
1107:Generated_Source\PSoC5/cyfitter_cfg.c **** 			{0x29u, 0x02u},
1108:Generated_Source\PSoC5/cyfitter_cfg.c **** 			{0x2Bu, 0x01u},
1109:Generated_Source\PSoC5/cyfitter_cfg.c **** 			{0x2Du, 0x10u},
1110:Generated_Source\PSoC5/cyfitter_cfg.c **** 			{0x2Fu, 0x20u},
1111:Generated_Source\PSoC5/cyfitter_cfg.c **** 			{0x31u, 0x40u},
1112:Generated_Source\PSoC5/cyfitter_cfg.c **** 			{0x32u, 0x18u},
1113:Generated_Source\PSoC5/cyfitter_cfg.c **** 			{0x33u, 0x3Cu},
1114:Generated_Source\PSoC5/cyfitter_cfg.c **** 			{0x34u, 0x06u},
1115:Generated_Source\PSoC5/cyfitter_cfg.c **** 			{0x35u, 0x03u},
1116:Generated_Source\PSoC5/cyfitter_cfg.c **** 			{0x36u, 0x01u},
1117:Generated_Source\PSoC5/cyfitter_cfg.c **** 			{0x37u, 0x80u},
1118:Generated_Source\PSoC5/cyfitter_cfg.c **** 			{0x3Bu, 0x20u},
ARM GAS  C:\Users\r\AppData\Local\Temp\cc1ZHhx7.s 			page 32


1119:Generated_Source\PSoC5/cyfitter_cfg.c **** 			{0x3Eu, 0x14u},
1120:Generated_Source\PSoC5/cyfitter_cfg.c **** 			{0x54u, 0x40u},
1121:Generated_Source\PSoC5/cyfitter_cfg.c **** 			{0x56u, 0x04u},
1122:Generated_Source\PSoC5/cyfitter_cfg.c **** 			{0x58u, 0x04u},
1123:Generated_Source\PSoC5/cyfitter_cfg.c **** 			{0x59u, 0x04u},
1124:Generated_Source\PSoC5/cyfitter_cfg.c **** 			{0x5Bu, 0x04u},
1125:Generated_Source\PSoC5/cyfitter_cfg.c **** 			{0x5Cu, 0x19u},
1126:Generated_Source\PSoC5/cyfitter_cfg.c **** 			{0x5Fu, 0x01u},
1127:Generated_Source\PSoC5/cyfitter_cfg.c **** 			{0x82u, 0xFFu},
1128:Generated_Source\PSoC5/cyfitter_cfg.c **** 			{0x84u, 0x33u},
1129:Generated_Source\PSoC5/cyfitter_cfg.c **** 			{0x86u, 0xCCu},
1130:Generated_Source\PSoC5/cyfitter_cfg.c **** 			{0x87u, 0xFFu},
1131:Generated_Source\PSoC5/cyfitter_cfg.c **** 			{0x89u, 0x0Fu},
1132:Generated_Source\PSoC5/cyfitter_cfg.c **** 			{0x8Bu, 0xF0u},
1133:Generated_Source\PSoC5/cyfitter_cfg.c **** 			{0x8Cu, 0x0Fu},
1134:Generated_Source\PSoC5/cyfitter_cfg.c **** 			{0x8Eu, 0xF0u},
1135:Generated_Source\PSoC5/cyfitter_cfg.c **** 			{0x8Fu, 0xFFu},
1136:Generated_Source\PSoC5/cyfitter_cfg.c **** 			{0x90u, 0x55u},
1137:Generated_Source\PSoC5/cyfitter_cfg.c **** 			{0x92u, 0xAAu},
1138:Generated_Source\PSoC5/cyfitter_cfg.c **** 			{0x93u, 0xFFu},
1139:Generated_Source\PSoC5/cyfitter_cfg.c **** 			{0x94u, 0xFFu},
1140:Generated_Source\PSoC5/cyfitter_cfg.c **** 			{0x99u, 0x96u},
1141:Generated_Source\PSoC5/cyfitter_cfg.c **** 			{0x9Au, 0xFFu},
1142:Generated_Source\PSoC5/cyfitter_cfg.c **** 			{0x9Bu, 0x69u},
1143:Generated_Source\PSoC5/cyfitter_cfg.c **** 			{0x9Du, 0x33u},
1144:Generated_Source\PSoC5/cyfitter_cfg.c **** 			{0x9Fu, 0xCCu},
1145:Generated_Source\PSoC5/cyfitter_cfg.c **** 			{0xA4u, 0xFFu},
1146:Generated_Source\PSoC5/cyfitter_cfg.c **** 			{0xA5u, 0xFFu},
1147:Generated_Source\PSoC5/cyfitter_cfg.c **** 			{0xA8u, 0x69u},
1148:Generated_Source\PSoC5/cyfitter_cfg.c **** 			{0xA9u, 0xFFu},
1149:Generated_Source\PSoC5/cyfitter_cfg.c **** 			{0xAAu, 0x96u},
1150:Generated_Source\PSoC5/cyfitter_cfg.c **** 			{0xADu, 0x55u},
1151:Generated_Source\PSoC5/cyfitter_cfg.c **** 			{0xAEu, 0xFFu},
1152:Generated_Source\PSoC5/cyfitter_cfg.c **** 			{0xAFu, 0xAAu},
1153:Generated_Source\PSoC5/cyfitter_cfg.c **** 			{0xB0u, 0xFFu},
1154:Generated_Source\PSoC5/cyfitter_cfg.c **** 			{0xB3u, 0xFFu},
1155:Generated_Source\PSoC5/cyfitter_cfg.c **** 			{0xBAu, 0x02u},
1156:Generated_Source\PSoC5/cyfitter_cfg.c **** 			{0xBBu, 0x08u},
1157:Generated_Source\PSoC5/cyfitter_cfg.c **** 			{0xD6u, 0x08u},
1158:Generated_Source\PSoC5/cyfitter_cfg.c **** 			{0xD8u, 0x04u},
1159:Generated_Source\PSoC5/cyfitter_cfg.c **** 			{0xD9u, 0x04u},
1160:Generated_Source\PSoC5/cyfitter_cfg.c **** 			{0xDBu, 0x04u},
1161:Generated_Source\PSoC5/cyfitter_cfg.c **** 			{0xDCu, 0x11u},
1162:Generated_Source\PSoC5/cyfitter_cfg.c **** 			{0xDDu, 0x90u},
1163:Generated_Source\PSoC5/cyfitter_cfg.c **** 			{0xDFu, 0x01u},
1164:Generated_Source\PSoC5/cyfitter_cfg.c **** 			{0x00u, 0x06u},
1165:Generated_Source\PSoC5/cyfitter_cfg.c **** 			{0x03u, 0x02u},
1166:Generated_Source\PSoC5/cyfitter_cfg.c **** 			{0x04u, 0x20u},
1167:Generated_Source\PSoC5/cyfitter_cfg.c **** 			{0x05u, 0x02u},
1168:Generated_Source\PSoC5/cyfitter_cfg.c **** 			{0x06u, 0x10u},
1169:Generated_Source\PSoC5/cyfitter_cfg.c **** 			{0x08u, 0x02u},
1170:Generated_Source\PSoC5/cyfitter_cfg.c **** 			{0x09u, 0x10u},
1171:Generated_Source\PSoC5/cyfitter_cfg.c **** 			{0x0Bu, 0x20u},
1172:Generated_Source\PSoC5/cyfitter_cfg.c **** 			{0x0Cu, 0x02u},
1173:Generated_Source\PSoC5/cyfitter_cfg.c **** 			{0x0Eu, 0x04u},
1174:Generated_Source\PSoC5/cyfitter_cfg.c **** 			{0x10u, 0x10u},
1175:Generated_Source\PSoC5/cyfitter_cfg.c **** 			{0x11u, 0x40u},
ARM GAS  C:\Users\r\AppData\Local\Temp\cc1ZHhx7.s 			page 33


1176:Generated_Source\PSoC5/cyfitter_cfg.c **** 			{0x12u, 0x06u},
1177:Generated_Source\PSoC5/cyfitter_cfg.c **** 			{0x15u, 0x04u},
1178:Generated_Source\PSoC5/cyfitter_cfg.c **** 			{0x17u, 0x08u},
1179:Generated_Source\PSoC5/cyfitter_cfg.c **** 			{0x1Au, 0x80u},
1180:Generated_Source\PSoC5/cyfitter_cfg.c **** 			{0x1Bu, 0x02u},
1181:Generated_Source\PSoC5/cyfitter_cfg.c **** 			{0x1Eu, 0x08u},
1182:Generated_Source\PSoC5/cyfitter_cfg.c **** 			{0x1Fu, 0x88u},
1183:Generated_Source\PSoC5/cyfitter_cfg.c **** 			{0x20u, 0x10u},
1184:Generated_Source\PSoC5/cyfitter_cfg.c **** 			{0x21u, 0x08u},
1185:Generated_Source\PSoC5/cyfitter_cfg.c **** 			{0x24u, 0x08u},
1186:Generated_Source\PSoC5/cyfitter_cfg.c **** 			{0x25u, 0x14u},
1187:Generated_Source\PSoC5/cyfitter_cfg.c **** 			{0x27u, 0x49u},
1188:Generated_Source\PSoC5/cyfitter_cfg.c **** 			{0x28u, 0x10u},
1189:Generated_Source\PSoC5/cyfitter_cfg.c **** 			{0x29u, 0x10u},
1190:Generated_Source\PSoC5/cyfitter_cfg.c **** 			{0x2Au, 0x40u},
1191:Generated_Source\PSoC5/cyfitter_cfg.c **** 			{0x2Du, 0x44u},
1192:Generated_Source\PSoC5/cyfitter_cfg.c **** 			{0x2Fu, 0x44u},
1193:Generated_Source\PSoC5/cyfitter_cfg.c **** 			{0x31u, 0x60u},
1194:Generated_Source\PSoC5/cyfitter_cfg.c **** 			{0x32u, 0x02u},
1195:Generated_Source\PSoC5/cyfitter_cfg.c **** 			{0x34u, 0x10u},
1196:Generated_Source\PSoC5/cyfitter_cfg.c **** 			{0x37u, 0x61u},
1197:Generated_Source\PSoC5/cyfitter_cfg.c **** 			{0x38u, 0x18u},
1198:Generated_Source\PSoC5/cyfitter_cfg.c **** 			{0x39u, 0x80u},
1199:Generated_Source\PSoC5/cyfitter_cfg.c **** 			{0x3Bu, 0x80u},
1200:Generated_Source\PSoC5/cyfitter_cfg.c **** 			{0x3Cu, 0x80u},
1201:Generated_Source\PSoC5/cyfitter_cfg.c **** 			{0x3Du, 0x08u},
1202:Generated_Source\PSoC5/cyfitter_cfg.c **** 			{0x3Eu, 0x10u},
1203:Generated_Source\PSoC5/cyfitter_cfg.c **** 			{0x58u, 0x60u},
1204:Generated_Source\PSoC5/cyfitter_cfg.c **** 			{0x61u, 0x60u},
1205:Generated_Source\PSoC5/cyfitter_cfg.c **** 			{0x65u, 0x01u},
1206:Generated_Source\PSoC5/cyfitter_cfg.c **** 			{0x66u, 0x20u},
1207:Generated_Source\PSoC5/cyfitter_cfg.c **** 			{0x67u, 0x11u},
1208:Generated_Source\PSoC5/cyfitter_cfg.c **** 			{0x81u, 0x09u},
1209:Generated_Source\PSoC5/cyfitter_cfg.c **** 			{0x82u, 0x04u},
1210:Generated_Source\PSoC5/cyfitter_cfg.c **** 			{0x87u, 0x08u},
1211:Generated_Source\PSoC5/cyfitter_cfg.c **** 			{0x8Cu, 0x20u},
1212:Generated_Source\PSoC5/cyfitter_cfg.c **** 			{0x90u, 0x24u},
1213:Generated_Source\PSoC5/cyfitter_cfg.c **** 			{0x91u, 0x80u},
1214:Generated_Source\PSoC5/cyfitter_cfg.c **** 			{0x92u, 0x14u},
1215:Generated_Source\PSoC5/cyfitter_cfg.c **** 			{0x93u, 0x28u},
1216:Generated_Source\PSoC5/cyfitter_cfg.c **** 			{0x94u, 0x08u},
1217:Generated_Source\PSoC5/cyfitter_cfg.c **** 			{0x98u, 0x02u},
1218:Generated_Source\PSoC5/cyfitter_cfg.c **** 			{0x99u, 0x12u},
1219:Generated_Source\PSoC5/cyfitter_cfg.c **** 			{0x9Au, 0x44u},
1220:Generated_Source\PSoC5/cyfitter_cfg.c **** 			{0x9Bu, 0x20u},
1221:Generated_Source\PSoC5/cyfitter_cfg.c **** 			{0x9Cu, 0x80u},
1222:Generated_Source\PSoC5/cyfitter_cfg.c **** 			{0x9Fu, 0x08u},
1223:Generated_Source\PSoC5/cyfitter_cfg.c **** 			{0xA0u, 0x41u},
1224:Generated_Source\PSoC5/cyfitter_cfg.c **** 			{0xA2u, 0x02u},
1225:Generated_Source\PSoC5/cyfitter_cfg.c **** 			{0xA4u, 0x02u},
1226:Generated_Source\PSoC5/cyfitter_cfg.c **** 			{0xA5u, 0x65u},
1227:Generated_Source\PSoC5/cyfitter_cfg.c **** 			{0xB1u, 0x20u},
1228:Generated_Source\PSoC5/cyfitter_cfg.c **** 			{0xB2u, 0x10u},
1229:Generated_Source\PSoC5/cyfitter_cfg.c **** 			{0xB3u, 0x48u},
1230:Generated_Source\PSoC5/cyfitter_cfg.c **** 			{0xB4u, 0x18u},
1231:Generated_Source\PSoC5/cyfitter_cfg.c **** 			{0xB5u, 0x40u},
1232:Generated_Source\PSoC5/cyfitter_cfg.c **** 			{0xC0u, 0x7Du},
ARM GAS  C:\Users\r\AppData\Local\Temp\cc1ZHhx7.s 			page 34


1233:Generated_Source\PSoC5/cyfitter_cfg.c **** 			{0xC2u, 0x5Eu},
1234:Generated_Source\PSoC5/cyfitter_cfg.c **** 			{0xC4u, 0x27u},
1235:Generated_Source\PSoC5/cyfitter_cfg.c **** 			{0xCAu, 0xFEu},
1236:Generated_Source\PSoC5/cyfitter_cfg.c **** 			{0xCCu, 0xBDu},
1237:Generated_Source\PSoC5/cyfitter_cfg.c **** 			{0xCEu, 0x7Eu},
1238:Generated_Source\PSoC5/cyfitter_cfg.c **** 			{0xD6u, 0x0Cu},
1239:Generated_Source\PSoC5/cyfitter_cfg.c **** 			{0xD8u, 0xFCu},
1240:Generated_Source\PSoC5/cyfitter_cfg.c **** 			{0xE0u, 0x08u},
1241:Generated_Source\PSoC5/cyfitter_cfg.c **** 			{0xE4u, 0x06u},
1242:Generated_Source\PSoC5/cyfitter_cfg.c **** 			{0xE6u, 0x01u},
1243:Generated_Source\PSoC5/cyfitter_cfg.c **** 			{0xE8u, 0x40u},
1244:Generated_Source\PSoC5/cyfitter_cfg.c **** 			{0xEAu, 0x80u},
1245:Generated_Source\PSoC5/cyfitter_cfg.c **** 			{0xECu, 0x52u},
1246:Generated_Source\PSoC5/cyfitter_cfg.c **** 			{0x00u, 0x02u},
1247:Generated_Source\PSoC5/cyfitter_cfg.c **** 			{0x02u, 0x01u},
1248:Generated_Source\PSoC5/cyfitter_cfg.c **** 			{0x0Cu, 0x08u},
1249:Generated_Source\PSoC5/cyfitter_cfg.c **** 			{0x0Eu, 0x10u},
1250:Generated_Source\PSoC5/cyfitter_cfg.c **** 			{0x10u, 0x02u},
1251:Generated_Source\PSoC5/cyfitter_cfg.c **** 			{0x12u, 0x01u},
1252:Generated_Source\PSoC5/cyfitter_cfg.c **** 			{0x14u, 0x10u},
1253:Generated_Source\PSoC5/cyfitter_cfg.c **** 			{0x16u, 0x08u},
1254:Generated_Source\PSoC5/cyfitter_cfg.c **** 			{0x18u, 0x02u},
1255:Generated_Source\PSoC5/cyfitter_cfg.c **** 			{0x1Au, 0x05u},
1256:Generated_Source\PSoC5/cyfitter_cfg.c **** 			{0x1Cu, 0x02u},
1257:Generated_Source\PSoC5/cyfitter_cfg.c **** 			{0x1Eu, 0x01u},
1258:Generated_Source\PSoC5/cyfitter_cfg.c **** 			{0x20u, 0x10u},
1259:Generated_Source\PSoC5/cyfitter_cfg.c **** 			{0x22u, 0x08u},
1260:Generated_Source\PSoC5/cyfitter_cfg.c **** 			{0x24u, 0x10u},
1261:Generated_Source\PSoC5/cyfitter_cfg.c **** 			{0x25u, 0x01u},
1262:Generated_Source\PSoC5/cyfitter_cfg.c **** 			{0x26u, 0x28u},
1263:Generated_Source\PSoC5/cyfitter_cfg.c **** 			{0x28u, 0x01u},
1264:Generated_Source\PSoC5/cyfitter_cfg.c **** 			{0x2Au, 0x02u},
1265:Generated_Source\PSoC5/cyfitter_cfg.c **** 			{0x2Cu, 0x10u},
1266:Generated_Source\PSoC5/cyfitter_cfg.c **** 			{0x2Eu, 0x08u},
1267:Generated_Source\PSoC5/cyfitter_cfg.c **** 			{0x30u, 0x04u},
1268:Generated_Source\PSoC5/cyfitter_cfg.c **** 			{0x32u, 0x03u},
1269:Generated_Source\PSoC5/cyfitter_cfg.c **** 			{0x33u, 0x01u},
1270:Generated_Source\PSoC5/cyfitter_cfg.c **** 			{0x34u, 0x20u},
1271:Generated_Source\PSoC5/cyfitter_cfg.c **** 			{0x36u, 0x18u},
1272:Generated_Source\PSoC5/cyfitter_cfg.c **** 			{0x3Au, 0x88u},
1273:Generated_Source\PSoC5/cyfitter_cfg.c **** 			{0x56u, 0x08u},
1274:Generated_Source\PSoC5/cyfitter_cfg.c **** 			{0x58u, 0x04u},
1275:Generated_Source\PSoC5/cyfitter_cfg.c **** 			{0x59u, 0x04u},
1276:Generated_Source\PSoC5/cyfitter_cfg.c **** 			{0x5Bu, 0x04u},
1277:Generated_Source\PSoC5/cyfitter_cfg.c **** 			{0x5Cu, 0x91u},
1278:Generated_Source\PSoC5/cyfitter_cfg.c **** 			{0x5Du, 0x90u},
1279:Generated_Source\PSoC5/cyfitter_cfg.c **** 			{0x5Fu, 0x01u},
1280:Generated_Source\PSoC5/cyfitter_cfg.c **** 			{0x81u, 0x02u},
1281:Generated_Source\PSoC5/cyfitter_cfg.c **** 			{0x82u, 0x48u},
1282:Generated_Source\PSoC5/cyfitter_cfg.c **** 			{0x83u, 0x6Du},
1283:Generated_Source\PSoC5/cyfitter_cfg.c **** 			{0x86u, 0x31u},
1284:Generated_Source\PSoC5/cyfitter_cfg.c **** 			{0x87u, 0x02u},
1285:Generated_Source\PSoC5/cyfitter_cfg.c **** 			{0x88u, 0x30u},
1286:Generated_Source\PSoC5/cyfitter_cfg.c **** 			{0x8Au, 0x01u},
1287:Generated_Source\PSoC5/cyfitter_cfg.c **** 			{0x8Cu, 0x01u},
1288:Generated_Source\PSoC5/cyfitter_cfg.c **** 			{0x8Eu, 0x02u},
1289:Generated_Source\PSoC5/cyfitter_cfg.c **** 			{0x91u, 0x20u},
ARM GAS  C:\Users\r\AppData\Local\Temp\cc1ZHhx7.s 			page 35


1290:Generated_Source\PSoC5/cyfitter_cfg.c **** 			{0x93u, 0x40u},
1291:Generated_Source\PSoC5/cyfitter_cfg.c **** 			{0x94u, 0x10u},
1292:Generated_Source\PSoC5/cyfitter_cfg.c **** 			{0x96u, 0x20u},
1293:Generated_Source\PSoC5/cyfitter_cfg.c **** 			{0x97u, 0x7Fu},
1294:Generated_Source\PSoC5/cyfitter_cfg.c **** 			{0x98u, 0x10u},
1295:Generated_Source\PSoC5/cyfitter_cfg.c **** 			{0x99u, 0x06u},
1296:Generated_Source\PSoC5/cyfitter_cfg.c **** 			{0x9Au, 0x20u},
1297:Generated_Source\PSoC5/cyfitter_cfg.c **** 			{0x9Bu, 0x71u},
1298:Generated_Source\PSoC5/cyfitter_cfg.c **** 			{0x9Cu, 0x02u},
1299:Generated_Source\PSoC5/cyfitter_cfg.c **** 			{0x9Du, 0x20u},
1300:Generated_Source\PSoC5/cyfitter_cfg.c **** 			{0x9Eu, 0x31u},
1301:Generated_Source\PSoC5/cyfitter_cfg.c **** 			{0x9Fu, 0x40u},
1302:Generated_Source\PSoC5/cyfitter_cfg.c **** 			{0xA0u, 0x04u},
1303:Generated_Source\PSoC5/cyfitter_cfg.c **** 			{0xA1u, 0x04u},
1304:Generated_Source\PSoC5/cyfitter_cfg.c **** 			{0xA2u, 0x08u},
1305:Generated_Source\PSoC5/cyfitter_cfg.c **** 			{0xA5u, 0x61u},
1306:Generated_Source\PSoC5/cyfitter_cfg.c **** 			{0xA6u, 0x04u},
1307:Generated_Source\PSoC5/cyfitter_cfg.c **** 			{0xA8u, 0x30u},
1308:Generated_Source\PSoC5/cyfitter_cfg.c **** 			{0xA9u, 0x78u},
1309:Generated_Source\PSoC5/cyfitter_cfg.c **** 			{0xAAu, 0x01u},
1310:Generated_Source\PSoC5/cyfitter_cfg.c **** 			{0xABu, 0x06u},
1311:Generated_Source\PSoC5/cyfitter_cfg.c **** 			{0xACu, 0x02u},
1312:Generated_Source\PSoC5/cyfitter_cfg.c **** 			{0xAEu, 0x31u},
1313:Generated_Source\PSoC5/cyfitter_cfg.c **** 			{0xAFu, 0x08u},
1314:Generated_Source\PSoC5/cyfitter_cfg.c **** 			{0xB0u, 0x03u},
1315:Generated_Source\PSoC5/cyfitter_cfg.c **** 			{0xB1u, 0x1Fu},
1316:Generated_Source\PSoC5/cyfitter_cfg.c **** 			{0xB2u, 0x30u},
1317:Generated_Source\PSoC5/cyfitter_cfg.c **** 			{0xB4u, 0x0Cu},
1318:Generated_Source\PSoC5/cyfitter_cfg.c **** 			{0xB5u, 0x1Fu},
1319:Generated_Source\PSoC5/cyfitter_cfg.c **** 			{0xB6u, 0x40u},
1320:Generated_Source\PSoC5/cyfitter_cfg.c **** 			{0xB7u, 0x60u},
1321:Generated_Source\PSoC5/cyfitter_cfg.c **** 			{0xBAu, 0x0Au},
1322:Generated_Source\PSoC5/cyfitter_cfg.c **** 			{0xBBu, 0x80u},
1323:Generated_Source\PSoC5/cyfitter_cfg.c **** 			{0xBEu, 0x10u},
1324:Generated_Source\PSoC5/cyfitter_cfg.c **** 			{0xD8u, 0x04u},
1325:Generated_Source\PSoC5/cyfitter_cfg.c **** 			{0xD9u, 0x04u},
1326:Generated_Source\PSoC5/cyfitter_cfg.c **** 			{0xDBu, 0x04u},
1327:Generated_Source\PSoC5/cyfitter_cfg.c **** 			{0xDCu, 0x11u},
1328:Generated_Source\PSoC5/cyfitter_cfg.c **** 			{0xDFu, 0x01u},
1329:Generated_Source\PSoC5/cyfitter_cfg.c **** 			{0x00u, 0x41u},
1330:Generated_Source\PSoC5/cyfitter_cfg.c **** 			{0x02u, 0x01u},
1331:Generated_Source\PSoC5/cyfitter_cfg.c **** 			{0x04u, 0x08u},
1332:Generated_Source\PSoC5/cyfitter_cfg.c **** 			{0x05u, 0x10u},
1333:Generated_Source\PSoC5/cyfitter_cfg.c **** 			{0x06u, 0x82u},
1334:Generated_Source\PSoC5/cyfitter_cfg.c **** 			{0x08u, 0x08u},
1335:Generated_Source\PSoC5/cyfitter_cfg.c **** 			{0x0Au, 0x4Au},
1336:Generated_Source\PSoC5/cyfitter_cfg.c **** 			{0x0Du, 0x68u},
1337:Generated_Source\PSoC5/cyfitter_cfg.c **** 			{0x10u, 0x04u},
1338:Generated_Source\PSoC5/cyfitter_cfg.c **** 			{0x11u, 0x82u},
1339:Generated_Source\PSoC5/cyfitter_cfg.c **** 			{0x12u, 0x10u},
1340:Generated_Source\PSoC5/cyfitter_cfg.c **** 			{0x15u, 0x18u},
1341:Generated_Source\PSoC5/cyfitter_cfg.c **** 			{0x16u, 0x20u},
1342:Generated_Source\PSoC5/cyfitter_cfg.c **** 			{0x17u, 0x61u},
1343:Generated_Source\PSoC5/cyfitter_cfg.c **** 			{0x19u, 0x08u},
1344:Generated_Source\PSoC5/cyfitter_cfg.c **** 			{0x1Au, 0x40u},
1345:Generated_Source\PSoC5/cyfitter_cfg.c **** 			{0x1Bu, 0x90u},
1346:Generated_Source\PSoC5/cyfitter_cfg.c **** 			{0x1Cu, 0x08u},
ARM GAS  C:\Users\r\AppData\Local\Temp\cc1ZHhx7.s 			page 36


1347:Generated_Source\PSoC5/cyfitter_cfg.c **** 			{0x1Du, 0x58u},
1348:Generated_Source\PSoC5/cyfitter_cfg.c **** 			{0x1Fu, 0x31u},
1349:Generated_Source\PSoC5/cyfitter_cfg.c **** 			{0x23u, 0x10u},
1350:Generated_Source\PSoC5/cyfitter_cfg.c **** 			{0x24u, 0x80u},
1351:Generated_Source\PSoC5/cyfitter_cfg.c **** 			{0x26u, 0xA2u},
1352:Generated_Source\PSoC5/cyfitter_cfg.c **** 			{0x27u, 0x42u},
1353:Generated_Source\PSoC5/cyfitter_cfg.c **** 			{0x29u, 0x08u},
1354:Generated_Source\PSoC5/cyfitter_cfg.c **** 			{0x2Au, 0x01u},
1355:Generated_Source\PSoC5/cyfitter_cfg.c **** 			{0x2Bu, 0x80u},
1356:Generated_Source\PSoC5/cyfitter_cfg.c **** 			{0x2Du, 0x50u},
1357:Generated_Source\PSoC5/cyfitter_cfg.c **** 			{0x2Eu, 0x01u},
1358:Generated_Source\PSoC5/cyfitter_cfg.c **** 			{0x2Fu, 0x20u},
1359:Generated_Source\PSoC5/cyfitter_cfg.c **** 			{0x34u, 0x01u},
1360:Generated_Source\PSoC5/cyfitter_cfg.c **** 			{0x36u, 0xA0u},
1361:Generated_Source\PSoC5/cyfitter_cfg.c **** 			{0x37u, 0x08u},
1362:Generated_Source\PSoC5/cyfitter_cfg.c **** 			{0x3Au, 0x02u},
1363:Generated_Source\PSoC5/cyfitter_cfg.c **** 			{0x3Bu, 0x02u},
1364:Generated_Source\PSoC5/cyfitter_cfg.c **** 			{0x3Cu, 0x02u},
1365:Generated_Source\PSoC5/cyfitter_cfg.c **** 			{0x3Fu, 0x08u},
1366:Generated_Source\PSoC5/cyfitter_cfg.c **** 			{0x4Au, 0x01u},
1367:Generated_Source\PSoC5/cyfitter_cfg.c **** 			{0x4Bu, 0x80u},
1368:Generated_Source\PSoC5/cyfitter_cfg.c **** 			{0x4Du, 0x40u},
1369:Generated_Source\PSoC5/cyfitter_cfg.c **** 			{0x4Fu, 0x80u},
1370:Generated_Source\PSoC5/cyfitter_cfg.c **** 			{0x58u, 0x84u},
1371:Generated_Source\PSoC5/cyfitter_cfg.c **** 			{0x59u, 0x28u},
1372:Generated_Source\PSoC5/cyfitter_cfg.c **** 			{0x5Cu, 0x60u},
1373:Generated_Source\PSoC5/cyfitter_cfg.c **** 			{0x5Du, 0x08u},
1374:Generated_Source\PSoC5/cyfitter_cfg.c **** 			{0x5Eu, 0x02u},
1375:Generated_Source\PSoC5/cyfitter_cfg.c **** 			{0x60u, 0x02u},
1376:Generated_Source\PSoC5/cyfitter_cfg.c **** 			{0x62u, 0x10u},
1377:Generated_Source\PSoC5/cyfitter_cfg.c **** 			{0x65u, 0x80u},
1378:Generated_Source\PSoC5/cyfitter_cfg.c **** 			{0x6Fu, 0x01u},
1379:Generated_Source\PSoC5/cyfitter_cfg.c **** 			{0x78u, 0x08u},
1380:Generated_Source\PSoC5/cyfitter_cfg.c **** 			{0x7Bu, 0x10u},
1381:Generated_Source\PSoC5/cyfitter_cfg.c **** 			{0x81u, 0x80u},
1382:Generated_Source\PSoC5/cyfitter_cfg.c **** 			{0x82u, 0x20u},
1383:Generated_Source\PSoC5/cyfitter_cfg.c **** 			{0x83u, 0x10u},
1384:Generated_Source\PSoC5/cyfitter_cfg.c **** 			{0x84u, 0x20u},
1385:Generated_Source\PSoC5/cyfitter_cfg.c **** 			{0x87u, 0x02u},
1386:Generated_Source\PSoC5/cyfitter_cfg.c **** 			{0x8Au, 0x20u},
1387:Generated_Source\PSoC5/cyfitter_cfg.c **** 			{0x8Du, 0x02u},
1388:Generated_Source\PSoC5/cyfitter_cfg.c **** 			{0x90u, 0x05u},
1389:Generated_Source\PSoC5/cyfitter_cfg.c **** 			{0x91u, 0x88u},
1390:Generated_Source\PSoC5/cyfitter_cfg.c **** 			{0x92u, 0x1Fu},
1391:Generated_Source\PSoC5/cyfitter_cfg.c **** 			{0x93u, 0x08u},
1392:Generated_Source\PSoC5/cyfitter_cfg.c **** 			{0x94u, 0x88u},
1393:Generated_Source\PSoC5/cyfitter_cfg.c **** 			{0x97u, 0x92u},
1394:Generated_Source\PSoC5/cyfitter_cfg.c **** 			{0x98u, 0x01u},
1395:Generated_Source\PSoC5/cyfitter_cfg.c **** 			{0x9Au, 0xC4u},
1396:Generated_Source\PSoC5/cyfitter_cfg.c **** 			{0x9Bu, 0x20u},
1397:Generated_Source\PSoC5/cyfitter_cfg.c **** 			{0x9Cu, 0x02u},
1398:Generated_Source\PSoC5/cyfitter_cfg.c **** 			{0x9Du, 0x50u},
1399:Generated_Source\PSoC5/cyfitter_cfg.c **** 			{0x9Fu, 0x08u},
1400:Generated_Source\PSoC5/cyfitter_cfg.c **** 			{0xA0u, 0x41u},
1401:Generated_Source\PSoC5/cyfitter_cfg.c **** 			{0xA2u, 0x10u},
1402:Generated_Source\PSoC5/cyfitter_cfg.c **** 			{0xA3u, 0x04u},
1403:Generated_Source\PSoC5/cyfitter_cfg.c **** 			{0xA4u, 0x0Eu},
ARM GAS  C:\Users\r\AppData\Local\Temp\cc1ZHhx7.s 			page 37


1404:Generated_Source\PSoC5/cyfitter_cfg.c **** 			{0xA5u, 0x0Cu},
1405:Generated_Source\PSoC5/cyfitter_cfg.c **** 			{0xA6u, 0x02u},
1406:Generated_Source\PSoC5/cyfitter_cfg.c **** 			{0xA7u, 0x60u},
1407:Generated_Source\PSoC5/cyfitter_cfg.c **** 			{0xA9u, 0x04u},
1408:Generated_Source\PSoC5/cyfitter_cfg.c **** 			{0xAAu, 0x10u},
1409:Generated_Source\PSoC5/cyfitter_cfg.c **** 			{0xACu, 0x01u},
1410:Generated_Source\PSoC5/cyfitter_cfg.c **** 			{0xAEu, 0x06u},
1411:Generated_Source\PSoC5/cyfitter_cfg.c **** 			{0xB3u, 0x10u},
1412:Generated_Source\PSoC5/cyfitter_cfg.c **** 			{0xB7u, 0x08u},
1413:Generated_Source\PSoC5/cyfitter_cfg.c **** 			{0xC0u, 0xF9u},
1414:Generated_Source\PSoC5/cyfitter_cfg.c **** 			{0xC2u, 0xEFu},
1415:Generated_Source\PSoC5/cyfitter_cfg.c **** 			{0xC4u, 0xFFu},
1416:Generated_Source\PSoC5/cyfitter_cfg.c **** 			{0xCAu, 0xF2u},
1417:Generated_Source\PSoC5/cyfitter_cfg.c **** 			{0xCCu, 0xF0u},
1418:Generated_Source\PSoC5/cyfitter_cfg.c **** 			{0xCEu, 0xC0u},
1419:Generated_Source\PSoC5/cyfitter_cfg.c **** 			{0xD6u, 0xFCu},
1420:Generated_Source\PSoC5/cyfitter_cfg.c **** 			{0xD8u, 0x1Cu},
1421:Generated_Source\PSoC5/cyfitter_cfg.c **** 			{0xE0u, 0x40u},
1422:Generated_Source\PSoC5/cyfitter_cfg.c **** 			{0xE2u, 0x28u},
1423:Generated_Source\PSoC5/cyfitter_cfg.c **** 			{0xE4u, 0x10u},
1424:Generated_Source\PSoC5/cyfitter_cfg.c **** 			{0xEAu, 0x40u},
1425:Generated_Source\PSoC5/cyfitter_cfg.c **** 			{0xEEu, 0x84u},
1426:Generated_Source\PSoC5/cyfitter_cfg.c **** 			{0x00u, 0x18u},
1427:Generated_Source\PSoC5/cyfitter_cfg.c **** 			{0x02u, 0x64u},
1428:Generated_Source\PSoC5/cyfitter_cfg.c **** 			{0x03u, 0xFFu},
1429:Generated_Source\PSoC5/cyfitter_cfg.c **** 			{0x05u, 0xFFu},
1430:Generated_Source\PSoC5/cyfitter_cfg.c **** 			{0x06u, 0x1Fu},
1431:Generated_Source\PSoC5/cyfitter_cfg.c **** 			{0x08u, 0x07u},
1432:Generated_Source\PSoC5/cyfitter_cfg.c **** 			{0x09u, 0x0Fu},
1433:Generated_Source\PSoC5/cyfitter_cfg.c **** 			{0x0Bu, 0xF0u},
1434:Generated_Source\PSoC5/cyfitter_cfg.c **** 			{0x0Cu, 0x38u},
1435:Generated_Source\PSoC5/cyfitter_cfg.c **** 			{0x0Eu, 0x47u},
1436:Generated_Source\PSoC5/cyfitter_cfg.c **** 			{0x0Fu, 0xFFu},
1437:Generated_Source\PSoC5/cyfitter_cfg.c **** 			{0x11u, 0x55u},
1438:Generated_Source\PSoC5/cyfitter_cfg.c **** 			{0x12u, 0x08u},
1439:Generated_Source\PSoC5/cyfitter_cfg.c **** 			{0x13u, 0xAAu},
1440:Generated_Source\PSoC5/cyfitter_cfg.c **** 			{0x14u, 0x01u},
1441:Generated_Source\PSoC5/cyfitter_cfg.c **** 			{0x16u, 0x02u},
1442:Generated_Source\PSoC5/cyfitter_cfg.c **** 			{0x18u, 0x01u},
1443:Generated_Source\PSoC5/cyfitter_cfg.c **** 			{0x19u, 0xFFu},
1444:Generated_Source\PSoC5/cyfitter_cfg.c **** 			{0x1Au, 0x02u},
1445:Generated_Source\PSoC5/cyfitter_cfg.c **** 			{0x1Cu, 0x10u},
1446:Generated_Source\PSoC5/cyfitter_cfg.c **** 			{0x23u, 0xFFu},
1447:Generated_Source\PSoC5/cyfitter_cfg.c **** 			{0x25u, 0x69u},
1448:Generated_Source\PSoC5/cyfitter_cfg.c **** 			{0x26u, 0x80u},
1449:Generated_Source\PSoC5/cyfitter_cfg.c **** 			{0x27u, 0x96u},
1450:Generated_Source\PSoC5/cyfitter_cfg.c **** 			{0x28u, 0x2Bu},
1451:Generated_Source\PSoC5/cyfitter_cfg.c **** 			{0x29u, 0x33u},
1452:Generated_Source\PSoC5/cyfitter_cfg.c **** 			{0x2Au, 0x50u},
1453:Generated_Source\PSoC5/cyfitter_cfg.c **** 			{0x2Bu, 0xCCu},
1454:Generated_Source\PSoC5/cyfitter_cfg.c **** 			{0x2Cu, 0x20u},
1455:Generated_Source\PSoC5/cyfitter_cfg.c **** 			{0x2Eu, 0x5Fu},
1456:Generated_Source\PSoC5/cyfitter_cfg.c **** 			{0x30u, 0x7Cu},
1457:Generated_Source\PSoC5/cyfitter_cfg.c **** 			{0x32u, 0x80u},
1458:Generated_Source\PSoC5/cyfitter_cfg.c **** 			{0x34u, 0x03u},
1459:Generated_Source\PSoC5/cyfitter_cfg.c **** 			{0x35u, 0xFFu},
1460:Generated_Source\PSoC5/cyfitter_cfg.c **** 			{0x3Au, 0x22u},
ARM GAS  C:\Users\r\AppData\Local\Temp\cc1ZHhx7.s 			page 38


1461:Generated_Source\PSoC5/cyfitter_cfg.c **** 			{0x3Bu, 0x20u},
1462:Generated_Source\PSoC5/cyfitter_cfg.c **** 			{0x56u, 0x08u},
1463:Generated_Source\PSoC5/cyfitter_cfg.c **** 			{0x58u, 0x04u},
1464:Generated_Source\PSoC5/cyfitter_cfg.c **** 			{0x59u, 0x04u},
1465:Generated_Source\PSoC5/cyfitter_cfg.c **** 			{0x5Bu, 0x04u},
1466:Generated_Source\PSoC5/cyfitter_cfg.c **** 			{0x5Cu, 0x11u},
1467:Generated_Source\PSoC5/cyfitter_cfg.c **** 			{0x5Du, 0x90u},
1468:Generated_Source\PSoC5/cyfitter_cfg.c **** 			{0x5Fu, 0x01u},
1469:Generated_Source\PSoC5/cyfitter_cfg.c **** 			{0x82u, 0x02u},
1470:Generated_Source\PSoC5/cyfitter_cfg.c **** 			{0x85u, 0x02u},
1471:Generated_Source\PSoC5/cyfitter_cfg.c **** 			{0x87u, 0x30u},
1472:Generated_Source\PSoC5/cyfitter_cfg.c **** 			{0x89u, 0x38u},
1473:Generated_Source\PSoC5/cyfitter_cfg.c **** 			{0x8Bu, 0x01u},
1474:Generated_Source\PSoC5/cyfitter_cfg.c **** 			{0x8Du, 0x0Cu},
1475:Generated_Source\PSoC5/cyfitter_cfg.c **** 			{0x8Fu, 0x31u},
1476:Generated_Source\PSoC5/cyfitter_cfg.c **** 			{0x91u, 0x04u},
1477:Generated_Source\PSoC5/cyfitter_cfg.c **** 			{0x93u, 0x31u},
1478:Generated_Source\PSoC5/cyfitter_cfg.c **** 			{0x99u, 0x10u},
1479:Generated_Source\PSoC5/cyfitter_cfg.c **** 			{0x9Bu, 0x20u},
1480:Generated_Source\PSoC5/cyfitter_cfg.c **** 			{0x9Eu, 0x01u},
1481:Generated_Source\PSoC5/cyfitter_cfg.c **** 			{0xA5u, 0x30u},
1482:Generated_Source\PSoC5/cyfitter_cfg.c **** 			{0xA7u, 0x01u},
1483:Generated_Source\PSoC5/cyfitter_cfg.c **** 			{0xABu, 0x04u},
1484:Generated_Source\PSoC5/cyfitter_cfg.c **** 			{0xADu, 0x10u},
1485:Generated_Source\PSoC5/cyfitter_cfg.c **** 			{0xAFu, 0x20u},
1486:Generated_Source\PSoC5/cyfitter_cfg.c **** 			{0xB4u, 0x01u},
1487:Generated_Source\PSoC5/cyfitter_cfg.c **** 			{0xB5u, 0x30u},
1488:Generated_Source\PSoC5/cyfitter_cfg.c **** 			{0xB6u, 0x02u},
1489:Generated_Source\PSoC5/cyfitter_cfg.c **** 			{0xB7u, 0x0Fu},
1490:Generated_Source\PSoC5/cyfitter_cfg.c **** 			{0xB9u, 0x80u},
1491:Generated_Source\PSoC5/cyfitter_cfg.c **** 			{0xBBu, 0x20u},
1492:Generated_Source\PSoC5/cyfitter_cfg.c **** 			{0xD6u, 0x08u},
1493:Generated_Source\PSoC5/cyfitter_cfg.c **** 			{0xD8u, 0x04u},
1494:Generated_Source\PSoC5/cyfitter_cfg.c **** 			{0xD9u, 0x04u},
1495:Generated_Source\PSoC5/cyfitter_cfg.c **** 			{0xDBu, 0x04u},
1496:Generated_Source\PSoC5/cyfitter_cfg.c **** 			{0xDCu, 0x11u},
1497:Generated_Source\PSoC5/cyfitter_cfg.c **** 			{0xDDu, 0x90u},
1498:Generated_Source\PSoC5/cyfitter_cfg.c **** 			{0xDFu, 0x01u},
1499:Generated_Source\PSoC5/cyfitter_cfg.c **** 			{0x00u, 0x01u},
1500:Generated_Source\PSoC5/cyfitter_cfg.c **** 			{0x04u, 0xC8u},
1501:Generated_Source\PSoC5/cyfitter_cfg.c **** 			{0x05u, 0x11u},
1502:Generated_Source\PSoC5/cyfitter_cfg.c **** 			{0x0Au, 0x02u},
1503:Generated_Source\PSoC5/cyfitter_cfg.c **** 			{0x0Cu, 0x04u},
1504:Generated_Source\PSoC5/cyfitter_cfg.c **** 			{0x0Eu, 0x09u},
1505:Generated_Source\PSoC5/cyfitter_cfg.c **** 			{0x0Fu, 0x80u},
1506:Generated_Source\PSoC5/cyfitter_cfg.c **** 			{0x15u, 0x90u},
1507:Generated_Source\PSoC5/cyfitter_cfg.c **** 			{0x16u, 0x10u},
1508:Generated_Source\PSoC5/cyfitter_cfg.c **** 			{0x17u, 0x20u},
1509:Generated_Source\PSoC5/cyfitter_cfg.c **** 			{0x1Au, 0x0Au},
1510:Generated_Source\PSoC5/cyfitter_cfg.c **** 			{0x1Du, 0x01u},
1511:Generated_Source\PSoC5/cyfitter_cfg.c **** 			{0x1Eu, 0x18u},
1512:Generated_Source\PSoC5/cyfitter_cfg.c **** 			{0x1Fu, 0x10u},
1513:Generated_Source\PSoC5/cyfitter_cfg.c **** 			{0x20u, 0x02u},
1514:Generated_Source\PSoC5/cyfitter_cfg.c **** 			{0x21u, 0x40u},
1515:Generated_Source\PSoC5/cyfitter_cfg.c **** 			{0x22u, 0x20u},
1516:Generated_Source\PSoC5/cyfitter_cfg.c **** 			{0x25u, 0x10u},
1517:Generated_Source\PSoC5/cyfitter_cfg.c **** 			{0x26u, 0x10u},
ARM GAS  C:\Users\r\AppData\Local\Temp\cc1ZHhx7.s 			page 39


1518:Generated_Source\PSoC5/cyfitter_cfg.c **** 			{0x28u, 0x02u},
1519:Generated_Source\PSoC5/cyfitter_cfg.c **** 			{0x2Bu, 0x24u},
1520:Generated_Source\PSoC5/cyfitter_cfg.c **** 			{0x2Cu, 0x84u},
1521:Generated_Source\PSoC5/cyfitter_cfg.c **** 			{0x2Eu, 0x08u},
1522:Generated_Source\PSoC5/cyfitter_cfg.c **** 			{0x2Fu, 0x40u},
1523:Generated_Source\PSoC5/cyfitter_cfg.c **** 			{0x32u, 0x22u},
1524:Generated_Source\PSoC5/cyfitter_cfg.c **** 			{0x34u, 0x01u},
1525:Generated_Source\PSoC5/cyfitter_cfg.c **** 			{0x37u, 0x20u},
1526:Generated_Source\PSoC5/cyfitter_cfg.c **** 			{0x38u, 0x08u},
1527:Generated_Source\PSoC5/cyfitter_cfg.c **** 			{0x39u, 0x90u},
1528:Generated_Source\PSoC5/cyfitter_cfg.c **** 			{0x3Cu, 0x4Au},
1529:Generated_Source\PSoC5/cyfitter_cfg.c **** 			{0x3Du, 0x20u},
1530:Generated_Source\PSoC5/cyfitter_cfg.c **** 			{0x59u, 0x88u},
1531:Generated_Source\PSoC5/cyfitter_cfg.c **** 			{0x5Au, 0x20u},
1532:Generated_Source\PSoC5/cyfitter_cfg.c **** 			{0x5Cu, 0xA0u},
1533:Generated_Source\PSoC5/cyfitter_cfg.c **** 			{0x5Du, 0x04u},
1534:Generated_Source\PSoC5/cyfitter_cfg.c **** 			{0x60u, 0x0Cu},
1535:Generated_Source\PSoC5/cyfitter_cfg.c **** 			{0x62u, 0x44u},
1536:Generated_Source\PSoC5/cyfitter_cfg.c **** 			{0x64u, 0x04u},
1537:Generated_Source\PSoC5/cyfitter_cfg.c **** 			{0x66u, 0x88u},
1538:Generated_Source\PSoC5/cyfitter_cfg.c **** 			{0x81u, 0x09u},
1539:Generated_Source\PSoC5/cyfitter_cfg.c **** 			{0x83u, 0x01u},
1540:Generated_Source\PSoC5/cyfitter_cfg.c **** 			{0x86u, 0x20u},
1541:Generated_Source\PSoC5/cyfitter_cfg.c **** 			{0x88u, 0x60u},
1542:Generated_Source\PSoC5/cyfitter_cfg.c **** 			{0x89u, 0x80u},
1543:Generated_Source\PSoC5/cyfitter_cfg.c **** 			{0x8Bu, 0x10u},
1544:Generated_Source\PSoC5/cyfitter_cfg.c **** 			{0x8Du, 0x40u},
1545:Generated_Source\PSoC5/cyfitter_cfg.c **** 			{0x8Fu, 0x04u},
1546:Generated_Source\PSoC5/cyfitter_cfg.c **** 			{0x90u, 0x01u},
1547:Generated_Source\PSoC5/cyfitter_cfg.c **** 			{0x91u, 0x0Cu},
1548:Generated_Source\PSoC5/cyfitter_cfg.c **** 			{0x92u, 0x05u},
1549:Generated_Source\PSoC5/cyfitter_cfg.c **** 			{0x93u, 0x08u},
1550:Generated_Source\PSoC5/cyfitter_cfg.c **** 			{0x94u, 0x40u},
1551:Generated_Source\PSoC5/cyfitter_cfg.c **** 			{0x95u, 0xC0u},
1552:Generated_Source\PSoC5/cyfitter_cfg.c **** 			{0x98u, 0x81u},
1553:Generated_Source\PSoC5/cyfitter_cfg.c **** 			{0x99u, 0x08u},
1554:Generated_Source\PSoC5/cyfitter_cfg.c **** 			{0x9Au, 0x10u},
1555:Generated_Source\PSoC5/cyfitter_cfg.c **** 			{0x9Bu, 0x20u},
1556:Generated_Source\PSoC5/cyfitter_cfg.c **** 			{0x9Cu, 0x08u},
1557:Generated_Source\PSoC5/cyfitter_cfg.c **** 			{0x9Du, 0x40u},
1558:Generated_Source\PSoC5/cyfitter_cfg.c **** 			{0x9Eu, 0xCEu},
1559:Generated_Source\PSoC5/cyfitter_cfg.c **** 			{0x9Fu, 0x08u},
1560:Generated_Source\PSoC5/cyfitter_cfg.c **** 			{0xA3u, 0x08u},
1561:Generated_Source\PSoC5/cyfitter_cfg.c **** 			{0xA4u, 0x8Eu},
1562:Generated_Source\PSoC5/cyfitter_cfg.c **** 			{0xA5u, 0x04u},
1563:Generated_Source\PSoC5/cyfitter_cfg.c **** 			{0xA6u, 0x02u},
1564:Generated_Source\PSoC5/cyfitter_cfg.c **** 			{0xA7u, 0x20u},
1565:Generated_Source\PSoC5/cyfitter_cfg.c **** 			{0xA9u, 0x04u},
1566:Generated_Source\PSoC5/cyfitter_cfg.c **** 			{0xAAu, 0x30u},
1567:Generated_Source\PSoC5/cyfitter_cfg.c **** 			{0xB1u, 0x80u},
1568:Generated_Source\PSoC5/cyfitter_cfg.c **** 			{0xB3u, 0x01u},
1569:Generated_Source\PSoC5/cyfitter_cfg.c **** 			{0xB4u, 0x80u},
1570:Generated_Source\PSoC5/cyfitter_cfg.c **** 			{0xC0u, 0xF8u},
1571:Generated_Source\PSoC5/cyfitter_cfg.c **** 			{0xC2u, 0xF1u},
1572:Generated_Source\PSoC5/cyfitter_cfg.c **** 			{0xC4u, 0xE0u},
1573:Generated_Source\PSoC5/cyfitter_cfg.c **** 			{0xCAu, 0xEEu},
1574:Generated_Source\PSoC5/cyfitter_cfg.c **** 			{0xCCu, 0xA5u},
ARM GAS  C:\Users\r\AppData\Local\Temp\cc1ZHhx7.s 			page 40


1575:Generated_Source\PSoC5/cyfitter_cfg.c **** 			{0xCEu, 0xFEu},
1576:Generated_Source\PSoC5/cyfitter_cfg.c **** 			{0xD6u, 0x7Eu},
1577:Generated_Source\PSoC5/cyfitter_cfg.c **** 			{0xD8u, 0x7Eu},
1578:Generated_Source\PSoC5/cyfitter_cfg.c **** 			{0xE0u, 0x40u},
1579:Generated_Source\PSoC5/cyfitter_cfg.c **** 			{0xE2u, 0x20u},
1580:Generated_Source\PSoC5/cyfitter_cfg.c **** 			{0xE4u, 0x21u},
1581:Generated_Source\PSoC5/cyfitter_cfg.c **** 			{0xECu, 0x02u},
1582:Generated_Source\PSoC5/cyfitter_cfg.c **** 			{0xEEu, 0x20u},
1583:Generated_Source\PSoC5/cyfitter_cfg.c **** 			{0x01u, 0x10u},
1584:Generated_Source\PSoC5/cyfitter_cfg.c **** 			{0x03u, 0x20u},
1585:Generated_Source\PSoC5/cyfitter_cfg.c **** 			{0x05u, 0x01u},
1586:Generated_Source\PSoC5/cyfitter_cfg.c **** 			{0x07u, 0x02u},
1587:Generated_Source\PSoC5/cyfitter_cfg.c **** 			{0x09u, 0x3Fu},
1588:Generated_Source\PSoC5/cyfitter_cfg.c **** 			{0x0Fu, 0x3Fu},
1589:Generated_Source\PSoC5/cyfitter_cfg.c **** 			{0x13u, 0x3Fu},
1590:Generated_Source\PSoC5/cyfitter_cfg.c **** 			{0x19u, 0x3Fu},
1591:Generated_Source\PSoC5/cyfitter_cfg.c **** 			{0x1Fu, 0x3Fu},
1592:Generated_Source\PSoC5/cyfitter_cfg.c **** 			{0x21u, 0x01u},
1593:Generated_Source\PSoC5/cyfitter_cfg.c **** 			{0x23u, 0x02u},
1594:Generated_Source\PSoC5/cyfitter_cfg.c **** 			{0x25u, 0x04u},
1595:Generated_Source\PSoC5/cyfitter_cfg.c **** 			{0x26u, 0x01u},
1596:Generated_Source\PSoC5/cyfitter_cfg.c **** 			{0x27u, 0x08u},
1597:Generated_Source\PSoC5/cyfitter_cfg.c **** 			{0x29u, 0x10u},
1598:Generated_Source\PSoC5/cyfitter_cfg.c **** 			{0x2Au, 0x02u},
1599:Generated_Source\PSoC5/cyfitter_cfg.c **** 			{0x2Bu, 0x20u},
1600:Generated_Source\PSoC5/cyfitter_cfg.c **** 			{0x2Cu, 0x01u},
1601:Generated_Source\PSoC5/cyfitter_cfg.c **** 			{0x2Du, 0x04u},
1602:Generated_Source\PSoC5/cyfitter_cfg.c **** 			{0x2Eu, 0x02u},
1603:Generated_Source\PSoC5/cyfitter_cfg.c **** 			{0x2Fu, 0x08u},
1604:Generated_Source\PSoC5/cyfitter_cfg.c **** 			{0x32u, 0x03u},
1605:Generated_Source\PSoC5/cyfitter_cfg.c **** 			{0x33u, 0x03u},
1606:Generated_Source\PSoC5/cyfitter_cfg.c **** 			{0x35u, 0x0Cu},
1607:Generated_Source\PSoC5/cyfitter_cfg.c **** 			{0x37u, 0x30u},
1608:Generated_Source\PSoC5/cyfitter_cfg.c **** 			{0x3Bu, 0xA8u},
1609:Generated_Source\PSoC5/cyfitter_cfg.c **** 			{0x3Eu, 0x04u},
1610:Generated_Source\PSoC5/cyfitter_cfg.c **** 			{0x56u, 0x08u},
1611:Generated_Source\PSoC5/cyfitter_cfg.c **** 			{0x58u, 0x04u},
1612:Generated_Source\PSoC5/cyfitter_cfg.c **** 			{0x59u, 0x04u},
1613:Generated_Source\PSoC5/cyfitter_cfg.c **** 			{0x5Bu, 0x04u},
1614:Generated_Source\PSoC5/cyfitter_cfg.c **** 			{0x5Cu, 0x10u},
1615:Generated_Source\PSoC5/cyfitter_cfg.c **** 			{0x5Du, 0x90u},
1616:Generated_Source\PSoC5/cyfitter_cfg.c **** 			{0x5Fu, 0x01u},
1617:Generated_Source\PSoC5/cyfitter_cfg.c **** 			{0x80u, 0x02u},
1618:Generated_Source\PSoC5/cyfitter_cfg.c **** 			{0x82u, 0x01u},
1619:Generated_Source\PSoC5/cyfitter_cfg.c **** 			{0x83u, 0x20u},
1620:Generated_Source\PSoC5/cyfitter_cfg.c **** 			{0x85u, 0xC1u},
1621:Generated_Source\PSoC5/cyfitter_cfg.c **** 			{0x86u, 0x70u},
1622:Generated_Source\PSoC5/cyfitter_cfg.c **** 			{0x88u, 0x40u},
1623:Generated_Source\PSoC5/cyfitter_cfg.c **** 			{0x8Au, 0x80u},
1624:Generated_Source\PSoC5/cyfitter_cfg.c **** 			{0x8Cu, 0x02u},
1625:Generated_Source\PSoC5/cyfitter_cfg.c **** 			{0x8Du, 0x28u},
1626:Generated_Source\PSoC5/cyfitter_cfg.c **** 			{0x8Eu, 0x09u},
1627:Generated_Source\PSoC5/cyfitter_cfg.c **** 			{0x8Fu, 0xD5u},
1628:Generated_Source\PSoC5/cyfitter_cfg.c **** 			{0x90u, 0x02u},
1629:Generated_Source\PSoC5/cyfitter_cfg.c **** 			{0x91u, 0x40u},
1630:Generated_Source\PSoC5/cyfitter_cfg.c **** 			{0x92u, 0x01u},
1631:Generated_Source\PSoC5/cyfitter_cfg.c **** 			{0x93u, 0x80u},
ARM GAS  C:\Users\r\AppData\Local\Temp\cc1ZHhx7.s 			page 41


1632:Generated_Source\PSoC5/cyfitter_cfg.c **** 			{0x94u, 0x01u},
1633:Generated_Source\PSoC5/cyfitter_cfg.c **** 			{0x96u, 0x02u},
1634:Generated_Source\PSoC5/cyfitter_cfg.c **** 			{0x97u, 0xFFu},
1635:Generated_Source\PSoC5/cyfitter_cfg.c **** 			{0x99u, 0xD2u},
1636:Generated_Source\PSoC5/cyfitter_cfg.c **** 			{0x9Au, 0x80u},
1637:Generated_Source\PSoC5/cyfitter_cfg.c **** 			{0x9Bu, 0x2Cu},
1638:Generated_Source\PSoC5/cyfitter_cfg.c **** 			{0x9Cu, 0x02u},
1639:Generated_Source\PSoC5/cyfitter_cfg.c **** 			{0x9Eu, 0x05u},
1640:Generated_Source\PSoC5/cyfitter_cfg.c **** 			{0xA1u, 0x1Au},
1641:Generated_Source\PSoC5/cyfitter_cfg.c **** 			{0xA3u, 0xE5u},
1642:Generated_Source\PSoC5/cyfitter_cfg.c **** 			{0xA5u, 0x40u},
1643:Generated_Source\PSoC5/cyfitter_cfg.c **** 			{0xA7u, 0x80u},
1644:Generated_Source\PSoC5/cyfitter_cfg.c **** 			{0xA8u, 0xA0u},
1645:Generated_Source\PSoC5/cyfitter_cfg.c **** 			{0xA9u, 0x06u},
1646:Generated_Source\PSoC5/cyfitter_cfg.c **** 			{0xAAu, 0x50u},
1647:Generated_Source\PSoC5/cyfitter_cfg.c **** 			{0xACu, 0x90u},
1648:Generated_Source\PSoC5/cyfitter_cfg.c **** 			{0xADu, 0x08u},
1649:Generated_Source\PSoC5/cyfitter_cfg.c **** 			{0xAEu, 0x20u},
1650:Generated_Source\PSoC5/cyfitter_cfg.c **** 			{0xB0u, 0x04u},
1651:Generated_Source\PSoC5/cyfitter_cfg.c **** 			{0xB2u, 0x03u},
1652:Generated_Source\PSoC5/cyfitter_cfg.c **** 			{0xB3u, 0x3Fu},
1653:Generated_Source\PSoC5/cyfitter_cfg.c **** 			{0xB4u, 0xF0u},
1654:Generated_Source\PSoC5/cyfitter_cfg.c **** 			{0xB6u, 0x08u},
1655:Generated_Source\PSoC5/cyfitter_cfg.c **** 			{0xB7u, 0xC0u},
1656:Generated_Source\PSoC5/cyfitter_cfg.c **** 			{0xBAu, 0x08u},
1657:Generated_Source\PSoC5/cyfitter_cfg.c **** 			{0xBBu, 0x80u},
1658:Generated_Source\PSoC5/cyfitter_cfg.c **** 			{0xD6u, 0x08u},
1659:Generated_Source\PSoC5/cyfitter_cfg.c **** 			{0xD8u, 0x04u},
1660:Generated_Source\PSoC5/cyfitter_cfg.c **** 			{0xD9u, 0x04u},
1661:Generated_Source\PSoC5/cyfitter_cfg.c **** 			{0xDBu, 0x04u},
1662:Generated_Source\PSoC5/cyfitter_cfg.c **** 			{0xDCu, 0x11u},
1663:Generated_Source\PSoC5/cyfitter_cfg.c **** 			{0xDDu, 0x90u},
1664:Generated_Source\PSoC5/cyfitter_cfg.c **** 			{0xDFu, 0x01u},
1665:Generated_Source\PSoC5/cyfitter_cfg.c **** 			{0x04u, 0x04u},
1666:Generated_Source\PSoC5/cyfitter_cfg.c **** 			{0x05u, 0x40u},
1667:Generated_Source\PSoC5/cyfitter_cfg.c **** 			{0x06u, 0x80u},
1668:Generated_Source\PSoC5/cyfitter_cfg.c **** 			{0x07u, 0x04u},
1669:Generated_Source\PSoC5/cyfitter_cfg.c **** 			{0x0Du, 0x0Cu},
1670:Generated_Source\PSoC5/cyfitter_cfg.c **** 			{0x0Eu, 0x4Au},
1671:Generated_Source\PSoC5/cyfitter_cfg.c **** 			{0x10u, 0x0Au},
1672:Generated_Source\PSoC5/cyfitter_cfg.c **** 			{0x11u, 0x08u},
1673:Generated_Source\PSoC5/cyfitter_cfg.c **** 			{0x15u, 0x80u},
1674:Generated_Source\PSoC5/cyfitter_cfg.c **** 			{0x17u, 0x20u},
1675:Generated_Source\PSoC5/cyfitter_cfg.c **** 			{0x1Bu, 0x08u},
1676:Generated_Source\PSoC5/cyfitter_cfg.c **** 			{0x1Cu, 0x04u},
1677:Generated_Source\PSoC5/cyfitter_cfg.c **** 			{0x1Du, 0x08u},
1678:Generated_Source\PSoC5/cyfitter_cfg.c **** 			{0x1Eu, 0x46u},
1679:Generated_Source\PSoC5/cyfitter_cfg.c **** 			{0x20u, 0x02u},
1680:Generated_Source\PSoC5/cyfitter_cfg.c **** 			{0x22u, 0x24u},
1681:Generated_Source\PSoC5/cyfitter_cfg.c **** 			{0x23u, 0x01u},
1682:Generated_Source\PSoC5/cyfitter_cfg.c **** 			{0x24u, 0x10u},
1683:Generated_Source\PSoC5/cyfitter_cfg.c **** 			{0x27u, 0x21u},
1684:Generated_Source\PSoC5/cyfitter_cfg.c **** 			{0x28u, 0x48u},
1685:Generated_Source\PSoC5/cyfitter_cfg.c **** 			{0x29u, 0x04u},
1686:Generated_Source\PSoC5/cyfitter_cfg.c **** 			{0x2Au, 0x40u},
1687:Generated_Source\PSoC5/cyfitter_cfg.c **** 			{0x2Du, 0x60u},
1688:Generated_Source\PSoC5/cyfitter_cfg.c **** 			{0x2Eu, 0x0Au},
ARM GAS  C:\Users\r\AppData\Local\Temp\cc1ZHhx7.s 			page 42


1689:Generated_Source\PSoC5/cyfitter_cfg.c **** 			{0x30u, 0x80u},
1690:Generated_Source\PSoC5/cyfitter_cfg.c **** 			{0x32u, 0x02u},
1691:Generated_Source\PSoC5/cyfitter_cfg.c **** 			{0x33u, 0x20u},
1692:Generated_Source\PSoC5/cyfitter_cfg.c **** 			{0x37u, 0x29u},
1693:Generated_Source\PSoC5/cyfitter_cfg.c **** 			{0x38u, 0x10u},
1694:Generated_Source\PSoC5/cyfitter_cfg.c **** 			{0x39u, 0x80u},
1695:Generated_Source\PSoC5/cyfitter_cfg.c **** 			{0x3Au, 0x04u},
1696:Generated_Source\PSoC5/cyfitter_cfg.c **** 			{0x3Bu, 0x01u},
1697:Generated_Source\PSoC5/cyfitter_cfg.c **** 			{0x3Cu, 0x48u},
1698:Generated_Source\PSoC5/cyfitter_cfg.c **** 			{0x3Eu, 0x01u},
1699:Generated_Source\PSoC5/cyfitter_cfg.c **** 			{0x5Bu, 0x40u},
1700:Generated_Source\PSoC5/cyfitter_cfg.c **** 			{0x5Du, 0x80u},
1701:Generated_Source\PSoC5/cyfitter_cfg.c **** 			{0x5Eu, 0x10u},
1702:Generated_Source\PSoC5/cyfitter_cfg.c **** 			{0x60u, 0x01u},
1703:Generated_Source\PSoC5/cyfitter_cfg.c **** 			{0x64u, 0x01u},
1704:Generated_Source\PSoC5/cyfitter_cfg.c **** 			{0x66u, 0x10u},
1705:Generated_Source\PSoC5/cyfitter_cfg.c **** 			{0x67u, 0x08u},
1706:Generated_Source\PSoC5/cyfitter_cfg.c **** 			{0x81u, 0x28u},
1707:Generated_Source\PSoC5/cyfitter_cfg.c **** 			{0x83u, 0x20u},
1708:Generated_Source\PSoC5/cyfitter_cfg.c **** 			{0x84u, 0x01u},
1709:Generated_Source\PSoC5/cyfitter_cfg.c **** 			{0x86u, 0x01u},
1710:Generated_Source\PSoC5/cyfitter_cfg.c **** 			{0x88u, 0x40u},
1711:Generated_Source\PSoC5/cyfitter_cfg.c **** 			{0x89u, 0x04u},
1712:Generated_Source\PSoC5/cyfitter_cfg.c **** 			{0x8Au, 0x04u},
1713:Generated_Source\PSoC5/cyfitter_cfg.c **** 			{0x8Eu, 0x06u},
1714:Generated_Source\PSoC5/cyfitter_cfg.c **** 			{0x8Fu, 0x44u},
1715:Generated_Source\PSoC5/cyfitter_cfg.c **** 			{0xC0u, 0xF0u},
1716:Generated_Source\PSoC5/cyfitter_cfg.c **** 			{0xC2u, 0xF0u},
1717:Generated_Source\PSoC5/cyfitter_cfg.c **** 			{0xC4u, 0xC7u},
1718:Generated_Source\PSoC5/cyfitter_cfg.c **** 			{0xCAu, 0xFFu},
1719:Generated_Source\PSoC5/cyfitter_cfg.c **** 			{0xCCu, 0xEDu},
1720:Generated_Source\PSoC5/cyfitter_cfg.c **** 			{0xCEu, 0xDFu},
1721:Generated_Source\PSoC5/cyfitter_cfg.c **** 			{0xD6u, 0x38u},
1722:Generated_Source\PSoC5/cyfitter_cfg.c **** 			{0xD8u, 0x38u},
1723:Generated_Source\PSoC5/cyfitter_cfg.c **** 			{0xE0u, 0x50u},
1724:Generated_Source\PSoC5/cyfitter_cfg.c **** 			{0xE2u, 0x80u},
1725:Generated_Source\PSoC5/cyfitter_cfg.c **** 			{0xE6u, 0x04u},
1726:Generated_Source\PSoC5/cyfitter_cfg.c **** 			{0x00u, 0xC6u},
1727:Generated_Source\PSoC5/cyfitter_cfg.c **** 			{0x01u, 0x01u},
1728:Generated_Source\PSoC5/cyfitter_cfg.c **** 			{0x04u, 0x84u},
1729:Generated_Source\PSoC5/cyfitter_cfg.c **** 			{0x05u, 0x01u},
1730:Generated_Source\PSoC5/cyfitter_cfg.c **** 			{0x08u, 0x19u},
1731:Generated_Source\PSoC5/cyfitter_cfg.c **** 			{0x09u, 0x01u},
1732:Generated_Source\PSoC5/cyfitter_cfg.c **** 			{0x0Au, 0xE6u},
1733:Generated_Source\PSoC5/cyfitter_cfg.c **** 			{0x0Cu, 0xC6u},
1734:Generated_Source\PSoC5/cyfitter_cfg.c **** 			{0x0Fu, 0x02u},
1735:Generated_Source\PSoC5/cyfitter_cfg.c **** 			{0x10u, 0x42u},
1736:Generated_Source\PSoC5/cyfitter_cfg.c **** 			{0x13u, 0x01u},
1737:Generated_Source\PSoC5/cyfitter_cfg.c **** 			{0x18u, 0x01u},
1738:Generated_Source\PSoC5/cyfitter_cfg.c **** 			{0x1Au, 0xFEu},
1739:Generated_Source\PSoC5/cyfitter_cfg.c **** 			{0x1Cu, 0x17u},
1740:Generated_Source\PSoC5/cyfitter_cfg.c **** 			{0x1Eu, 0x28u},
1741:Generated_Source\PSoC5/cyfitter_cfg.c **** 			{0x20u, 0xC6u},
1742:Generated_Source\PSoC5/cyfitter_cfg.c **** 			{0x21u, 0x01u},
1743:Generated_Source\PSoC5/cyfitter_cfg.c **** 			{0x24u, 0x42u},
1744:Generated_Source\PSoC5/cyfitter_cfg.c **** 			{0x26u, 0x84u},
1745:Generated_Source\PSoC5/cyfitter_cfg.c **** 			{0x2Au, 0xC6u},
ARM GAS  C:\Users\r\AppData\Local\Temp\cc1ZHhx7.s 			page 43


1746:Generated_Source\PSoC5/cyfitter_cfg.c **** 			{0x30u, 0x01u},
1747:Generated_Source\PSoC5/cyfitter_cfg.c **** 			{0x34u, 0x0Fu},
1748:Generated_Source\PSoC5/cyfitter_cfg.c **** 			{0x35u, 0x02u},
1749:Generated_Source\PSoC5/cyfitter_cfg.c **** 			{0x36u, 0xF0u},
1750:Generated_Source\PSoC5/cyfitter_cfg.c **** 			{0x37u, 0x01u},
1751:Generated_Source\PSoC5/cyfitter_cfg.c **** 			{0x38u, 0x20u},
1752:Generated_Source\PSoC5/cyfitter_cfg.c **** 			{0x3Eu, 0x01u},
1753:Generated_Source\PSoC5/cyfitter_cfg.c **** 			{0x3Fu, 0x40u},
1754:Generated_Source\PSoC5/cyfitter_cfg.c **** 			{0x40u, 0x26u},
1755:Generated_Source\PSoC5/cyfitter_cfg.c **** 			{0x41u, 0x01u},
1756:Generated_Source\PSoC5/cyfitter_cfg.c **** 			{0x42u, 0x50u},
1757:Generated_Source\PSoC5/cyfitter_cfg.c **** 			{0x44u, 0x04u},
1758:Generated_Source\PSoC5/cyfitter_cfg.c **** 			{0x45u, 0xFEu},
1759:Generated_Source\PSoC5/cyfitter_cfg.c **** 			{0x46u, 0xC0u},
1760:Generated_Source\PSoC5/cyfitter_cfg.c **** 			{0x47u, 0xDBu},
1761:Generated_Source\PSoC5/cyfitter_cfg.c **** 			{0x48u, 0x3Bu},
1762:Generated_Source\PSoC5/cyfitter_cfg.c **** 			{0x49u, 0xFFu},
1763:Generated_Source\PSoC5/cyfitter_cfg.c **** 			{0x4Au, 0xFFu},
1764:Generated_Source\PSoC5/cyfitter_cfg.c **** 			{0x4Bu, 0xFFu},
1765:Generated_Source\PSoC5/cyfitter_cfg.c **** 			{0x4Cu, 0x22u},
1766:Generated_Source\PSoC5/cyfitter_cfg.c **** 			{0x4Eu, 0xF0u},
1767:Generated_Source\PSoC5/cyfitter_cfg.c **** 			{0x4Fu, 0x08u},
1768:Generated_Source\PSoC5/cyfitter_cfg.c **** 			{0x50u, 0x04u},
1769:Generated_Source\PSoC5/cyfitter_cfg.c **** 			{0x56u, 0x02u},
1770:Generated_Source\PSoC5/cyfitter_cfg.c **** 			{0x57u, 0x24u},
1771:Generated_Source\PSoC5/cyfitter_cfg.c **** 			{0x58u, 0x04u},
1772:Generated_Source\PSoC5/cyfitter_cfg.c **** 			{0x59u, 0x04u},
1773:Generated_Source\PSoC5/cyfitter_cfg.c **** 			{0x5Au, 0x04u},
1774:Generated_Source\PSoC5/cyfitter_cfg.c **** 			{0x5Bu, 0x04u},
1775:Generated_Source\PSoC5/cyfitter_cfg.c **** 			{0x5Cu, 0x10u},
1776:Generated_Source\PSoC5/cyfitter_cfg.c **** 			{0x5Fu, 0x01u},
1777:Generated_Source\PSoC5/cyfitter_cfg.c **** 			{0x62u, 0xC0u},
1778:Generated_Source\PSoC5/cyfitter_cfg.c **** 			{0x64u, 0x40u},
1779:Generated_Source\PSoC5/cyfitter_cfg.c **** 			{0x65u, 0x01u},
1780:Generated_Source\PSoC5/cyfitter_cfg.c **** 			{0x66u, 0x10u},
1781:Generated_Source\PSoC5/cyfitter_cfg.c **** 			{0x67u, 0x11u},
1782:Generated_Source\PSoC5/cyfitter_cfg.c **** 			{0x68u, 0xC0u},
1783:Generated_Source\PSoC5/cyfitter_cfg.c **** 			{0x69u, 0x01u},
1784:Generated_Source\PSoC5/cyfitter_cfg.c **** 			{0x6Bu, 0x11u},
1785:Generated_Source\PSoC5/cyfitter_cfg.c **** 			{0x6Cu, 0x40u},
1786:Generated_Source\PSoC5/cyfitter_cfg.c **** 			{0x6Du, 0x01u},
1787:Generated_Source\PSoC5/cyfitter_cfg.c **** 			{0x6Eu, 0x40u},
1788:Generated_Source\PSoC5/cyfitter_cfg.c **** 			{0x6Fu, 0x01u},
1789:Generated_Source\PSoC5/cyfitter_cfg.c **** 			{0x80u, 0x01u},
1790:Generated_Source\PSoC5/cyfitter_cfg.c **** 			{0x82u, 0x02u},
1791:Generated_Source\PSoC5/cyfitter_cfg.c **** 			{0x84u, 0x04u},
1792:Generated_Source\PSoC5/cyfitter_cfg.c **** 			{0x85u, 0x02u},
1793:Generated_Source\PSoC5/cyfitter_cfg.c **** 			{0x86u, 0x03u},
1794:Generated_Source\PSoC5/cyfitter_cfg.c **** 			{0x87u, 0x01u},
1795:Generated_Source\PSoC5/cyfitter_cfg.c **** 			{0x8Au, 0x02u},
1796:Generated_Source\PSoC5/cyfitter_cfg.c **** 			{0x92u, 0x0Cu},
1797:Generated_Source\PSoC5/cyfitter_cfg.c **** 			{0x98u, 0x08u},
1798:Generated_Source\PSoC5/cyfitter_cfg.c **** 			{0x9Au, 0x03u},
1799:Generated_Source\PSoC5/cyfitter_cfg.c **** 			{0x9Du, 0x06u},
1800:Generated_Source\PSoC5/cyfitter_cfg.c **** 			{0xA1u, 0x01u},
1801:Generated_Source\PSoC5/cyfitter_cfg.c **** 			{0xA3u, 0x02u},
1802:Generated_Source\PSoC5/cyfitter_cfg.c **** 			{0xA5u, 0x01u},
ARM GAS  C:\Users\r\AppData\Local\Temp\cc1ZHhx7.s 			page 44


1803:Generated_Source\PSoC5/cyfitter_cfg.c **** 			{0xA6u, 0x01u},
1804:Generated_Source\PSoC5/cyfitter_cfg.c **** 			{0xA7u, 0x04u},
1805:Generated_Source\PSoC5/cyfitter_cfg.c **** 			{0xB0u, 0x0Fu},
1806:Generated_Source\PSoC5/cyfitter_cfg.c **** 			{0xB1u, 0x07u},
1807:Generated_Source\PSoC5/cyfitter_cfg.c **** 			{0xB9u, 0x02u},
1808:Generated_Source\PSoC5/cyfitter_cfg.c **** 			{0xD8u, 0x04u},
1809:Generated_Source\PSoC5/cyfitter_cfg.c **** 			{0xD9u, 0x04u},
1810:Generated_Source\PSoC5/cyfitter_cfg.c **** 			{0xDFu, 0x01u},
1811:Generated_Source\PSoC5/cyfitter_cfg.c **** 			{0x01u, 0x61u},
1812:Generated_Source\PSoC5/cyfitter_cfg.c **** 			{0x02u, 0x10u},
1813:Generated_Source\PSoC5/cyfitter_cfg.c **** 			{0x03u, 0x10u},
1814:Generated_Source\PSoC5/cyfitter_cfg.c **** 			{0x04u, 0x0Au},
1815:Generated_Source\PSoC5/cyfitter_cfg.c **** 			{0x06u, 0x04u},
1816:Generated_Source\PSoC5/cyfitter_cfg.c **** 			{0x09u, 0x02u},
1817:Generated_Source\PSoC5/cyfitter_cfg.c **** 			{0x0Au, 0x02u},
1818:Generated_Source\PSoC5/cyfitter_cfg.c **** 			{0x0Bu, 0x04u},
1819:Generated_Source\PSoC5/cyfitter_cfg.c **** 			{0x0Eu, 0x80u},
1820:Generated_Source\PSoC5/cyfitter_cfg.c **** 			{0x0Fu, 0x04u},
1821:Generated_Source\PSoC5/cyfitter_cfg.c **** 			{0x11u, 0x14u},
1822:Generated_Source\PSoC5/cyfitter_cfg.c **** 			{0x13u, 0x01u},
1823:Generated_Source\PSoC5/cyfitter_cfg.c **** 			{0x17u, 0x08u},
1824:Generated_Source\PSoC5/cyfitter_cfg.c **** 			{0x18u, 0x0Au},
1825:Generated_Source\PSoC5/cyfitter_cfg.c **** 			{0x19u, 0x20u},
1826:Generated_Source\PSoC5/cyfitter_cfg.c **** 			{0x1Au, 0x02u},
1827:Generated_Source\PSoC5/cyfitter_cfg.c **** 			{0x1Bu, 0xE1u},
1828:Generated_Source\PSoC5/cyfitter_cfg.c **** 			{0x1Eu, 0x80u},
1829:Generated_Source\PSoC5/cyfitter_cfg.c **** 			{0x20u, 0x02u},
1830:Generated_Source\PSoC5/cyfitter_cfg.c **** 			{0x22u, 0x20u},
1831:Generated_Source\PSoC5/cyfitter_cfg.c **** 			{0x23u, 0x02u},
1832:Generated_Source\PSoC5/cyfitter_cfg.c **** 			{0x27u, 0x40u},
1833:Generated_Source\PSoC5/cyfitter_cfg.c **** 			{0x2Au, 0x02u},
1834:Generated_Source\PSoC5/cyfitter_cfg.c **** 			{0x2Fu, 0xA0u},
1835:Generated_Source\PSoC5/cyfitter_cfg.c **** 			{0x33u, 0x01u},
1836:Generated_Source\PSoC5/cyfitter_cfg.c **** 			{0x37u, 0x40u},
1837:Generated_Source\PSoC5/cyfitter_cfg.c **** 			{0x38u, 0x40u},
1838:Generated_Source\PSoC5/cyfitter_cfg.c **** 			{0x39u, 0x15u},
1839:Generated_Source\PSoC5/cyfitter_cfg.c **** 			{0x3Fu, 0x04u},
1840:Generated_Source\PSoC5/cyfitter_cfg.c **** 			{0x40u, 0x80u},
1841:Generated_Source\PSoC5/cyfitter_cfg.c **** 			{0x43u, 0xA0u},
1842:Generated_Source\PSoC5/cyfitter_cfg.c **** 			{0x48u, 0x05u},
1843:Generated_Source\PSoC5/cyfitter_cfg.c **** 			{0x49u, 0x05u},
1844:Generated_Source\PSoC5/cyfitter_cfg.c **** 			{0x50u, 0x02u},
1845:Generated_Source\PSoC5/cyfitter_cfg.c **** 			{0x52u, 0x1Cu},
1846:Generated_Source\PSoC5/cyfitter_cfg.c **** 			{0x60u, 0x04u},
1847:Generated_Source\PSoC5/cyfitter_cfg.c **** 			{0x68u, 0x10u},
1848:Generated_Source\PSoC5/cyfitter_cfg.c **** 			{0x69u, 0x55u},
1849:Generated_Source\PSoC5/cyfitter_cfg.c **** 			{0x6Bu, 0x81u},
1850:Generated_Source\PSoC5/cyfitter_cfg.c **** 			{0x72u, 0x02u},
1851:Generated_Source\PSoC5/cyfitter_cfg.c **** 			{0x73u, 0x01u},
1852:Generated_Source\PSoC5/cyfitter_cfg.c **** 			{0x80u, 0x80u},
1853:Generated_Source\PSoC5/cyfitter_cfg.c **** 			{0x88u, 0x04u},
1854:Generated_Source\PSoC5/cyfitter_cfg.c **** 			{0x89u, 0x01u},
1855:Generated_Source\PSoC5/cyfitter_cfg.c **** 			{0x8Du, 0x01u},
1856:Generated_Source\PSoC5/cyfitter_cfg.c **** 			{0x90u, 0x44u},
1857:Generated_Source\PSoC5/cyfitter_cfg.c **** 			{0x93u, 0x04u},
1858:Generated_Source\PSoC5/cyfitter_cfg.c **** 			{0x94u, 0x08u},
1859:Generated_Source\PSoC5/cyfitter_cfg.c **** 			{0x95u, 0x55u},
ARM GAS  C:\Users\r\AppData\Local\Temp\cc1ZHhx7.s 			page 45


1860:Generated_Source\PSoC5/cyfitter_cfg.c **** 			{0x96u, 0x02u},
1861:Generated_Source\PSoC5/cyfitter_cfg.c **** 			{0x97u, 0x01u},
1862:Generated_Source\PSoC5/cyfitter_cfg.c **** 			{0x9Bu, 0x08u},
1863:Generated_Source\PSoC5/cyfitter_cfg.c **** 			{0x9Cu, 0x04u},
1864:Generated_Source\PSoC5/cyfitter_cfg.c **** 			{0x9Du, 0x04u},
1865:Generated_Source\PSoC5/cyfitter_cfg.c **** 			{0x9Eu, 0x12u},
1866:Generated_Source\PSoC5/cyfitter_cfg.c **** 			{0x9Fu, 0xD2u},
1867:Generated_Source\PSoC5/cyfitter_cfg.c **** 			{0xA0u, 0x04u},
1868:Generated_Source\PSoC5/cyfitter_cfg.c **** 			{0xA1u, 0x02u},
1869:Generated_Source\PSoC5/cyfitter_cfg.c **** 			{0xA4u, 0x12u},
1870:Generated_Source\PSoC5/cyfitter_cfg.c **** 			{0xA6u, 0x68u},
1871:Generated_Source\PSoC5/cyfitter_cfg.c **** 			{0xA7u, 0xE1u},
1872:Generated_Source\PSoC5/cyfitter_cfg.c **** 			{0xAEu, 0x48u},
1873:Generated_Source\PSoC5/cyfitter_cfg.c **** 			{0xB1u, 0x08u},
1874:Generated_Source\PSoC5/cyfitter_cfg.c **** 			{0xB6u, 0x20u},
1875:Generated_Source\PSoC5/cyfitter_cfg.c **** 			{0xC0u, 0x7Fu},
1876:Generated_Source\PSoC5/cyfitter_cfg.c **** 			{0xC2u, 0x5Bu},
1877:Generated_Source\PSoC5/cyfitter_cfg.c **** 			{0xC4u, 0x2Eu},
1878:Generated_Source\PSoC5/cyfitter_cfg.c **** 			{0xCAu, 0xC1u},
1879:Generated_Source\PSoC5/cyfitter_cfg.c **** 			{0xCCu, 0x11u},
1880:Generated_Source\PSoC5/cyfitter_cfg.c **** 			{0xCEu, 0x4Fu},
1881:Generated_Source\PSoC5/cyfitter_cfg.c **** 			{0xD0u, 0x0Du},
1882:Generated_Source\PSoC5/cyfitter_cfg.c **** 			{0xD2u, 0x0Cu},
1883:Generated_Source\PSoC5/cyfitter_cfg.c **** 			{0xD8u, 0x04u},
1884:Generated_Source\PSoC5/cyfitter_cfg.c **** 			{0x00u, 0x1Cu},
1885:Generated_Source\PSoC5/cyfitter_cfg.c **** 			{0x01u, 0x01u},
1886:Generated_Source\PSoC5/cyfitter_cfg.c **** 			{0x04u, 0x02u},
1887:Generated_Source\PSoC5/cyfitter_cfg.c **** 			{0x05u, 0x22u},
1888:Generated_Source\PSoC5/cyfitter_cfg.c **** 			{0x06u, 0x09u},
1889:Generated_Source\PSoC5/cyfitter_cfg.c **** 			{0x07u, 0x08u},
1890:Generated_Source\PSoC5/cyfitter_cfg.c **** 			{0x09u, 0x01u},
1891:Generated_Source\PSoC5/cyfitter_cfg.c **** 			{0x0Au, 0x1Cu},
1892:Generated_Source\PSoC5/cyfitter_cfg.c **** 			{0x0Cu, 0x02u},
1893:Generated_Source\PSoC5/cyfitter_cfg.c **** 			{0x0Du, 0x04u},
1894:Generated_Source\PSoC5/cyfitter_cfg.c **** 			{0x0Eu, 0x01u},
1895:Generated_Source\PSoC5/cyfitter_cfg.c **** 			{0x10u, 0x05u},
1896:Generated_Source\PSoC5/cyfitter_cfg.c **** 			{0x11u, 0x01u},
1897:Generated_Source\PSoC5/cyfitter_cfg.c **** 			{0x12u, 0x02u},
1898:Generated_Source\PSoC5/cyfitter_cfg.c **** 			{0x15u, 0x10u},
1899:Generated_Source\PSoC5/cyfitter_cfg.c **** 			{0x17u, 0x80u},
1900:Generated_Source\PSoC5/cyfitter_cfg.c **** 			{0x18u, 0x13u},
1901:Generated_Source\PSoC5/cyfitter_cfg.c **** 			{0x19u, 0x40u},
1902:Generated_Source\PSoC5/cyfitter_cfg.c **** 			{0x1Cu, 0x01u},
1903:Generated_Source\PSoC5/cyfitter_cfg.c **** 			{0x1Du, 0x01u},
1904:Generated_Source\PSoC5/cyfitter_cfg.c **** 			{0x20u, 0x01u},
1905:Generated_Source\PSoC5/cyfitter_cfg.c **** 			{0x21u, 0x07u},
1906:Generated_Source\PSoC5/cyfitter_cfg.c **** 			{0x23u, 0x18u},
1907:Generated_Source\PSoC5/cyfitter_cfg.c **** 			{0x24u, 0x01u},
1908:Generated_Source\PSoC5/cyfitter_cfg.c **** 			{0x25u, 0x08u},
1909:Generated_Source\PSoC5/cyfitter_cfg.c **** 			{0x27u, 0x21u},
1910:Generated_Source\PSoC5/cyfitter_cfg.c **** 			{0x28u, 0x01u},
1911:Generated_Source\PSoC5/cyfitter_cfg.c **** 			{0x29u, 0x40u},
1912:Generated_Source\PSoC5/cyfitter_cfg.c **** 			{0x2Du, 0x01u},
1913:Generated_Source\PSoC5/cyfitter_cfg.c **** 			{0x2Eu, 0x01u},
1914:Generated_Source\PSoC5/cyfitter_cfg.c **** 			{0x30u, 0x03u},
1915:Generated_Source\PSoC5/cyfitter_cfg.c **** 			{0x33u, 0x3Fu},
1916:Generated_Source\PSoC5/cyfitter_cfg.c **** 			{0x34u, 0x1Cu},
ARM GAS  C:\Users\r\AppData\Local\Temp\cc1ZHhx7.s 			page 46


1917:Generated_Source\PSoC5/cyfitter_cfg.c **** 			{0x35u, 0x80u},
1918:Generated_Source\PSoC5/cyfitter_cfg.c **** 			{0x37u, 0x40u},
1919:Generated_Source\PSoC5/cyfitter_cfg.c **** 			{0x39u, 0x88u},
1920:Generated_Source\PSoC5/cyfitter_cfg.c **** 			{0x3Au, 0x02u},
1921:Generated_Source\PSoC5/cyfitter_cfg.c **** 			{0x3Eu, 0x10u},
1922:Generated_Source\PSoC5/cyfitter_cfg.c **** 			{0x3Fu, 0x04u},
1923:Generated_Source\PSoC5/cyfitter_cfg.c **** 			{0x58u, 0x04u},
1924:Generated_Source\PSoC5/cyfitter_cfg.c **** 			{0x59u, 0x04u},
1925:Generated_Source\PSoC5/cyfitter_cfg.c **** 			{0x5Bu, 0x04u},
1926:Generated_Source\PSoC5/cyfitter_cfg.c **** 			{0x5Fu, 0x01u},
1927:Generated_Source\PSoC5/cyfitter_cfg.c **** 			{0x80u, 0xC0u},
1928:Generated_Source\PSoC5/cyfitter_cfg.c **** 			{0x82u, 0x02u},
1929:Generated_Source\PSoC5/cyfitter_cfg.c **** 			{0x86u, 0xFFu},
1930:Generated_Source\PSoC5/cyfitter_cfg.c **** 			{0x8Au, 0x9Fu},
1931:Generated_Source\PSoC5/cyfitter_cfg.c **** 			{0x8Bu, 0x01u},
1932:Generated_Source\PSoC5/cyfitter_cfg.c **** 			{0x8Cu, 0x90u},
1933:Generated_Source\PSoC5/cyfitter_cfg.c **** 			{0x8Eu, 0x40u},
1934:Generated_Source\PSoC5/cyfitter_cfg.c **** 			{0x90u, 0x80u},
1935:Generated_Source\PSoC5/cyfitter_cfg.c **** 			{0x98u, 0x7Fu},
1936:Generated_Source\PSoC5/cyfitter_cfg.c **** 			{0x9Au, 0x80u},
1937:Generated_Source\PSoC5/cyfitter_cfg.c **** 			{0x9Cu, 0x1Fu},
1938:Generated_Source\PSoC5/cyfitter_cfg.c **** 			{0x9Eu, 0x20u},
1939:Generated_Source\PSoC5/cyfitter_cfg.c **** 			{0xA0u, 0xC0u},
1940:Generated_Source\PSoC5/cyfitter_cfg.c **** 			{0xA2u, 0x01u},
1941:Generated_Source\PSoC5/cyfitter_cfg.c **** 			{0xA4u, 0xC0u},
1942:Generated_Source\PSoC5/cyfitter_cfg.c **** 			{0xA6u, 0x04u},
1943:Generated_Source\PSoC5/cyfitter_cfg.c **** 			{0xA8u, 0xC0u},
1944:Generated_Source\PSoC5/cyfitter_cfg.c **** 			{0xAAu, 0x08u},
1945:Generated_Source\PSoC5/cyfitter_cfg.c **** 			{0xAEu, 0x60u},
1946:Generated_Source\PSoC5/cyfitter_cfg.c **** 			{0xB1u, 0x01u},
1947:Generated_Source\PSoC5/cyfitter_cfg.c **** 			{0xB4u, 0xFFu},
1948:Generated_Source\PSoC5/cyfitter_cfg.c **** 			{0xBEu, 0x10u},
1949:Generated_Source\PSoC5/cyfitter_cfg.c **** 			{0xD4u, 0x09u},
1950:Generated_Source\PSoC5/cyfitter_cfg.c **** 			{0xD6u, 0x04u},
1951:Generated_Source\PSoC5/cyfitter_cfg.c **** 			{0xD8u, 0x04u},
1952:Generated_Source\PSoC5/cyfitter_cfg.c **** 			{0xD9u, 0x04u},
1953:Generated_Source\PSoC5/cyfitter_cfg.c **** 			{0xDBu, 0x04u},
1954:Generated_Source\PSoC5/cyfitter_cfg.c **** 			{0xDCu, 0x10u},
1955:Generated_Source\PSoC5/cyfitter_cfg.c **** 			{0xDFu, 0x01u},
1956:Generated_Source\PSoC5/cyfitter_cfg.c **** 			{0x01u, 0x41u},
1957:Generated_Source\PSoC5/cyfitter_cfg.c **** 			{0x02u, 0x08u},
1958:Generated_Source\PSoC5/cyfitter_cfg.c **** 			{0x03u, 0x20u},
1959:Generated_Source\PSoC5/cyfitter_cfg.c **** 			{0x04u, 0x08u},
1960:Generated_Source\PSoC5/cyfitter_cfg.c **** 			{0x06u, 0x08u},
1961:Generated_Source\PSoC5/cyfitter_cfg.c **** 			{0x07u, 0x41u},
1962:Generated_Source\PSoC5/cyfitter_cfg.c **** 			{0x09u, 0x22u},
1963:Generated_Source\PSoC5/cyfitter_cfg.c **** 			{0x0Au, 0x02u},
1964:Generated_Source\PSoC5/cyfitter_cfg.c **** 			{0x0Fu, 0x85u},
1965:Generated_Source\PSoC5/cyfitter_cfg.c **** 			{0x11u, 0x94u},
1966:Generated_Source\PSoC5/cyfitter_cfg.c **** 			{0x13u, 0x01u},
1967:Generated_Source\PSoC5/cyfitter_cfg.c **** 			{0x15u, 0x55u},
1968:Generated_Source\PSoC5/cyfitter_cfg.c **** 			{0x19u, 0x20u},
1969:Generated_Source\PSoC5/cyfitter_cfg.c **** 			{0x1Du, 0x03u},
1970:Generated_Source\PSoC5/cyfitter_cfg.c **** 			{0x1Fu, 0x10u},
1971:Generated_Source\PSoC5/cyfitter_cfg.c **** 			{0x20u, 0xC0u},
1972:Generated_Source\PSoC5/cyfitter_cfg.c **** 			{0x25u, 0x40u},
1973:Generated_Source\PSoC5/cyfitter_cfg.c **** 			{0x27u, 0x28u},
ARM GAS  C:\Users\r\AppData\Local\Temp\cc1ZHhx7.s 			page 47


1974:Generated_Source\PSoC5/cyfitter_cfg.c **** 			{0x2Du, 0x60u},
1975:Generated_Source\PSoC5/cyfitter_cfg.c **** 			{0x2Fu, 0xA0u},
1976:Generated_Source\PSoC5/cyfitter_cfg.c **** 			{0x34u, 0x01u},
1977:Generated_Source\PSoC5/cyfitter_cfg.c **** 			{0x35u, 0x01u},
1978:Generated_Source\PSoC5/cyfitter_cfg.c **** 			{0x36u, 0x08u},
1979:Generated_Source\PSoC5/cyfitter_cfg.c **** 			{0x37u, 0xA1u},
1980:Generated_Source\PSoC5/cyfitter_cfg.c **** 			{0x38u, 0x10u},
1981:Generated_Source\PSoC5/cyfitter_cfg.c **** 			{0x3Cu, 0x20u},
1982:Generated_Source\PSoC5/cyfitter_cfg.c **** 			{0x3Du, 0x80u},
1983:Generated_Source\PSoC5/cyfitter_cfg.c **** 			{0x3Fu, 0x05u},
1984:Generated_Source\PSoC5/cyfitter_cfg.c **** 			{0x59u, 0x04u},
1985:Generated_Source\PSoC5/cyfitter_cfg.c **** 			{0x5Au, 0x80u},
1986:Generated_Source\PSoC5/cyfitter_cfg.c **** 			{0x5Bu, 0x12u},
1987:Generated_Source\PSoC5/cyfitter_cfg.c **** 			{0x63u, 0x42u},
1988:Generated_Source\PSoC5/cyfitter_cfg.c **** 			{0x6Fu, 0x02u},
1989:Generated_Source\PSoC5/cyfitter_cfg.c **** 			{0x87u, 0x40u},
1990:Generated_Source\PSoC5/cyfitter_cfg.c **** 			{0x88u, 0x40u},
1991:Generated_Source\PSoC5/cyfitter_cfg.c **** 			{0x8Bu, 0x10u},
1992:Generated_Source\PSoC5/cyfitter_cfg.c **** 			{0x90u, 0x14u},
1993:Generated_Source\PSoC5/cyfitter_cfg.c **** 			{0x92u, 0x80u},
1994:Generated_Source\PSoC5/cyfitter_cfg.c **** 			{0x93u, 0x04u},
1995:Generated_Source\PSoC5/cyfitter_cfg.c **** 			{0x95u, 0x54u},
1996:Generated_Source\PSoC5/cyfitter_cfg.c **** 			{0x96u, 0x02u},
1997:Generated_Source\PSoC5/cyfitter_cfg.c **** 			{0x9Cu, 0x05u},
1998:Generated_Source\PSoC5/cyfitter_cfg.c **** 			{0x9Eu, 0x12u},
1999:Generated_Source\PSoC5/cyfitter_cfg.c **** 			{0xA0u, 0x04u},
2000:Generated_Source\PSoC5/cyfitter_cfg.c **** 			{0xA1u, 0x28u},
2001:Generated_Source\PSoC5/cyfitter_cfg.c **** 			{0xA4u, 0x02u},
2002:Generated_Source\PSoC5/cyfitter_cfg.c **** 			{0xA7u, 0xA2u},
2003:Generated_Source\PSoC5/cyfitter_cfg.c **** 			{0xAAu, 0x02u},
2004:Generated_Source\PSoC5/cyfitter_cfg.c **** 			{0xABu, 0x40u},
2005:Generated_Source\PSoC5/cyfitter_cfg.c **** 			{0xAEu, 0x40u},
2006:Generated_Source\PSoC5/cyfitter_cfg.c **** 			{0xAFu, 0x02u},
2007:Generated_Source\PSoC5/cyfitter_cfg.c **** 			{0xB0u, 0x50u},
2008:Generated_Source\PSoC5/cyfitter_cfg.c **** 			{0xB2u, 0x80u},
2009:Generated_Source\PSoC5/cyfitter_cfg.c **** 			{0xC0u, 0xFFu},
2010:Generated_Source\PSoC5/cyfitter_cfg.c **** 			{0xC2u, 0xDBu},
2011:Generated_Source\PSoC5/cyfitter_cfg.c **** 			{0xC4u, 0xFFu},
2012:Generated_Source\PSoC5/cyfitter_cfg.c **** 			{0xCAu, 0xF0u},
2013:Generated_Source\PSoC5/cyfitter_cfg.c **** 			{0xCCu, 0xF0u},
2014:Generated_Source\PSoC5/cyfitter_cfg.c **** 			{0xCEu, 0xF4u},
2015:Generated_Source\PSoC5/cyfitter_cfg.c **** 			{0xD6u, 0x0Fu},
2016:Generated_Source\PSoC5/cyfitter_cfg.c **** 			{0xD8u, 0x09u},
2017:Generated_Source\PSoC5/cyfitter_cfg.c **** 			{0xE2u, 0x28u},
2018:Generated_Source\PSoC5/cyfitter_cfg.c **** 			{0xE8u, 0x09u},
2019:Generated_Source\PSoC5/cyfitter_cfg.c **** 			{0xEAu, 0x02u},
2020:Generated_Source\PSoC5/cyfitter_cfg.c **** 			{0xEEu, 0x0Du},
2021:Generated_Source\PSoC5/cyfitter_cfg.c **** 			{0x39u, 0x20u},
2022:Generated_Source\PSoC5/cyfitter_cfg.c **** 			{0x3Fu, 0x10u},
2023:Generated_Source\PSoC5/cyfitter_cfg.c **** 			{0x59u, 0x04u},
2024:Generated_Source\PSoC5/cyfitter_cfg.c **** 			{0x5Fu, 0x01u},
2025:Generated_Source\PSoC5/cyfitter_cfg.c **** 			{0x27u, 0x08u},
2026:Generated_Source\PSoC5/cyfitter_cfg.c **** 			{0x87u, 0x08u},
2027:Generated_Source\PSoC5/cyfitter_cfg.c **** 			{0x89u, 0x40u},
2028:Generated_Source\PSoC5/cyfitter_cfg.c **** 			{0x9Cu, 0x80u},
2029:Generated_Source\PSoC5/cyfitter_cfg.c **** 			{0x9Eu, 0x20u},
2030:Generated_Source\PSoC5/cyfitter_cfg.c **** 			{0xA5u, 0x41u},
ARM GAS  C:\Users\r\AppData\Local\Temp\cc1ZHhx7.s 			page 48


2031:Generated_Source\PSoC5/cyfitter_cfg.c **** 			{0xAAu, 0x40u},
2032:Generated_Source\PSoC5/cyfitter_cfg.c **** 			{0xABu, 0x01u},
2033:Generated_Source\PSoC5/cyfitter_cfg.c **** 			{0xACu, 0x02u},
2034:Generated_Source\PSoC5/cyfitter_cfg.c **** 			{0xAFu, 0x80u},
2035:Generated_Source\PSoC5/cyfitter_cfg.c **** 			{0xB0u, 0x40u},
2036:Generated_Source\PSoC5/cyfitter_cfg.c **** 			{0xB2u, 0x10u},
2037:Generated_Source\PSoC5/cyfitter_cfg.c **** 			{0xB3u, 0x10u},
2038:Generated_Source\PSoC5/cyfitter_cfg.c **** 			{0xE4u, 0x20u},
2039:Generated_Source\PSoC5/cyfitter_cfg.c **** 			{0xEAu, 0x02u},
2040:Generated_Source\PSoC5/cyfitter_cfg.c **** 			{0xECu, 0xA0u},
2041:Generated_Source\PSoC5/cyfitter_cfg.c **** 			{0xEEu, 0x04u},
2042:Generated_Source\PSoC5/cyfitter_cfg.c **** 			{0x8Cu, 0x80u},
2043:Generated_Source\PSoC5/cyfitter_cfg.c **** 			{0x8Eu, 0x20u},
2044:Generated_Source\PSoC5/cyfitter_cfg.c **** 			{0x9Cu, 0x80u},
2045:Generated_Source\PSoC5/cyfitter_cfg.c **** 			{0x9Eu, 0x20u},
2046:Generated_Source\PSoC5/cyfitter_cfg.c **** 			{0xB5u, 0x01u},
2047:Generated_Source\PSoC5/cyfitter_cfg.c **** 			{0xE4u, 0x40u},
2048:Generated_Source\PSoC5/cyfitter_cfg.c **** 			{0xE8u, 0x10u},
2049:Generated_Source\PSoC5/cyfitter_cfg.c **** 			{0xECu, 0x20u},
2050:Generated_Source\PSoC5/cyfitter_cfg.c **** 			{0x04u, 0x10u},
2051:Generated_Source\PSoC5/cyfitter_cfg.c **** 			{0x0Cu, 0x20u},
2052:Generated_Source\PSoC5/cyfitter_cfg.c **** 			{0x12u, 0x08u},
2053:Generated_Source\PSoC5/cyfitter_cfg.c **** 			{0x13u, 0x02u},
2054:Generated_Source\PSoC5/cyfitter_cfg.c **** 			{0x16u, 0x80u},
2055:Generated_Source\PSoC5/cyfitter_cfg.c **** 			{0x17u, 0x20u},
2056:Generated_Source\PSoC5/cyfitter_cfg.c **** 			{0x30u, 0x10u},
2057:Generated_Source\PSoC5/cyfitter_cfg.c **** 			{0x33u, 0x01u},
2058:Generated_Source\PSoC5/cyfitter_cfg.c **** 			{0x34u, 0x04u},
2059:Generated_Source\PSoC5/cyfitter_cfg.c **** 			{0x36u, 0x10u},
2060:Generated_Source\PSoC5/cyfitter_cfg.c **** 			{0x3Au, 0x82u},
2061:Generated_Source\PSoC5/cyfitter_cfg.c **** 			{0x3Cu, 0x24u},
2062:Generated_Source\PSoC5/cyfitter_cfg.c **** 			{0x42u, 0x08u},
2063:Generated_Source\PSoC5/cyfitter_cfg.c **** 			{0x61u, 0x20u},
2064:Generated_Source\PSoC5/cyfitter_cfg.c **** 			{0x6Bu, 0x03u},
2065:Generated_Source\PSoC5/cyfitter_cfg.c **** 			{0x82u, 0x02u},
2066:Generated_Source\PSoC5/cyfitter_cfg.c **** 			{0x8Cu, 0x10u},
2067:Generated_Source\PSoC5/cyfitter_cfg.c **** 			{0xC0u, 0x80u},
2068:Generated_Source\PSoC5/cyfitter_cfg.c **** 			{0xC2u, 0x80u},
2069:Generated_Source\PSoC5/cyfitter_cfg.c **** 			{0xC4u, 0xF0u},
2070:Generated_Source\PSoC5/cyfitter_cfg.c **** 			{0xCCu, 0xF0u},
2071:Generated_Source\PSoC5/cyfitter_cfg.c **** 			{0xCEu, 0xF0u},
2072:Generated_Source\PSoC5/cyfitter_cfg.c **** 			{0xD0u, 0x10u},
2073:Generated_Source\PSoC5/cyfitter_cfg.c **** 			{0xD8u, 0x40u},
2074:Generated_Source\PSoC5/cyfitter_cfg.c **** 			{0xE6u, 0x20u},
2075:Generated_Source\PSoC5/cyfitter_cfg.c **** 			{0x32u, 0x04u},
2076:Generated_Source\PSoC5/cyfitter_cfg.c **** 			{0x33u, 0x10u},
2077:Generated_Source\PSoC5/cyfitter_cfg.c **** 			{0x37u, 0x28u},
2078:Generated_Source\PSoC5/cyfitter_cfg.c **** 			{0x38u, 0x10u},
2079:Generated_Source\PSoC5/cyfitter_cfg.c **** 			{0x52u, 0x08u},
2080:Generated_Source\PSoC5/cyfitter_cfg.c **** 			{0x56u, 0x02u},
2081:Generated_Source\PSoC5/cyfitter_cfg.c **** 			{0x63u, 0x20u},
2082:Generated_Source\PSoC5/cyfitter_cfg.c **** 			{0x82u, 0x08u},
2083:Generated_Source\PSoC5/cyfitter_cfg.c **** 			{0x8Eu, 0x02u},
2084:Generated_Source\PSoC5/cyfitter_cfg.c **** 			{0x94u, 0x04u},
2085:Generated_Source\PSoC5/cyfitter_cfg.c **** 			{0x9Bu, 0x30u},
2086:Generated_Source\PSoC5/cyfitter_cfg.c **** 			{0x9Cu, 0x14u},
2087:Generated_Source\PSoC5/cyfitter_cfg.c **** 			{0x9Eu, 0x08u},
ARM GAS  C:\Users\r\AppData\Local\Temp\cc1ZHhx7.s 			page 49


2088:Generated_Source\PSoC5/cyfitter_cfg.c **** 			{0xA5u, 0x20u},
2089:Generated_Source\PSoC5/cyfitter_cfg.c **** 			{0xA6u, 0x10u},
2090:Generated_Source\PSoC5/cyfitter_cfg.c **** 			{0xA8u, 0x20u},
2091:Generated_Source\PSoC5/cyfitter_cfg.c **** 			{0xAAu, 0x08u},
2092:Generated_Source\PSoC5/cyfitter_cfg.c **** 			{0xABu, 0x10u},
2093:Generated_Source\PSoC5/cyfitter_cfg.c **** 			{0xB0u, 0x10u},
2094:Generated_Source\PSoC5/cyfitter_cfg.c **** 			{0xCCu, 0xF0u},
2095:Generated_Source\PSoC5/cyfitter_cfg.c **** 			{0xCEu, 0x10u},
2096:Generated_Source\PSoC5/cyfitter_cfg.c **** 			{0xD4u, 0x20u},
2097:Generated_Source\PSoC5/cyfitter_cfg.c **** 			{0xD6u, 0x20u},
2098:Generated_Source\PSoC5/cyfitter_cfg.c **** 			{0xD8u, 0x40u},
2099:Generated_Source\PSoC5/cyfitter_cfg.c **** 			{0xE2u, 0x20u},
2100:Generated_Source\PSoC5/cyfitter_cfg.c **** 			{0xE8u, 0x80u},
2101:Generated_Source\PSoC5/cyfitter_cfg.c **** 			{0x10u, 0x10u},
2102:Generated_Source\PSoC5/cyfitter_cfg.c **** 			{0x33u, 0x80u},
2103:Generated_Source\PSoC5/cyfitter_cfg.c **** 			{0x37u, 0x20u},
2104:Generated_Source\PSoC5/cyfitter_cfg.c **** 			{0x87u, 0x08u},
2105:Generated_Source\PSoC5/cyfitter_cfg.c **** 			{0x94u, 0x14u},
2106:Generated_Source\PSoC5/cyfitter_cfg.c **** 			{0x96u, 0x08u},
2107:Generated_Source\PSoC5/cyfitter_cfg.c **** 			{0x9Cu, 0x10u},
2108:Generated_Source\PSoC5/cyfitter_cfg.c **** 			{0x9Eu, 0x08u},
2109:Generated_Source\PSoC5/cyfitter_cfg.c **** 			{0x9Fu, 0x08u},
2110:Generated_Source\PSoC5/cyfitter_cfg.c **** 			{0xA6u, 0x10u},
2111:Generated_Source\PSoC5/cyfitter_cfg.c **** 			{0xABu, 0x10u},
2112:Generated_Source\PSoC5/cyfitter_cfg.c **** 			{0xB0u, 0x04u},
2113:Generated_Source\PSoC5/cyfitter_cfg.c **** 			{0xB5u, 0x20u},
2114:Generated_Source\PSoC5/cyfitter_cfg.c **** 			{0xC4u, 0x10u},
2115:Generated_Source\PSoC5/cyfitter_cfg.c **** 			{0xCCu, 0x30u},
2116:Generated_Source\PSoC5/cyfitter_cfg.c **** 			{0xE2u, 0x10u},
2117:Generated_Source\PSoC5/cyfitter_cfg.c **** 			{0xEEu, 0x80u},
2118:Generated_Source\PSoC5/cyfitter_cfg.c **** 			{0x80u, 0x14u},
2119:Generated_Source\PSoC5/cyfitter_cfg.c **** 			{0x8Bu, 0x10u},
2120:Generated_Source\PSoC5/cyfitter_cfg.c **** 			{0x94u, 0x14u},
2121:Generated_Source\PSoC5/cyfitter_cfg.c **** 			{0x96u, 0x08u},
2122:Generated_Source\PSoC5/cyfitter_cfg.c **** 			{0x9Eu, 0x08u},
2123:Generated_Source\PSoC5/cyfitter_cfg.c **** 			{0x9Fu, 0x20u},
2124:Generated_Source\PSoC5/cyfitter_cfg.c **** 			{0xA6u, 0x10u},
2125:Generated_Source\PSoC5/cyfitter_cfg.c **** 			{0xA7u, 0x80u},
2126:Generated_Source\PSoC5/cyfitter_cfg.c **** 			{0xE2u, 0x20u},
2127:Generated_Source\PSoC5/cyfitter_cfg.c **** 			{0xE6u, 0x80u},
2128:Generated_Source\PSoC5/cyfitter_cfg.c **** 			{0x00u, 0x10u},
2129:Generated_Source\PSoC5/cyfitter_cfg.c **** 			{0x06u, 0x02u},
2130:Generated_Source\PSoC5/cyfitter_cfg.c **** 			{0x0Au, 0x08u},
2131:Generated_Source\PSoC5/cyfitter_cfg.c **** 			{0x0Eu, 0x08u},
2132:Generated_Source\PSoC5/cyfitter_cfg.c **** 			{0x13u, 0x02u},
2133:Generated_Source\PSoC5/cyfitter_cfg.c **** 			{0x15u, 0x01u},
2134:Generated_Source\PSoC5/cyfitter_cfg.c **** 			{0x62u, 0x04u},
2135:Generated_Source\PSoC5/cyfitter_cfg.c **** 			{0x66u, 0x08u},
2136:Generated_Source\PSoC5/cyfitter_cfg.c **** 			{0x82u, 0x04u},
2137:Generated_Source\PSoC5/cyfitter_cfg.c **** 			{0x8Bu, 0x02u},
2138:Generated_Source\PSoC5/cyfitter_cfg.c **** 			{0xC0u, 0x03u},
2139:Generated_Source\PSoC5/cyfitter_cfg.c **** 			{0xC2u, 0x03u},
2140:Generated_Source\PSoC5/cyfitter_cfg.c **** 			{0xC4u, 0x0Cu},
2141:Generated_Source\PSoC5/cyfitter_cfg.c **** 			{0xD8u, 0x03u},
2142:Generated_Source\PSoC5/cyfitter_cfg.c **** 			{0xE2u, 0x04u},
2143:Generated_Source\PSoC5/cyfitter_cfg.c **** 			{0x01u, 0x04u},
2144:Generated_Source\PSoC5/cyfitter_cfg.c **** 			{0x05u, 0x08u},
ARM GAS  C:\Users\r\AppData\Local\Temp\cc1ZHhx7.s 			page 50


2145:Generated_Source\PSoC5/cyfitter_cfg.c **** 			{0x08u, 0x08u},
2146:Generated_Source\PSoC5/cyfitter_cfg.c **** 			{0x0Cu, 0x04u},
2147:Generated_Source\PSoC5/cyfitter_cfg.c **** 			{0x50u, 0x01u},
2148:Generated_Source\PSoC5/cyfitter_cfg.c **** 			{0x57u, 0x10u},
2149:Generated_Source\PSoC5/cyfitter_cfg.c **** 			{0x5Fu, 0x02u},
2150:Generated_Source\PSoC5/cyfitter_cfg.c **** 			{0x65u, 0x20u},
2151:Generated_Source\PSoC5/cyfitter_cfg.c **** 			{0x83u, 0x10u},
2152:Generated_Source\PSoC5/cyfitter_cfg.c **** 			{0x88u, 0x04u},
2153:Generated_Source\PSoC5/cyfitter_cfg.c **** 			{0x8Au, 0x04u},
2154:Generated_Source\PSoC5/cyfitter_cfg.c **** 			{0x92u, 0x08u},
2155:Generated_Source\PSoC5/cyfitter_cfg.c **** 			{0x9Au, 0x02u},
2156:Generated_Source\PSoC5/cyfitter_cfg.c **** 			{0x9Eu, 0x04u},
2157:Generated_Source\PSoC5/cyfitter_cfg.c **** 			{0xAEu, 0x08u},
2158:Generated_Source\PSoC5/cyfitter_cfg.c **** 			{0xB1u, 0x01u},
2159:Generated_Source\PSoC5/cyfitter_cfg.c **** 			{0xB4u, 0x10u},
2160:Generated_Source\PSoC5/cyfitter_cfg.c **** 			{0xC0u, 0x0Cu},
2161:Generated_Source\PSoC5/cyfitter_cfg.c **** 			{0xC2u, 0x0Cu},
2162:Generated_Source\PSoC5/cyfitter_cfg.c **** 			{0xD4u, 0x03u},
2163:Generated_Source\PSoC5/cyfitter_cfg.c **** 			{0xD6u, 0x01u},
2164:Generated_Source\PSoC5/cyfitter_cfg.c **** 			{0xD8u, 0x01u},
2165:Generated_Source\PSoC5/cyfitter_cfg.c **** 			{0xE2u, 0x01u},
2166:Generated_Source\PSoC5/cyfitter_cfg.c **** 			{0xE6u, 0x01u},
2167:Generated_Source\PSoC5/cyfitter_cfg.c **** 			{0xEAu, 0x08u},
2168:Generated_Source\PSoC5/cyfitter_cfg.c **** 			{0xEEu, 0x01u},
2169:Generated_Source\PSoC5/cyfitter_cfg.c **** 			{0x56u, 0x08u},
2170:Generated_Source\PSoC5/cyfitter_cfg.c **** 			{0x87u, 0x10u},
2171:Generated_Source\PSoC5/cyfitter_cfg.c **** 			{0x8Eu, 0x04u},
2172:Generated_Source\PSoC5/cyfitter_cfg.c **** 			{0x91u, 0x04u},
2173:Generated_Source\PSoC5/cyfitter_cfg.c **** 			{0x94u, 0x02u},
2174:Generated_Source\PSoC5/cyfitter_cfg.c **** 			{0x98u, 0x08u},
2175:Generated_Source\PSoC5/cyfitter_cfg.c **** 			{0x99u, 0x08u},
2176:Generated_Source\PSoC5/cyfitter_cfg.c **** 			{0x9Du, 0x10u},
2177:Generated_Source\PSoC5/cyfitter_cfg.c **** 			{0x9Eu, 0x04u},
2178:Generated_Source\PSoC5/cyfitter_cfg.c **** 			{0x9Fu, 0x02u},
2179:Generated_Source\PSoC5/cyfitter_cfg.c **** 			{0xA9u, 0x10u},
2180:Generated_Source\PSoC5/cyfitter_cfg.c **** 			{0xB5u, 0x20u},
2181:Generated_Source\PSoC5/cyfitter_cfg.c **** 			{0xB6u, 0x02u},
2182:Generated_Source\PSoC5/cyfitter_cfg.c **** 			{0xD4u, 0x02u},
2183:Generated_Source\PSoC5/cyfitter_cfg.c **** 			{0xE4u, 0x08u},
2184:Generated_Source\PSoC5/cyfitter_cfg.c **** 			{0xE8u, 0x08u},
2185:Generated_Source\PSoC5/cyfitter_cfg.c **** 			{0xEAu, 0x02u},
2186:Generated_Source\PSoC5/cyfitter_cfg.c **** 			{0x0Bu, 0x12u},
2187:Generated_Source\PSoC5/cyfitter_cfg.c **** 			{0x0Fu, 0x24u},
2188:Generated_Source\PSoC5/cyfitter_cfg.c **** 			{0x80u, 0x01u},
2189:Generated_Source\PSoC5/cyfitter_cfg.c **** 			{0x83u, 0x10u},
2190:Generated_Source\PSoC5/cyfitter_cfg.c **** 			{0x84u, 0x10u},
2191:Generated_Source\PSoC5/cyfitter_cfg.c **** 			{0x87u, 0x02u},
2192:Generated_Source\PSoC5/cyfitter_cfg.c **** 			{0x8Cu, 0x08u},
2193:Generated_Source\PSoC5/cyfitter_cfg.c **** 			{0x94u, 0x02u},
2194:Generated_Source\PSoC5/cyfitter_cfg.c **** 			{0x97u, 0x10u},
2195:Generated_Source\PSoC5/cyfitter_cfg.c **** 			{0x98u, 0x08u},
2196:Generated_Source\PSoC5/cyfitter_cfg.c **** 			{0x99u, 0x08u},
2197:Generated_Source\PSoC5/cyfitter_cfg.c **** 			{0x9Du, 0x10u},
2198:Generated_Source\PSoC5/cyfitter_cfg.c **** 			{0x9Fu, 0x02u},
2199:Generated_Source\PSoC5/cyfitter_cfg.c **** 			{0xAEu, 0x08u},
2200:Generated_Source\PSoC5/cyfitter_cfg.c **** 			{0xB1u, 0x04u},
2201:Generated_Source\PSoC5/cyfitter_cfg.c **** 			{0xC2u, 0x0Fu},
ARM GAS  C:\Users\r\AppData\Local\Temp\cc1ZHhx7.s 			page 51


2202:Generated_Source\PSoC5/cyfitter_cfg.c **** 			{0xE2u, 0x02u},
2203:Generated_Source\PSoC5/cyfitter_cfg.c **** 			{0xEAu, 0x04u},
2204:Generated_Source\PSoC5/cyfitter_cfg.c **** 			{0x67u, 0x80u},
2205:Generated_Source\PSoC5/cyfitter_cfg.c **** 			{0x86u, 0x08u},
2206:Generated_Source\PSoC5/cyfitter_cfg.c **** 			{0x87u, 0x40u},
2207:Generated_Source\PSoC5/cyfitter_cfg.c **** 			{0x88u, 0x10u},
2208:Generated_Source\PSoC5/cyfitter_cfg.c **** 			{0x93u, 0x20u},
2209:Generated_Source\PSoC5/cyfitter_cfg.c **** 			{0x96u, 0x08u},
2210:Generated_Source\PSoC5/cyfitter_cfg.c **** 			{0x9Eu, 0x08u},
2211:Generated_Source\PSoC5/cyfitter_cfg.c **** 			{0xABu, 0x80u},
2212:Generated_Source\PSoC5/cyfitter_cfg.c **** 			{0xAEu, 0x10u},
2213:Generated_Source\PSoC5/cyfitter_cfg.c **** 			{0xAFu, 0x20u},
2214:Generated_Source\PSoC5/cyfitter_cfg.c **** 			{0xD8u, 0x80u},
2215:Generated_Source\PSoC5/cyfitter_cfg.c **** 			{0xE2u, 0x10u},
2216:Generated_Source\PSoC5/cyfitter_cfg.c **** 			{0xE6u, 0x40u},
2217:Generated_Source\PSoC5/cyfitter_cfg.c **** 			{0xEAu, 0x40u},
2218:Generated_Source\PSoC5/cyfitter_cfg.c **** 			{0xEEu, 0x30u},
2219:Generated_Source\PSoC5/cyfitter_cfg.c **** 			{0x05u, 0x04u},
2220:Generated_Source\PSoC5/cyfitter_cfg.c **** 			{0x1Au, 0x08u},
2221:Generated_Source\PSoC5/cyfitter_cfg.c **** 			{0x53u, 0x10u},
2222:Generated_Source\PSoC5/cyfitter_cfg.c **** 			{0x58u, 0x10u},
2223:Generated_Source\PSoC5/cyfitter_cfg.c **** 			{0x81u, 0x04u},
2224:Generated_Source\PSoC5/cyfitter_cfg.c **** 			{0x93u, 0x20u},
2225:Generated_Source\PSoC5/cyfitter_cfg.c **** 			{0x96u, 0x08u},
2226:Generated_Source\PSoC5/cyfitter_cfg.c **** 			{0x98u, 0x10u},
2227:Generated_Source\PSoC5/cyfitter_cfg.c **** 			{0xC0u, 0x20u},
2228:Generated_Source\PSoC5/cyfitter_cfg.c **** 			{0xC6u, 0x40u},
2229:Generated_Source\PSoC5/cyfitter_cfg.c **** 			{0xD4u, 0xA0u},
2230:Generated_Source\PSoC5/cyfitter_cfg.c **** 			{0xE4u, 0x80u},
2231:Generated_Source\PSoC5/cyfitter_cfg.c **** 			{0x9Du, 0x10u},
2232:Generated_Source\PSoC5/cyfitter_cfg.c **** 			{0xA0u, 0x10u},
2233:Generated_Source\PSoC5/cyfitter_cfg.c **** 			{0xABu, 0x01u},
2234:Generated_Source\PSoC5/cyfitter_cfg.c **** 			{0xAFu, 0x04u},
2235:Generated_Source\PSoC5/cyfitter_cfg.c **** 			{0xB1u, 0x08u},
2236:Generated_Source\PSoC5/cyfitter_cfg.c **** 			{0xEAu, 0x01u},
2237:Generated_Source\PSoC5/cyfitter_cfg.c **** 			{0x00u, 0x10u},
2238:Generated_Source\PSoC5/cyfitter_cfg.c **** 			{0x05u, 0x10u},
2239:Generated_Source\PSoC5/cyfitter_cfg.c **** 			{0x52u, 0x02u},
2240:Generated_Source\PSoC5/cyfitter_cfg.c **** 			{0x54u, 0x10u},
2241:Generated_Source\PSoC5/cyfitter_cfg.c **** 			{0x8Cu, 0x10u},
2242:Generated_Source\PSoC5/cyfitter_cfg.c **** 			{0x9Du, 0x10u},
2243:Generated_Source\PSoC5/cyfitter_cfg.c **** 			{0xA0u, 0x10u},
2244:Generated_Source\PSoC5/cyfitter_cfg.c **** 			{0xA2u, 0x02u},
2245:Generated_Source\PSoC5/cyfitter_cfg.c **** 			{0xB2u, 0x02u},
2246:Generated_Source\PSoC5/cyfitter_cfg.c **** 			{0xC0u, 0x03u},
2247:Generated_Source\PSoC5/cyfitter_cfg.c **** 			{0xD4u, 0x03u},
2248:Generated_Source\PSoC5/cyfitter_cfg.c **** 			{0xE2u, 0x08u},
2249:Generated_Source\PSoC5/cyfitter_cfg.c **** 			{0xECu, 0x04u},
2250:Generated_Source\PSoC5/cyfitter_cfg.c **** 			{0x10u, 0x03u},
2251:Generated_Source\PSoC5/cyfitter_cfg.c **** 			{0x1Au, 0x03u},
2252:Generated_Source\PSoC5/cyfitter_cfg.c **** 			{0x00u, 0xFFu},
2253:Generated_Source\PSoC5/cyfitter_cfg.c **** 			{0x01u, 0xFFu},
2254:Generated_Source\PSoC5/cyfitter_cfg.c **** 			{0x02u, 0xAAu},
2255:Generated_Source\PSoC5/cyfitter_cfg.c **** 			{0x10u, 0x95u},
2256:Generated_Source\PSoC5/cyfitter_cfg.c **** 		};
2257:Generated_Source\PSoC5/cyfitter_cfg.c **** 
2258:Generated_Source\PSoC5/cyfitter_cfg.c **** 
ARM GAS  C:\Users\r\AppData\Local\Temp\cc1ZHhx7.s 			page 52


2259:Generated_Source\PSoC5/cyfitter_cfg.c **** 
2260:Generated_Source\PSoC5/cyfitter_cfg.c **** 		CYPACKED typedef struct {
2261:Generated_Source\PSoC5/cyfitter_cfg.c **** 			void CYFAR *address;
2262:Generated_Source\PSoC5/cyfitter_cfg.c **** 			uint16 size;
2263:Generated_Source\PSoC5/cyfitter_cfg.c **** 		} CYPACKED_ATTR cfg_memset_t;
2264:Generated_Source\PSoC5/cyfitter_cfg.c **** 
2265:Generated_Source\PSoC5/cyfitter_cfg.c **** 
2266:Generated_Source\PSoC5/cyfitter_cfg.c **** 		CYPACKED typedef struct {
2267:Generated_Source\PSoC5/cyfitter_cfg.c **** 			void CYFAR *dest;
2268:Generated_Source\PSoC5/cyfitter_cfg.c **** 			const void CYCODE *src;
2269:Generated_Source\PSoC5/cyfitter_cfg.c **** 			uint16 size;
2270:Generated_Source\PSoC5/cyfitter_cfg.c **** 		} CYPACKED_ATTR cfg_memcpy_t;
2271:Generated_Source\PSoC5/cyfitter_cfg.c **** 
2272:Generated_Source\PSoC5/cyfitter_cfg.c **** 		static const cfg_memset_t CYCODE cfg_memset_list[] = {
2273:Generated_Source\PSoC5/cyfitter_cfg.c **** 			/* address, size */
2274:Generated_Source\PSoC5/cyfitter_cfg.c **** 			{(void CYFAR *)(CYREG_TMR0_CFG0), 12u},
2275:Generated_Source\PSoC5/cyfitter_cfg.c **** 			{(void CYFAR *)(CYDEV_UCFG_B0_P0_U0_BASE), 4096u},
2276:Generated_Source\PSoC5/cyfitter_cfg.c **** 			{(void CYFAR *)(CYDEV_UCFG_B1_P2_U0_BASE), 2048u},
2277:Generated_Source\PSoC5/cyfitter_cfg.c **** 			{(void CYFAR *)(CYDEV_UCFG_DSI0_BASE), 2560u},
2278:Generated_Source\PSoC5/cyfitter_cfg.c **** 			{(void CYFAR *)(CYDEV_UCFG_DSI12_BASE), 512u},
2279:Generated_Source\PSoC5/cyfitter_cfg.c **** 			{(void CYFAR *)(CYREG_BCTL1_MDCLK_EN), 16u},
2280:Generated_Source\PSoC5/cyfitter_cfg.c **** 		};
2281:Generated_Source\PSoC5/cyfitter_cfg.c **** 
2282:Generated_Source\PSoC5/cyfitter_cfg.c **** 		/* UCFG_BCTL0 Address: CYREG_BCTL0_MDCLK_EN Size (bytes): 16 */
2283:Generated_Source\PSoC5/cyfitter_cfg.c **** 		static const uint8 CYCODE BS_UCFG_BCTL0_VAL[] = {
2284:Generated_Source\PSoC5/cyfitter_cfg.c **** 			0x03u, 0x01u, 0x00u, 0x00u, 0x00u, 0x00u, 0x00u, 0x00u, 0x02u, 0x01u, 0x03u, 0x00u, 0x03u, 0x01u
2285:Generated_Source\PSoC5/cyfitter_cfg.c **** 
2286:Generated_Source\PSoC5/cyfitter_cfg.c **** 		static const cfg_memcpy_t CYCODE cfg_memcpy_list [] = {
2287:Generated_Source\PSoC5/cyfitter_cfg.c **** 			/* dest, src, size */
2288:Generated_Source\PSoC5/cyfitter_cfg.c **** 			{(void CYFAR *)(CYREG_BCTL0_MDCLK_EN), BS_UCFG_BCTL0_VAL, 16u},
2289:Generated_Source\PSoC5/cyfitter_cfg.c **** 		};
2290:Generated_Source\PSoC5/cyfitter_cfg.c **** 
2291:Generated_Source\PSoC5/cyfitter_cfg.c **** 		uint8 CYDATA i;
2292:Generated_Source\PSoC5/cyfitter_cfg.c **** 
2293:Generated_Source\PSoC5/cyfitter_cfg.c **** 		/* Zero out critical memory blocks before beginning configuration */
2294:Generated_Source\PSoC5/cyfitter_cfg.c **** 		for (i = 0u; i < (sizeof(cfg_memset_list)/sizeof(cfg_memset_list[0])); i++)
 644              		.loc 1 2294 0
 645 0028 0023     		movs	r3, #0
 646 002a FB75     		strb	r3, [r7, #23]
 647 002c 13E0     		b	.L27
 648              	.L28:
 649              	.LBB4:
2295:Generated_Source\PSoC5/cyfitter_cfg.c **** 		{
2296:Generated_Source\PSoC5/cyfitter_cfg.c **** 			const cfg_memset_t CYCODE * CYDATA ms = &cfg_memset_list[i];
 650              		.loc 1 2296 0 discriminator 3
 651 002e FA7D     		ldrb	r2, [r7, #23]	@ zero_extendqisi2
 652 0030 1346     		mov	r3, r2
 653 0032 5B00     		lsls	r3, r3, #1
 654 0034 1344     		add	r3, r3, r2
 655 0036 5B00     		lsls	r3, r3, #1
 656 0038 5A4A     		ldr	r2, .L31+8
 657 003a 1344     		add	r3, r3, r2
 658 003c 3B61     		str	r3, [r7, #16]
2297:Generated_Source\PSoC5/cyfitter_cfg.c **** 			CYMEMZERO(ms->address, (size_t)(uint32)(ms->size));
 659              		.loc 1 2297 0 discriminator 3
 660 003e 3B69     		ldr	r3, [r7, #16]
 661 0040 1A68     		ldr	r2, [r3]	@ unaligned
ARM GAS  C:\Users\r\AppData\Local\Temp\cc1ZHhx7.s 			page 53


 662 0042 3B69     		ldr	r3, [r7, #16]
 663 0044 9B88     		ldrh	r3, [r3, #4]	@ unaligned
 664 0046 9BB2     		uxth	r3, r3
 665 0048 1946     		mov	r1, r3
 666 004a 1046     		mov	r0, r2
 667 004c FFF7FEFF 		bl	CYMEMZERO
 668              	.LBE4:
2294:Generated_Source\PSoC5/cyfitter_cfg.c **** 		{
 669              		.loc 1 2294 0 discriminator 3
 670 0050 FB7D     		ldrb	r3, [r7, #23]	@ zero_extendqisi2
 671 0052 0133     		adds	r3, r3, #1
 672 0054 FB75     		strb	r3, [r7, #23]
 673              	.L27:
2294:Generated_Source\PSoC5/cyfitter_cfg.c **** 		{
 674              		.loc 1 2294 0 is_stmt 0 discriminator 1
 675 0056 FB7D     		ldrb	r3, [r7, #23]	@ zero_extendqisi2
 676 0058 052B     		cmp	r3, #5
 677 005a E8D9     		bls	.L28
2298:Generated_Source\PSoC5/cyfitter_cfg.c **** 		}
2299:Generated_Source\PSoC5/cyfitter_cfg.c **** 
2300:Generated_Source\PSoC5/cyfitter_cfg.c **** 		/* Copy device configuration data into registers */
2301:Generated_Source\PSoC5/cyfitter_cfg.c **** 		for (i = 0u; i < (sizeof(cfg_memcpy_list)/sizeof(cfg_memcpy_list[0])); i++)
 678              		.loc 1 2301 0 is_stmt 1
 679 005c 0023     		movs	r3, #0
 680 005e FB75     		strb	r3, [r7, #23]
 681 0060 1CE0     		b	.L29
 682              	.L30:
 683              	.LBB5:
2302:Generated_Source\PSoC5/cyfitter_cfg.c **** 		{
2303:Generated_Source\PSoC5/cyfitter_cfg.c **** 			const cfg_memcpy_t CYCODE * CYDATA mc = &cfg_memcpy_list[i];
 684              		.loc 1 2303 0 discriminator 3
 685 0062 FA7D     		ldrb	r2, [r7, #23]	@ zero_extendqisi2
 686 0064 1346     		mov	r3, r2
 687 0066 9B00     		lsls	r3, r3, #2
 688 0068 1344     		add	r3, r3, r2
 689 006a 5B00     		lsls	r3, r3, #1
 690 006c 4E4A     		ldr	r2, .L31+12
 691 006e 1344     		add	r3, r3, r2
 692 0070 FB60     		str	r3, [r7, #12]
2304:Generated_Source\PSoC5/cyfitter_cfg.c **** 			void * CYDATA destPtr = mc->dest;
 693              		.loc 1 2304 0 discriminator 3
 694 0072 FB68     		ldr	r3, [r7, #12]
 695 0074 1B68     		ldr	r3, [r3]	@ unaligned
 696 0076 BB60     		str	r3, [r7, #8]
2305:Generated_Source\PSoC5/cyfitter_cfg.c **** 			const void CYCODE * CYDATA srcPtr = mc->src;
 697              		.loc 1 2305 0 discriminator 3
 698 0078 FB68     		ldr	r3, [r7, #12]
 699 007a 5B68     		ldr	r3, [r3, #4]	@ unaligned
 700 007c 7B60     		str	r3, [r7, #4]
2306:Generated_Source\PSoC5/cyfitter_cfg.c **** 			uint16 CYDATA numBytes = mc->size;
 701              		.loc 1 2306 0 discriminator 3
 702 007e FB68     		ldr	r3, [r7, #12]
 703 0080 1A7A     		ldrb	r2, [r3, #8]	@ zero_extendqisi2
 704 0082 5B7A     		ldrb	r3, [r3, #9]	@ zero_extendqisi2
 705 0084 1B02     		lsls	r3, r3, #8
 706 0086 1343     		orrs	r3, r3, r2
 707 0088 7B80     		strh	r3, [r7, #2]	@ movhi
ARM GAS  C:\Users\r\AppData\Local\Temp\cc1ZHhx7.s 			page 54


2307:Generated_Source\PSoC5/cyfitter_cfg.c **** 			CYCONFIGCPYCODE(destPtr, srcPtr, numBytes);
 708              		.loc 1 2307 0 discriminator 3
 709 008a 7B88     		ldrh	r3, [r7, #2]
 710 008c 1A46     		mov	r2, r3
 711 008e 7968     		ldr	r1, [r7, #4]
 712 0090 B868     		ldr	r0, [r7, #8]
 713 0092 FFF7FEFF 		bl	CYCONFIGCPYCODE
 714              	.LBE5:
2301:Generated_Source\PSoC5/cyfitter_cfg.c **** 		{
 715              		.loc 1 2301 0 discriminator 3
 716 0096 FB7D     		ldrb	r3, [r7, #23]	@ zero_extendqisi2
 717 0098 0133     		adds	r3, r3, #1
 718 009a FB75     		strb	r3, [r7, #23]
 719              	.L29:
2301:Generated_Source\PSoC5/cyfitter_cfg.c **** 		{
 720              		.loc 1 2301 0 is_stmt 0 discriminator 1
 721 009c FB7D     		ldrb	r3, [r7, #23]	@ zero_extendqisi2
 722 009e 002B     		cmp	r3, #0
 723 00a0 DFD0     		beq	.L30
2308:Generated_Source\PSoC5/cyfitter_cfg.c **** 		}
2309:Generated_Source\PSoC5/cyfitter_cfg.c **** 
2310:Generated_Source\PSoC5/cyfitter_cfg.c **** 		cfg_write_bytes32(cy_cfg_addr_table, cy_cfg_data_table);
 724              		.loc 1 2310 0 is_stmt 1
 725 00a2 4249     		ldr	r1, .L31+16
 726 00a4 4248     		ldr	r0, .L31+20
 727 00a6 FFF7FEFF 		bl	cfg_write_bytes32
2311:Generated_Source\PSoC5/cyfitter_cfg.c **** 
2312:Generated_Source\PSoC5/cyfitter_cfg.c **** 		/* Perform normal device configuration. Order is not critical for these items. */
2313:Generated_Source\PSoC5/cyfitter_cfg.c **** 		CYMEMZERO((void CYFAR *)(CYREG_PHUB_CFGMEM0_CFG0), 4u);
 728              		.loc 1 2313 0
 729 00aa 0421     		movs	r1, #4
 730 00ac 4148     		ldr	r0, .L31+24
 731 00ae FFF7FEFF 		bl	CYMEMZERO
2314:Generated_Source\PSoC5/cyfitter_cfg.c **** 		CYCONFIGCPYCODE((void CYFAR *)(CYREG_PHUB_CFGMEM1_CFG0), (const void CYCODE *)(BS_PHUB_CFGMEM1_VA
 732              		.loc 1 2314 0
 733 00b2 0422     		movs	r2, #4
 734 00b4 4049     		ldr	r1, .L31+28
 735 00b6 4148     		ldr	r0, .L31+32
 736 00b8 FFF7FEFF 		bl	CYCONFIGCPYCODE
2315:Generated_Source\PSoC5/cyfitter_cfg.c **** 		CYCONFIGCPYCODE((void CYFAR *)(CYREG_PHUB_CFGMEM2_CFG0), (const void CYCODE *)(BS_PHUB_CFGMEM2_VA
 737              		.loc 1 2315 0
 738 00bc 0422     		movs	r2, #4
 739 00be 4049     		ldr	r1, .L31+36
 740 00c0 4048     		ldr	r0, .L31+40
 741 00c2 FFF7FEFF 		bl	CYCONFIGCPYCODE
2316:Generated_Source\PSoC5/cyfitter_cfg.c **** 		CYCONFIGCPYCODE((void CYFAR *)(CYREG_PHUB_CFGMEM3_CFG0), (const void CYCODE *)(BS_PHUB_CFGMEM3_VA
 742              		.loc 1 2316 0
 743 00c6 0422     		movs	r2, #4
 744 00c8 3F49     		ldr	r1, .L31+44
 745 00ca 4048     		ldr	r0, .L31+48
 746 00cc FFF7FEFF 		bl	CYCONFIGCPYCODE
2317:Generated_Source\PSoC5/cyfitter_cfg.c **** 
2318:Generated_Source\PSoC5/cyfitter_cfg.c **** 		/* Enable digital routing */
2319:Generated_Source\PSoC5/cyfitter_cfg.c **** 		CY_SET_XTND_REG8((void CYFAR *)CYREG_BCTL0_BANK_CTL, CY_GET_XTND_REG8((void CYFAR *)CYREG_BCTL0_B
 747              		.loc 1 2319 0
 748 00d0 3F4A     		ldr	r2, .L31+52
 749 00d2 3F4B     		ldr	r3, .L31+52
ARM GAS  C:\Users\r\AppData\Local\Temp\cc1ZHhx7.s 			page 55


 750 00d4 1B78     		ldrb	r3, [r3]
 751 00d6 DBB2     		uxtb	r3, r3
 752 00d8 43F00203 		orr	r3, r3, #2
 753 00dc DBB2     		uxtb	r3, r3
 754 00de 1370     		strb	r3, [r2]
2320:Generated_Source\PSoC5/cyfitter_cfg.c **** 		CY_SET_XTND_REG8((void CYFAR *)CYREG_BCTL1_BANK_CTL, CY_GET_XTND_REG8((void CYFAR *)CYREG_BCTL1_B
 755              		.loc 1 2320 0
 756 00e0 3C4A     		ldr	r2, .L31+56
 757 00e2 3C4B     		ldr	r3, .L31+56
 758 00e4 1B78     		ldrb	r3, [r3]
 759 00e6 DBB2     		uxtb	r3, r3
 760 00e8 43F00203 		orr	r3, r3, #2
 761 00ec DBB2     		uxtb	r3, r3
 762 00ee 1370     		strb	r3, [r2]
2321:Generated_Source\PSoC5/cyfitter_cfg.c **** 
2322:Generated_Source\PSoC5/cyfitter_cfg.c **** 		/* Enable UDB array */
2323:Generated_Source\PSoC5/cyfitter_cfg.c **** 		CY_SET_XTND_REG8((void CYFAR *)CYREG_PM_ACT_CFG0, CY_GET_XTND_REG8((void CYFAR *)CYREG_PM_ACT_CFG
 763              		.loc 1 2323 0
 764 00f0 394A     		ldr	r2, .L31+60
 765 00f2 394B     		ldr	r3, .L31+60
 766 00f4 1B78     		ldrb	r3, [r3]
 767 00f6 DBB2     		uxtb	r3, r3
 768 00f8 43F04003 		orr	r3, r3, #64
 769 00fc DBB2     		uxtb	r3, r3
 770 00fe 1370     		strb	r3, [r2]
2324:Generated_Source\PSoC5/cyfitter_cfg.c **** 		CY_SET_XTND_REG8((void CYFAR *)CYREG_PM_AVAIL_CR2, CY_GET_XTND_REG8((void CYFAR *)CYREG_PM_AVAIL_
 771              		.loc 1 2324 0
 772 0100 364A     		ldr	r2, .L31+64
 773 0102 364B     		ldr	r3, .L31+64
 774 0104 1B78     		ldrb	r3, [r3]
 775 0106 DBB2     		uxtb	r3, r3
 776 0108 43F01003 		orr	r3, r3, #16
 777 010c DBB2     		uxtb	r3, r3
 778 010e 1370     		strb	r3, [r2]
 779              	.LBE3:
2325:Generated_Source\PSoC5/cyfitter_cfg.c **** 	}
2326:Generated_Source\PSoC5/cyfitter_cfg.c **** 
2327:Generated_Source\PSoC5/cyfitter_cfg.c **** 
2328:Generated_Source\PSoC5/cyfitter_cfg.c **** 	/* Perform second pass device configuration. These items must be configured in specific order afte
2329:Generated_Source\PSoC5/cyfitter_cfg.c **** 	CYCONFIGCPYCODE((void CYFAR *)(CYREG_PRT0_DR), (const void CYCODE *)(BS_IOPINS0_0_VAL), 10u);
 780              		.loc 1 2329 0
 781 0110 0A22     		movs	r2, #10
 782 0112 3349     		ldr	r1, .L31+68
 783 0114 3348     		ldr	r0, .L31+72
 784 0116 FFF7FEFF 		bl	CYCONFIGCPYCODE
2330:Generated_Source\PSoC5/cyfitter_cfg.c **** 	CYCONFIGCPYCODE((void CYFAR *)(CYREG_PRT12_DM0), (const void CYCODE *)(BS_IOPINS0_7_VAL), 8u);
 785              		.loc 1 2330 0
 786 011a 0822     		movs	r2, #8
 787 011c 3249     		ldr	r1, .L31+76
 788 011e 3348     		ldr	r0, .L31+80
 789 0120 FFF7FEFF 		bl	CYCONFIGCPYCODE
2331:Generated_Source\PSoC5/cyfitter_cfg.c **** 	CYCONFIGCPYCODE((void CYFAR *)(CYREG_PRT12_DM0 + 0x00000009u), (const void CYCODE *)(BS_IOPINS1_7_
 790              		.loc 1 2331 0
 791 0124 0522     		movs	r2, #5
 792 0126 3249     		ldr	r1, .L31+84
 793 0128 3248     		ldr	r0, .L31+88
 794 012a FFF7FEFF 		bl	CYCONFIGCPYCODE
ARM GAS  C:\Users\r\AppData\Local\Temp\cc1ZHhx7.s 			page 56


2332:Generated_Source\PSoC5/cyfitter_cfg.c **** 	CYCONFIGCPYCODE((void CYFAR *)(CYREG_PRT15_DR), (const void CYCODE *)(BS_IOPINS0_8_VAL), 10u);
 795              		.loc 1 2332 0
 796 012e 0A22     		movs	r2, #10
 797 0130 3149     		ldr	r1, .L31+92
 798 0132 3248     		ldr	r0, .L31+96
 799 0134 FFF7FEFF 		bl	CYCONFIGCPYCODE
2333:Generated_Source\PSoC5/cyfitter_cfg.c **** 	CYCONFIGCPYCODE((void CYFAR *)(CYREG_PRT1_DM0), (const void CYCODE *)(BS_IOPINS0_1_VAL), 8u);
 800              		.loc 1 2333 0
 801 0138 0822     		movs	r2, #8
 802 013a 3149     		ldr	r1, .L31+100
 803 013c 3148     		ldr	r0, .L31+104
 804 013e FFF7FEFF 		bl	CYCONFIGCPYCODE
2334:Generated_Source\PSoC5/cyfitter_cfg.c **** 	CYCONFIGCPYCODE((void CYFAR *)(CYREG_PRT2_DM0), (const void CYCODE *)(BS_IOPINS0_2_VAL), 8u);
 805              		.loc 1 2334 0
 806 0142 0822     		movs	r2, #8
 807 0144 3049     		ldr	r1, .L31+108
 808 0146 3148     		ldr	r0, .L31+112
 809 0148 FFF7FEFF 		bl	CYCONFIGCPYCODE
2335:Generated_Source\PSoC5/cyfitter_cfg.c **** 	CYCONFIGCPYCODE((void CYFAR *)(CYREG_PRT3_DR), (const void CYCODE *)(BS_IOPINS0_3_VAL), 10u);
 810              		.loc 1 2335 0
 811 014c 0A22     		movs	r2, #10
 812 014e 3049     		ldr	r1, .L31+116
 813 0150 3048     		ldr	r0, .L31+120
 814 0152 FFF7FEFF 		bl	CYCONFIGCPYCODE
2336:Generated_Source\PSoC5/cyfitter_cfg.c **** 	CYCONFIGCPYCODE((void CYFAR *)(CYREG_PRT4_DM0), (const void CYCODE *)(BS_IOPINS0_4_VAL), 8u);
 815              		.loc 1 2336 0
 816 0156 0822     		movs	r2, #8
 817 0158 2F49     		ldr	r1, .L31+124
 818 015a 3048     		ldr	r0, .L31+128
 819 015c FFF7FEFF 		bl	CYCONFIGCPYCODE
2337:Generated_Source\PSoC5/cyfitter_cfg.c **** 	CYCONFIGCPYCODE((void CYFAR *)(CYREG_PRT5_DM0), (const void CYCODE *)(BS_IOPINS0_5_VAL), 8u);
 820              		.loc 1 2337 0
 821 0160 0822     		movs	r2, #8
 822 0162 2F49     		ldr	r1, .L31+132
 823 0164 2F48     		ldr	r0, .L31+136
 824 0166 FFF7FEFF 		bl	CYCONFIGCPYCODE
2338:Generated_Source\PSoC5/cyfitter_cfg.c **** 	CYCONFIGCPYCODE((void CYFAR *)(CYREG_PRT6_DM0), (const void CYCODE *)(BS_IOPINS0_6_VAL), 8u);
 825              		.loc 1 2338 0
 826 016a 0822     		movs	r2, #8
 827 016c 2E49     		ldr	r1, .L31+140
 828 016e 2F48     		ldr	r0, .L31+144
 829 0170 FFF7FEFF 		bl	CYCONFIGCPYCODE
2339:Generated_Source\PSoC5/cyfitter_cfg.c **** 	/* Switch Boost to the precision bandgap reference from its internal reference */
2340:Generated_Source\PSoC5/cyfitter_cfg.c **** 	CY_SET_REG8((void CYXDATA *)CYREG_BOOST_CR2, (CY_GET_REG8((void CYXDATA *)CYREG_BOOST_CR2) | 0x08u
 830              		.loc 1 2340 0
 831 0174 2E4A     		ldr	r2, .L31+148
 832 0176 2E4B     		ldr	r3, .L31+148
 833 0178 1B78     		ldrb	r3, [r3]
 834 017a DBB2     		uxtb	r3, r3
 835 017c 43F00803 		orr	r3, r3, #8
 836 0180 DBB2     		uxtb	r3, r3
 837 0182 1370     		strb	r3, [r2]
2341:Generated_Source\PSoC5/cyfitter_cfg.c **** 
2342:Generated_Source\PSoC5/cyfitter_cfg.c **** 	/* Perform basic analog initialization to defaults */
2343:Generated_Source\PSoC5/cyfitter_cfg.c **** 	AnalogSetDefault();
 838              		.loc 1 2343 0
 839 0184 FFF7FEFF 		bl	AnalogSetDefault
ARM GAS  C:\Users\r\AppData\Local\Temp\cc1ZHhx7.s 			page 57


2344:Generated_Source\PSoC5/cyfitter_cfg.c **** 
2345:Generated_Source\PSoC5/cyfitter_cfg.c **** 	/* Configure alternate active mode */
2346:Generated_Source\PSoC5/cyfitter_cfg.c **** 	CYCONFIGCPY((void CYFAR *)CYDEV_PM_STBY_BASE, (const void CYFAR *)CYDEV_PM_ACT_BASE, 14u);
 840              		.loc 1 2346 0
 841 0188 0E22     		movs	r2, #14
 842 018a 1349     		ldr	r1, .L31+60
 843 018c 2948     		ldr	r0, .L31+152
 844 018e FFF7FEFF 		bl	CYCONFIGCPY
2347:Generated_Source\PSoC5/cyfitter_cfg.c **** }
 845              		.loc 1 2347 0
 846 0192 00BF     		nop
 847 0194 1837     		adds	r7, r7, #24
 848              		.cfi_def_cfa_offset 8
 849 0196 BD46     		mov	sp, r7
 850              		.cfi_def_cfa_register 13
 851              		@ sp needed
 852 0198 80BD     		pop	{r7, pc}
 853              	.L32:
 854 019a 00BF     		.align	2
 855              	.L31:
 856 019c 00480040 		.word	1073760256
 857 01a0 E8460040 		.word	1073759976
 858 01a4 00000000 		.word	cfg_memset_list.5037
 859 01a8 24000000 		.word	cfg_memcpy_list.5039
 860 01ac D8000000 		.word	cy_cfg_data_table.5027
 861 01b0 30000000 		.word	cy_cfg_addr_table.5026
 862 01b4 00760040 		.word	1073772032
 863 01b8 D80E0000 		.word	BS_PHUB_CFGMEM1_VAL.5023
 864 01bc 08760040 		.word	1073772040
 865 01c0 DC0E0000 		.word	BS_PHUB_CFGMEM2_VAL.5024
 866 01c4 10760040 		.word	1073772048
 867 01c8 E00E0000 		.word	BS_PHUB_CFGMEM3_VAL.5025
 868 01cc 18760040 		.word	1073772056
 869 01d0 03500140 		.word	1073827843
 870 01d4 13500140 		.word	1073827859
 871 01d8 A0430040 		.word	1073759136
 872 01dc C2430040 		.word	1073759170
 873 01e0 E40E0000 		.word	BS_IOPINS0_0_VAL.5013
 874 01e4 00510040 		.word	1073762560
 875 01e8 F00E0000 		.word	BS_IOPINS0_7_VAL.5014
 876 01ec C2510040 		.word	1073762754
 877 01f0 F80E0000 		.word	BS_IOPINS1_7_VAL.5015
 878 01f4 CB510040 		.word	1073762763
 879 01f8 000F0000 		.word	BS_IOPINS0_8_VAL.5016
 880 01fc F0510040 		.word	1073762800
 881 0200 0C0F0000 		.word	BS_IOPINS0_1_VAL.5017
 882 0204 12510040 		.word	1073762578
 883 0208 140F0000 		.word	BS_IOPINS0_2_VAL.5018
 884 020c 22510040 		.word	1073762594
 885 0210 1C0F0000 		.word	BS_IOPINS0_3_VAL.5019
 886 0214 30510040 		.word	1073762608
 887 0218 280F0000 		.word	BS_IOPINS0_4_VAL.5020
 888 021c 42510040 		.word	1073762626
 889 0220 300F0000 		.word	BS_IOPINS0_5_VAL.5021
 890 0224 52510040 		.word	1073762642
 891 0228 380F0000 		.word	BS_IOPINS0_6_VAL.5022
 892 022c 62510040 		.word	1073762658
ARM GAS  C:\Users\r\AppData\Local\Temp\cc1ZHhx7.s 			page 58


 893 0230 22430040 		.word	1073759010
 894 0234 B0430040 		.word	1073759152
 895              		.cfi_endproc
 896              	.LFE8:
 897              		.size	cyfitter_cfg, .-cyfitter_cfg
 898              		.section	.rodata
 899              		.align	2
 900              		.type	cfg_memset_list.5037, %object
 901              		.size	cfg_memset_list.5037, 36
 902              	cfg_memset_list.5037:
 903 0000 004F0040 		.word	1073762048
 904 0004 0C00     		.short	12
 905 0006 00000140 		.4byte	1073807360
 906 000a 0010     		.short	4096
 907 000c 00140140 		.word	1073812480
 908 0010 0008     		.short	2048
 909 0012 00400140 		.4byte	1073823744
 910 0016 000A     		.short	2560
 911 0018 004C0140 		.word	1073826816
 912 001c 0002     		.short	512
 913 001e 10500140 		.4byte	1073827856
 914 0022 1000     		.short	16
 915              		.align	2
 916              		.type	cfg_memcpy_list.5039, %object
 917              		.size	cfg_memcpy_list.5039, 10
 918              	cfg_memcpy_list.5039:
 919 0024 00500140 		.word	1073827840
 920 0028 400F0000 		.word	BS_UCFG_BCTL0_VAL.5038
 921 002c 1000     		.short	16
 922 002e 0000     		.align	2
 923              		.type	cy_cfg_addr_table.5026, %object
 924              		.size	cy_cfg_addr_table.5026, 168
 925              	cy_cfg_addr_table.5026:
 926 0030 01450040 		.word	1073759489
 927 0034 024F0040 		.word	1073762050
 928 0038 0F520040 		.word	1073762831
 929 003c 01640040 		.word	1073767425
 930 0040 01650040 		.word	1073767681
 931 0044 3E000140 		.word	1073807422
 932 0048 3E010140 		.word	1073807678
 933 004c 4D020140 		.word	1073807949
 934 0050 4F030140 		.word	1073808207
 935 0054 4D040140 		.word	1073808461
 936 0058 5A050140 		.word	1073808730
 937 005c 4D060140 		.word	1073808973
 938 0060 4D070140 		.word	1073809229
 939 0064 4E080140 		.word	1073809486
 940 0068 52090140 		.word	1073809746
 941 006c 530A0140 		.word	1073810003
 942 0070 610B0140 		.word	1073810273
 943 0074 490C0140 		.word	1073810505
 944 0078 540D0140 		.word	1073810772
 945 007c 520E0140 		.word	1073811026
 946 0080 3D0F0140 		.word	1073811261
 947 0084 55140140 		.word	1073812565
 948 0088 49150140 		.word	1073812809
 949 008c 48160140 		.word	1073813064
ARM GAS  C:\Users\r\AppData\Local\Temp\cc1ZHhx7.s 			page 59


 950 0090 41170140 		.word	1073813313
 951 0094 04180140 		.word	1073813508
 952 0098 11190140 		.word	1073813777
 953 009c 081B0140 		.word	1073814280
 954 00a0 19400140 		.word	1073823769
 955 00a4 1A410140 		.word	1073824026
 956 00a8 11420140 		.word	1073824273
 957 00ac 0A430140 		.word	1073824522
 958 00b0 0F440140 		.word	1073824783
 959 00b4 1A450140 		.word	1073825050
 960 00b8 11460140 		.word	1073825297
 961 00bc 12470140 		.word	1073825554
 962 00c0 0F480140 		.word	1073825807
 963 00c4 0C490140 		.word	1073826060
 964 00c8 064C0140 		.word	1073826822
 965 00cc 0D4D0140 		.word	1073827085
 966 00d0 02500140 		.word	1073827842
 967 00d4 04510140 		.word	1073828100
 968              		.align	2
 969              		.type	cy_cfg_data_table.5027, %object
 970              		.size	cy_cfg_data_table.5027, 3582
 971              	cy_cfg_data_table.5027:
 972 00d8 7E       		.byte	126
 973 00d9 02       		.byte	2
 974 00da 01       		.byte	1
 975 00db 20       		.byte	32
 976 00dc 0A       		.byte	10
 977 00dd 36       		.byte	54
 978 00de 00       		.byte	0
 979 00df 04       		.byte	4
 980 00e0 01       		.byte	1
 981 00e1 44       		.byte	68
 982 00e2 04       		.byte	4
 983 00e3 30       		.byte	48
 984 00e4 10       		.byte	16
 985 00e5 C8       		.byte	-56
 986 00e6 11       		.byte	17
 987 00e7 44       		.byte	68
 988 00e8 19       		.byte	25
 989 00e9 08       		.byte	8
 990 00ea 1C       		.byte	28
 991 00eb 30       		.byte	48
 992 00ec 21       		.byte	33
 993 00ed 10       		.byte	16
 994 00ee 24       		.byte	36
 995 00ef 44       		.byte	68
 996 00f0 28       		.byte	40
 997 00f1 02       		.byte	2
 998 00f2 29       		.byte	41
 999 00f3 01       		.byte	1
 1000 00f4 30       		.byte	48
 1001 00f5 20       		.byte	32
 1002 00f6 31       		.byte	49
 1003 00f7 30       		.byte	48
 1004 00f8 78       		.byte	120
 1005 00f9 20       		.byte	32
 1006 00fa 7C       		.byte	124
ARM GAS  C:\Users\r\AppData\Local\Temp\cc1ZHhx7.s 			page 60


 1007 00fb 40       		.byte	64
 1008 00fc 20       		.byte	32
 1009 00fd 01       		.byte	1
 1010 00fe 84       		.byte	-124
 1011 00ff 0F       		.byte	15
 1012 0100 0C       		.byte	12
 1013 0101 44       		.byte	68
 1014 0102 0E       		.byte	14
 1015 0103 88       		.byte	-120
 1016 0104 12       		.byte	18
 1017 0105 70       		.byte	112
 1018 0106 14       		.byte	20
 1019 0107 99       		.byte	-103
 1020 0108 16       		.byte	22
 1021 0109 22       		.byte	34
 1022 010a 1A       		.byte	26
 1023 010b 07       		.byte	7
 1024 010c 26       		.byte	38
 1025 010d 08       		.byte	8
 1026 010e 2A       		.byte	42
 1027 010f 80       		.byte	-128
 1028 0110 2C       		.byte	44
 1029 0111 AA       		.byte	-86
 1030 0112 2E       		.byte	46
 1031 0113 55       		.byte	85
 1032 0114 30       		.byte	48
 1033 0115 F0       		.byte	-16
 1034 0116 34       		.byte	52
 1035 0117 0F       		.byte	15
 1036 0118 40       		.byte	64
 1037 0119 43       		.byte	67
 1038 011a 41       		.byte	65
 1039 011b 02       		.byte	2
 1040 011c 42       		.byte	66
 1041 011d 10       		.byte	16
 1042 011e 45       		.byte	69
 1043 011f EC       		.byte	-20
 1044 0120 46       		.byte	70
 1045 0121 2D       		.byte	45
 1046 0122 47       		.byte	71
 1047 0123 0F       		.byte	15
 1048 0124 48       		.byte	72
 1049 0125 1F       		.byte	31
 1050 0126 49       		.byte	73
 1051 0127 FF       		.byte	-1
 1052 0128 4A       		.byte	74
 1053 0129 FF       		.byte	-1
 1054 012a 4B       		.byte	75
 1055 012b FF       		.byte	-1
 1056 012c 4F       		.byte	79
 1057 012d 2C       		.byte	44
 1058 012e 56       		.byte	86
 1059 012f 01       		.byte	1
 1060 0130 58       		.byte	88
 1061 0131 04       		.byte	4
 1062 0132 5A       		.byte	90
 1063 0133 04       		.byte	4
ARM GAS  C:\Users\r\AppData\Local\Temp\cc1ZHhx7.s 			page 61


 1064 0134 5B       		.byte	91
 1065 0135 04       		.byte	4
 1066 0136 5C       		.byte	92
 1067 0137 01       		.byte	1
 1068 0138 5D       		.byte	93
 1069 0139 01       		.byte	1
 1070 013a 5F       		.byte	95
 1071 013b 01       		.byte	1
 1072 013c 60       		.byte	96
 1073 013d 08       		.byte	8
 1074 013e 62       		.byte	98
 1075 013f C8       		.byte	-56
 1076 0140 66       		.byte	102
 1077 0141 80       		.byte	-128
 1078 0142 68       		.byte	104
 1079 0143 40       		.byte	64
 1080 0144 69       		.byte	105
 1081 0145 40       		.byte	64
 1082 0146 6E       		.byte	110
 1083 0147 08       		.byte	8
 1084 0148 84       		.byte	-124
 1085 0149 56       		.byte	86
 1086 014a 86       		.byte	-122
 1087 014b A9       		.byte	-87
 1088 014c 87       		.byte	-121
 1089 014d 01       		.byte	1
 1090 014e 88       		.byte	-120
 1091 014f C0       		.byte	-64
 1092 0150 8C       		.byte	-116
 1093 0151 C0       		.byte	-64
 1094 0152 90       		.byte	-112
 1095 0153 55       		.byte	85
 1096 0154 92       		.byte	-110
 1097 0155 AA       		.byte	-86
 1098 0156 94       		.byte	-108
 1099 0157 0F       		.byte	15
 1100 0158 96       		.byte	-106
 1101 0159 30       		.byte	48
 1102 015a 9A       		.byte	-102
 1103 015b FF       		.byte	-1
 1104 015c A0       		.byte	-96
 1105 015d 33       		.byte	51
 1106 015e A2       		.byte	-94
 1107 015f 0C       		.byte	12
 1108 0160 A6       		.byte	-90
 1109 0161 3F       		.byte	63
 1110 0162 A7       		.byte	-89
 1111 0163 02       		.byte	2
 1112 0164 A8       		.byte	-88
 1113 0165 C0       		.byte	-64
 1114 0166 AC       		.byte	-84
 1115 0167 3F       		.byte	63
 1116 0168 AD       		.byte	-83
 1117 0169 01       		.byte	1
 1118 016a AE       		.byte	-82
 1119 016b C0       		.byte	-64
 1120 016c AF       		.byte	-81
ARM GAS  C:\Users\r\AppData\Local\Temp\cc1ZHhx7.s 			page 62


 1121 016d 02       		.byte	2
 1122 016e B6       		.byte	-74
 1123 016f FF       		.byte	-1
 1124 0170 B7       		.byte	-73
 1125 0171 03       		.byte	3
 1126 0172 BE       		.byte	-66
 1127 0173 40       		.byte	64
 1128 0174 BF       		.byte	-65
 1129 0175 40       		.byte	64
 1130 0176 D8       		.byte	-40
 1131 0177 04       		.byte	4
 1132 0178 D9       		.byte	-39
 1133 0179 04       		.byte	4
 1134 017a DF       		.byte	-33
 1135 017b 01       		.byte	1
 1136 017c 00       		.byte	0
 1137 017d 40       		.byte	64
 1138 017e 04       		.byte	4
 1139 017f 04       		.byte	4
 1140 0180 06       		.byte	6
 1141 0181 08       		.byte	8
 1142 0182 07       		.byte	7
 1143 0183 01       		.byte	1
 1144 0184 08       		.byte	8
 1145 0185 28       		.byte	40
 1146 0186 0A       		.byte	10
 1147 0187 44       		.byte	68
 1148 0188 0D       		.byte	13
 1149 0189 04       		.byte	4
 1150 018a 0E       		.byte	14
 1151 018b 08       		.byte	8
 1152 018c 0F       		.byte	15
 1153 018d 80       		.byte	-128
 1154 018e 10       		.byte	16
 1155 018f 28       		.byte	40
 1156 0190 13       		.byte	19
 1157 0191 80       		.byte	-128
 1158 0192 14       		.byte	20
 1159 0193 24       		.byte	36
 1160 0194 15       		.byte	21
 1161 0195 41       		.byte	65
 1162 0196 1A       		.byte	26
 1163 0197 44       		.byte	68
 1164 0198 1D       		.byte	29
 1165 0199 40       		.byte	64
 1166 019a 27       		.byte	39
 1167 019b 02       		.byte	2
 1168 019c 2D       		.byte	45
 1169 019d 44       		.byte	68
 1170 019e 2E       		.byte	46
 1171 019f 08       		.byte	8
 1172 01a0 2F       		.byte	47
 1173 01a1 02       		.byte	2
 1174 01a2 39       		.byte	57
 1175 01a3 80       		.byte	-128
 1176 01a4 3B       		.byte	59
 1177 01a5 40       		.byte	64
ARM GAS  C:\Users\r\AppData\Local\Temp\cc1ZHhx7.s 			page 63


 1178 01a6 3E       		.byte	62
 1179 01a7 04       		.byte	4
 1180 01a8 40       		.byte	64
 1181 01a9 48       		.byte	72
 1182 01aa 41       		.byte	65
 1183 01ab 09       		.byte	9
 1184 01ac 42       		.byte	66
 1185 01ad 02       		.byte	2
 1186 01ae 49       		.byte	73
 1187 01af 06       		.byte	6
 1188 01b0 52       		.byte	82
 1189 01b1 48       		.byte	72
 1190 01b2 53       		.byte	83
 1191 01b3 20       		.byte	32
 1192 01b4 58       		.byte	88
 1193 01b5 40       		.byte	64
 1194 01b6 59       		.byte	89
 1195 01b7 28       		.byte	40
 1196 01b8 5A       		.byte	90
 1197 01b9 02       		.byte	2
 1198 01ba 61       		.byte	97
 1199 01bb 82       		.byte	-126
 1200 01bc 62       		.byte	98
 1201 01bd 10       		.byte	16
 1202 01be 63       		.byte	99
 1203 01bf 20       		.byte	32
 1204 01c0 64       		.byte	100
 1205 01c1 80       		.byte	-128
 1206 01c2 65       		.byte	101
 1207 01c3 02       		.byte	2
 1208 01c4 68       		.byte	104
 1209 01c5 20       		.byte	32
 1210 01c6 69       		.byte	105
 1211 01c7 90       		.byte	-112
 1212 01c8 6B       		.byte	107
 1213 01c9 40       		.byte	64
 1214 01ca 70       		.byte	112
 1215 01cb 09       		.byte	9
 1216 01cc 73       		.byte	115
 1217 01cd 05       		.byte	5
 1218 01ce 78       		.byte	120
 1219 01cf 10       		.byte	16
 1220 01d0 7A       		.byte	122
 1221 01d1 08       		.byte	8
 1222 01d2 80       		.byte	-128
 1223 01d3 02       		.byte	2
 1224 01d4 81       		.byte	-127
 1225 01d5 0E       		.byte	14
 1226 01d6 83       		.byte	-125
 1227 01d7 80       		.byte	-128
 1228 01d8 84       		.byte	-124
 1229 01d9 40       		.byte	64
 1230 01da 86       		.byte	-122
 1231 01db 40       		.byte	64
 1232 01dc 89       		.byte	-119
 1233 01dd 08       		.byte	8
 1234 01de 8C       		.byte	-116
ARM GAS  C:\Users\r\AppData\Local\Temp\cc1ZHhx7.s 			page 64


 1235 01df 01       		.byte	1
 1236 01e0 C0       		.byte	-64
 1237 01e1 E1       		.byte	-31
 1238 01e2 C2       		.byte	-62
 1239 01e3 7E       		.byte	126
 1240 01e4 C4       		.byte	-60
 1241 01e5 F7       		.byte	-9
 1242 01e6 CA       		.byte	-54
 1243 01e7 50       		.byte	80
 1244 01e8 CE       		.byte	-50
 1245 01e9 40       		.byte	64
 1246 01ea D0       		.byte	-48
 1247 01eb 0F       		.byte	15
 1248 01ec D6       		.byte	-42
 1249 01ed 0F       		.byte	15
 1250 01ee D8       		.byte	-40
 1251 01ef 0F       		.byte	15
 1252 01f0 E0       		.byte	-32
 1253 01f1 18       		.byte	24
 1254 01f2 E2       		.byte	-30
 1255 01f3 01       		.byte	1
 1256 01f4 E4       		.byte	-28
 1257 01f5 01       		.byte	1
 1258 01f6 E6       		.byte	-26
 1259 01f7 08       		.byte	8
 1260 01f8 00       		.byte	0
 1261 01f9 48       		.byte	72
 1262 01fa 01       		.byte	1
 1263 01fb 02       		.byte	2
 1264 01fc 02       		.byte	2
 1265 01fd 10       		.byte	16
 1266 01fe 04       		.byte	4
 1267 01ff 02       		.byte	2
 1268 0200 06       		.byte	6
 1269 0201 01       		.byte	1
 1270 0202 07       		.byte	7
 1271 0203 10       		.byte	16
 1272 0204 0A       		.byte	10
 1273 0205 38       		.byte	56
 1274 0206 0F       		.byte	15
 1275 0207 08       		.byte	8
 1276 0208 10       		.byte	16
 1277 0209 20       		.byte	32
 1278 020a 11       		.byte	17
 1279 020b 02       		.byte	2
 1280 020c 12       		.byte	18
 1281 020d 40       		.byte	64
 1282 020e 14       		.byte	20
 1283 020f 50       		.byte	80
 1284 0210 16       		.byte	22
 1285 0211 28       		.byte	40
 1286 0212 17       		.byte	23
 1287 0213 01       		.byte	1
 1288 0214 1B       		.byte	27
 1289 0215 04       		.byte	4
 1290 0216 1C       		.byte	28
 1291 0217 01       		.byte	1
ARM GAS  C:\Users\r\AppData\Local\Temp\cc1ZHhx7.s 			page 65


 1292 0218 1D       		.byte	29
 1293 0219 02       		.byte	2
 1294 021a 1E       		.byte	30
 1295 021b 02       		.byte	2
 1296 021c 20       		.byte	32
 1297 021d 02       		.byte	2
 1298 021e 22       		.byte	34
 1299 021f 05       		.byte	5
 1300 0220 24       		.byte	36
 1301 0221 02       		.byte	2
 1302 0222 25       		.byte	37
 1303 0223 02       		.byte	2
 1304 0224 26       		.byte	38
 1305 0225 01       		.byte	1
 1306 0226 28       		.byte	40
 1307 0227 02       		.byte	2
 1308 0228 2A       		.byte	42
 1309 0229 01       		.byte	1
 1310 022a 2D       		.byte	45
 1311 022b 08       		.byte	8
 1312 022c 2E       		.byte	46
 1313 022d 40       		.byte	64
 1314 022e 2F       		.byte	47
 1315 022f 10       		.byte	16
 1316 0230 31       		.byte	49
 1317 0231 18       		.byte	24
 1318 0232 32       		.byte	50
 1319 0233 04       		.byte	4
 1320 0234 33       		.byte	51
 1321 0235 04       		.byte	4
 1322 0236 34       		.byte	52
 1323 0237 78       		.byte	120
 1324 0238 35       		.byte	53
 1325 0239 01       		.byte	1
 1326 023a 36       		.byte	54
 1327 023b 03       		.byte	3
 1328 023c 37       		.byte	55
 1329 023d 02       		.byte	2
 1330 023e 39       		.byte	57
 1331 023f 80       		.byte	-128
 1332 0240 3A       		.byte	58
 1333 0241 80       		.byte	-128
 1334 0242 3F       		.byte	63
 1335 0243 41       		.byte	65
 1336 0244 56       		.byte	86
 1337 0245 08       		.byte	8
 1338 0246 58       		.byte	88
 1339 0247 04       		.byte	4
 1340 0248 59       		.byte	89
 1341 0249 04       		.byte	4
 1342 024a 5B       		.byte	91
 1343 024b 04       		.byte	4
 1344 024c 5C       		.byte	92
 1345 024d 11       		.byte	17
 1346 024e 5D       		.byte	93
 1347 024f 90       		.byte	-112
 1348 0250 5F       		.byte	95
ARM GAS  C:\Users\r\AppData\Local\Temp\cc1ZHhx7.s 			page 66


 1349 0251 01       		.byte	1
 1350 0252 83       		.byte	-125
 1351 0253 80       		.byte	-128
 1352 0254 84       		.byte	-124
 1353 0255 50       		.byte	80
 1354 0256 86       		.byte	-122
 1355 0257 A0       		.byte	-96
 1356 0258 87       		.byte	-121
 1357 0259 07       		.byte	7
 1358 025a 88       		.byte	-120
 1359 025b 60       		.byte	96
 1360 025c 8A       		.byte	-118
 1361 025d 90       		.byte	-112
 1362 025e 8B       		.byte	-117
 1363 025f 08       		.byte	8
 1364 0260 8C       		.byte	-116
 1365 0261 0F       		.byte	15
 1366 0262 8E       		.byte	-114
 1367 0263 F0       		.byte	-16
 1368 0264 90       		.byte	-112
 1369 0265 05       		.byte	5
 1370 0266 92       		.byte	-110
 1371 0267 0A       		.byte	10
 1372 0268 95       		.byte	-107
 1373 0269 AA       		.byte	-86
 1374 026a 97       		.byte	-105
 1375 026b 55       		.byte	85
 1376 026c 98       		.byte	-104
 1377 026d 30       		.byte	48
 1378 026e 9A       		.byte	-102
 1379 026f C0       		.byte	-64
 1380 0270 9B       		.byte	-101
 1381 0271 70       		.byte	112
 1382 0272 A4       		.byte	-92
 1383 0273 03       		.byte	3
 1384 0274 A5       		.byte	-91
 1385 0275 44       		.byte	68
 1386 0276 A6       		.byte	-90
 1387 0277 0C       		.byte	12
 1388 0278 A7       		.byte	-89
 1389 0279 88       		.byte	-120
 1390 027a A8       		.byte	-88
 1391 027b 06       		.byte	6
 1392 027c A9       		.byte	-87
 1393 027d 99       		.byte	-103
 1394 027e AA       		.byte	-86
 1395 027f 09       		.byte	9
 1396 0280 AB       		.byte	-85
 1397 0281 22       		.byte	34
 1398 0282 B3       		.byte	-77
 1399 0283 0F       		.byte	15
 1400 0284 B4       		.byte	-76
 1401 0285 FF       		.byte	-1
 1402 0286 B5       		.byte	-75
 1403 0287 F0       		.byte	-16
 1404 0288 BE       		.byte	-66
 1405 0289 10       		.byte	16
ARM GAS  C:\Users\r\AppData\Local\Temp\cc1ZHhx7.s 			page 67


 1406 028a D8       		.byte	-40
 1407 028b 04       		.byte	4
 1408 028c D9       		.byte	-39
 1409 028d 04       		.byte	4
 1410 028e DC       		.byte	-36
 1411 028f 10       		.byte	16
 1412 0290 DF       		.byte	-33
 1413 0291 01       		.byte	1
 1414 0292 00       		.byte	0
 1415 0293 08       		.byte	8
 1416 0294 03       		.byte	3
 1417 0295 06       		.byte	6
 1418 0296 05       		.byte	5
 1419 0297 16       		.byte	22
 1420 0298 09       		.byte	9
 1421 0299 20       		.byte	32
 1422 029a 0A       		.byte	10
 1423 029b 40       		.byte	64
 1424 029c 0D       		.byte	13
 1425 029d 09       		.byte	9
 1426 029e 0E       		.byte	14
 1427 029f 02       		.byte	2
 1428 02a0 0F       		.byte	15
 1429 02a1 02       		.byte	2
 1430 02a2 12       		.byte	18
 1431 02a3 18       		.byte	24
 1432 02a4 16       		.byte	22
 1433 02a5 80       		.byte	-128
 1434 02a6 17       		.byte	23
 1435 02a7 58       		.byte	88
 1436 02a8 18       		.byte	24
 1437 02a9 04       		.byte	4
 1438 02aa 1B       		.byte	27
 1439 02ab 10       		.byte	16
 1440 02ac 1D       		.byte	29
 1441 02ad 14       		.byte	20
 1442 02ae 1E       		.byte	30
 1443 02af 02       		.byte	2
 1444 02b0 21       		.byte	33
 1445 02b1 04       		.byte	4
 1446 02b2 22       		.byte	34
 1447 02b3 10       		.byte	16
 1448 02b4 25       		.byte	37
 1449 02b5 01       		.byte	1
 1450 02b6 26       		.byte	38
 1451 02b7 20       		.byte	32
 1452 02b8 27       		.byte	39
 1453 02b9 1A       		.byte	26
 1454 02ba 28       		.byte	40
 1455 02bb 08       		.byte	8
 1456 02bc 2A       		.byte	42
 1457 02bd 08       		.byte	8
 1458 02be 2D       		.byte	45
 1459 02bf 08       		.byte	8
 1460 02c0 2F       		.byte	47
 1461 02c1 02       		.byte	2
 1462 02c2 31       		.byte	49
ARM GAS  C:\Users\r\AppData\Local\Temp\cc1ZHhx7.s 			page 68


 1463 02c3 08       		.byte	8
 1464 02c4 32       		.byte	50
 1465 02c5 10       		.byte	16
 1466 02c6 35       		.byte	53
 1467 02c7 44       		.byte	68
 1468 02c8 36       		.byte	54
 1469 02c9 22       		.byte	34
 1470 02ca 39       		.byte	57
 1471 02cb 18       		.byte	24
 1472 02cc 3B       		.byte	59
 1473 02cd 01       		.byte	1
 1474 02ce 3C       		.byte	60
 1475 02cf 0A       		.byte	10
 1476 02d0 3E       		.byte	62
 1477 02d1 40       		.byte	64
 1478 02d2 5D       		.byte	93
 1479 02d3 40       		.byte	64
 1480 02d4 66       		.byte	102
 1481 02d5 80       		.byte	-128
 1482 02d6 6C       		.byte	108
 1483 02d7 22       		.byte	34
 1484 02d8 6E       		.byte	110
 1485 02d9 08       		.byte	8
 1486 02da 6F       		.byte	111
 1487 02db 08       		.byte	8
 1488 02dc 81       		.byte	-127
 1489 02dd 03       		.byte	3
 1490 02de 82       		.byte	-126
 1491 02df 02       		.byte	2
 1492 02e0 85       		.byte	-123
 1493 02e1 20       		.byte	32
 1494 02e2 8A       		.byte	-118
 1495 02e3 01       		.byte	1
 1496 02e4 8B       		.byte	-117
 1497 02e5 04       		.byte	4
 1498 02e6 8E       		.byte	-114
 1499 02e7 04       		.byte	4
 1500 02e8 91       		.byte	-111
 1501 02e9 10       		.byte	16
 1502 02ea 92       		.byte	-110
 1503 02eb 40       		.byte	64
 1504 02ec 93       		.byte	-109
 1505 02ed 45       		.byte	69
 1506 02ee 94       		.byte	-108
 1507 02ef 04       		.byte	4
 1508 02f0 95       		.byte	-107
 1509 02f1 0F       		.byte	15
 1510 02f2 96       		.byte	-106
 1511 02f3 02       		.byte	2
 1512 02f4 98       		.byte	-104
 1513 02f5 B2       		.byte	-78
 1514 02f6 99       		.byte	-103
 1515 02f7 40       		.byte	64
 1516 02f8 9A       		.byte	-102
 1517 02f9 40       		.byte	64
 1518 02fa 9B       		.byte	-101
 1519 02fb 40       		.byte	64
ARM GAS  C:\Users\r\AppData\Local\Temp\cc1ZHhx7.s 			page 69


 1520 02fc 9C       		.byte	-100
 1521 02fd 0C       		.byte	12
 1522 02fe 9D       		.byte	-99
 1523 02ff 20       		.byte	32
 1524 0300 9E       		.byte	-98
 1525 0301 02       		.byte	2
 1526 0302 9F       		.byte	-97
 1527 0303 01       		.byte	1
 1528 0304 A1       		.byte	-95
 1529 0305 08       		.byte	8
 1530 0306 A3       		.byte	-93
 1531 0307 20       		.byte	32
 1532 0308 A5       		.byte	-91
 1533 0309 82       		.byte	-126
 1534 030a A6       		.byte	-90
 1535 030b 04       		.byte	4
 1536 030c A7       		.byte	-89
 1537 030d 42       		.byte	66
 1538 030e AB       		.byte	-85
 1539 030f 10       		.byte	16
 1540 0310 AF       		.byte	-81
 1541 0311 02       		.byte	2
 1542 0312 B2       		.byte	-78
 1543 0313 18       		.byte	24
 1544 0314 C0       		.byte	-64
 1545 0315 77       		.byte	119
 1546 0316 C2       		.byte	-62
 1547 0317 BA       		.byte	-70
 1548 0318 C4       		.byte	-60
 1549 0319 F6       		.byte	-10
 1550 031a CA       		.byte	-54
 1551 031b 56       		.byte	86
 1552 031c CC       		.byte	-52
 1553 031d F6       		.byte	-10
 1554 031e CE       		.byte	-50
 1555 031f D7       		.byte	-41
 1556 0320 D6       		.byte	-42
 1557 0321 10       		.byte	16
 1558 0322 D8       		.byte	-40
 1559 0323 10       		.byte	16
 1560 0324 E2       		.byte	-30
 1561 0325 45       		.byte	69
 1562 0326 E4       		.byte	-28
 1563 0327 01       		.byte	1
 1564 0328 E6       		.byte	-26
 1565 0329 06       		.byte	6
 1566 032a E8       		.byte	-24
 1567 032b 01       		.byte	1
 1568 032c EC       		.byte	-20
 1569 032d 02       		.byte	2
 1570 032e EE       		.byte	-18
 1571 032f 81       		.byte	-127
 1572 0330 05       		.byte	5
 1573 0331 84       		.byte	-124
 1574 0332 07       		.byte	7
 1575 0333 79       		.byte	121
 1576 0334 0C       		.byte	12
ARM GAS  C:\Users\r\AppData\Local\Temp\cc1ZHhx7.s 			page 70


 1577 0335 55       		.byte	85
 1578 0336 0E       		.byte	14
 1579 0337 AA       		.byte	-86
 1580 0338 10       		.byte	16
 1581 0339 0F       		.byte	15
 1582 033a 12       		.byte	18
 1583 033b F0       		.byte	-16
 1584 033c 13       		.byte	19
 1585 033d 07       		.byte	7
 1586 033e 15       		.byte	21
 1587 033f 82       		.byte	-126
 1588 0340 17       		.byte	23
 1589 0341 7C       		.byte	124
 1590 0342 18       		.byte	24
 1591 0343 FF       		.byte	-1
 1592 0344 19       		.byte	25
 1593 0345 78       		.byte	120
 1594 0346 1C       		.byte	28
 1595 0347 FF       		.byte	-1
 1596 0348 1D       		.byte	29
 1597 0349 18       		.byte	24
 1598 034a 1F       		.byte	31
 1599 034b 60       		.byte	96
 1600 034c 20       		.byte	32
 1601 034d 33       		.byte	51
 1602 034e 21       		.byte	33
 1603 034f 28       		.byte	40
 1604 0350 22       		.byte	34
 1605 0351 CC       		.byte	-52
 1606 0352 23       		.byte	35
 1607 0353 50       		.byte	80
 1608 0354 25       		.byte	37
 1609 0355 30       		.byte	48
 1610 0356 26       		.byte	38
 1611 0357 FF       		.byte	-1
 1612 0358 27       		.byte	39
 1613 0359 48       		.byte	72
 1614 035a 28       		.byte	40
 1615 035b 69       		.byte	105
 1616 035c 29       		.byte	41
 1617 035d 81       		.byte	-127
 1618 035e 2A       		.byte	42
 1619 035f 96       		.byte	-106
 1620 0360 2B       		.byte	43
 1621 0361 7A       		.byte	122
 1622 0362 2F       		.byte	47
 1623 0363 80       		.byte	-128
 1624 0364 31       		.byte	49
 1625 0365 7F       		.byte	127
 1626 0366 32       		.byte	50
 1627 0367 FF       		.byte	-1
 1628 0368 37       		.byte	55
 1629 0369 80       		.byte	-128
 1630 036a 3E       		.byte	62
 1631 036b 04       		.byte	4
 1632 036c 3F       		.byte	63
 1633 036d 40       		.byte	64
ARM GAS  C:\Users\r\AppData\Local\Temp\cc1ZHhx7.s 			page 71


 1634 036e 54       		.byte	84
 1635 036f 01       		.byte	1
 1636 0370 58       		.byte	88
 1637 0371 04       		.byte	4
 1638 0372 59       		.byte	89
 1639 0373 04       		.byte	4
 1640 0374 5B       		.byte	91
 1641 0375 04       		.byte	4
 1642 0376 5C       		.byte	92
 1643 0377 10       		.byte	16
 1644 0378 5D       		.byte	93
 1645 0379 10       		.byte	16
 1646 037a 5F       		.byte	95
 1647 037b 01       		.byte	1
 1648 037c 80       		.byte	-128
 1649 037d 01       		.byte	1
 1650 037e 82       		.byte	-126
 1651 037f FE       		.byte	-2
 1652 0380 86       		.byte	-122
 1653 0381 01       		.byte	1
 1654 0382 87       		.byte	-121
 1655 0383 FE       		.byte	-2
 1656 0384 88       		.byte	-120
 1657 0385 7E       		.byte	126
 1658 0386 89       		.byte	-119
 1659 0387 97       		.byte	-105
 1660 0388 8A       		.byte	-118
 1661 0389 80       		.byte	-128
 1662 038a 8B       		.byte	-117
 1663 038b 68       		.byte	104
 1664 038c 8C       		.byte	-116
 1665 038d AB       		.byte	-85
 1666 038e 8D       		.byte	-115
 1667 038f 54       		.byte	84
 1668 0390 8E       		.byte	-114
 1669 0391 54       		.byte	84
 1670 0392 8F       		.byte	-113
 1671 0393 AB       		.byte	-85
 1672 0394 91       		.byte	-111
 1673 0395 32       		.byte	50
 1674 0396 93       		.byte	-109
 1675 0397 CC       		.byte	-52
 1676 0398 94       		.byte	-108
 1677 0399 34       		.byte	52
 1678 039a 96       		.byte	-106
 1679 039b CB       		.byte	-53
 1680 039c 97       		.byte	-105
 1681 039d 01       		.byte	1
 1682 039e 9A       		.byte	-102
 1683 039f FF       		.byte	-1
 1684 03a0 9B       		.byte	-101
 1685 03a1 01       		.byte	1
 1686 03a2 9F       		.byte	-97
 1687 03a3 01       		.byte	1
 1688 03a4 A2       		.byte	-94
 1689 03a5 01       		.byte	1
 1690 03a6 A6       		.byte	-90
ARM GAS  C:\Users\r\AppData\Local\Temp\cc1ZHhx7.s 			page 72


 1691 03a7 01       		.byte	1
 1692 03a8 A7       		.byte	-89
 1693 03a9 FF       		.byte	-1
 1694 03aa A8       		.byte	-88
 1695 03ab 86       		.byte	-122
 1696 03ac A9       		.byte	-87
 1697 03ad 0E       		.byte	14
 1698 03ae AA       		.byte	-86
 1699 03af 78       		.byte	120
 1700 03b0 AB       		.byte	-85
 1701 03b1 F0       		.byte	-16
 1702 03b2 AC       		.byte	-84
 1703 03b3 98       		.byte	-104
 1704 03b4 AD       		.byte	-83
 1705 03b5 01       		.byte	1
 1706 03b6 AE       		.byte	-82
 1707 03b7 66       		.byte	102
 1708 03b8 AF       		.byte	-81
 1709 03b9 FE       		.byte	-2
 1710 03ba B1       		.byte	-79
 1711 03bb FF       		.byte	-1
 1712 03bc B6       		.byte	-74
 1713 03bd FF       		.byte	-1
 1714 03be BE       		.byte	-66
 1715 03bf 40       		.byte	64
 1716 03c0 BF       		.byte	-65
 1717 03c1 01       		.byte	1
 1718 03c2 D8       		.byte	-40
 1719 03c3 04       		.byte	4
 1720 03c4 D9       		.byte	-39
 1721 03c5 04       		.byte	4
 1722 03c6 DB       		.byte	-37
 1723 03c7 04       		.byte	4
 1724 03c8 DF       		.byte	-33
 1725 03c9 01       		.byte	1
 1726 03ca 00       		.byte	0
 1727 03cb 40       		.byte	64
 1728 03cc 01       		.byte	1
 1729 03cd 02       		.byte	2
 1730 03ce 02       		.byte	2
 1731 03cf 40       		.byte	64
 1732 03d0 04       		.byte	4
 1733 03d1 60       		.byte	96
 1734 03d2 06       		.byte	6
 1735 03d3 80       		.byte	-128
 1736 03d4 07       		.byte	7
 1737 03d5 10       		.byte	16
 1738 03d6 08       		.byte	8
 1739 03d7 20       		.byte	32
 1740 03d8 0B       		.byte	11
 1741 03d9 82       		.byte	-126
 1742 03da 0C       		.byte	12
 1743 03db 20       		.byte	32
 1744 03dc 0F       		.byte	15
 1745 03dd 20       		.byte	32
 1746 03de 10       		.byte	16
 1747 03df 20       		.byte	32
ARM GAS  C:\Users\r\AppData\Local\Temp\cc1ZHhx7.s 			page 73


 1748 03e0 11       		.byte	17
 1749 03e1 01       		.byte	1
 1750 03e2 12       		.byte	18
 1751 03e3 80       		.byte	-128
 1752 03e4 13       		.byte	19
 1753 03e5 10       		.byte	16
 1754 03e6 14       		.byte	20
 1755 03e7 05       		.byte	5
 1756 03e8 15       		.byte	21
 1757 03e9 09       		.byte	9
 1758 03ea 19       		.byte	25
 1759 03eb 08       		.byte	8
 1760 03ec 1C       		.byte	28
 1761 03ed 02       		.byte	2
 1762 03ee 21       		.byte	33
 1763 03ef 02       		.byte	2
 1764 03f0 23       		.byte	35
 1765 03f1 01       		.byte	1
 1766 03f2 26       		.byte	38
 1767 03f3 02       		.byte	2
 1768 03f4 28       		.byte	40
 1769 03f5 4A       		.byte	74
 1770 03f6 2A       		.byte	42
 1771 03f7 04       		.byte	4
 1772 03f8 2C       		.byte	44
 1773 03f9 2C       		.byte	44
 1774 03fa 2E       		.byte	46
 1775 03fb 80       		.byte	-128
 1776 03fc 2F       		.byte	47
 1777 03fd 03       		.byte	3
 1778 03fe 30       		.byte	48
 1779 03ff 20       		.byte	32
 1780 0400 31       		.byte	49
 1781 0401 0A       		.byte	10
 1782 0402 33       		.byte	51
 1783 0403 40       		.byte	64
 1784 0404 34       		.byte	52
 1785 0405 21       		.byte	33
 1786 0406 36       		.byte	54
 1787 0407 80       		.byte	-128
 1788 0408 37       		.byte	55
 1789 0409 19       		.byte	25
 1790 040a 3A       		.byte	58
 1791 040b 08       		.byte	8
 1792 040c 3C       		.byte	60
 1793 040d 40       		.byte	64
 1794 040e 3D       		.byte	61
 1795 040f 04       		.byte	4
 1796 0410 3F       		.byte	63
 1797 0411 B0       		.byte	-80
 1798 0412 41       		.byte	65
 1799 0413 0A       		.byte	10
 1800 0414 42       		.byte	66
 1801 0415 60       		.byte	96
 1802 0416 5A       		.byte	90
 1803 0417 40       		.byte	64
 1804 0418 6C       		.byte	108
ARM GAS  C:\Users\r\AppData\Local\Temp\cc1ZHhx7.s 			page 74


 1805 0419 18       		.byte	24
 1806 041a 6D       		.byte	109
 1807 041b 06       		.byte	6
 1808 041c 6F       		.byte	111
 1809 041d 01       		.byte	1
 1810 041e 74       		.byte	116
 1811 041f 44       		.byte	68
 1812 0420 75       		.byte	117
 1813 0421 01       		.byte	1
 1814 0422 77       		.byte	119
 1815 0423 04       		.byte	4
 1816 0424 80       		.byte	-128
 1817 0425 10       		.byte	16
 1818 0426 85       		.byte	-123
 1819 0427 80       		.byte	-128
 1820 0428 87       		.byte	-121
 1821 0429 01       		.byte	1
 1822 042a 89       		.byte	-119
 1823 042b 01       		.byte	1
 1824 042c 8A       		.byte	-118
 1825 042d 08       		.byte	8
 1826 042e 8E       		.byte	-114
 1827 042f 10       		.byte	16
 1828 0430 8F       		.byte	-113
 1829 0431 24       		.byte	36
 1830 0432 91       		.byte	-111
 1831 0433 08       		.byte	8
 1832 0434 92       		.byte	-110
 1833 0435 20       		.byte	32
 1834 0436 93       		.byte	-109
 1835 0437 40       		.byte	64
 1836 0438 95       		.byte	-107
 1837 0439 07       		.byte	7
 1838 043a 98       		.byte	-104
 1839 043b BA       		.byte	-70
 1840 043c 99       		.byte	-103
 1841 043d 10       		.byte	16
 1842 043e 9A       		.byte	-102
 1843 043f 40       		.byte	64
 1844 0440 9B       		.byte	-101
 1845 0441 02       		.byte	2
 1846 0442 9C       		.byte	-100
 1847 0443 04       		.byte	4
 1848 0444 9D       		.byte	-99
 1849 0445 08       		.byte	8
 1850 0446 9E       		.byte	-98
 1851 0447 08       		.byte	8
 1852 0448 9F       		.byte	-97
 1853 0449 05       		.byte	5
 1854 044a A0       		.byte	-96
 1855 044b 20       		.byte	32
 1856 044c A1       		.byte	-95
 1857 044d 08       		.byte	8
 1858 044e A3       		.byte	-93
 1859 044f 31       		.byte	49
 1860 0450 A4       		.byte	-92
 1861 0451 05       		.byte	5
ARM GAS  C:\Users\r\AppData\Local\Temp\cc1ZHhx7.s 			page 75


 1862 0452 A5       		.byte	-91
 1863 0453 A0       		.byte	-96
 1864 0454 A6       		.byte	-90
 1865 0455 02       		.byte	2
 1866 0456 A7       		.byte	-89
 1867 0457 42       		.byte	66
 1868 0458 AA       		.byte	-86
 1869 0459 08       		.byte	8
 1870 045a AB       		.byte	-85
 1871 045b 08       		.byte	8
 1872 045c AC       		.byte	-84
 1873 045d 08       		.byte	8
 1874 045e AD       		.byte	-83
 1875 045f 02       		.byte	2
 1876 0460 AE       		.byte	-82
 1877 0461 10       		.byte	16
 1878 0462 B4       		.byte	-76
 1879 0463 02       		.byte	2
 1880 0464 B5       		.byte	-75
 1881 0465 40       		.byte	64
 1882 0466 C0       		.byte	-64
 1883 0467 F1       		.byte	-15
 1884 0468 C2       		.byte	-62
 1885 0469 6B       		.byte	107
 1886 046a C4       		.byte	-60
 1887 046b FE       		.byte	-2
 1888 046c CA       		.byte	-54
 1889 046d 7F       		.byte	127
 1890 046e CC       		.byte	-52
 1891 046f FF       		.byte	-1
 1892 0470 CE       		.byte	-50
 1893 0471 72       		.byte	114
 1894 0472 D6       		.byte	-42
 1895 0473 08       		.byte	8
 1896 0474 E2       		.byte	-30
 1897 0475 08       		.byte	8
 1898 0476 E4       		.byte	-28
 1899 0477 08       		.byte	8
 1900 0478 E6       		.byte	-26
 1901 0479 03       		.byte	3
 1902 047a EA       		.byte	-22
 1903 047b 06       		.byte	6
 1904 047c EE       		.byte	-18
 1905 047d C8       		.byte	-56
 1906 047e 00       		.byte	0
 1907 047f 04       		.byte	4
 1908 0480 02       		.byte	2
 1909 0481 08       		.byte	8
 1910 0482 03       		.byte	3
 1911 0483 80       		.byte	-128
 1912 0484 08       		.byte	8
 1913 0485 02       		.byte	2
 1914 0486 0A       		.byte	10
 1915 0487 01       		.byte	1
 1916 0488 0F       		.byte	15
 1917 0489 08       		.byte	8
 1918 048a 13       		.byte	19
ARM GAS  C:\Users\r\AppData\Local\Temp\cc1ZHhx7.s 			page 76


 1919 048b 20       		.byte	32
 1920 048c 15       		.byte	21
 1921 048d 09       		.byte	9
 1922 048e 16       		.byte	22
 1923 048f 20       		.byte	32
 1924 0490 17       		.byte	23
 1925 0491 02       		.byte	2
 1926 0492 18       		.byte	24
 1927 0493 01       		.byte	1
 1928 0494 1A       		.byte	26
 1929 0495 02       		.byte	2
 1930 0496 1B       		.byte	27
 1931 0497 40       		.byte	64
 1932 0498 1C       		.byte	28
 1933 0499 08       		.byte	8
 1934 049a 1E       		.byte	30
 1935 049b 04       		.byte	4
 1936 049c 1F       		.byte	31
 1937 049d 17       		.byte	23
 1938 049e 20       		.byte	32
 1939 049f 13       		.byte	19
 1940 04a0 22       		.byte	34
 1941 04a1 2C       		.byte	44
 1942 04a2 25       		.byte	37
 1943 04a3 04       		.byte	4
 1944 04a4 26       		.byte	38
 1945 04a5 10       		.byte	16
 1946 04a6 27       		.byte	39
 1947 04a7 08       		.byte	8
 1948 04a8 29       		.byte	41
 1949 04a9 0A       		.byte	10
 1950 04aa 2B       		.byte	43
 1951 04ab 05       		.byte	5
 1952 04ac 2D       		.byte	45
 1953 04ad 50       		.byte	80
 1954 04ae 2F       		.byte	47
 1955 04af A0       		.byte	-96
 1956 04b0 30       		.byte	48
 1957 04b1 0F       		.byte	15
 1958 04b2 32       		.byte	50
 1959 04b3 30       		.byte	48
 1960 04b4 33       		.byte	51
 1961 04b5 C0       		.byte	-64
 1962 04b6 35       		.byte	53
 1963 04b7 30       		.byte	48
 1964 04b8 37       		.byte	55
 1965 04b9 0F       		.byte	15
 1966 04ba 3E       		.byte	62
 1967 04bb 05       		.byte	5
 1968 04bc 3F       		.byte	63
 1969 04bd 14       		.byte	20
 1970 04be 58       		.byte	88
 1971 04bf 04       		.byte	4
 1972 04c0 59       		.byte	89
 1973 04c1 04       		.byte	4
 1974 04c2 5C       		.byte	92
 1975 04c3 10       		.byte	16
ARM GAS  C:\Users\r\AppData\Local\Temp\cc1ZHhx7.s 			page 77


 1976 04c4 5F       		.byte	95
 1977 04c5 01       		.byte	1
 1978 04c6 81       		.byte	-127
 1979 04c7 9B       		.byte	-101
 1980 04c8 84       		.byte	-124
 1981 04c9 43       		.byte	67
 1982 04ca 85       		.byte	-123
 1983 04cb 9B       		.byte	-101
 1984 04cc 86       		.byte	-122
 1985 04cd 2C       		.byte	44
 1986 04ce 89       		.byte	-119
 1987 04cf 1B       		.byte	27
 1988 04d0 8A       		.byte	-118
 1989 04d1 08       		.byte	8
 1990 04d2 8B       		.byte	-117
 1991 04d3 80       		.byte	-128
 1992 04d4 8D       		.byte	-115
 1993 04d5 9A       		.byte	-102
 1994 04d6 8F       		.byte	-113
 1995 04d7 01       		.byte	1
 1996 04d8 93       		.byte	-109
 1997 04d9 01       		.byte	1
 1998 04da 95       		.byte	-107
 1999 04db 9B       		.byte	-101
 2000 04dc 98       		.byte	-104
 2001 04dd 35       		.byte	53
 2002 04de 99       		.byte	-103
 2003 04df 04       		.byte	4
 2004 04e0 9A       		.byte	-102
 2005 04e1 42       		.byte	66
 2006 04e2 9B       		.byte	-101
 2007 04e3 B0       		.byte	-80
 2008 04e4 9C       		.byte	-100
 2009 04e5 01       		.byte	1
 2010 04e6 9D       		.byte	-99
 2011 04e7 04       		.byte	4
 2012 04e8 9E       		.byte	-98
 2013 04e9 5E       		.byte	94
 2014 04ea 9F       		.byte	-97
 2015 04eb 1A       		.byte	26
 2016 04ec A1       		.byte	-95
 2017 04ed E2       		.byte	-30
 2018 04ee A3       		.byte	-93
 2019 04ef 04       		.byte	4
 2020 04f0 A4       		.byte	-92
 2021 04f1 04       		.byte	4
 2022 04f2 A5       		.byte	-91
 2023 04f3 64       		.byte	100
 2024 04f4 A6       		.byte	-90
 2025 04f5 03       		.byte	3
 2026 04f6 A7       		.byte	-89
 2027 04f7 08       		.byte	8
 2028 04f8 AB       		.byte	-85
 2029 04f9 40       		.byte	64
 2030 04fa AD       		.byte	-83
 2031 04fb 80       		.byte	-128
 2032 04fc B0       		.byte	-80
ARM GAS  C:\Users\r\AppData\Local\Temp\cc1ZHhx7.s 			page 78


 2033 04fd 40       		.byte	64
 2034 04fe B2       		.byte	-78
 2035 04ff 38       		.byte	56
 2036 0500 B3       		.byte	-77
 2037 0501 01       		.byte	1
 2038 0502 B4       		.byte	-76
 2039 0503 07       		.byte	7
 2040 0504 B5       		.byte	-75
 2041 0505 E0       		.byte	-32
 2042 0506 B7       		.byte	-73
 2043 0507 1E       		.byte	30
 2044 0508 BA       		.byte	-70
 2045 0509 20       		.byte	32
 2046 050a BB       		.byte	-69
 2047 050b B0       		.byte	-80
 2048 050c BE       		.byte	-66
 2049 050d 01       		.byte	1
 2050 050e BF       		.byte	-65
 2051 050f 04       		.byte	4
 2052 0510 D8       		.byte	-40
 2053 0511 04       		.byte	4
 2054 0512 D9       		.byte	-39
 2055 0513 04       		.byte	4
 2056 0514 DB       		.byte	-37
 2057 0515 04       		.byte	4
 2058 0516 DF       		.byte	-33
 2059 0517 01       		.byte	1
 2060 0518 03       		.byte	3
 2061 0519 28       		.byte	40
 2062 051a 05       		.byte	5
 2063 051b 10       		.byte	16
 2064 051c 06       		.byte	6
 2065 051d 80       		.byte	-128
 2066 051e 09       		.byte	9
 2067 051f 20       		.byte	32
 2068 0520 0A       		.byte	10
 2069 0521 02       		.byte	2
 2070 0522 0C       		.byte	12
 2071 0523 08       		.byte	8
 2072 0524 0F       		.byte	15
 2073 0525 0A       		.byte	10
 2074 0526 11       		.byte	17
 2075 0527 08       		.byte	8
 2076 0528 15       		.byte	21
 2077 0529 08       		.byte	8
 2078 052a 16       		.byte	22
 2079 052b 40       		.byte	64
 2080 052c 18       		.byte	24
 2081 052d 04       		.byte	4
 2082 052e 1A       		.byte	26
 2083 052f 80       		.byte	-128
 2084 0530 1B       		.byte	27
 2085 0531 08       		.byte	8
 2086 0532 1C       		.byte	28
 2087 0533 40       		.byte	64
 2088 0534 1D       		.byte	29
 2089 0535 08       		.byte	8
ARM GAS  C:\Users\r\AppData\Local\Temp\cc1ZHhx7.s 			page 79


 2090 0536 20       		.byte	32
 2091 0537 28       		.byte	40
 2092 0538 21       		.byte	33
 2093 0539 A0       		.byte	-96
 2094 053a 23       		.byte	35
 2095 053b 04       		.byte	4
 2096 053c 26       		.byte	38
 2097 053d 80       		.byte	-128
 2098 053e 27       		.byte	39
 2099 053f 28       		.byte	40
 2100 0540 28       		.byte	40
 2101 0541 01       		.byte	1
 2102 0542 2A       		.byte	42
 2103 0543 10       		.byte	16
 2104 0544 2B       		.byte	43
 2105 0545 A0       		.byte	-96
 2106 0546 2E       		.byte	46
 2107 0547 28       		.byte	40
 2108 0548 2F       		.byte	47
 2109 0549 02       		.byte	2
 2110 054a 30       		.byte	48
 2111 054b 06       		.byte	6
 2112 054c 31       		.byte	49
 2113 054d A0       		.byte	-96
 2114 054e 32       		.byte	50
 2115 054f 02       		.byte	2
 2116 0550 34       		.byte	52
 2117 0551 08       		.byte	8
 2118 0552 35       		.byte	53
 2119 0553 10       		.byte	16
 2120 0554 36       		.byte	54
 2121 0555 80       		.byte	-128
 2122 0556 37       		.byte	55
 2123 0557 01       		.byte	1
 2124 0558 39       		.byte	57
 2125 0559 54       		.byte	84
 2126 055a 3A       		.byte	58
 2127 055b 02       		.byte	2
 2128 055c 3D       		.byte	61
 2129 055d 02       		.byte	2
 2130 055e 3F       		.byte	63
 2131 055f 42       		.byte	66
 2132 0560 58       		.byte	88
 2133 0561 90       		.byte	-112
 2134 0562 59       		.byte	89
 2135 0563 06       		.byte	6
 2136 0564 63       		.byte	99
 2137 0565 01       		.byte	1
 2138 0566 7C       		.byte	124
 2139 0567 04       		.byte	4
 2140 0568 7D       		.byte	125
 2141 0569 08       		.byte	8
 2142 056a 82       		.byte	-126
 2143 056b 04       		.byte	4
 2144 056c 87       		.byte	-121
 2145 056d 08       		.byte	8
 2146 056e 8B       		.byte	-117
ARM GAS  C:\Users\r\AppData\Local\Temp\cc1ZHhx7.s 			page 80


 2147 056f 08       		.byte	8
 2148 0570 90       		.byte	-112
 2149 0571 10       		.byte	16
 2150 0572 91       		.byte	-111
 2151 0573 08       		.byte	8
 2152 0574 93       		.byte	-109
 2153 0575 41       		.byte	65
 2154 0576 94       		.byte	-108
 2155 0577 40       		.byte	64
 2156 0578 98       		.byte	-104
 2157 0579 98       		.byte	-104
 2158 057a 99       		.byte	-103
 2159 057b 16       		.byte	22
 2160 057c 9A       		.byte	-102
 2161 057d 28       		.byte	40
 2162 057e 9B       		.byte	-101
 2163 057f 01       		.byte	1
 2164 0580 9E       		.byte	-98
 2165 0581 04       		.byte	4
 2166 0582 9F       		.byte	-97
 2167 0583 60       		.byte	96
 2168 0584 A0       		.byte	-96
 2169 0585 48       		.byte	72
 2170 0586 A1       		.byte	-95
 2171 0587 01       		.byte	1
 2172 0588 A3       		.byte	-93
 2173 0589 04       		.byte	4
 2174 058a A6       		.byte	-90
 2175 058b 80       		.byte	-128
 2176 058c A7       		.byte	-89
 2177 058d 02       		.byte	2
 2178 058e AD       		.byte	-83
 2179 058f 04       		.byte	4
 2180 0590 AF       		.byte	-81
 2181 0591 4A       		.byte	74
 2182 0592 B0       		.byte	-80
 2183 0593 40       		.byte	64
 2184 0594 B4       		.byte	-76
 2185 0595 02       		.byte	2
 2186 0596 B5       		.byte	-75
 2187 0597 25       		.byte	37
 2188 0598 B7       		.byte	-73
 2189 0599 24       		.byte	36
 2190 059a C0       		.byte	-64
 2191 059b 56       		.byte	86
 2192 059c C2       		.byte	-62
 2193 059d E3       		.byte	-29
 2194 059e C4       		.byte	-60
 2195 059f 34       		.byte	52
 2196 05a0 CA       		.byte	-54
 2197 05a1 7F       		.byte	127
 2198 05a2 CC       		.byte	-52
 2199 05a3 FF       		.byte	-1
 2200 05a4 CE       		.byte	-50
 2201 05a5 9F       		.byte	-97
 2202 05a6 D6       		.byte	-42
 2203 05a7 0F       		.byte	15
ARM GAS  C:\Users\r\AppData\Local\Temp\cc1ZHhx7.s 			page 81


 2204 05a8 D8       		.byte	-40
 2205 05a9 08       		.byte	8
 2206 05aa E0       		.byte	-32
 2207 05ab 08       		.byte	8
 2208 05ac E2       		.byte	-30
 2209 05ad 25       		.byte	37
 2210 05ae E6       		.byte	-26
 2211 05af 01       		.byte	1
 2212 05b0 EC       		.byte	-20
 2213 05b1 02       		.byte	2
 2214 05b2 02       		.byte	2
 2215 05b3 08       		.byte	8
 2216 05b4 06       		.byte	6
 2217 05b5 10       		.byte	16
 2218 05b6 07       		.byte	7
 2219 05b7 1C       		.byte	28
 2220 05b8 09       		.byte	9
 2221 05b9 02       		.byte	2
 2222 05ba 0A       		.byte	10
 2223 05bb 04       		.byte	4
 2224 05bc 0B       		.byte	11
 2225 05bd 81       		.byte	-127
 2226 05be 0F       		.byte	15
 2227 05bf 20       		.byte	32
 2228 05c0 10       		.byte	16
 2229 05c1 0A       		.byte	10
 2230 05c2 11       		.byte	17
 2231 05c3 02       		.byte	2
 2232 05c4 12       		.byte	18
 2233 05c5 14       		.byte	20
 2234 05c6 13       		.byte	19
 2235 05c7 41       		.byte	65
 2236 05c8 19       		.byte	25
 2237 05c9 28       		.byte	40
 2238 05ca 1A       		.byte	26
 2239 05cb 02       		.byte	2
 2240 05cc 1B       		.byte	27
 2241 05cd 14       		.byte	20
 2242 05ce 1D       		.byte	29
 2243 05cf 02       		.byte	2
 2244 05d0 1F       		.byte	31
 2245 05d1 01       		.byte	1
 2246 05d2 21       		.byte	33
 2247 05d3 24       		.byte	36
 2248 05d4 23       		.byte	35
 2249 05d5 08       		.byte	8
 2250 05d6 24       		.byte	36
 2251 05d7 01       		.byte	1
 2252 05d8 25       		.byte	37
 2253 05d9 01       		.byte	1
 2254 05da 27       		.byte	39
 2255 05db 02       		.byte	2
 2256 05dc 29       		.byte	41
 2257 05dd 02       		.byte	2
 2258 05de 2B       		.byte	43
 2259 05df 01       		.byte	1
 2260 05e0 2D       		.byte	45
ARM GAS  C:\Users\r\AppData\Local\Temp\cc1ZHhx7.s 			page 82


 2261 05e1 10       		.byte	16
 2262 05e2 2F       		.byte	47
 2263 05e3 20       		.byte	32
 2264 05e4 31       		.byte	49
 2265 05e5 40       		.byte	64
 2266 05e6 32       		.byte	50
 2267 05e7 18       		.byte	24
 2268 05e8 33       		.byte	51
 2269 05e9 3C       		.byte	60
 2270 05ea 34       		.byte	52
 2271 05eb 06       		.byte	6
 2272 05ec 35       		.byte	53
 2273 05ed 03       		.byte	3
 2274 05ee 36       		.byte	54
 2275 05ef 01       		.byte	1
 2276 05f0 37       		.byte	55
 2277 05f1 80       		.byte	-128
 2278 05f2 3B       		.byte	59
 2279 05f3 20       		.byte	32
 2280 05f4 3E       		.byte	62
 2281 05f5 14       		.byte	20
 2282 05f6 54       		.byte	84
 2283 05f7 40       		.byte	64
 2284 05f8 56       		.byte	86
 2285 05f9 04       		.byte	4
 2286 05fa 58       		.byte	88
 2287 05fb 04       		.byte	4
 2288 05fc 59       		.byte	89
 2289 05fd 04       		.byte	4
 2290 05fe 5B       		.byte	91
 2291 05ff 04       		.byte	4
 2292 0600 5C       		.byte	92
 2293 0601 19       		.byte	25
 2294 0602 5F       		.byte	95
 2295 0603 01       		.byte	1
 2296 0604 82       		.byte	-126
 2297 0605 FF       		.byte	-1
 2298 0606 84       		.byte	-124
 2299 0607 33       		.byte	51
 2300 0608 86       		.byte	-122
 2301 0609 CC       		.byte	-52
 2302 060a 87       		.byte	-121
 2303 060b FF       		.byte	-1
 2304 060c 89       		.byte	-119
 2305 060d 0F       		.byte	15
 2306 060e 8B       		.byte	-117
 2307 060f F0       		.byte	-16
 2308 0610 8C       		.byte	-116
 2309 0611 0F       		.byte	15
 2310 0612 8E       		.byte	-114
 2311 0613 F0       		.byte	-16
 2312 0614 8F       		.byte	-113
 2313 0615 FF       		.byte	-1
 2314 0616 90       		.byte	-112
 2315 0617 55       		.byte	85
 2316 0618 92       		.byte	-110
 2317 0619 AA       		.byte	-86
ARM GAS  C:\Users\r\AppData\Local\Temp\cc1ZHhx7.s 			page 83


 2318 061a 93       		.byte	-109
 2319 061b FF       		.byte	-1
 2320 061c 94       		.byte	-108
 2321 061d FF       		.byte	-1
 2322 061e 99       		.byte	-103
 2323 061f 96       		.byte	-106
 2324 0620 9A       		.byte	-102
 2325 0621 FF       		.byte	-1
 2326 0622 9B       		.byte	-101
 2327 0623 69       		.byte	105
 2328 0624 9D       		.byte	-99
 2329 0625 33       		.byte	51
 2330 0626 9F       		.byte	-97
 2331 0627 CC       		.byte	-52
 2332 0628 A4       		.byte	-92
 2333 0629 FF       		.byte	-1
 2334 062a A5       		.byte	-91
 2335 062b FF       		.byte	-1
 2336 062c A8       		.byte	-88
 2337 062d 69       		.byte	105
 2338 062e A9       		.byte	-87
 2339 062f FF       		.byte	-1
 2340 0630 AA       		.byte	-86
 2341 0631 96       		.byte	-106
 2342 0632 AD       		.byte	-83
 2343 0633 55       		.byte	85
 2344 0634 AE       		.byte	-82
 2345 0635 FF       		.byte	-1
 2346 0636 AF       		.byte	-81
 2347 0637 AA       		.byte	-86
 2348 0638 B0       		.byte	-80
 2349 0639 FF       		.byte	-1
 2350 063a B3       		.byte	-77
 2351 063b FF       		.byte	-1
 2352 063c BA       		.byte	-70
 2353 063d 02       		.byte	2
 2354 063e BB       		.byte	-69
 2355 063f 08       		.byte	8
 2356 0640 D6       		.byte	-42
 2357 0641 08       		.byte	8
 2358 0642 D8       		.byte	-40
 2359 0643 04       		.byte	4
 2360 0644 D9       		.byte	-39
 2361 0645 04       		.byte	4
 2362 0646 DB       		.byte	-37
 2363 0647 04       		.byte	4
 2364 0648 DC       		.byte	-36
 2365 0649 11       		.byte	17
 2366 064a DD       		.byte	-35
 2367 064b 90       		.byte	-112
 2368 064c DF       		.byte	-33
 2369 064d 01       		.byte	1
 2370 064e 00       		.byte	0
 2371 064f 06       		.byte	6
 2372 0650 03       		.byte	3
 2373 0651 02       		.byte	2
 2374 0652 04       		.byte	4
ARM GAS  C:\Users\r\AppData\Local\Temp\cc1ZHhx7.s 			page 84


 2375 0653 20       		.byte	32
 2376 0654 05       		.byte	5
 2377 0655 02       		.byte	2
 2378 0656 06       		.byte	6
 2379 0657 10       		.byte	16
 2380 0658 08       		.byte	8
 2381 0659 02       		.byte	2
 2382 065a 09       		.byte	9
 2383 065b 10       		.byte	16
 2384 065c 0B       		.byte	11
 2385 065d 20       		.byte	32
 2386 065e 0C       		.byte	12
 2387 065f 02       		.byte	2
 2388 0660 0E       		.byte	14
 2389 0661 04       		.byte	4
 2390 0662 10       		.byte	16
 2391 0663 10       		.byte	16
 2392 0664 11       		.byte	17
 2393 0665 40       		.byte	64
 2394 0666 12       		.byte	18
 2395 0667 06       		.byte	6
 2396 0668 15       		.byte	21
 2397 0669 04       		.byte	4
 2398 066a 17       		.byte	23
 2399 066b 08       		.byte	8
 2400 066c 1A       		.byte	26
 2401 066d 80       		.byte	-128
 2402 066e 1B       		.byte	27
 2403 066f 02       		.byte	2
 2404 0670 1E       		.byte	30
 2405 0671 08       		.byte	8
 2406 0672 1F       		.byte	31
 2407 0673 88       		.byte	-120
 2408 0674 20       		.byte	32
 2409 0675 10       		.byte	16
 2410 0676 21       		.byte	33
 2411 0677 08       		.byte	8
 2412 0678 24       		.byte	36
 2413 0679 08       		.byte	8
 2414 067a 25       		.byte	37
 2415 067b 14       		.byte	20
 2416 067c 27       		.byte	39
 2417 067d 49       		.byte	73
 2418 067e 28       		.byte	40
 2419 067f 10       		.byte	16
 2420 0680 29       		.byte	41
 2421 0681 10       		.byte	16
 2422 0682 2A       		.byte	42
 2423 0683 40       		.byte	64
 2424 0684 2D       		.byte	45
 2425 0685 44       		.byte	68
 2426 0686 2F       		.byte	47
 2427 0687 44       		.byte	68
 2428 0688 31       		.byte	49
 2429 0689 60       		.byte	96
 2430 068a 32       		.byte	50
 2431 068b 02       		.byte	2
ARM GAS  C:\Users\r\AppData\Local\Temp\cc1ZHhx7.s 			page 85


 2432 068c 34       		.byte	52
 2433 068d 10       		.byte	16
 2434 068e 37       		.byte	55
 2435 068f 61       		.byte	97
 2436 0690 38       		.byte	56
 2437 0691 18       		.byte	24
 2438 0692 39       		.byte	57
 2439 0693 80       		.byte	-128
 2440 0694 3B       		.byte	59
 2441 0695 80       		.byte	-128
 2442 0696 3C       		.byte	60
 2443 0697 80       		.byte	-128
 2444 0698 3D       		.byte	61
 2445 0699 08       		.byte	8
 2446 069a 3E       		.byte	62
 2447 069b 10       		.byte	16
 2448 069c 58       		.byte	88
 2449 069d 60       		.byte	96
 2450 069e 61       		.byte	97
 2451 069f 60       		.byte	96
 2452 06a0 65       		.byte	101
 2453 06a1 01       		.byte	1
 2454 06a2 66       		.byte	102
 2455 06a3 20       		.byte	32
 2456 06a4 67       		.byte	103
 2457 06a5 11       		.byte	17
 2458 06a6 81       		.byte	-127
 2459 06a7 09       		.byte	9
 2460 06a8 82       		.byte	-126
 2461 06a9 04       		.byte	4
 2462 06aa 87       		.byte	-121
 2463 06ab 08       		.byte	8
 2464 06ac 8C       		.byte	-116
 2465 06ad 20       		.byte	32
 2466 06ae 90       		.byte	-112
 2467 06af 24       		.byte	36
 2468 06b0 91       		.byte	-111
 2469 06b1 80       		.byte	-128
 2470 06b2 92       		.byte	-110
 2471 06b3 14       		.byte	20
 2472 06b4 93       		.byte	-109
 2473 06b5 28       		.byte	40
 2474 06b6 94       		.byte	-108
 2475 06b7 08       		.byte	8
 2476 06b8 98       		.byte	-104
 2477 06b9 02       		.byte	2
 2478 06ba 99       		.byte	-103
 2479 06bb 12       		.byte	18
 2480 06bc 9A       		.byte	-102
 2481 06bd 44       		.byte	68
 2482 06be 9B       		.byte	-101
 2483 06bf 20       		.byte	32
 2484 06c0 9C       		.byte	-100
 2485 06c1 80       		.byte	-128
 2486 06c2 9F       		.byte	-97
 2487 06c3 08       		.byte	8
 2488 06c4 A0       		.byte	-96
ARM GAS  C:\Users\r\AppData\Local\Temp\cc1ZHhx7.s 			page 86


 2489 06c5 41       		.byte	65
 2490 06c6 A2       		.byte	-94
 2491 06c7 02       		.byte	2
 2492 06c8 A4       		.byte	-92
 2493 06c9 02       		.byte	2
 2494 06ca A5       		.byte	-91
 2495 06cb 65       		.byte	101
 2496 06cc B1       		.byte	-79
 2497 06cd 20       		.byte	32
 2498 06ce B2       		.byte	-78
 2499 06cf 10       		.byte	16
 2500 06d0 B3       		.byte	-77
 2501 06d1 48       		.byte	72
 2502 06d2 B4       		.byte	-76
 2503 06d3 18       		.byte	24
 2504 06d4 B5       		.byte	-75
 2505 06d5 40       		.byte	64
 2506 06d6 C0       		.byte	-64
 2507 06d7 7D       		.byte	125
 2508 06d8 C2       		.byte	-62
 2509 06d9 5E       		.byte	94
 2510 06da C4       		.byte	-60
 2511 06db 27       		.byte	39
 2512 06dc CA       		.byte	-54
 2513 06dd FE       		.byte	-2
 2514 06de CC       		.byte	-52
 2515 06df BD       		.byte	-67
 2516 06e0 CE       		.byte	-50
 2517 06e1 7E       		.byte	126
 2518 06e2 D6       		.byte	-42
 2519 06e3 0C       		.byte	12
 2520 06e4 D8       		.byte	-40
 2521 06e5 FC       		.byte	-4
 2522 06e6 E0       		.byte	-32
 2523 06e7 08       		.byte	8
 2524 06e8 E4       		.byte	-28
 2525 06e9 06       		.byte	6
 2526 06ea E6       		.byte	-26
 2527 06eb 01       		.byte	1
 2528 06ec E8       		.byte	-24
 2529 06ed 40       		.byte	64
 2530 06ee EA       		.byte	-22
 2531 06ef 80       		.byte	-128
 2532 06f0 EC       		.byte	-20
 2533 06f1 52       		.byte	82
 2534 06f2 00       		.byte	0
 2535 06f3 02       		.byte	2
 2536 06f4 02       		.byte	2
 2537 06f5 01       		.byte	1
 2538 06f6 0C       		.byte	12
 2539 06f7 08       		.byte	8
 2540 06f8 0E       		.byte	14
 2541 06f9 10       		.byte	16
 2542 06fa 10       		.byte	16
 2543 06fb 02       		.byte	2
 2544 06fc 12       		.byte	18
 2545 06fd 01       		.byte	1
ARM GAS  C:\Users\r\AppData\Local\Temp\cc1ZHhx7.s 			page 87


 2546 06fe 14       		.byte	20
 2547 06ff 10       		.byte	16
 2548 0700 16       		.byte	22
 2549 0701 08       		.byte	8
 2550 0702 18       		.byte	24
 2551 0703 02       		.byte	2
 2552 0704 1A       		.byte	26
 2553 0705 05       		.byte	5
 2554 0706 1C       		.byte	28
 2555 0707 02       		.byte	2
 2556 0708 1E       		.byte	30
 2557 0709 01       		.byte	1
 2558 070a 20       		.byte	32
 2559 070b 10       		.byte	16
 2560 070c 22       		.byte	34
 2561 070d 08       		.byte	8
 2562 070e 24       		.byte	36
 2563 070f 10       		.byte	16
 2564 0710 25       		.byte	37
 2565 0711 01       		.byte	1
 2566 0712 26       		.byte	38
 2567 0713 28       		.byte	40
 2568 0714 28       		.byte	40
 2569 0715 01       		.byte	1
 2570 0716 2A       		.byte	42
 2571 0717 02       		.byte	2
 2572 0718 2C       		.byte	44
 2573 0719 10       		.byte	16
 2574 071a 2E       		.byte	46
 2575 071b 08       		.byte	8
 2576 071c 30       		.byte	48
 2577 071d 04       		.byte	4
 2578 071e 32       		.byte	50
 2579 071f 03       		.byte	3
 2580 0720 33       		.byte	51
 2581 0721 01       		.byte	1
 2582 0722 34       		.byte	52
 2583 0723 20       		.byte	32
 2584 0724 36       		.byte	54
 2585 0725 18       		.byte	24
 2586 0726 3A       		.byte	58
 2587 0727 88       		.byte	-120
 2588 0728 56       		.byte	86
 2589 0729 08       		.byte	8
 2590 072a 58       		.byte	88
 2591 072b 04       		.byte	4
 2592 072c 59       		.byte	89
 2593 072d 04       		.byte	4
 2594 072e 5B       		.byte	91
 2595 072f 04       		.byte	4
 2596 0730 5C       		.byte	92
 2597 0731 91       		.byte	-111
 2598 0732 5D       		.byte	93
 2599 0733 90       		.byte	-112
 2600 0734 5F       		.byte	95
 2601 0735 01       		.byte	1
 2602 0736 81       		.byte	-127
ARM GAS  C:\Users\r\AppData\Local\Temp\cc1ZHhx7.s 			page 88


 2603 0737 02       		.byte	2
 2604 0738 82       		.byte	-126
 2605 0739 48       		.byte	72
 2606 073a 83       		.byte	-125
 2607 073b 6D       		.byte	109
 2608 073c 86       		.byte	-122
 2609 073d 31       		.byte	49
 2610 073e 87       		.byte	-121
 2611 073f 02       		.byte	2
 2612 0740 88       		.byte	-120
 2613 0741 30       		.byte	48
 2614 0742 8A       		.byte	-118
 2615 0743 01       		.byte	1
 2616 0744 8C       		.byte	-116
 2617 0745 01       		.byte	1
 2618 0746 8E       		.byte	-114
 2619 0747 02       		.byte	2
 2620 0748 91       		.byte	-111
 2621 0749 20       		.byte	32
 2622 074a 93       		.byte	-109
 2623 074b 40       		.byte	64
 2624 074c 94       		.byte	-108
 2625 074d 10       		.byte	16
 2626 074e 96       		.byte	-106
 2627 074f 20       		.byte	32
 2628 0750 97       		.byte	-105
 2629 0751 7F       		.byte	127
 2630 0752 98       		.byte	-104
 2631 0753 10       		.byte	16
 2632 0754 99       		.byte	-103
 2633 0755 06       		.byte	6
 2634 0756 9A       		.byte	-102
 2635 0757 20       		.byte	32
 2636 0758 9B       		.byte	-101
 2637 0759 71       		.byte	113
 2638 075a 9C       		.byte	-100
 2639 075b 02       		.byte	2
 2640 075c 9D       		.byte	-99
 2641 075d 20       		.byte	32
 2642 075e 9E       		.byte	-98
 2643 075f 31       		.byte	49
 2644 0760 9F       		.byte	-97
 2645 0761 40       		.byte	64
 2646 0762 A0       		.byte	-96
 2647 0763 04       		.byte	4
 2648 0764 A1       		.byte	-95
 2649 0765 04       		.byte	4
 2650 0766 A2       		.byte	-94
 2651 0767 08       		.byte	8
 2652 0768 A5       		.byte	-91
 2653 0769 61       		.byte	97
 2654 076a A6       		.byte	-90
 2655 076b 04       		.byte	4
 2656 076c A8       		.byte	-88
 2657 076d 30       		.byte	48
 2658 076e A9       		.byte	-87
 2659 076f 78       		.byte	120
ARM GAS  C:\Users\r\AppData\Local\Temp\cc1ZHhx7.s 			page 89


 2660 0770 AA       		.byte	-86
 2661 0771 01       		.byte	1
 2662 0772 AB       		.byte	-85
 2663 0773 06       		.byte	6
 2664 0774 AC       		.byte	-84
 2665 0775 02       		.byte	2
 2666 0776 AE       		.byte	-82
 2667 0777 31       		.byte	49
 2668 0778 AF       		.byte	-81
 2669 0779 08       		.byte	8
 2670 077a B0       		.byte	-80
 2671 077b 03       		.byte	3
 2672 077c B1       		.byte	-79
 2673 077d 1F       		.byte	31
 2674 077e B2       		.byte	-78
 2675 077f 30       		.byte	48
 2676 0780 B4       		.byte	-76
 2677 0781 0C       		.byte	12
 2678 0782 B5       		.byte	-75
 2679 0783 1F       		.byte	31
 2680 0784 B6       		.byte	-74
 2681 0785 40       		.byte	64
 2682 0786 B7       		.byte	-73
 2683 0787 60       		.byte	96
 2684 0788 BA       		.byte	-70
 2685 0789 0A       		.byte	10
 2686 078a BB       		.byte	-69
 2687 078b 80       		.byte	-128
 2688 078c BE       		.byte	-66
 2689 078d 10       		.byte	16
 2690 078e D8       		.byte	-40
 2691 078f 04       		.byte	4
 2692 0790 D9       		.byte	-39
 2693 0791 04       		.byte	4
 2694 0792 DB       		.byte	-37
 2695 0793 04       		.byte	4
 2696 0794 DC       		.byte	-36
 2697 0795 11       		.byte	17
 2698 0796 DF       		.byte	-33
 2699 0797 01       		.byte	1
 2700 0798 00       		.byte	0
 2701 0799 41       		.byte	65
 2702 079a 02       		.byte	2
 2703 079b 01       		.byte	1
 2704 079c 04       		.byte	4
 2705 079d 08       		.byte	8
 2706 079e 05       		.byte	5
 2707 079f 10       		.byte	16
 2708 07a0 06       		.byte	6
 2709 07a1 82       		.byte	-126
 2710 07a2 08       		.byte	8
 2711 07a3 08       		.byte	8
 2712 07a4 0A       		.byte	10
 2713 07a5 4A       		.byte	74
 2714 07a6 0D       		.byte	13
 2715 07a7 68       		.byte	104
 2716 07a8 10       		.byte	16
ARM GAS  C:\Users\r\AppData\Local\Temp\cc1ZHhx7.s 			page 90


 2717 07a9 04       		.byte	4
 2718 07aa 11       		.byte	17
 2719 07ab 82       		.byte	-126
 2720 07ac 12       		.byte	18
 2721 07ad 10       		.byte	16
 2722 07ae 15       		.byte	21
 2723 07af 18       		.byte	24
 2724 07b0 16       		.byte	22
 2725 07b1 20       		.byte	32
 2726 07b2 17       		.byte	23
 2727 07b3 61       		.byte	97
 2728 07b4 19       		.byte	25
 2729 07b5 08       		.byte	8
 2730 07b6 1A       		.byte	26
 2731 07b7 40       		.byte	64
 2732 07b8 1B       		.byte	27
 2733 07b9 90       		.byte	-112
 2734 07ba 1C       		.byte	28
 2735 07bb 08       		.byte	8
 2736 07bc 1D       		.byte	29
 2737 07bd 58       		.byte	88
 2738 07be 1F       		.byte	31
 2739 07bf 31       		.byte	49
 2740 07c0 23       		.byte	35
 2741 07c1 10       		.byte	16
 2742 07c2 24       		.byte	36
 2743 07c3 80       		.byte	-128
 2744 07c4 26       		.byte	38
 2745 07c5 A2       		.byte	-94
 2746 07c6 27       		.byte	39
 2747 07c7 42       		.byte	66
 2748 07c8 29       		.byte	41
 2749 07c9 08       		.byte	8
 2750 07ca 2A       		.byte	42
 2751 07cb 01       		.byte	1
 2752 07cc 2B       		.byte	43
 2753 07cd 80       		.byte	-128
 2754 07ce 2D       		.byte	45
 2755 07cf 50       		.byte	80
 2756 07d0 2E       		.byte	46
 2757 07d1 01       		.byte	1
 2758 07d2 2F       		.byte	47
 2759 07d3 20       		.byte	32
 2760 07d4 34       		.byte	52
 2761 07d5 01       		.byte	1
 2762 07d6 36       		.byte	54
 2763 07d7 A0       		.byte	-96
 2764 07d8 37       		.byte	55
 2765 07d9 08       		.byte	8
 2766 07da 3A       		.byte	58
 2767 07db 02       		.byte	2
 2768 07dc 3B       		.byte	59
 2769 07dd 02       		.byte	2
 2770 07de 3C       		.byte	60
 2771 07df 02       		.byte	2
 2772 07e0 3F       		.byte	63
 2773 07e1 08       		.byte	8
ARM GAS  C:\Users\r\AppData\Local\Temp\cc1ZHhx7.s 			page 91


 2774 07e2 4A       		.byte	74
 2775 07e3 01       		.byte	1
 2776 07e4 4B       		.byte	75
 2777 07e5 80       		.byte	-128
 2778 07e6 4D       		.byte	77
 2779 07e7 40       		.byte	64
 2780 07e8 4F       		.byte	79
 2781 07e9 80       		.byte	-128
 2782 07ea 58       		.byte	88
 2783 07eb 84       		.byte	-124
 2784 07ec 59       		.byte	89
 2785 07ed 28       		.byte	40
 2786 07ee 5C       		.byte	92
 2787 07ef 60       		.byte	96
 2788 07f0 5D       		.byte	93
 2789 07f1 08       		.byte	8
 2790 07f2 5E       		.byte	94
 2791 07f3 02       		.byte	2
 2792 07f4 60       		.byte	96
 2793 07f5 02       		.byte	2
 2794 07f6 62       		.byte	98
 2795 07f7 10       		.byte	16
 2796 07f8 65       		.byte	101
 2797 07f9 80       		.byte	-128
 2798 07fa 6F       		.byte	111
 2799 07fb 01       		.byte	1
 2800 07fc 78       		.byte	120
 2801 07fd 08       		.byte	8
 2802 07fe 7B       		.byte	123
 2803 07ff 10       		.byte	16
 2804 0800 81       		.byte	-127
 2805 0801 80       		.byte	-128
 2806 0802 82       		.byte	-126
 2807 0803 20       		.byte	32
 2808 0804 83       		.byte	-125
 2809 0805 10       		.byte	16
 2810 0806 84       		.byte	-124
 2811 0807 20       		.byte	32
 2812 0808 87       		.byte	-121
 2813 0809 02       		.byte	2
 2814 080a 8A       		.byte	-118
 2815 080b 20       		.byte	32
 2816 080c 8D       		.byte	-115
 2817 080d 02       		.byte	2
 2818 080e 90       		.byte	-112
 2819 080f 05       		.byte	5
 2820 0810 91       		.byte	-111
 2821 0811 88       		.byte	-120
 2822 0812 92       		.byte	-110
 2823 0813 1F       		.byte	31
 2824 0814 93       		.byte	-109
 2825 0815 08       		.byte	8
 2826 0816 94       		.byte	-108
 2827 0817 88       		.byte	-120
 2828 0818 97       		.byte	-105
 2829 0819 92       		.byte	-110
 2830 081a 98       		.byte	-104
ARM GAS  C:\Users\r\AppData\Local\Temp\cc1ZHhx7.s 			page 92


 2831 081b 01       		.byte	1
 2832 081c 9A       		.byte	-102
 2833 081d C4       		.byte	-60
 2834 081e 9B       		.byte	-101
 2835 081f 20       		.byte	32
 2836 0820 9C       		.byte	-100
 2837 0821 02       		.byte	2
 2838 0822 9D       		.byte	-99
 2839 0823 50       		.byte	80
 2840 0824 9F       		.byte	-97
 2841 0825 08       		.byte	8
 2842 0826 A0       		.byte	-96
 2843 0827 41       		.byte	65
 2844 0828 A2       		.byte	-94
 2845 0829 10       		.byte	16
 2846 082a A3       		.byte	-93
 2847 082b 04       		.byte	4
 2848 082c A4       		.byte	-92
 2849 082d 0E       		.byte	14
 2850 082e A5       		.byte	-91
 2851 082f 0C       		.byte	12
 2852 0830 A6       		.byte	-90
 2853 0831 02       		.byte	2
 2854 0832 A7       		.byte	-89
 2855 0833 60       		.byte	96
 2856 0834 A9       		.byte	-87
 2857 0835 04       		.byte	4
 2858 0836 AA       		.byte	-86
 2859 0837 10       		.byte	16
 2860 0838 AC       		.byte	-84
 2861 0839 01       		.byte	1
 2862 083a AE       		.byte	-82
 2863 083b 06       		.byte	6
 2864 083c B3       		.byte	-77
 2865 083d 10       		.byte	16
 2866 083e B7       		.byte	-73
 2867 083f 08       		.byte	8
 2868 0840 C0       		.byte	-64
 2869 0841 F9       		.byte	-7
 2870 0842 C2       		.byte	-62
 2871 0843 EF       		.byte	-17
 2872 0844 C4       		.byte	-60
 2873 0845 FF       		.byte	-1
 2874 0846 CA       		.byte	-54
 2875 0847 F2       		.byte	-14
 2876 0848 CC       		.byte	-52
 2877 0849 F0       		.byte	-16
 2878 084a CE       		.byte	-50
 2879 084b C0       		.byte	-64
 2880 084c D6       		.byte	-42
 2881 084d FC       		.byte	-4
 2882 084e D8       		.byte	-40
 2883 084f 1C       		.byte	28
 2884 0850 E0       		.byte	-32
 2885 0851 40       		.byte	64
 2886 0852 E2       		.byte	-30
 2887 0853 28       		.byte	40
ARM GAS  C:\Users\r\AppData\Local\Temp\cc1ZHhx7.s 			page 93


 2888 0854 E4       		.byte	-28
 2889 0855 10       		.byte	16
 2890 0856 EA       		.byte	-22
 2891 0857 40       		.byte	64
 2892 0858 EE       		.byte	-18
 2893 0859 84       		.byte	-124
 2894 085a 00       		.byte	0
 2895 085b 18       		.byte	24
 2896 085c 02       		.byte	2
 2897 085d 64       		.byte	100
 2898 085e 03       		.byte	3
 2899 085f FF       		.byte	-1
 2900 0860 05       		.byte	5
 2901 0861 FF       		.byte	-1
 2902 0862 06       		.byte	6
 2903 0863 1F       		.byte	31
 2904 0864 08       		.byte	8
 2905 0865 07       		.byte	7
 2906 0866 09       		.byte	9
 2907 0867 0F       		.byte	15
 2908 0868 0B       		.byte	11
 2909 0869 F0       		.byte	-16
 2910 086a 0C       		.byte	12
 2911 086b 38       		.byte	56
 2912 086c 0E       		.byte	14
 2913 086d 47       		.byte	71
 2914 086e 0F       		.byte	15
 2915 086f FF       		.byte	-1
 2916 0870 11       		.byte	17
 2917 0871 55       		.byte	85
 2918 0872 12       		.byte	18
 2919 0873 08       		.byte	8
 2920 0874 13       		.byte	19
 2921 0875 AA       		.byte	-86
 2922 0876 14       		.byte	20
 2923 0877 01       		.byte	1
 2924 0878 16       		.byte	22
 2925 0879 02       		.byte	2
 2926 087a 18       		.byte	24
 2927 087b 01       		.byte	1
 2928 087c 19       		.byte	25
 2929 087d FF       		.byte	-1
 2930 087e 1A       		.byte	26
 2931 087f 02       		.byte	2
 2932 0880 1C       		.byte	28
 2933 0881 10       		.byte	16
 2934 0882 23       		.byte	35
 2935 0883 FF       		.byte	-1
 2936 0884 25       		.byte	37
 2937 0885 69       		.byte	105
 2938 0886 26       		.byte	38
 2939 0887 80       		.byte	-128
 2940 0888 27       		.byte	39
 2941 0889 96       		.byte	-106
 2942 088a 28       		.byte	40
 2943 088b 2B       		.byte	43
 2944 088c 29       		.byte	41
ARM GAS  C:\Users\r\AppData\Local\Temp\cc1ZHhx7.s 			page 94


 2945 088d 33       		.byte	51
 2946 088e 2A       		.byte	42
 2947 088f 50       		.byte	80
 2948 0890 2B       		.byte	43
 2949 0891 CC       		.byte	-52
 2950 0892 2C       		.byte	44
 2951 0893 20       		.byte	32
 2952 0894 2E       		.byte	46
 2953 0895 5F       		.byte	95
 2954 0896 30       		.byte	48
 2955 0897 7C       		.byte	124
 2956 0898 32       		.byte	50
 2957 0899 80       		.byte	-128
 2958 089a 34       		.byte	52
 2959 089b 03       		.byte	3
 2960 089c 35       		.byte	53
 2961 089d FF       		.byte	-1
 2962 089e 3A       		.byte	58
 2963 089f 22       		.byte	34
 2964 08a0 3B       		.byte	59
 2965 08a1 20       		.byte	32
 2966 08a2 56       		.byte	86
 2967 08a3 08       		.byte	8
 2968 08a4 58       		.byte	88
 2969 08a5 04       		.byte	4
 2970 08a6 59       		.byte	89
 2971 08a7 04       		.byte	4
 2972 08a8 5B       		.byte	91
 2973 08a9 04       		.byte	4
 2974 08aa 5C       		.byte	92
 2975 08ab 11       		.byte	17
 2976 08ac 5D       		.byte	93
 2977 08ad 90       		.byte	-112
 2978 08ae 5F       		.byte	95
 2979 08af 01       		.byte	1
 2980 08b0 82       		.byte	-126
 2981 08b1 02       		.byte	2
 2982 08b2 85       		.byte	-123
 2983 08b3 02       		.byte	2
 2984 08b4 87       		.byte	-121
 2985 08b5 30       		.byte	48
 2986 08b6 89       		.byte	-119
 2987 08b7 38       		.byte	56
 2988 08b8 8B       		.byte	-117
 2989 08b9 01       		.byte	1
 2990 08ba 8D       		.byte	-115
 2991 08bb 0C       		.byte	12
 2992 08bc 8F       		.byte	-113
 2993 08bd 31       		.byte	49
 2994 08be 91       		.byte	-111
 2995 08bf 04       		.byte	4
 2996 08c0 93       		.byte	-109
 2997 08c1 31       		.byte	49
 2998 08c2 99       		.byte	-103
 2999 08c3 10       		.byte	16
 3000 08c4 9B       		.byte	-101
 3001 08c5 20       		.byte	32
ARM GAS  C:\Users\r\AppData\Local\Temp\cc1ZHhx7.s 			page 95


 3002 08c6 9E       		.byte	-98
 3003 08c7 01       		.byte	1
 3004 08c8 A5       		.byte	-91
 3005 08c9 30       		.byte	48
 3006 08ca A7       		.byte	-89
 3007 08cb 01       		.byte	1
 3008 08cc AB       		.byte	-85
 3009 08cd 04       		.byte	4
 3010 08ce AD       		.byte	-83
 3011 08cf 10       		.byte	16
 3012 08d0 AF       		.byte	-81
 3013 08d1 20       		.byte	32
 3014 08d2 B4       		.byte	-76
 3015 08d3 01       		.byte	1
 3016 08d4 B5       		.byte	-75
 3017 08d5 30       		.byte	48
 3018 08d6 B6       		.byte	-74
 3019 08d7 02       		.byte	2
 3020 08d8 B7       		.byte	-73
 3021 08d9 0F       		.byte	15
 3022 08da B9       		.byte	-71
 3023 08db 80       		.byte	-128
 3024 08dc BB       		.byte	-69
 3025 08dd 20       		.byte	32
 3026 08de D6       		.byte	-42
 3027 08df 08       		.byte	8
 3028 08e0 D8       		.byte	-40
 3029 08e1 04       		.byte	4
 3030 08e2 D9       		.byte	-39
 3031 08e3 04       		.byte	4
 3032 08e4 DB       		.byte	-37
 3033 08e5 04       		.byte	4
 3034 08e6 DC       		.byte	-36
 3035 08e7 11       		.byte	17
 3036 08e8 DD       		.byte	-35
 3037 08e9 90       		.byte	-112
 3038 08ea DF       		.byte	-33
 3039 08eb 01       		.byte	1
 3040 08ec 00       		.byte	0
 3041 08ed 01       		.byte	1
 3042 08ee 04       		.byte	4
 3043 08ef C8       		.byte	-56
 3044 08f0 05       		.byte	5
 3045 08f1 11       		.byte	17
 3046 08f2 0A       		.byte	10
 3047 08f3 02       		.byte	2
 3048 08f4 0C       		.byte	12
 3049 08f5 04       		.byte	4
 3050 08f6 0E       		.byte	14
 3051 08f7 09       		.byte	9
 3052 08f8 0F       		.byte	15
 3053 08f9 80       		.byte	-128
 3054 08fa 15       		.byte	21
 3055 08fb 90       		.byte	-112
 3056 08fc 16       		.byte	22
 3057 08fd 10       		.byte	16
 3058 08fe 17       		.byte	23
ARM GAS  C:\Users\r\AppData\Local\Temp\cc1ZHhx7.s 			page 96


 3059 08ff 20       		.byte	32
 3060 0900 1A       		.byte	26
 3061 0901 0A       		.byte	10
 3062 0902 1D       		.byte	29
 3063 0903 01       		.byte	1
 3064 0904 1E       		.byte	30
 3065 0905 18       		.byte	24
 3066 0906 1F       		.byte	31
 3067 0907 10       		.byte	16
 3068 0908 20       		.byte	32
 3069 0909 02       		.byte	2
 3070 090a 21       		.byte	33
 3071 090b 40       		.byte	64
 3072 090c 22       		.byte	34
 3073 090d 20       		.byte	32
 3074 090e 25       		.byte	37
 3075 090f 10       		.byte	16
 3076 0910 26       		.byte	38
 3077 0911 10       		.byte	16
 3078 0912 28       		.byte	40
 3079 0913 02       		.byte	2
 3080 0914 2B       		.byte	43
 3081 0915 24       		.byte	36
 3082 0916 2C       		.byte	44
 3083 0917 84       		.byte	-124
 3084 0918 2E       		.byte	46
 3085 0919 08       		.byte	8
 3086 091a 2F       		.byte	47
 3087 091b 40       		.byte	64
 3088 091c 32       		.byte	50
 3089 091d 22       		.byte	34
 3090 091e 34       		.byte	52
 3091 091f 01       		.byte	1
 3092 0920 37       		.byte	55
 3093 0921 20       		.byte	32
 3094 0922 38       		.byte	56
 3095 0923 08       		.byte	8
 3096 0924 39       		.byte	57
 3097 0925 90       		.byte	-112
 3098 0926 3C       		.byte	60
 3099 0927 4A       		.byte	74
 3100 0928 3D       		.byte	61
 3101 0929 20       		.byte	32
 3102 092a 59       		.byte	89
 3103 092b 88       		.byte	-120
 3104 092c 5A       		.byte	90
 3105 092d 20       		.byte	32
 3106 092e 5C       		.byte	92
 3107 092f A0       		.byte	-96
 3108 0930 5D       		.byte	93
 3109 0931 04       		.byte	4
 3110 0932 60       		.byte	96
 3111 0933 0C       		.byte	12
 3112 0934 62       		.byte	98
 3113 0935 44       		.byte	68
 3114 0936 64       		.byte	100
 3115 0937 04       		.byte	4
ARM GAS  C:\Users\r\AppData\Local\Temp\cc1ZHhx7.s 			page 97


 3116 0938 66       		.byte	102
 3117 0939 88       		.byte	-120
 3118 093a 81       		.byte	-127
 3119 093b 09       		.byte	9
 3120 093c 83       		.byte	-125
 3121 093d 01       		.byte	1
 3122 093e 86       		.byte	-122
 3123 093f 20       		.byte	32
 3124 0940 88       		.byte	-120
 3125 0941 60       		.byte	96
 3126 0942 89       		.byte	-119
 3127 0943 80       		.byte	-128
 3128 0944 8B       		.byte	-117
 3129 0945 10       		.byte	16
 3130 0946 8D       		.byte	-115
 3131 0947 40       		.byte	64
 3132 0948 8F       		.byte	-113
 3133 0949 04       		.byte	4
 3134 094a 90       		.byte	-112
 3135 094b 01       		.byte	1
 3136 094c 91       		.byte	-111
 3137 094d 0C       		.byte	12
 3138 094e 92       		.byte	-110
 3139 094f 05       		.byte	5
 3140 0950 93       		.byte	-109
 3141 0951 08       		.byte	8
 3142 0952 94       		.byte	-108
 3143 0953 40       		.byte	64
 3144 0954 95       		.byte	-107
 3145 0955 C0       		.byte	-64
 3146 0956 98       		.byte	-104
 3147 0957 81       		.byte	-127
 3148 0958 99       		.byte	-103
 3149 0959 08       		.byte	8
 3150 095a 9A       		.byte	-102
 3151 095b 10       		.byte	16
 3152 095c 9B       		.byte	-101
 3153 095d 20       		.byte	32
 3154 095e 9C       		.byte	-100
 3155 095f 08       		.byte	8
 3156 0960 9D       		.byte	-99
 3157 0961 40       		.byte	64
 3158 0962 9E       		.byte	-98
 3159 0963 CE       		.byte	-50
 3160 0964 9F       		.byte	-97
 3161 0965 08       		.byte	8
 3162 0966 A3       		.byte	-93
 3163 0967 08       		.byte	8
 3164 0968 A4       		.byte	-92
 3165 0969 8E       		.byte	-114
 3166 096a A5       		.byte	-91
 3167 096b 04       		.byte	4
 3168 096c A6       		.byte	-90
 3169 096d 02       		.byte	2
 3170 096e A7       		.byte	-89
 3171 096f 20       		.byte	32
 3172 0970 A9       		.byte	-87
ARM GAS  C:\Users\r\AppData\Local\Temp\cc1ZHhx7.s 			page 98


 3173 0971 04       		.byte	4
 3174 0972 AA       		.byte	-86
 3175 0973 30       		.byte	48
 3176 0974 B1       		.byte	-79
 3177 0975 80       		.byte	-128
 3178 0976 B3       		.byte	-77
 3179 0977 01       		.byte	1
 3180 0978 B4       		.byte	-76
 3181 0979 80       		.byte	-128
 3182 097a C0       		.byte	-64
 3183 097b F8       		.byte	-8
 3184 097c C2       		.byte	-62
 3185 097d F1       		.byte	-15
 3186 097e C4       		.byte	-60
 3187 097f E0       		.byte	-32
 3188 0980 CA       		.byte	-54
 3189 0981 EE       		.byte	-18
 3190 0982 CC       		.byte	-52
 3191 0983 A5       		.byte	-91
 3192 0984 CE       		.byte	-50
 3193 0985 FE       		.byte	-2
 3194 0986 D6       		.byte	-42
 3195 0987 7E       		.byte	126
 3196 0988 D8       		.byte	-40
 3197 0989 7E       		.byte	126
 3198 098a E0       		.byte	-32
 3199 098b 40       		.byte	64
 3200 098c E2       		.byte	-30
 3201 098d 20       		.byte	32
 3202 098e E4       		.byte	-28
 3203 098f 21       		.byte	33
 3204 0990 EC       		.byte	-20
 3205 0991 02       		.byte	2
 3206 0992 EE       		.byte	-18
 3207 0993 20       		.byte	32
 3208 0994 01       		.byte	1
 3209 0995 10       		.byte	16
 3210 0996 03       		.byte	3
 3211 0997 20       		.byte	32
 3212 0998 05       		.byte	5
 3213 0999 01       		.byte	1
 3214 099a 07       		.byte	7
 3215 099b 02       		.byte	2
 3216 099c 09       		.byte	9
 3217 099d 3F       		.byte	63
 3218 099e 0F       		.byte	15
 3219 099f 3F       		.byte	63
 3220 09a0 13       		.byte	19
 3221 09a1 3F       		.byte	63
 3222 09a2 19       		.byte	25
 3223 09a3 3F       		.byte	63
 3224 09a4 1F       		.byte	31
 3225 09a5 3F       		.byte	63
 3226 09a6 21       		.byte	33
 3227 09a7 01       		.byte	1
 3228 09a8 23       		.byte	35
 3229 09a9 02       		.byte	2
ARM GAS  C:\Users\r\AppData\Local\Temp\cc1ZHhx7.s 			page 99


 3230 09aa 25       		.byte	37
 3231 09ab 04       		.byte	4
 3232 09ac 26       		.byte	38
 3233 09ad 01       		.byte	1
 3234 09ae 27       		.byte	39
 3235 09af 08       		.byte	8
 3236 09b0 29       		.byte	41
 3237 09b1 10       		.byte	16
 3238 09b2 2A       		.byte	42
 3239 09b3 02       		.byte	2
 3240 09b4 2B       		.byte	43
 3241 09b5 20       		.byte	32
 3242 09b6 2C       		.byte	44
 3243 09b7 01       		.byte	1
 3244 09b8 2D       		.byte	45
 3245 09b9 04       		.byte	4
 3246 09ba 2E       		.byte	46
 3247 09bb 02       		.byte	2
 3248 09bc 2F       		.byte	47
 3249 09bd 08       		.byte	8
 3250 09be 32       		.byte	50
 3251 09bf 03       		.byte	3
 3252 09c0 33       		.byte	51
 3253 09c1 03       		.byte	3
 3254 09c2 35       		.byte	53
 3255 09c3 0C       		.byte	12
 3256 09c4 37       		.byte	55
 3257 09c5 30       		.byte	48
 3258 09c6 3B       		.byte	59
 3259 09c7 A8       		.byte	-88
 3260 09c8 3E       		.byte	62
 3261 09c9 04       		.byte	4
 3262 09ca 56       		.byte	86
 3263 09cb 08       		.byte	8
 3264 09cc 58       		.byte	88
 3265 09cd 04       		.byte	4
 3266 09ce 59       		.byte	89
 3267 09cf 04       		.byte	4
 3268 09d0 5B       		.byte	91
 3269 09d1 04       		.byte	4
 3270 09d2 5C       		.byte	92
 3271 09d3 10       		.byte	16
 3272 09d4 5D       		.byte	93
 3273 09d5 90       		.byte	-112
 3274 09d6 5F       		.byte	95
 3275 09d7 01       		.byte	1
 3276 09d8 80       		.byte	-128
 3277 09d9 02       		.byte	2
 3278 09da 82       		.byte	-126
 3279 09db 01       		.byte	1
 3280 09dc 83       		.byte	-125
 3281 09dd 20       		.byte	32
 3282 09de 85       		.byte	-123
 3283 09df C1       		.byte	-63
 3284 09e0 86       		.byte	-122
 3285 09e1 70       		.byte	112
 3286 09e2 88       		.byte	-120
ARM GAS  C:\Users\r\AppData\Local\Temp\cc1ZHhx7.s 			page 100


 3287 09e3 40       		.byte	64
 3288 09e4 8A       		.byte	-118
 3289 09e5 80       		.byte	-128
 3290 09e6 8C       		.byte	-116
 3291 09e7 02       		.byte	2
 3292 09e8 8D       		.byte	-115
 3293 09e9 28       		.byte	40
 3294 09ea 8E       		.byte	-114
 3295 09eb 09       		.byte	9
 3296 09ec 8F       		.byte	-113
 3297 09ed D5       		.byte	-43
 3298 09ee 90       		.byte	-112
 3299 09ef 02       		.byte	2
 3300 09f0 91       		.byte	-111
 3301 09f1 40       		.byte	64
 3302 09f2 92       		.byte	-110
 3303 09f3 01       		.byte	1
 3304 09f4 93       		.byte	-109
 3305 09f5 80       		.byte	-128
 3306 09f6 94       		.byte	-108
 3307 09f7 01       		.byte	1
 3308 09f8 96       		.byte	-106
 3309 09f9 02       		.byte	2
 3310 09fa 97       		.byte	-105
 3311 09fb FF       		.byte	-1
 3312 09fc 99       		.byte	-103
 3313 09fd D2       		.byte	-46
 3314 09fe 9A       		.byte	-102
 3315 09ff 80       		.byte	-128
 3316 0a00 9B       		.byte	-101
 3317 0a01 2C       		.byte	44
 3318 0a02 9C       		.byte	-100
 3319 0a03 02       		.byte	2
 3320 0a04 9E       		.byte	-98
 3321 0a05 05       		.byte	5
 3322 0a06 A1       		.byte	-95
 3323 0a07 1A       		.byte	26
 3324 0a08 A3       		.byte	-93
 3325 0a09 E5       		.byte	-27
 3326 0a0a A5       		.byte	-91
 3327 0a0b 40       		.byte	64
 3328 0a0c A7       		.byte	-89
 3329 0a0d 80       		.byte	-128
 3330 0a0e A8       		.byte	-88
 3331 0a0f A0       		.byte	-96
 3332 0a10 A9       		.byte	-87
 3333 0a11 06       		.byte	6
 3334 0a12 AA       		.byte	-86
 3335 0a13 50       		.byte	80
 3336 0a14 AC       		.byte	-84
 3337 0a15 90       		.byte	-112
 3338 0a16 AD       		.byte	-83
 3339 0a17 08       		.byte	8
 3340 0a18 AE       		.byte	-82
 3341 0a19 20       		.byte	32
 3342 0a1a B0       		.byte	-80
 3343 0a1b 04       		.byte	4
ARM GAS  C:\Users\r\AppData\Local\Temp\cc1ZHhx7.s 			page 101


 3344 0a1c B2       		.byte	-78
 3345 0a1d 03       		.byte	3
 3346 0a1e B3       		.byte	-77
 3347 0a1f 3F       		.byte	63
 3348 0a20 B4       		.byte	-76
 3349 0a21 F0       		.byte	-16
 3350 0a22 B6       		.byte	-74
 3351 0a23 08       		.byte	8
 3352 0a24 B7       		.byte	-73
 3353 0a25 C0       		.byte	-64
 3354 0a26 BA       		.byte	-70
 3355 0a27 08       		.byte	8
 3356 0a28 BB       		.byte	-69
 3357 0a29 80       		.byte	-128
 3358 0a2a D6       		.byte	-42
 3359 0a2b 08       		.byte	8
 3360 0a2c D8       		.byte	-40
 3361 0a2d 04       		.byte	4
 3362 0a2e D9       		.byte	-39
 3363 0a2f 04       		.byte	4
 3364 0a30 DB       		.byte	-37
 3365 0a31 04       		.byte	4
 3366 0a32 DC       		.byte	-36
 3367 0a33 11       		.byte	17
 3368 0a34 DD       		.byte	-35
 3369 0a35 90       		.byte	-112
 3370 0a36 DF       		.byte	-33
 3371 0a37 01       		.byte	1
 3372 0a38 04       		.byte	4
 3373 0a39 04       		.byte	4
 3374 0a3a 05       		.byte	5
 3375 0a3b 40       		.byte	64
 3376 0a3c 06       		.byte	6
 3377 0a3d 80       		.byte	-128
 3378 0a3e 07       		.byte	7
 3379 0a3f 04       		.byte	4
 3380 0a40 0D       		.byte	13
 3381 0a41 0C       		.byte	12
 3382 0a42 0E       		.byte	14
 3383 0a43 4A       		.byte	74
 3384 0a44 10       		.byte	16
 3385 0a45 0A       		.byte	10
 3386 0a46 11       		.byte	17
 3387 0a47 08       		.byte	8
 3388 0a48 15       		.byte	21
 3389 0a49 80       		.byte	-128
 3390 0a4a 17       		.byte	23
 3391 0a4b 20       		.byte	32
 3392 0a4c 1B       		.byte	27
 3393 0a4d 08       		.byte	8
 3394 0a4e 1C       		.byte	28
 3395 0a4f 04       		.byte	4
 3396 0a50 1D       		.byte	29
 3397 0a51 08       		.byte	8
 3398 0a52 1E       		.byte	30
 3399 0a53 46       		.byte	70
 3400 0a54 20       		.byte	32
ARM GAS  C:\Users\r\AppData\Local\Temp\cc1ZHhx7.s 			page 102


 3401 0a55 02       		.byte	2
 3402 0a56 22       		.byte	34
 3403 0a57 24       		.byte	36
 3404 0a58 23       		.byte	35
 3405 0a59 01       		.byte	1
 3406 0a5a 24       		.byte	36
 3407 0a5b 10       		.byte	16
 3408 0a5c 27       		.byte	39
 3409 0a5d 21       		.byte	33
 3410 0a5e 28       		.byte	40
 3411 0a5f 48       		.byte	72
 3412 0a60 29       		.byte	41
 3413 0a61 04       		.byte	4
 3414 0a62 2A       		.byte	42
 3415 0a63 40       		.byte	64
 3416 0a64 2D       		.byte	45
 3417 0a65 60       		.byte	96
 3418 0a66 2E       		.byte	46
 3419 0a67 0A       		.byte	10
 3420 0a68 30       		.byte	48
 3421 0a69 80       		.byte	-128
 3422 0a6a 32       		.byte	50
 3423 0a6b 02       		.byte	2
 3424 0a6c 33       		.byte	51
 3425 0a6d 20       		.byte	32
 3426 0a6e 37       		.byte	55
 3427 0a6f 29       		.byte	41
 3428 0a70 38       		.byte	56
 3429 0a71 10       		.byte	16
 3430 0a72 39       		.byte	57
 3431 0a73 80       		.byte	-128
 3432 0a74 3A       		.byte	58
 3433 0a75 04       		.byte	4
 3434 0a76 3B       		.byte	59
 3435 0a77 01       		.byte	1
 3436 0a78 3C       		.byte	60
 3437 0a79 48       		.byte	72
 3438 0a7a 3E       		.byte	62
 3439 0a7b 01       		.byte	1
 3440 0a7c 5B       		.byte	91
 3441 0a7d 40       		.byte	64
 3442 0a7e 5D       		.byte	93
 3443 0a7f 80       		.byte	-128
 3444 0a80 5E       		.byte	94
 3445 0a81 10       		.byte	16
 3446 0a82 60       		.byte	96
 3447 0a83 01       		.byte	1
 3448 0a84 64       		.byte	100
 3449 0a85 01       		.byte	1
 3450 0a86 66       		.byte	102
 3451 0a87 10       		.byte	16
 3452 0a88 67       		.byte	103
 3453 0a89 08       		.byte	8
 3454 0a8a 81       		.byte	-127
 3455 0a8b 28       		.byte	40
 3456 0a8c 83       		.byte	-125
 3457 0a8d 20       		.byte	32
ARM GAS  C:\Users\r\AppData\Local\Temp\cc1ZHhx7.s 			page 103


 3458 0a8e 84       		.byte	-124
 3459 0a8f 01       		.byte	1
 3460 0a90 86       		.byte	-122
 3461 0a91 01       		.byte	1
 3462 0a92 88       		.byte	-120
 3463 0a93 40       		.byte	64
 3464 0a94 89       		.byte	-119
 3465 0a95 04       		.byte	4
 3466 0a96 8A       		.byte	-118
 3467 0a97 04       		.byte	4
 3468 0a98 8E       		.byte	-114
 3469 0a99 06       		.byte	6
 3470 0a9a 8F       		.byte	-113
 3471 0a9b 44       		.byte	68
 3472 0a9c C0       		.byte	-64
 3473 0a9d F0       		.byte	-16
 3474 0a9e C2       		.byte	-62
 3475 0a9f F0       		.byte	-16
 3476 0aa0 C4       		.byte	-60
 3477 0aa1 C7       		.byte	-57
 3478 0aa2 CA       		.byte	-54
 3479 0aa3 FF       		.byte	-1
 3480 0aa4 CC       		.byte	-52
 3481 0aa5 ED       		.byte	-19
 3482 0aa6 CE       		.byte	-50
 3483 0aa7 DF       		.byte	-33
 3484 0aa8 D6       		.byte	-42
 3485 0aa9 38       		.byte	56
 3486 0aaa D8       		.byte	-40
 3487 0aab 38       		.byte	56
 3488 0aac E0       		.byte	-32
 3489 0aad 50       		.byte	80
 3490 0aae E2       		.byte	-30
 3491 0aaf 80       		.byte	-128
 3492 0ab0 E6       		.byte	-26
 3493 0ab1 04       		.byte	4
 3494 0ab2 00       		.byte	0
 3495 0ab3 C6       		.byte	-58
 3496 0ab4 01       		.byte	1
 3497 0ab5 01       		.byte	1
 3498 0ab6 04       		.byte	4
 3499 0ab7 84       		.byte	-124
 3500 0ab8 05       		.byte	5
 3501 0ab9 01       		.byte	1
 3502 0aba 08       		.byte	8
 3503 0abb 19       		.byte	25
 3504 0abc 09       		.byte	9
 3505 0abd 01       		.byte	1
 3506 0abe 0A       		.byte	10
 3507 0abf E6       		.byte	-26
 3508 0ac0 0C       		.byte	12
 3509 0ac1 C6       		.byte	-58
 3510 0ac2 0F       		.byte	15
 3511 0ac3 02       		.byte	2
 3512 0ac4 10       		.byte	16
 3513 0ac5 42       		.byte	66
 3514 0ac6 13       		.byte	19
ARM GAS  C:\Users\r\AppData\Local\Temp\cc1ZHhx7.s 			page 104


 3515 0ac7 01       		.byte	1
 3516 0ac8 18       		.byte	24
 3517 0ac9 01       		.byte	1
 3518 0aca 1A       		.byte	26
 3519 0acb FE       		.byte	-2
 3520 0acc 1C       		.byte	28
 3521 0acd 17       		.byte	23
 3522 0ace 1E       		.byte	30
 3523 0acf 28       		.byte	40
 3524 0ad0 20       		.byte	32
 3525 0ad1 C6       		.byte	-58
 3526 0ad2 21       		.byte	33
 3527 0ad3 01       		.byte	1
 3528 0ad4 24       		.byte	36
 3529 0ad5 42       		.byte	66
 3530 0ad6 26       		.byte	38
 3531 0ad7 84       		.byte	-124
 3532 0ad8 2A       		.byte	42
 3533 0ad9 C6       		.byte	-58
 3534 0ada 30       		.byte	48
 3535 0adb 01       		.byte	1
 3536 0adc 34       		.byte	52
 3537 0add 0F       		.byte	15
 3538 0ade 35       		.byte	53
 3539 0adf 02       		.byte	2
 3540 0ae0 36       		.byte	54
 3541 0ae1 F0       		.byte	-16
 3542 0ae2 37       		.byte	55
 3543 0ae3 01       		.byte	1
 3544 0ae4 38       		.byte	56
 3545 0ae5 20       		.byte	32
 3546 0ae6 3E       		.byte	62
 3547 0ae7 01       		.byte	1
 3548 0ae8 3F       		.byte	63
 3549 0ae9 40       		.byte	64
 3550 0aea 40       		.byte	64
 3551 0aeb 26       		.byte	38
 3552 0aec 41       		.byte	65
 3553 0aed 01       		.byte	1
 3554 0aee 42       		.byte	66
 3555 0aef 50       		.byte	80
 3556 0af0 44       		.byte	68
 3557 0af1 04       		.byte	4
 3558 0af2 45       		.byte	69
 3559 0af3 FE       		.byte	-2
 3560 0af4 46       		.byte	70
 3561 0af5 C0       		.byte	-64
 3562 0af6 47       		.byte	71
 3563 0af7 DB       		.byte	-37
 3564 0af8 48       		.byte	72
 3565 0af9 3B       		.byte	59
 3566 0afa 49       		.byte	73
 3567 0afb FF       		.byte	-1
 3568 0afc 4A       		.byte	74
 3569 0afd FF       		.byte	-1
 3570 0afe 4B       		.byte	75
 3571 0aff FF       		.byte	-1
ARM GAS  C:\Users\r\AppData\Local\Temp\cc1ZHhx7.s 			page 105


 3572 0b00 4C       		.byte	76
 3573 0b01 22       		.byte	34
 3574 0b02 4E       		.byte	78
 3575 0b03 F0       		.byte	-16
 3576 0b04 4F       		.byte	79
 3577 0b05 08       		.byte	8
 3578 0b06 50       		.byte	80
 3579 0b07 04       		.byte	4
 3580 0b08 56       		.byte	86
 3581 0b09 02       		.byte	2
 3582 0b0a 57       		.byte	87
 3583 0b0b 24       		.byte	36
 3584 0b0c 58       		.byte	88
 3585 0b0d 04       		.byte	4
 3586 0b0e 59       		.byte	89
 3587 0b0f 04       		.byte	4
 3588 0b10 5A       		.byte	90
 3589 0b11 04       		.byte	4
 3590 0b12 5B       		.byte	91
 3591 0b13 04       		.byte	4
 3592 0b14 5C       		.byte	92
 3593 0b15 10       		.byte	16
 3594 0b16 5F       		.byte	95
 3595 0b17 01       		.byte	1
 3596 0b18 62       		.byte	98
 3597 0b19 C0       		.byte	-64
 3598 0b1a 64       		.byte	100
 3599 0b1b 40       		.byte	64
 3600 0b1c 65       		.byte	101
 3601 0b1d 01       		.byte	1
 3602 0b1e 66       		.byte	102
 3603 0b1f 10       		.byte	16
 3604 0b20 67       		.byte	103
 3605 0b21 11       		.byte	17
 3606 0b22 68       		.byte	104
 3607 0b23 C0       		.byte	-64
 3608 0b24 69       		.byte	105
 3609 0b25 01       		.byte	1
 3610 0b26 6B       		.byte	107
 3611 0b27 11       		.byte	17
 3612 0b28 6C       		.byte	108
 3613 0b29 40       		.byte	64
 3614 0b2a 6D       		.byte	109
 3615 0b2b 01       		.byte	1
 3616 0b2c 6E       		.byte	110
 3617 0b2d 40       		.byte	64
 3618 0b2e 6F       		.byte	111
 3619 0b2f 01       		.byte	1
 3620 0b30 80       		.byte	-128
 3621 0b31 01       		.byte	1
 3622 0b32 82       		.byte	-126
 3623 0b33 02       		.byte	2
 3624 0b34 84       		.byte	-124
 3625 0b35 04       		.byte	4
 3626 0b36 85       		.byte	-123
 3627 0b37 02       		.byte	2
 3628 0b38 86       		.byte	-122
ARM GAS  C:\Users\r\AppData\Local\Temp\cc1ZHhx7.s 			page 106


 3629 0b39 03       		.byte	3
 3630 0b3a 87       		.byte	-121
 3631 0b3b 01       		.byte	1
 3632 0b3c 8A       		.byte	-118
 3633 0b3d 02       		.byte	2
 3634 0b3e 92       		.byte	-110
 3635 0b3f 0C       		.byte	12
 3636 0b40 98       		.byte	-104
 3637 0b41 08       		.byte	8
 3638 0b42 9A       		.byte	-102
 3639 0b43 03       		.byte	3
 3640 0b44 9D       		.byte	-99
 3641 0b45 06       		.byte	6
 3642 0b46 A1       		.byte	-95
 3643 0b47 01       		.byte	1
 3644 0b48 A3       		.byte	-93
 3645 0b49 02       		.byte	2
 3646 0b4a A5       		.byte	-91
 3647 0b4b 01       		.byte	1
 3648 0b4c A6       		.byte	-90
 3649 0b4d 01       		.byte	1
 3650 0b4e A7       		.byte	-89
 3651 0b4f 04       		.byte	4
 3652 0b50 B0       		.byte	-80
 3653 0b51 0F       		.byte	15
 3654 0b52 B1       		.byte	-79
 3655 0b53 07       		.byte	7
 3656 0b54 B9       		.byte	-71
 3657 0b55 02       		.byte	2
 3658 0b56 D8       		.byte	-40
 3659 0b57 04       		.byte	4
 3660 0b58 D9       		.byte	-39
 3661 0b59 04       		.byte	4
 3662 0b5a DF       		.byte	-33
 3663 0b5b 01       		.byte	1
 3664 0b5c 01       		.byte	1
 3665 0b5d 61       		.byte	97
 3666 0b5e 02       		.byte	2
 3667 0b5f 10       		.byte	16
 3668 0b60 03       		.byte	3
 3669 0b61 10       		.byte	16
 3670 0b62 04       		.byte	4
 3671 0b63 0A       		.byte	10
 3672 0b64 06       		.byte	6
 3673 0b65 04       		.byte	4
 3674 0b66 09       		.byte	9
 3675 0b67 02       		.byte	2
 3676 0b68 0A       		.byte	10
 3677 0b69 02       		.byte	2
 3678 0b6a 0B       		.byte	11
 3679 0b6b 04       		.byte	4
 3680 0b6c 0E       		.byte	14
 3681 0b6d 80       		.byte	-128
 3682 0b6e 0F       		.byte	15
 3683 0b6f 04       		.byte	4
 3684 0b70 11       		.byte	17
 3685 0b71 14       		.byte	20
ARM GAS  C:\Users\r\AppData\Local\Temp\cc1ZHhx7.s 			page 107


 3686 0b72 13       		.byte	19
 3687 0b73 01       		.byte	1
 3688 0b74 17       		.byte	23
 3689 0b75 08       		.byte	8
 3690 0b76 18       		.byte	24
 3691 0b77 0A       		.byte	10
 3692 0b78 19       		.byte	25
 3693 0b79 20       		.byte	32
 3694 0b7a 1A       		.byte	26
 3695 0b7b 02       		.byte	2
 3696 0b7c 1B       		.byte	27
 3697 0b7d E1       		.byte	-31
 3698 0b7e 1E       		.byte	30
 3699 0b7f 80       		.byte	-128
 3700 0b80 20       		.byte	32
 3701 0b81 02       		.byte	2
 3702 0b82 22       		.byte	34
 3703 0b83 20       		.byte	32
 3704 0b84 23       		.byte	35
 3705 0b85 02       		.byte	2
 3706 0b86 27       		.byte	39
 3707 0b87 40       		.byte	64
 3708 0b88 2A       		.byte	42
 3709 0b89 02       		.byte	2
 3710 0b8a 2F       		.byte	47
 3711 0b8b A0       		.byte	-96
 3712 0b8c 33       		.byte	51
 3713 0b8d 01       		.byte	1
 3714 0b8e 37       		.byte	55
 3715 0b8f 40       		.byte	64
 3716 0b90 38       		.byte	56
 3717 0b91 40       		.byte	64
 3718 0b92 39       		.byte	57
 3719 0b93 15       		.byte	21
 3720 0b94 3F       		.byte	63
 3721 0b95 04       		.byte	4
 3722 0b96 40       		.byte	64
 3723 0b97 80       		.byte	-128
 3724 0b98 43       		.byte	67
 3725 0b99 A0       		.byte	-96
 3726 0b9a 48       		.byte	72
 3727 0b9b 05       		.byte	5
 3728 0b9c 49       		.byte	73
 3729 0b9d 05       		.byte	5
 3730 0b9e 50       		.byte	80
 3731 0b9f 02       		.byte	2
 3732 0ba0 52       		.byte	82
 3733 0ba1 1C       		.byte	28
 3734 0ba2 60       		.byte	96
 3735 0ba3 04       		.byte	4
 3736 0ba4 68       		.byte	104
 3737 0ba5 10       		.byte	16
 3738 0ba6 69       		.byte	105
 3739 0ba7 55       		.byte	85
 3740 0ba8 6B       		.byte	107
 3741 0ba9 81       		.byte	-127
 3742 0baa 72       		.byte	114
ARM GAS  C:\Users\r\AppData\Local\Temp\cc1ZHhx7.s 			page 108


 3743 0bab 02       		.byte	2
 3744 0bac 73       		.byte	115
 3745 0bad 01       		.byte	1
 3746 0bae 80       		.byte	-128
 3747 0baf 80       		.byte	-128
 3748 0bb0 88       		.byte	-120
 3749 0bb1 04       		.byte	4
 3750 0bb2 89       		.byte	-119
 3751 0bb3 01       		.byte	1
 3752 0bb4 8D       		.byte	-115
 3753 0bb5 01       		.byte	1
 3754 0bb6 90       		.byte	-112
 3755 0bb7 44       		.byte	68
 3756 0bb8 93       		.byte	-109
 3757 0bb9 04       		.byte	4
 3758 0bba 94       		.byte	-108
 3759 0bbb 08       		.byte	8
 3760 0bbc 95       		.byte	-107
 3761 0bbd 55       		.byte	85
 3762 0bbe 96       		.byte	-106
 3763 0bbf 02       		.byte	2
 3764 0bc0 97       		.byte	-105
 3765 0bc1 01       		.byte	1
 3766 0bc2 9B       		.byte	-101
 3767 0bc3 08       		.byte	8
 3768 0bc4 9C       		.byte	-100
 3769 0bc5 04       		.byte	4
 3770 0bc6 9D       		.byte	-99
 3771 0bc7 04       		.byte	4
 3772 0bc8 9E       		.byte	-98
 3773 0bc9 12       		.byte	18
 3774 0bca 9F       		.byte	-97
 3775 0bcb D2       		.byte	-46
 3776 0bcc A0       		.byte	-96
 3777 0bcd 04       		.byte	4
 3778 0bce A1       		.byte	-95
 3779 0bcf 02       		.byte	2
 3780 0bd0 A4       		.byte	-92
 3781 0bd1 12       		.byte	18
 3782 0bd2 A6       		.byte	-90
 3783 0bd3 68       		.byte	104
 3784 0bd4 A7       		.byte	-89
 3785 0bd5 E1       		.byte	-31
 3786 0bd6 AE       		.byte	-82
 3787 0bd7 48       		.byte	72
 3788 0bd8 B1       		.byte	-79
 3789 0bd9 08       		.byte	8
 3790 0bda B6       		.byte	-74
 3791 0bdb 20       		.byte	32
 3792 0bdc C0       		.byte	-64
 3793 0bdd 7F       		.byte	127
 3794 0bde C2       		.byte	-62
 3795 0bdf 5B       		.byte	91
 3796 0be0 C4       		.byte	-60
 3797 0be1 2E       		.byte	46
 3798 0be2 CA       		.byte	-54
 3799 0be3 C1       		.byte	-63
ARM GAS  C:\Users\r\AppData\Local\Temp\cc1ZHhx7.s 			page 109


 3800 0be4 CC       		.byte	-52
 3801 0be5 11       		.byte	17
 3802 0be6 CE       		.byte	-50
 3803 0be7 4F       		.byte	79
 3804 0be8 D0       		.byte	-48
 3805 0be9 0D       		.byte	13
 3806 0bea D2       		.byte	-46
 3807 0beb 0C       		.byte	12
 3808 0bec D8       		.byte	-40
 3809 0bed 04       		.byte	4
 3810 0bee 00       		.byte	0
 3811 0bef 1C       		.byte	28
 3812 0bf0 01       		.byte	1
 3813 0bf1 01       		.byte	1
 3814 0bf2 04       		.byte	4
 3815 0bf3 02       		.byte	2
 3816 0bf4 05       		.byte	5
 3817 0bf5 22       		.byte	34
 3818 0bf6 06       		.byte	6
 3819 0bf7 09       		.byte	9
 3820 0bf8 07       		.byte	7
 3821 0bf9 08       		.byte	8
 3822 0bfa 09       		.byte	9
 3823 0bfb 01       		.byte	1
 3824 0bfc 0A       		.byte	10
 3825 0bfd 1C       		.byte	28
 3826 0bfe 0C       		.byte	12
 3827 0bff 02       		.byte	2
 3828 0c00 0D       		.byte	13
 3829 0c01 04       		.byte	4
 3830 0c02 0E       		.byte	14
 3831 0c03 01       		.byte	1
 3832 0c04 10       		.byte	16
 3833 0c05 05       		.byte	5
 3834 0c06 11       		.byte	17
 3835 0c07 01       		.byte	1
 3836 0c08 12       		.byte	18
 3837 0c09 02       		.byte	2
 3838 0c0a 15       		.byte	21
 3839 0c0b 10       		.byte	16
 3840 0c0c 17       		.byte	23
 3841 0c0d 80       		.byte	-128
 3842 0c0e 18       		.byte	24
 3843 0c0f 13       		.byte	19
 3844 0c10 19       		.byte	25
 3845 0c11 40       		.byte	64
 3846 0c12 1C       		.byte	28
 3847 0c13 01       		.byte	1
 3848 0c14 1D       		.byte	29
 3849 0c15 01       		.byte	1
 3850 0c16 20       		.byte	32
 3851 0c17 01       		.byte	1
 3852 0c18 21       		.byte	33
 3853 0c19 07       		.byte	7
 3854 0c1a 23       		.byte	35
 3855 0c1b 18       		.byte	24
 3856 0c1c 24       		.byte	36
ARM GAS  C:\Users\r\AppData\Local\Temp\cc1ZHhx7.s 			page 110


 3857 0c1d 01       		.byte	1
 3858 0c1e 25       		.byte	37
 3859 0c1f 08       		.byte	8
 3860 0c20 27       		.byte	39
 3861 0c21 21       		.byte	33
 3862 0c22 28       		.byte	40
 3863 0c23 01       		.byte	1
 3864 0c24 29       		.byte	41
 3865 0c25 40       		.byte	64
 3866 0c26 2D       		.byte	45
 3867 0c27 01       		.byte	1
 3868 0c28 2E       		.byte	46
 3869 0c29 01       		.byte	1
 3870 0c2a 30       		.byte	48
 3871 0c2b 03       		.byte	3
 3872 0c2c 33       		.byte	51
 3873 0c2d 3F       		.byte	63
 3874 0c2e 34       		.byte	52
 3875 0c2f 1C       		.byte	28
 3876 0c30 35       		.byte	53
 3877 0c31 80       		.byte	-128
 3878 0c32 37       		.byte	55
 3879 0c33 40       		.byte	64
 3880 0c34 39       		.byte	57
 3881 0c35 88       		.byte	-120
 3882 0c36 3A       		.byte	58
 3883 0c37 02       		.byte	2
 3884 0c38 3E       		.byte	62
 3885 0c39 10       		.byte	16
 3886 0c3a 3F       		.byte	63
 3887 0c3b 04       		.byte	4
 3888 0c3c 58       		.byte	88
 3889 0c3d 04       		.byte	4
 3890 0c3e 59       		.byte	89
 3891 0c3f 04       		.byte	4
 3892 0c40 5B       		.byte	91
 3893 0c41 04       		.byte	4
 3894 0c42 5F       		.byte	95
 3895 0c43 01       		.byte	1
 3896 0c44 80       		.byte	-128
 3897 0c45 C0       		.byte	-64
 3898 0c46 82       		.byte	-126
 3899 0c47 02       		.byte	2
 3900 0c48 86       		.byte	-122
 3901 0c49 FF       		.byte	-1
 3902 0c4a 8A       		.byte	-118
 3903 0c4b 9F       		.byte	-97
 3904 0c4c 8B       		.byte	-117
 3905 0c4d 01       		.byte	1
 3906 0c4e 8C       		.byte	-116
 3907 0c4f 90       		.byte	-112
 3908 0c50 8E       		.byte	-114
 3909 0c51 40       		.byte	64
 3910 0c52 90       		.byte	-112
 3911 0c53 80       		.byte	-128
 3912 0c54 98       		.byte	-104
 3913 0c55 7F       		.byte	127
ARM GAS  C:\Users\r\AppData\Local\Temp\cc1ZHhx7.s 			page 111


 3914 0c56 9A       		.byte	-102
 3915 0c57 80       		.byte	-128
 3916 0c58 9C       		.byte	-100
 3917 0c59 1F       		.byte	31
 3918 0c5a 9E       		.byte	-98
 3919 0c5b 20       		.byte	32
 3920 0c5c A0       		.byte	-96
 3921 0c5d C0       		.byte	-64
 3922 0c5e A2       		.byte	-94
 3923 0c5f 01       		.byte	1
 3924 0c60 A4       		.byte	-92
 3925 0c61 C0       		.byte	-64
 3926 0c62 A6       		.byte	-90
 3927 0c63 04       		.byte	4
 3928 0c64 A8       		.byte	-88
 3929 0c65 C0       		.byte	-64
 3930 0c66 AA       		.byte	-86
 3931 0c67 08       		.byte	8
 3932 0c68 AE       		.byte	-82
 3933 0c69 60       		.byte	96
 3934 0c6a B1       		.byte	-79
 3935 0c6b 01       		.byte	1
 3936 0c6c B4       		.byte	-76
 3937 0c6d FF       		.byte	-1
 3938 0c6e BE       		.byte	-66
 3939 0c6f 10       		.byte	16
 3940 0c70 D4       		.byte	-44
 3941 0c71 09       		.byte	9
 3942 0c72 D6       		.byte	-42
 3943 0c73 04       		.byte	4
 3944 0c74 D8       		.byte	-40
 3945 0c75 04       		.byte	4
 3946 0c76 D9       		.byte	-39
 3947 0c77 04       		.byte	4
 3948 0c78 DB       		.byte	-37
 3949 0c79 04       		.byte	4
 3950 0c7a DC       		.byte	-36
 3951 0c7b 10       		.byte	16
 3952 0c7c DF       		.byte	-33
 3953 0c7d 01       		.byte	1
 3954 0c7e 01       		.byte	1
 3955 0c7f 41       		.byte	65
 3956 0c80 02       		.byte	2
 3957 0c81 08       		.byte	8
 3958 0c82 03       		.byte	3
 3959 0c83 20       		.byte	32
 3960 0c84 04       		.byte	4
 3961 0c85 08       		.byte	8
 3962 0c86 06       		.byte	6
 3963 0c87 08       		.byte	8
 3964 0c88 07       		.byte	7
 3965 0c89 41       		.byte	65
 3966 0c8a 09       		.byte	9
 3967 0c8b 22       		.byte	34
 3968 0c8c 0A       		.byte	10
 3969 0c8d 02       		.byte	2
 3970 0c8e 0F       		.byte	15
ARM GAS  C:\Users\r\AppData\Local\Temp\cc1ZHhx7.s 			page 112


 3971 0c8f 85       		.byte	-123
 3972 0c90 11       		.byte	17
 3973 0c91 94       		.byte	-108
 3974 0c92 13       		.byte	19
 3975 0c93 01       		.byte	1
 3976 0c94 15       		.byte	21
 3977 0c95 55       		.byte	85
 3978 0c96 19       		.byte	25
 3979 0c97 20       		.byte	32
 3980 0c98 1D       		.byte	29
 3981 0c99 03       		.byte	3
 3982 0c9a 1F       		.byte	31
 3983 0c9b 10       		.byte	16
 3984 0c9c 20       		.byte	32
 3985 0c9d C0       		.byte	-64
 3986 0c9e 25       		.byte	37
 3987 0c9f 40       		.byte	64
 3988 0ca0 27       		.byte	39
 3989 0ca1 28       		.byte	40
 3990 0ca2 2D       		.byte	45
 3991 0ca3 60       		.byte	96
 3992 0ca4 2F       		.byte	47
 3993 0ca5 A0       		.byte	-96
 3994 0ca6 34       		.byte	52
 3995 0ca7 01       		.byte	1
 3996 0ca8 35       		.byte	53
 3997 0ca9 01       		.byte	1
 3998 0caa 36       		.byte	54
 3999 0cab 08       		.byte	8
 4000 0cac 37       		.byte	55
 4001 0cad A1       		.byte	-95
 4002 0cae 38       		.byte	56
 4003 0caf 10       		.byte	16
 4004 0cb0 3C       		.byte	60
 4005 0cb1 20       		.byte	32
 4006 0cb2 3D       		.byte	61
 4007 0cb3 80       		.byte	-128
 4008 0cb4 3F       		.byte	63
 4009 0cb5 05       		.byte	5
 4010 0cb6 59       		.byte	89
 4011 0cb7 04       		.byte	4
 4012 0cb8 5A       		.byte	90
 4013 0cb9 80       		.byte	-128
 4014 0cba 5B       		.byte	91
 4015 0cbb 12       		.byte	18
 4016 0cbc 63       		.byte	99
 4017 0cbd 42       		.byte	66
 4018 0cbe 6F       		.byte	111
 4019 0cbf 02       		.byte	2
 4020 0cc0 87       		.byte	-121
 4021 0cc1 40       		.byte	64
 4022 0cc2 88       		.byte	-120
 4023 0cc3 40       		.byte	64
 4024 0cc4 8B       		.byte	-117
 4025 0cc5 10       		.byte	16
 4026 0cc6 90       		.byte	-112
 4027 0cc7 14       		.byte	20
ARM GAS  C:\Users\r\AppData\Local\Temp\cc1ZHhx7.s 			page 113


 4028 0cc8 92       		.byte	-110
 4029 0cc9 80       		.byte	-128
 4030 0cca 93       		.byte	-109
 4031 0ccb 04       		.byte	4
 4032 0ccc 95       		.byte	-107
 4033 0ccd 54       		.byte	84
 4034 0cce 96       		.byte	-106
 4035 0ccf 02       		.byte	2
 4036 0cd0 9C       		.byte	-100
 4037 0cd1 05       		.byte	5
 4038 0cd2 9E       		.byte	-98
 4039 0cd3 12       		.byte	18
 4040 0cd4 A0       		.byte	-96
 4041 0cd5 04       		.byte	4
 4042 0cd6 A1       		.byte	-95
 4043 0cd7 28       		.byte	40
 4044 0cd8 A4       		.byte	-92
 4045 0cd9 02       		.byte	2
 4046 0cda A7       		.byte	-89
 4047 0cdb A2       		.byte	-94
 4048 0cdc AA       		.byte	-86
 4049 0cdd 02       		.byte	2
 4050 0cde AB       		.byte	-85
 4051 0cdf 40       		.byte	64
 4052 0ce0 AE       		.byte	-82
 4053 0ce1 40       		.byte	64
 4054 0ce2 AF       		.byte	-81
 4055 0ce3 02       		.byte	2
 4056 0ce4 B0       		.byte	-80
 4057 0ce5 50       		.byte	80
 4058 0ce6 B2       		.byte	-78
 4059 0ce7 80       		.byte	-128
 4060 0ce8 C0       		.byte	-64
 4061 0ce9 FF       		.byte	-1
 4062 0cea C2       		.byte	-62
 4063 0ceb DB       		.byte	-37
 4064 0cec C4       		.byte	-60
 4065 0ced FF       		.byte	-1
 4066 0cee CA       		.byte	-54
 4067 0cef F0       		.byte	-16
 4068 0cf0 CC       		.byte	-52
 4069 0cf1 F0       		.byte	-16
 4070 0cf2 CE       		.byte	-50
 4071 0cf3 F4       		.byte	-12
 4072 0cf4 D6       		.byte	-42
 4073 0cf5 0F       		.byte	15
 4074 0cf6 D8       		.byte	-40
 4075 0cf7 09       		.byte	9
 4076 0cf8 E2       		.byte	-30
 4077 0cf9 28       		.byte	40
 4078 0cfa E8       		.byte	-24
 4079 0cfb 09       		.byte	9
 4080 0cfc EA       		.byte	-22
 4081 0cfd 02       		.byte	2
 4082 0cfe EE       		.byte	-18
 4083 0cff 0D       		.byte	13
 4084 0d00 39       		.byte	57
ARM GAS  C:\Users\r\AppData\Local\Temp\cc1ZHhx7.s 			page 114


 4085 0d01 20       		.byte	32
 4086 0d02 3F       		.byte	63
 4087 0d03 10       		.byte	16
 4088 0d04 59       		.byte	89
 4089 0d05 04       		.byte	4
 4090 0d06 5F       		.byte	95
 4091 0d07 01       		.byte	1
 4092 0d08 27       		.byte	39
 4093 0d09 08       		.byte	8
 4094 0d0a 87       		.byte	-121
 4095 0d0b 08       		.byte	8
 4096 0d0c 89       		.byte	-119
 4097 0d0d 40       		.byte	64
 4098 0d0e 9C       		.byte	-100
 4099 0d0f 80       		.byte	-128
 4100 0d10 9E       		.byte	-98
 4101 0d11 20       		.byte	32
 4102 0d12 A5       		.byte	-91
 4103 0d13 41       		.byte	65
 4104 0d14 AA       		.byte	-86
 4105 0d15 40       		.byte	64
 4106 0d16 AB       		.byte	-85
 4107 0d17 01       		.byte	1
 4108 0d18 AC       		.byte	-84
 4109 0d19 02       		.byte	2
 4110 0d1a AF       		.byte	-81
 4111 0d1b 80       		.byte	-128
 4112 0d1c B0       		.byte	-80
 4113 0d1d 40       		.byte	64
 4114 0d1e B2       		.byte	-78
 4115 0d1f 10       		.byte	16
 4116 0d20 B3       		.byte	-77
 4117 0d21 10       		.byte	16
 4118 0d22 E4       		.byte	-28
 4119 0d23 20       		.byte	32
 4120 0d24 EA       		.byte	-22
 4121 0d25 02       		.byte	2
 4122 0d26 EC       		.byte	-20
 4123 0d27 A0       		.byte	-96
 4124 0d28 EE       		.byte	-18
 4125 0d29 04       		.byte	4
 4126 0d2a 8C       		.byte	-116
 4127 0d2b 80       		.byte	-128
 4128 0d2c 8E       		.byte	-114
 4129 0d2d 20       		.byte	32
 4130 0d2e 9C       		.byte	-100
 4131 0d2f 80       		.byte	-128
 4132 0d30 9E       		.byte	-98
 4133 0d31 20       		.byte	32
 4134 0d32 B5       		.byte	-75
 4135 0d33 01       		.byte	1
 4136 0d34 E4       		.byte	-28
 4137 0d35 40       		.byte	64
 4138 0d36 E8       		.byte	-24
 4139 0d37 10       		.byte	16
 4140 0d38 EC       		.byte	-20
 4141 0d39 20       		.byte	32
ARM GAS  C:\Users\r\AppData\Local\Temp\cc1ZHhx7.s 			page 115


 4142 0d3a 04       		.byte	4
 4143 0d3b 10       		.byte	16
 4144 0d3c 0C       		.byte	12
 4145 0d3d 20       		.byte	32
 4146 0d3e 12       		.byte	18
 4147 0d3f 08       		.byte	8
 4148 0d40 13       		.byte	19
 4149 0d41 02       		.byte	2
 4150 0d42 16       		.byte	22
 4151 0d43 80       		.byte	-128
 4152 0d44 17       		.byte	23
 4153 0d45 20       		.byte	32
 4154 0d46 30       		.byte	48
 4155 0d47 10       		.byte	16
 4156 0d48 33       		.byte	51
 4157 0d49 01       		.byte	1
 4158 0d4a 34       		.byte	52
 4159 0d4b 04       		.byte	4
 4160 0d4c 36       		.byte	54
 4161 0d4d 10       		.byte	16
 4162 0d4e 3A       		.byte	58
 4163 0d4f 82       		.byte	-126
 4164 0d50 3C       		.byte	60
 4165 0d51 24       		.byte	36
 4166 0d52 42       		.byte	66
 4167 0d53 08       		.byte	8
 4168 0d54 61       		.byte	97
 4169 0d55 20       		.byte	32
 4170 0d56 6B       		.byte	107
 4171 0d57 03       		.byte	3
 4172 0d58 82       		.byte	-126
 4173 0d59 02       		.byte	2
 4174 0d5a 8C       		.byte	-116
 4175 0d5b 10       		.byte	16
 4176 0d5c C0       		.byte	-64
 4177 0d5d 80       		.byte	-128
 4178 0d5e C2       		.byte	-62
 4179 0d5f 80       		.byte	-128
 4180 0d60 C4       		.byte	-60
 4181 0d61 F0       		.byte	-16
 4182 0d62 CC       		.byte	-52
 4183 0d63 F0       		.byte	-16
 4184 0d64 CE       		.byte	-50
 4185 0d65 F0       		.byte	-16
 4186 0d66 D0       		.byte	-48
 4187 0d67 10       		.byte	16
 4188 0d68 D8       		.byte	-40
 4189 0d69 40       		.byte	64
 4190 0d6a E6       		.byte	-26
 4191 0d6b 20       		.byte	32
 4192 0d6c 32       		.byte	50
 4193 0d6d 04       		.byte	4
 4194 0d6e 33       		.byte	51
 4195 0d6f 10       		.byte	16
 4196 0d70 37       		.byte	55
 4197 0d71 28       		.byte	40
 4198 0d72 38       		.byte	56
ARM GAS  C:\Users\r\AppData\Local\Temp\cc1ZHhx7.s 			page 116


 4199 0d73 10       		.byte	16
 4200 0d74 52       		.byte	82
 4201 0d75 08       		.byte	8
 4202 0d76 56       		.byte	86
 4203 0d77 02       		.byte	2
 4204 0d78 63       		.byte	99
 4205 0d79 20       		.byte	32
 4206 0d7a 82       		.byte	-126
 4207 0d7b 08       		.byte	8
 4208 0d7c 8E       		.byte	-114
 4209 0d7d 02       		.byte	2
 4210 0d7e 94       		.byte	-108
 4211 0d7f 04       		.byte	4
 4212 0d80 9B       		.byte	-101
 4213 0d81 30       		.byte	48
 4214 0d82 9C       		.byte	-100
 4215 0d83 14       		.byte	20
 4216 0d84 9E       		.byte	-98
 4217 0d85 08       		.byte	8
 4218 0d86 A5       		.byte	-91
 4219 0d87 20       		.byte	32
 4220 0d88 A6       		.byte	-90
 4221 0d89 10       		.byte	16
 4222 0d8a A8       		.byte	-88
 4223 0d8b 20       		.byte	32
 4224 0d8c AA       		.byte	-86
 4225 0d8d 08       		.byte	8
 4226 0d8e AB       		.byte	-85
 4227 0d8f 10       		.byte	16
 4228 0d90 B0       		.byte	-80
 4229 0d91 10       		.byte	16
 4230 0d92 CC       		.byte	-52
 4231 0d93 F0       		.byte	-16
 4232 0d94 CE       		.byte	-50
 4233 0d95 10       		.byte	16
 4234 0d96 D4       		.byte	-44
 4235 0d97 20       		.byte	32
 4236 0d98 D6       		.byte	-42
 4237 0d99 20       		.byte	32
 4238 0d9a D8       		.byte	-40
 4239 0d9b 40       		.byte	64
 4240 0d9c E2       		.byte	-30
 4241 0d9d 20       		.byte	32
 4242 0d9e E8       		.byte	-24
 4243 0d9f 80       		.byte	-128
 4244 0da0 10       		.byte	16
 4245 0da1 10       		.byte	16
 4246 0da2 33       		.byte	51
 4247 0da3 80       		.byte	-128
 4248 0da4 37       		.byte	55
 4249 0da5 20       		.byte	32
 4250 0da6 87       		.byte	-121
 4251 0da7 08       		.byte	8
 4252 0da8 94       		.byte	-108
 4253 0da9 14       		.byte	20
 4254 0daa 96       		.byte	-106
 4255 0dab 08       		.byte	8
ARM GAS  C:\Users\r\AppData\Local\Temp\cc1ZHhx7.s 			page 117


 4256 0dac 9C       		.byte	-100
 4257 0dad 10       		.byte	16
 4258 0dae 9E       		.byte	-98
 4259 0daf 08       		.byte	8
 4260 0db0 9F       		.byte	-97
 4261 0db1 08       		.byte	8
 4262 0db2 A6       		.byte	-90
 4263 0db3 10       		.byte	16
 4264 0db4 AB       		.byte	-85
 4265 0db5 10       		.byte	16
 4266 0db6 B0       		.byte	-80
 4267 0db7 04       		.byte	4
 4268 0db8 B5       		.byte	-75
 4269 0db9 20       		.byte	32
 4270 0dba C4       		.byte	-60
 4271 0dbb 10       		.byte	16
 4272 0dbc CC       		.byte	-52
 4273 0dbd 30       		.byte	48
 4274 0dbe E2       		.byte	-30
 4275 0dbf 10       		.byte	16
 4276 0dc0 EE       		.byte	-18
 4277 0dc1 80       		.byte	-128
 4278 0dc2 80       		.byte	-128
 4279 0dc3 14       		.byte	20
 4280 0dc4 8B       		.byte	-117
 4281 0dc5 10       		.byte	16
 4282 0dc6 94       		.byte	-108
 4283 0dc7 14       		.byte	20
 4284 0dc8 96       		.byte	-106
 4285 0dc9 08       		.byte	8
 4286 0dca 9E       		.byte	-98
 4287 0dcb 08       		.byte	8
 4288 0dcc 9F       		.byte	-97
 4289 0dcd 20       		.byte	32
 4290 0dce A6       		.byte	-90
 4291 0dcf 10       		.byte	16
 4292 0dd0 A7       		.byte	-89
 4293 0dd1 80       		.byte	-128
 4294 0dd2 E2       		.byte	-30
 4295 0dd3 20       		.byte	32
 4296 0dd4 E6       		.byte	-26
 4297 0dd5 80       		.byte	-128
 4298 0dd6 00       		.byte	0
 4299 0dd7 10       		.byte	16
 4300 0dd8 06       		.byte	6
 4301 0dd9 02       		.byte	2
 4302 0dda 0A       		.byte	10
 4303 0ddb 08       		.byte	8
 4304 0ddc 0E       		.byte	14
 4305 0ddd 08       		.byte	8
 4306 0dde 13       		.byte	19
 4307 0ddf 02       		.byte	2
 4308 0de0 15       		.byte	21
 4309 0de1 01       		.byte	1
 4310 0de2 62       		.byte	98
 4311 0de3 04       		.byte	4
 4312 0de4 66       		.byte	102
ARM GAS  C:\Users\r\AppData\Local\Temp\cc1ZHhx7.s 			page 118


 4313 0de5 08       		.byte	8
 4314 0de6 82       		.byte	-126
 4315 0de7 04       		.byte	4
 4316 0de8 8B       		.byte	-117
 4317 0de9 02       		.byte	2
 4318 0dea C0       		.byte	-64
 4319 0deb 03       		.byte	3
 4320 0dec C2       		.byte	-62
 4321 0ded 03       		.byte	3
 4322 0dee C4       		.byte	-60
 4323 0def 0C       		.byte	12
 4324 0df0 D8       		.byte	-40
 4325 0df1 03       		.byte	3
 4326 0df2 E2       		.byte	-30
 4327 0df3 04       		.byte	4
 4328 0df4 01       		.byte	1
 4329 0df5 04       		.byte	4
 4330 0df6 05       		.byte	5
 4331 0df7 08       		.byte	8
 4332 0df8 08       		.byte	8
 4333 0df9 08       		.byte	8
 4334 0dfa 0C       		.byte	12
 4335 0dfb 04       		.byte	4
 4336 0dfc 50       		.byte	80
 4337 0dfd 01       		.byte	1
 4338 0dfe 57       		.byte	87
 4339 0dff 10       		.byte	16
 4340 0e00 5F       		.byte	95
 4341 0e01 02       		.byte	2
 4342 0e02 65       		.byte	101
 4343 0e03 20       		.byte	32
 4344 0e04 83       		.byte	-125
 4345 0e05 10       		.byte	16
 4346 0e06 88       		.byte	-120
 4347 0e07 04       		.byte	4
 4348 0e08 8A       		.byte	-118
 4349 0e09 04       		.byte	4
 4350 0e0a 92       		.byte	-110
 4351 0e0b 08       		.byte	8
 4352 0e0c 9A       		.byte	-102
 4353 0e0d 02       		.byte	2
 4354 0e0e 9E       		.byte	-98
 4355 0e0f 04       		.byte	4
 4356 0e10 AE       		.byte	-82
 4357 0e11 08       		.byte	8
 4358 0e12 B1       		.byte	-79
 4359 0e13 01       		.byte	1
 4360 0e14 B4       		.byte	-76
 4361 0e15 10       		.byte	16
 4362 0e16 C0       		.byte	-64
 4363 0e17 0C       		.byte	12
 4364 0e18 C2       		.byte	-62
 4365 0e19 0C       		.byte	12
 4366 0e1a D4       		.byte	-44
 4367 0e1b 03       		.byte	3
 4368 0e1c D6       		.byte	-42
 4369 0e1d 01       		.byte	1
ARM GAS  C:\Users\r\AppData\Local\Temp\cc1ZHhx7.s 			page 119


 4370 0e1e D8       		.byte	-40
 4371 0e1f 01       		.byte	1
 4372 0e20 E2       		.byte	-30
 4373 0e21 01       		.byte	1
 4374 0e22 E6       		.byte	-26
 4375 0e23 01       		.byte	1
 4376 0e24 EA       		.byte	-22
 4377 0e25 08       		.byte	8
 4378 0e26 EE       		.byte	-18
 4379 0e27 01       		.byte	1
 4380 0e28 56       		.byte	86
 4381 0e29 08       		.byte	8
 4382 0e2a 87       		.byte	-121
 4383 0e2b 10       		.byte	16
 4384 0e2c 8E       		.byte	-114
 4385 0e2d 04       		.byte	4
 4386 0e2e 91       		.byte	-111
 4387 0e2f 04       		.byte	4
 4388 0e30 94       		.byte	-108
 4389 0e31 02       		.byte	2
 4390 0e32 98       		.byte	-104
 4391 0e33 08       		.byte	8
 4392 0e34 99       		.byte	-103
 4393 0e35 08       		.byte	8
 4394 0e36 9D       		.byte	-99
 4395 0e37 10       		.byte	16
 4396 0e38 9E       		.byte	-98
 4397 0e39 04       		.byte	4
 4398 0e3a 9F       		.byte	-97
 4399 0e3b 02       		.byte	2
 4400 0e3c A9       		.byte	-87
 4401 0e3d 10       		.byte	16
 4402 0e3e B5       		.byte	-75
 4403 0e3f 20       		.byte	32
 4404 0e40 B6       		.byte	-74
 4405 0e41 02       		.byte	2
 4406 0e42 D4       		.byte	-44
 4407 0e43 02       		.byte	2
 4408 0e44 E4       		.byte	-28
 4409 0e45 08       		.byte	8
 4410 0e46 E8       		.byte	-24
 4411 0e47 08       		.byte	8
 4412 0e48 EA       		.byte	-22
 4413 0e49 02       		.byte	2
 4414 0e4a 0B       		.byte	11
 4415 0e4b 12       		.byte	18
 4416 0e4c 0F       		.byte	15
 4417 0e4d 24       		.byte	36
 4418 0e4e 80       		.byte	-128
 4419 0e4f 01       		.byte	1
 4420 0e50 83       		.byte	-125
 4421 0e51 10       		.byte	16
 4422 0e52 84       		.byte	-124
 4423 0e53 10       		.byte	16
 4424 0e54 87       		.byte	-121
 4425 0e55 02       		.byte	2
 4426 0e56 8C       		.byte	-116
ARM GAS  C:\Users\r\AppData\Local\Temp\cc1ZHhx7.s 			page 120


 4427 0e57 08       		.byte	8
 4428 0e58 94       		.byte	-108
 4429 0e59 02       		.byte	2
 4430 0e5a 97       		.byte	-105
 4431 0e5b 10       		.byte	16
 4432 0e5c 98       		.byte	-104
 4433 0e5d 08       		.byte	8
 4434 0e5e 99       		.byte	-103
 4435 0e5f 08       		.byte	8
 4436 0e60 9D       		.byte	-99
 4437 0e61 10       		.byte	16
 4438 0e62 9F       		.byte	-97
 4439 0e63 02       		.byte	2
 4440 0e64 AE       		.byte	-82
 4441 0e65 08       		.byte	8
 4442 0e66 B1       		.byte	-79
 4443 0e67 04       		.byte	4
 4444 0e68 C2       		.byte	-62
 4445 0e69 0F       		.byte	15
 4446 0e6a E2       		.byte	-30
 4447 0e6b 02       		.byte	2
 4448 0e6c EA       		.byte	-22
 4449 0e6d 04       		.byte	4
 4450 0e6e 67       		.byte	103
 4451 0e6f 80       		.byte	-128
 4452 0e70 86       		.byte	-122
 4453 0e71 08       		.byte	8
 4454 0e72 87       		.byte	-121
 4455 0e73 40       		.byte	64
 4456 0e74 88       		.byte	-120
 4457 0e75 10       		.byte	16
 4458 0e76 93       		.byte	-109
 4459 0e77 20       		.byte	32
 4460 0e78 96       		.byte	-106
 4461 0e79 08       		.byte	8
 4462 0e7a 9E       		.byte	-98
 4463 0e7b 08       		.byte	8
 4464 0e7c AB       		.byte	-85
 4465 0e7d 80       		.byte	-128
 4466 0e7e AE       		.byte	-82
 4467 0e7f 10       		.byte	16
 4468 0e80 AF       		.byte	-81
 4469 0e81 20       		.byte	32
 4470 0e82 D8       		.byte	-40
 4471 0e83 80       		.byte	-128
 4472 0e84 E2       		.byte	-30
 4473 0e85 10       		.byte	16
 4474 0e86 E6       		.byte	-26
 4475 0e87 40       		.byte	64
 4476 0e88 EA       		.byte	-22
 4477 0e89 40       		.byte	64
 4478 0e8a EE       		.byte	-18
 4479 0e8b 30       		.byte	48
 4480 0e8c 05       		.byte	5
 4481 0e8d 04       		.byte	4
 4482 0e8e 1A       		.byte	26
 4483 0e8f 08       		.byte	8
ARM GAS  C:\Users\r\AppData\Local\Temp\cc1ZHhx7.s 			page 121


 4484 0e90 53       		.byte	83
 4485 0e91 10       		.byte	16
 4486 0e92 58       		.byte	88
 4487 0e93 10       		.byte	16
 4488 0e94 81       		.byte	-127
 4489 0e95 04       		.byte	4
 4490 0e96 93       		.byte	-109
 4491 0e97 20       		.byte	32
 4492 0e98 96       		.byte	-106
 4493 0e99 08       		.byte	8
 4494 0e9a 98       		.byte	-104
 4495 0e9b 10       		.byte	16
 4496 0e9c C0       		.byte	-64
 4497 0e9d 20       		.byte	32
 4498 0e9e C6       		.byte	-58
 4499 0e9f 40       		.byte	64
 4500 0ea0 D4       		.byte	-44
 4501 0ea1 A0       		.byte	-96
 4502 0ea2 E4       		.byte	-28
 4503 0ea3 80       		.byte	-128
 4504 0ea4 9D       		.byte	-99
 4505 0ea5 10       		.byte	16
 4506 0ea6 A0       		.byte	-96
 4507 0ea7 10       		.byte	16
 4508 0ea8 AB       		.byte	-85
 4509 0ea9 01       		.byte	1
 4510 0eaa AF       		.byte	-81
 4511 0eab 04       		.byte	4
 4512 0eac B1       		.byte	-79
 4513 0ead 08       		.byte	8
 4514 0eae EA       		.byte	-22
 4515 0eaf 01       		.byte	1
 4516 0eb0 00       		.byte	0
 4517 0eb1 10       		.byte	16
 4518 0eb2 05       		.byte	5
 4519 0eb3 10       		.byte	16
 4520 0eb4 52       		.byte	82
 4521 0eb5 02       		.byte	2
 4522 0eb6 54       		.byte	84
 4523 0eb7 10       		.byte	16
 4524 0eb8 8C       		.byte	-116
 4525 0eb9 10       		.byte	16
 4526 0eba 9D       		.byte	-99
 4527 0ebb 10       		.byte	16
 4528 0ebc A0       		.byte	-96
 4529 0ebd 10       		.byte	16
 4530 0ebe A2       		.byte	-94
 4531 0ebf 02       		.byte	2
 4532 0ec0 B2       		.byte	-78
 4533 0ec1 02       		.byte	2
 4534 0ec2 C0       		.byte	-64
 4535 0ec3 03       		.byte	3
 4536 0ec4 D4       		.byte	-44
 4537 0ec5 03       		.byte	3
 4538 0ec6 E2       		.byte	-30
 4539 0ec7 08       		.byte	8
 4540 0ec8 EC       		.byte	-20
ARM GAS  C:\Users\r\AppData\Local\Temp\cc1ZHhx7.s 			page 122


 4541 0ec9 04       		.byte	4
 4542 0eca 10       		.byte	16
 4543 0ecb 03       		.byte	3
 4544 0ecc 1A       		.byte	26
 4545 0ecd 03       		.byte	3
 4546 0ece 00       		.byte	0
 4547 0ecf FF       		.byte	-1
 4548 0ed0 01       		.byte	1
 4549 0ed1 FF       		.byte	-1
 4550 0ed2 02       		.byte	2
 4551 0ed3 AA       		.byte	-86
 4552 0ed4 10       		.byte	16
 4553 0ed5 95       		.byte	-107
 4554 0ed6 0000     		.align	2
 4555              		.type	BS_PHUB_CFGMEM1_VAL.5023, %object
 4556              		.size	BS_PHUB_CFGMEM1_VAL.5023, 4
 4557              	BS_PHUB_CFGMEM1_VAL.5023:
 4558 0ed8 00       		.byte	0
 4559 0ed9 01       		.byte	1
 4560 0eda 00       		.byte	0
 4561 0edb 00       		.byte	0
 4562              		.align	2
 4563              		.type	BS_PHUB_CFGMEM2_VAL.5024, %object
 4564              		.size	BS_PHUB_CFGMEM2_VAL.5024, 4
 4565              	BS_PHUB_CFGMEM2_VAL.5024:
 4566 0edc 00       		.byte	0
 4567 0edd 02       		.byte	2
 4568 0ede 00       		.byte	0
 4569 0edf 00       		.byte	0
 4570              		.align	2
 4571              		.type	BS_PHUB_CFGMEM3_VAL.5025, %object
 4572              		.size	BS_PHUB_CFGMEM3_VAL.5025, 4
 4573              	BS_PHUB_CFGMEM3_VAL.5025:
 4574 0ee0 00       		.byte	0
 4575 0ee1 03       		.byte	3
 4576 0ee2 00       		.byte	0
 4577 0ee3 00       		.byte	0
 4578              		.align	2
 4579              		.type	BS_IOPINS0_0_VAL.5013, %object
 4580              		.size	BS_IOPINS0_0_VAL.5013, 10
 4581              	BS_IOPINS0_0_VAL.5013:
 4582 0ee4 02       		.byte	2
 4583 0ee5 00       		.byte	0
 4584 0ee6 30       		.byte	48
 4585 0ee7 CE       		.byte	-50
 4586 0ee8 CE       		.byte	-50
 4587 0ee9 00       		.byte	0
 4588 0eea 4C       		.byte	76
 4589 0eeb 00       		.byte	0
 4590 0eec 01       		.byte	1
 4591 0eed 01       		.byte	1
 4592 0eee 0000     		.align	2
 4593              		.type	BS_IOPINS0_7_VAL.5014, %object
 4594              		.size	BS_IOPINS0_7_VAL.5014, 8
 4595              	BS_IOPINS0_7_VAL.5014:
 4596 0ef0 30       		.byte	48
 4597 0ef1 00       		.byte	0
ARM GAS  C:\Users\r\AppData\Local\Temp\cc1ZHhx7.s 			page 123


 4598 0ef2 00       		.byte	0
 4599 0ef3 00       		.byte	0
 4600 0ef4 00       		.byte	0
 4601 0ef5 00       		.byte	0
 4602 0ef6 00       		.byte	0
 4603 0ef7 00       		.byte	0
 4604              		.align	2
 4605              		.type	BS_IOPINS1_7_VAL.5015, %object
 4606              		.size	BS_IOPINS1_7_VAL.5015, 5
 4607              	BS_IOPINS1_7_VAL.5015:
 4608 0ef8 00       		.byte	0
 4609 0ef9 00       		.byte	0
 4610 0efa 00       		.byte	0
 4611 0efb 00       		.byte	0
 4612 0efc 10       		.byte	16
 4613 0efd 000000   		.align	2
 4614              		.type	BS_IOPINS0_8_VAL.5016, %object
 4615              		.size	BS_IOPINS0_8_VAL.5016, 10
 4616              	BS_IOPINS0_8_VAL.5016:
 4617 0f00 40       		.byte	64
 4618 0f01 00       		.byte	0
 4619 0f02 00       		.byte	0
 4620 0f03 30       		.byte	48
 4621 0f04 30       		.byte	48
 4622 0f05 00       		.byte	0
 4623 0f06 20       		.byte	32
 4624 0f07 00       		.byte	0
 4625 0f08 C0       		.byte	-64
 4626 0f09 00       		.byte	0
 4627 0f0a 0000     		.align	2
 4628              		.type	BS_IOPINS0_1_VAL.5017, %object
 4629              		.size	BS_IOPINS0_1_VAL.5017, 8
 4630              	BS_IOPINS0_1_VAL.5017:
 4631 0f0c 00       		.byte	0
 4632 0f0d 0B       		.byte	11
 4633 0f0e 0B       		.byte	11
 4634 0f0f 00       		.byte	0
 4635 0f10 00       		.byte	0
 4636 0f11 00       		.byte	0
 4637 0f12 00       		.byte	0
 4638 0f13 00       		.byte	0
 4639              		.align	2
 4640              		.type	BS_IOPINS0_2_VAL.5018, %object
 4641              		.size	BS_IOPINS0_2_VAL.5018, 8
 4642              	BS_IOPINS0_2_VAL.5018:
 4643 0f14 33       		.byte	51
 4644 0f15 CC       		.byte	-52
 4645 0f16 CC       		.byte	-52
 4646 0f17 00       		.byte	0
 4647 0f18 CC       		.byte	-52
 4648 0f19 00       		.byte	0
 4649 0f1a 00       		.byte	0
 4650 0f1b 01       		.byte	1
 4651              		.align	2
 4652              		.type	BS_IOPINS0_3_VAL.5019, %object
 4653              		.size	BS_IOPINS0_3_VAL.5019, 10
 4654              	BS_IOPINS0_3_VAL.5019:
ARM GAS  C:\Users\r\AppData\Local\Temp\cc1ZHhx7.s 			page 124


 4655 0f1c 10       		.byte	16
 4656 0f1d 00       		.byte	0
 4657 0f1e 22       		.byte	34
 4658 0f1f 1C       		.byte	28
 4659 0f20 1C       		.byte	28
 4660 0f21 00       		.byte	0
 4661 0f22 0C       		.byte	12
 4662 0f23 00       		.byte	0
 4663 0f24 00       		.byte	0
 4664 0f25 01       		.byte	1
 4665 0f26 0000     		.align	2
 4666              		.type	BS_IOPINS0_4_VAL.5020, %object
 4667              		.size	BS_IOPINS0_4_VAL.5020, 8
 4668              	BS_IOPINS0_4_VAL.5020:
 4669 0f28 CC       		.byte	-52
 4670 0f29 30       		.byte	48
 4671 0f2a 30       		.byte	48
 4672 0f2b 00       		.byte	0
 4673 0f2c 10       		.byte	16
 4674 0f2d 00       		.byte	0
 4675 0f2e 00       		.byte	0
 4676 0f2f 01       		.byte	1
 4677              		.align	2
 4678              		.type	BS_IOPINS0_5_VAL.5021, %object
 4679              		.size	BS_IOPINS0_5_VAL.5021, 8
 4680              	BS_IOPINS0_5_VAL.5021:
 4681 0f30 0C       		.byte	12
 4682 0f31 03       		.byte	3
 4683 0f32 03       		.byte	3
 4684 0f33 00       		.byte	0
 4685 0f34 03       		.byte	3
 4686 0f35 00       		.byte	0
 4687 0f36 00       		.byte	0
 4688 0f37 01       		.byte	1
 4689              		.align	2
 4690              		.type	BS_IOPINS0_6_VAL.5022, %object
 4691              		.size	BS_IOPINS0_6_VAL.5022, 8
 4692              	BS_IOPINS0_6_VAL.5022:
 4693 0f38 CC       		.byte	-52
 4694 0f39 33       		.byte	51
 4695 0f3a 33       		.byte	51
 4696 0f3b 00       		.byte	0
 4697 0f3c 30       		.byte	48
 4698 0f3d 00       		.byte	0
 4699 0f3e 00       		.byte	0
 4700 0f3f 01       		.byte	1
 4701              		.align	2
 4702              		.type	BS_UCFG_BCTL0_VAL.5038, %object
 4703              		.size	BS_UCFG_BCTL0_VAL.5038, 16
 4704              	BS_UCFG_BCTL0_VAL.5038:
 4705 0f40 03       		.byte	3
 4706 0f41 01       		.byte	1
 4707 0f42 00       		.byte	0
 4708 0f43 00       		.byte	0
 4709 0f44 00       		.byte	0
 4710 0f45 00       		.byte	0
 4711 0f46 00       		.byte	0
ARM GAS  C:\Users\r\AppData\Local\Temp\cc1ZHhx7.s 			page 125


 4712 0f47 00       		.byte	0
 4713 0f48 02       		.byte	2
 4714 0f49 01       		.byte	1
 4715 0f4a 03       		.byte	3
 4716 0f4b 00       		.byte	0
 4717 0f4c 03       		.byte	3
 4718 0f4d 01       		.byte	1
 4719 0f4e 02       		.byte	2
 4720 0f4f 01       		.byte	1
 4721              		.text
 4722              	.Letext0:
 4723              		.file 2 "c:\\program files (x86)\\cypress\\psoc creator\\4.2\\psoc creator\\import\\gnu\\arm\\5.4.
 4724              		.file 3 "Generated_Source\\PSoC5\\cytypes.h"
 4725              		.section	.debug_info,"",%progbits
 4726              	.Ldebug_info0:
 4727 0000 38060000 		.4byte	0x638
 4728 0004 0400     		.2byte	0x4
 4729 0006 00000000 		.4byte	.Ldebug_abbrev0
 4730 000a 04       		.byte	0x4
 4731 000b 01       		.uleb128 0x1
 4732 000c 2B000000 		.4byte	.LASF68
 4733 0010 0C       		.byte	0xc
 4734 0011 D6030000 		.4byte	.LASF69
 4735 0015 F1020000 		.4byte	.LASF70
 4736 0019 00000000 		.4byte	.Ldebug_ranges0+0
 4737 001d 00000000 		.4byte	0
 4738 0021 00000000 		.4byte	.Ldebug_line0
 4739 0025 02       		.uleb128 0x2
 4740 0026 04       		.byte	0x4
 4741 0027 05       		.byte	0x5
 4742 0028 696E7400 		.ascii	"int\000"
 4743 002c 03       		.uleb128 0x3
 4744 002d 10000000 		.4byte	.LASF12
 4745 0031 02       		.byte	0x2
 4746 0032 D8       		.byte	0xd8
 4747 0033 37000000 		.4byte	0x37
 4748 0037 04       		.uleb128 0x4
 4749 0038 04       		.byte	0x4
 4750 0039 07       		.byte	0x7
 4751 003a BF010000 		.4byte	.LASF0
 4752 003e 04       		.uleb128 0x4
 4753 003f 08       		.byte	0x8
 4754 0040 05       		.byte	0x5
 4755 0041 1A010000 		.4byte	.LASF1
 4756 0045 04       		.uleb128 0x4
 4757 0046 08       		.byte	0x8
 4758 0047 04       		.byte	0x4
 4759 0048 64020000 		.4byte	.LASF2
 4760 004c 04       		.uleb128 0x4
 4761 004d 01       		.byte	0x1
 4762 004e 06       		.byte	0x6
 4763 004f 28010000 		.4byte	.LASF3
 4764 0053 04       		.uleb128 0x4
 4765 0054 01       		.byte	0x1
 4766 0055 08       		.byte	0x8
 4767 0056 C8020000 		.4byte	.LASF4
 4768 005a 04       		.uleb128 0x4
ARM GAS  C:\Users\r\AppData\Local\Temp\cc1ZHhx7.s 			page 126


 4769 005b 02       		.byte	0x2
 4770 005c 05       		.byte	0x5
 4771 005d D6020000 		.4byte	.LASF5
 4772 0061 04       		.uleb128 0x4
 4773 0062 02       		.byte	0x2
 4774 0063 07       		.byte	0x7
 4775 0064 27020000 		.4byte	.LASF6
 4776 0068 04       		.uleb128 0x4
 4777 0069 04       		.byte	0x4
 4778 006a 05       		.byte	0x5
 4779 006b 76010000 		.4byte	.LASF7
 4780 006f 04       		.uleb128 0x4
 4781 0070 04       		.byte	0x4
 4782 0071 07       		.byte	0x7
 4783 0072 D5010000 		.4byte	.LASF8
 4784 0076 04       		.uleb128 0x4
 4785 0077 08       		.byte	0x8
 4786 0078 07       		.byte	0x7
 4787 0079 D5000000 		.4byte	.LASF9
 4788 007d 04       		.uleb128 0x4
 4789 007e 04       		.byte	0x4
 4790 007f 07       		.byte	0x7
 4791 0080 5B020000 		.4byte	.LASF10
 4792 0084 05       		.uleb128 0x5
 4793 0085 04       		.byte	0x4
 4794 0086 04       		.uleb128 0x4
 4795 0087 01       		.byte	0x1
 4796 0088 08       		.byte	0x8
 4797 0089 76030000 		.4byte	.LASF11
 4798 008d 06       		.uleb128 0x6
 4799 008e 85010000 		.4byte	.LASF13
 4800 0092 03       		.byte	0x3
 4801 0093 E401     		.2byte	0x1e4
 4802 0095 53000000 		.4byte	0x53
 4803 0099 06       		.uleb128 0x6
 4804 009a 00000000 		.4byte	.LASF14
 4805 009e 03       		.byte	0x3
 4806 009f E501     		.2byte	0x1e5
 4807 00a1 61000000 		.4byte	0x61
 4808 00a5 06       		.uleb128 0x6
 4809 00a6 92010000 		.4byte	.LASF15
 4810 00aa 03       		.byte	0x3
 4811 00ab E601     		.2byte	0x1e6
 4812 00ad 6F000000 		.4byte	0x6f
 4813 00b1 04       		.uleb128 0x4
 4814 00b2 04       		.byte	0x4
 4815 00b3 04       		.byte	0x4
 4816 00b4 B5020000 		.4byte	.LASF16
 4817 00b8 04       		.uleb128 0x4
 4818 00b9 08       		.byte	0x8
 4819 00ba 04       		.byte	0x4
 4820 00bb 8B010000 		.4byte	.LASF17
 4821 00bf 06       		.uleb128 0x6
 4822 00c0 C3020000 		.4byte	.LASF18
 4823 00c4 03       		.byte	0x3
 4824 00c5 8E02     		.2byte	0x28e
 4825 00c7 CB000000 		.4byte	0xcb
ARM GAS  C:\Users\r\AppData\Local\Temp\cc1ZHhx7.s 			page 127


 4826 00cb 07       		.uleb128 0x7
 4827 00cc 8D000000 		.4byte	0x8d
 4828 00d0 06       		.uleb128 0x6
 4829 00d1 7F010000 		.4byte	.LASF19
 4830 00d5 03       		.byte	0x3
 4831 00d6 8F02     		.2byte	0x28f
 4832 00d8 DC000000 		.4byte	0xdc
 4833 00dc 07       		.uleb128 0x7
 4834 00dd 99000000 		.4byte	0x99
 4835 00e1 08       		.uleb128 0x8
 4836 00e2 02       		.byte	0x2
 4837 00e3 01       		.byte	0x1
 4838 00e4 99       		.byte	0x99
 4839 00e5 02010000 		.4byte	0x102
 4840 00e9 09       		.uleb128 0x9
 4841 00ea AA030000 		.4byte	.LASF20
 4842 00ee 01       		.byte	0x1
 4843 00ef 9B       		.byte	0x9b
 4844 00f0 8D000000 		.4byte	0x8d
 4845 00f4 00       		.byte	0
 4846 00f5 09       		.uleb128 0x9
 4847 00f6 B9010000 		.4byte	.LASF21
 4848 00fa 01       		.byte	0x1
 4849 00fb 9C       		.byte	0x9c
 4850 00fc 8D000000 		.4byte	0x8d
 4851 0100 01       		.byte	0x1
 4852 0101 00       		.byte	0
 4853 0102 03       		.uleb128 0x3
 4854 0103 4F030000 		.4byte	.LASF22
 4855 0107 01       		.byte	0x1
 4856 0108 9D       		.byte	0x9d
 4857 0109 E1000000 		.4byte	0xe1
 4858 010d 0A       		.uleb128 0xa
 4859 010e 46010000 		.4byte	.LASF23
 4860 0112 01       		.byte	0x1
 4861 0113 4C       		.byte	0x4c
 4862 0114 00000000 		.4byte	.LFB0
 4863 0118 1C000000 		.4byte	.LFE0-.LFB0
 4864 011c 01       		.uleb128 0x1
 4865 011d 9C       		.byte	0x9c
 4866 011e 3B010000 		.4byte	0x13b
 4867 0122 0B       		.uleb128 0xb
 4868 0123 7300     		.ascii	"s\000"
 4869 0125 01       		.byte	0x1
 4870 0126 4C       		.byte	0x4c
 4871 0127 84000000 		.4byte	0x84
 4872 012b 02       		.uleb128 0x2
 4873 012c 91       		.byte	0x91
 4874 012d 74       		.sleb128 -12
 4875 012e 0B       		.uleb128 0xb
 4876 012f 6E00     		.ascii	"n\000"
 4877 0131 01       		.byte	0x1
 4878 0132 4C       		.byte	0x4c
 4879 0133 2C000000 		.4byte	0x2c
 4880 0137 02       		.uleb128 0x2
 4881 0138 91       		.byte	0x91
 4882 0139 70       		.sleb128 -16
ARM GAS  C:\Users\r\AppData\Local\Temp\cc1ZHhx7.s 			page 128


 4883 013a 00       		.byte	0
 4884 013b 0A       		.uleb128 0xa
 4885 013c CA030000 		.4byte	.LASF24
 4886 0140 01       		.byte	0x1
 4887 0141 53       		.byte	0x53
 4888 0142 00000000 		.4byte	.LFB1
 4889 0146 1E000000 		.4byte	.LFE1-.LFB1
 4890 014a 01       		.uleb128 0x1
 4891 014b 9C       		.byte	0x9c
 4892 014c 79010000 		.4byte	0x179
 4893 0150 0C       		.uleb128 0xc
 4894 0151 B0020000 		.4byte	.LASF25
 4895 0155 01       		.byte	0x1
 4896 0156 53       		.byte	0x53
 4897 0157 84000000 		.4byte	0x84
 4898 015b 02       		.uleb128 0x2
 4899 015c 91       		.byte	0x91
 4900 015d 74       		.sleb128 -12
 4901 015e 0B       		.uleb128 0xb
 4902 015f 73726300 		.ascii	"src\000"
 4903 0163 01       		.byte	0x1
 4904 0164 53       		.byte	0x53
 4905 0165 79010000 		.4byte	0x179
 4906 0169 02       		.uleb128 0x2
 4907 016a 91       		.byte	0x91
 4908 016b 70       		.sleb128 -16
 4909 016c 0B       		.uleb128 0xb
 4910 016d 6E00     		.ascii	"n\000"
 4911 016f 01       		.byte	0x1
 4912 0170 53       		.byte	0x53
 4913 0171 2C000000 		.4byte	0x2c
 4914 0175 02       		.uleb128 0x2
 4915 0176 91       		.byte	0x91
 4916 0177 6C       		.sleb128 -20
 4917 0178 00       		.byte	0
 4918 0179 0D       		.uleb128 0xd
 4919 017a 04       		.byte	0x4
 4920 017b 7F010000 		.4byte	0x17f
 4921 017f 0E       		.uleb128 0xe
 4922 0180 0A       		.uleb128 0xa
 4923 0181 4B020000 		.4byte	.LASF26
 4924 0185 01       		.byte	0x1
 4925 0186 5A       		.byte	0x5a
 4926 0187 00000000 		.4byte	.LFB2
 4927 018b 1E000000 		.4byte	.LFE2-.LFB2
 4928 018f 01       		.uleb128 0x1
 4929 0190 9C       		.byte	0x9c
 4930 0191 BE010000 		.4byte	0x1be
 4931 0195 0C       		.uleb128 0xc
 4932 0196 B0020000 		.4byte	.LASF25
 4933 019a 01       		.byte	0x1
 4934 019b 5A       		.byte	0x5a
 4935 019c 84000000 		.4byte	0x84
 4936 01a0 02       		.uleb128 0x2
 4937 01a1 91       		.byte	0x91
 4938 01a2 74       		.sleb128 -12
 4939 01a3 0B       		.uleb128 0xb
ARM GAS  C:\Users\r\AppData\Local\Temp\cc1ZHhx7.s 			page 129


 4940 01a4 73726300 		.ascii	"src\000"
 4941 01a8 01       		.byte	0x1
 4942 01a9 5A       		.byte	0x5a
 4943 01aa 79010000 		.4byte	0x179
 4944 01ae 02       		.uleb128 0x2
 4945 01af 91       		.byte	0x91
 4946 01b0 70       		.sleb128 -16
 4947 01b1 0B       		.uleb128 0xb
 4948 01b2 6E00     		.ascii	"n\000"
 4949 01b4 01       		.byte	0x1
 4950 01b5 5A       		.byte	0x5a
 4951 01b6 2C000000 		.4byte	0x2c
 4952 01ba 02       		.uleb128 0x2
 4953 01bb 91       		.byte	0x91
 4954 01bc 6C       		.sleb128 -20
 4955 01bd 00       		.byte	0
 4956 01be 0F       		.uleb128 0xf
 4957 01bf 17000000 		.4byte	.LASF27
 4958 01c3 01       		.byte	0x1
 4959 01c4 7E       		.byte	0x7e
 4960 01c5 00000000 		.4byte	.LFB3
 4961 01c9 0C000000 		.4byte	.LFE3-.LFB3
 4962 01cd 01       		.uleb128 0x1
 4963 01ce 9C       		.byte	0x9c
 4964 01cf E2010000 		.4byte	0x1e2
 4965 01d3 0C       		.uleb128 0xc
 4966 01d4 5B010000 		.4byte	.LASF28
 4967 01d8 01       		.byte	0x1
 4968 01d9 7E       		.byte	0x7e
 4969 01da 8D000000 		.4byte	0x8d
 4970 01de 02       		.uleb128 0x2
 4971 01df 91       		.byte	0x91
 4972 01e0 77       		.sleb128 -9
 4973 01e1 00       		.byte	0
 4974 01e2 0F       		.uleb128 0xf
 4975 01e3 10020000 		.4byte	.LASF29
 4976 01e7 01       		.byte	0x1
 4977 01e8 B0       		.byte	0xb0
 4978 01e9 00000000 		.4byte	.LFB4
 4979 01ed 74000000 		.4byte	.LFE4-.LFB4
 4980 01f1 01       		.uleb128 0x1
 4981 01f2 9C       		.byte	0x9c
 4982 01f3 52020000 		.4byte	0x252
 4983 01f7 0C       		.uleb128 0xc
 4984 01f8 EC000000 		.4byte	.LASF30
 4985 01fc 01       		.byte	0x1
 4986 01fd B0       		.byte	0xb0
 4987 01fe 52020000 		.4byte	0x252
 4988 0202 02       		.uleb128 0x2
 4989 0203 91       		.byte	0x91
 4990 0204 64       		.sleb128 -28
 4991 0205 0C       		.uleb128 0xc
 4992 0206 CA000000 		.4byte	.LASF31
 4993 020a 01       		.byte	0x1
 4994 020b B0       		.byte	0xb0
 4995 020c 5D020000 		.4byte	0x25d
 4996 0210 02       		.uleb128 0x2
ARM GAS  C:\Users\r\AppData\Local\Temp\cc1ZHhx7.s 			page 130


 4997 0211 91       		.byte	0x91
 4998 0212 60       		.sleb128 -32
 4999 0213 10       		.uleb128 0x10
 5000 0214 6900     		.ascii	"i\000"
 5001 0216 01       		.byte	0x1
 5002 0217 B3       		.byte	0xb3
 5003 0218 A5000000 		.4byte	0xa5
 5004 021c 02       		.uleb128 0x2
 5005 021d 91       		.byte	0x91
 5006 021e 74       		.sleb128 -12
 5007 021f 10       		.uleb128 0x10
 5008 0220 6A00     		.ascii	"j\000"
 5009 0222 01       		.byte	0x1
 5010 0223 B3       		.byte	0xb3
 5011 0224 A5000000 		.4byte	0xa5
 5012 0228 02       		.uleb128 0x2
 5013 0229 91       		.byte	0x91
 5014 022a 70       		.sleb128 -16
 5015 022b 11       		.uleb128 0x11
 5016 022c 14000000 		.4byte	.LBB2
 5017 0230 4A000000 		.4byte	.LBE2-.LBB2
 5018 0234 12       		.uleb128 0x12
 5019 0235 07000000 		.4byte	.LASF32
 5020 0239 01       		.byte	0x1
 5021 023a B6       		.byte	0xb6
 5022 023b A5000000 		.4byte	0xa5
 5023 023f 02       		.uleb128 0x2
 5024 0240 91       		.byte	0x91
 5025 0241 68       		.sleb128 -24
 5026 0242 12       		.uleb128 0x12
 5027 0243 99010000 		.4byte	.LASF33
 5028 0247 01       		.byte	0x1
 5029 0248 B7       		.byte	0xb7
 5030 0249 8D000000 		.4byte	0x8d
 5031 024d 02       		.uleb128 0x2
 5032 024e 91       		.byte	0x91
 5033 024f 6F       		.sleb128 -17
 5034 0250 00       		.byte	0
 5035 0251 00       		.byte	0
 5036 0252 0D       		.uleb128 0xd
 5037 0253 04       		.byte	0x4
 5038 0254 58020000 		.4byte	0x258
 5039 0258 13       		.uleb128 0x13
 5040 0259 A5000000 		.4byte	0xa5
 5041 025d 0D       		.uleb128 0xd
 5042 025e 04       		.byte	0x4
 5043 025f 63020000 		.4byte	0x263
 5044 0263 13       		.uleb128 0x13
 5045 0264 02010000 		.4byte	0x102
 5046 0268 0A       		.uleb128 0xa
 5047 0269 50010000 		.4byte	.LASF34
 5048 026d 01       		.byte	0x1
 5049 026e D3       		.byte	0xd3
 5050 026f 00000000 		.4byte	.LFB5
 5051 0273 44010000 		.4byte	.LFE5-.LFB5
 5052 0277 01       		.uleb128 0x1
 5053 0278 9C       		.byte	0x9c
ARM GAS  C:\Users\r\AppData\Local\Temp\cc1ZHhx7.s 			page 131


 5054 0279 9A020000 		.4byte	0x29a
 5055 027d 12       		.uleb128 0x12
 5056 027e E7010000 		.4byte	.LASF35
 5057 0282 01       		.byte	0x1
 5058 0283 D5       		.byte	0xd5
 5059 0284 A5000000 		.4byte	0xa5
 5060 0288 02       		.uleb128 0x2
 5061 0289 91       		.byte	0x91
 5062 028a 74       		.sleb128 -12
 5063 028b 12       		.uleb128 0x12
 5064 028c 36030000 		.4byte	.LASF36
 5065 0290 01       		.byte	0x1
 5066 0291 D6       		.byte	0xd6
 5067 0292 8D000000 		.4byte	0x8d
 5068 0296 02       		.uleb128 0x2
 5069 0297 91       		.byte	0x91
 5070 0298 73       		.sleb128 -13
 5071 0299 00       		.byte	0
 5072 029a 14       		.uleb128 0x14
 5073 029b 09010000 		.4byte	.LASF37
 5074 029f 01       		.byte	0x1
 5075 02a0 1C01     		.2byte	0x11c
 5076 02a2 00000000 		.4byte	.LFB6
 5077 02a6 74000000 		.4byte	.LFE6-.LFB6
 5078 02aa 01       		.uleb128 0x1
 5079 02ab 9C       		.byte	0x9c
 5080 02ac C0020000 		.4byte	0x2c0
 5081 02b0 15       		.uleb128 0x15
 5082 02b1 70020000 		.4byte	.LASF38
 5083 02b5 01       		.byte	0x1
 5084 02b6 1E01     		.2byte	0x11e
 5085 02b8 8D000000 		.4byte	0x8d
 5086 02bc 02       		.uleb128 0x2
 5087 02bd 91       		.byte	0x91
 5088 02be 77       		.sleb128 -9
 5089 02bf 00       		.byte	0
 5090 02c0 16       		.uleb128 0x16
 5091 02c1 94030000 		.4byte	.LASF41
 5092 02c5 01       		.byte	0x1
 5093 02c6 3B01     		.2byte	0x13b
 5094 02c8 00000000 		.4byte	.LFB7
 5095 02cc 3C000000 		.4byte	.LFE7-.LFB7
 5096 02d0 01       		.uleb128 0x1
 5097 02d1 9C       		.byte	0x9c
 5098 02d2 F5020000 		.4byte	0x2f5
 5099 02d6 17       		.uleb128 0x17
 5100 02d7 C2030000 		.4byte	.LASF39
 5101 02db 01       		.byte	0x1
 5102 02dc 3B01     		.2byte	0x13b
 5103 02de 8D000000 		.4byte	0x8d
 5104 02e2 02       		.uleb128 0x2
 5105 02e3 91       		.byte	0x91
 5106 02e4 6F       		.sleb128 -17
 5107 02e5 15       		.uleb128 0x15
 5108 02e6 9F010000 		.4byte	.LASF40
 5109 02ea 01       		.byte	0x1
 5110 02eb 3D01     		.2byte	0x13d
ARM GAS  C:\Users\r\AppData\Local\Temp\cc1ZHhx7.s 			page 132


 5111 02ed 8D000000 		.4byte	0x8d
 5112 02f1 02       		.uleb128 0x2
 5113 02f2 91       		.byte	0x91
 5114 02f3 77       		.sleb128 -9
 5115 02f4 00       		.byte	0
 5116 02f5 18       		.uleb128 0x18
 5117 02f6 36040000 		.4byte	.LASF42
 5118 02fa 01       		.byte	0x1
 5119 02fb 5D01     		.2byte	0x15d
 5120 02fd 00000000 		.4byte	.LFB8
 5121 0301 38020000 		.4byte	.LFE8-.LFB8
 5122 0305 01       		.uleb128 0x1
 5123 0306 9C       		.byte	0x9c
 5124 0307 75050000 		.4byte	0x575
 5125 030b 15       		.uleb128 0x15
 5126 030c E0020000 		.4byte	.LASF43
 5127 0310 01       		.byte	0x1
 5128 0311 6001     		.2byte	0x160
 5129 0313 8A050000 		.4byte	0x58a
 5130 0317 05       		.uleb128 0x5
 5131 0318 03       		.byte	0x3
 5132 0319 E40E0000 		.4byte	BS_IOPINS0_0_VAL.5013
 5133 031d 15       		.uleb128 0x15
 5134 031e B9000000 		.4byte	.LASF44
 5135 0322 01       		.byte	0x1
 5136 0323 6401     		.2byte	0x164
 5137 0325 9F050000 		.4byte	0x59f
 5138 0329 05       		.uleb128 0x5
 5139 032a 03       		.byte	0x3
 5140 032b F00E0000 		.4byte	BS_IOPINS0_7_VAL.5014
 5141 032f 15       		.uleb128 0x15
 5142 0330 04040000 		.4byte	.LASF45
 5143 0334 01       		.byte	0x1
 5144 0335 6801     		.2byte	0x168
 5145 0337 B4050000 		.4byte	0x5b4
 5146 033b 05       		.uleb128 0x5
 5147 033c 03       		.byte	0x3
 5148 033d F80E0000 		.4byte	BS_IOPINS1_7_VAL.5015
 5149 0341 15       		.uleb128 0x15
 5150 0342 3E030000 		.4byte	.LASF46
 5151 0346 01       		.byte	0x1
 5152 0347 6C01     		.2byte	0x16c
 5153 0349 B9050000 		.4byte	0x5b9
 5154 034d 05       		.uleb128 0x5
 5155 034e 03       		.byte	0x3
 5156 034f 000F0000 		.4byte	BS_IOPINS0_8_VAL.5016
 5157 0353 15       		.uleb128 0x15
 5158 0354 A8010000 		.4byte	.LASF47
 5159 0358 01       		.byte	0x1
 5160 0359 7001     		.2byte	0x170
 5161 035b BE050000 		.4byte	0x5be
 5162 035f 05       		.uleb128 0x5
 5163 0360 03       		.byte	0x3
 5164 0361 0C0F0000 		.4byte	BS_IOPINS0_1_VAL.5017
 5165 0365 15       		.uleb128 0x15
 5166 0366 15040000 		.4byte	.LASF48
 5167 036a 01       		.byte	0x1
ARM GAS  C:\Users\r\AppData\Local\Temp\cc1ZHhx7.s 			page 133


 5168 036b 7401     		.2byte	0x174
 5169 036d C3050000 		.4byte	0x5c3
 5170 0371 05       		.uleb128 0x5
 5171 0372 03       		.byte	0x3
 5172 0373 140F0000 		.4byte	BS_IOPINS0_2_VAL.5018
 5173 0377 15       		.uleb128 0x15
 5174 0378 9F020000 		.4byte	.LASF49
 5175 037c 01       		.byte	0x1
 5176 037d 7801     		.2byte	0x178
 5177 037f C8050000 		.4byte	0x5c8
 5178 0383 05       		.uleb128 0x5
 5179 0384 03       		.byte	0x3
 5180 0385 1C0F0000 		.4byte	BS_IOPINS0_3_VAL.5019
 5181 0389 15       		.uleb128 0x15
 5182 038a 65010000 		.4byte	.LASF50
 5183 038e 01       		.byte	0x1
 5184 038f 7C01     		.2byte	0x17c
 5185 0391 CD050000 		.4byte	0x5cd
 5186 0395 05       		.uleb128 0x5
 5187 0396 03       		.byte	0x3
 5188 0397 280F0000 		.4byte	BS_IOPINS0_4_VAL.5020
 5189 039b 15       		.uleb128 0x15
 5190 039c B1030000 		.4byte	.LASF51
 5191 03a0 01       		.byte	0x1
 5192 03a1 8001     		.2byte	0x180
 5193 03a3 D2050000 		.4byte	0x5d2
 5194 03a7 05       		.uleb128 0x5
 5195 03a8 03       		.byte	0x3
 5196 03a9 300F0000 		.4byte	BS_IOPINS0_5_VAL.5021
 5197 03ad 15       		.uleb128 0x15
 5198 03ae 3A020000 		.4byte	.LASF52
 5199 03b2 01       		.byte	0x1
 5200 03b3 8401     		.2byte	0x184
 5201 03b5 D7050000 		.4byte	0x5d7
 5202 03b9 05       		.uleb128 0x5
 5203 03ba 03       		.byte	0x3
 5204 03bb 380F0000 		.4byte	BS_IOPINS0_6_VAL.5022
 5205 03bf 15       		.uleb128 0x15
 5206 03c0 62030000 		.4byte	.LASF53
 5207 03c4 01       		.byte	0x1
 5208 03c5 8801     		.2byte	0x188
 5209 03c7 EC050000 		.4byte	0x5ec
 5210 03cb 05       		.uleb128 0x5
 5211 03cc 03       		.byte	0x3
 5212 03cd D80E0000 		.4byte	BS_PHUB_CFGMEM1_VAL.5023
 5213 03d1 15       		.uleb128 0x15
 5214 03d2 EF010000 		.4byte	.LASF54
 5215 03d6 01       		.byte	0x1
 5216 03d7 8C01     		.2byte	0x18c
 5217 03d9 F1050000 		.4byte	0x5f1
 5218 03dd 05       		.uleb128 0x5
 5219 03de 03       		.byte	0x3
 5220 03df DC0E0000 		.4byte	BS_PHUB_CFGMEM2_VAL.5024
 5221 03e3 15       		.uleb128 0x15
 5222 03e4 43040000 		.4byte	.LASF55
 5223 03e8 01       		.byte	0x1
 5224 03e9 9001     		.2byte	0x190
ARM GAS  C:\Users\r\AppData\Local\Temp\cc1ZHhx7.s 			page 134


 5225 03eb F6050000 		.4byte	0x5f6
 5226 03ef 05       		.uleb128 0x5
 5227 03f0 03       		.byte	0x3
 5228 03f1 E00E0000 		.4byte	BS_PHUB_CFGMEM3_VAL.5025
 5229 03f5 11       		.uleb128 0x11
 5230 03f6 28000000 		.4byte	.LBB3
 5231 03fa E8000000 		.4byte	.LBE3-.LBB3
 5232 03fe 15       		.uleb128 0x15
 5233 03ff 34010000 		.4byte	.LASF56
 5234 0403 01       		.byte	0x1
 5235 0404 A301     		.2byte	0x1a3
 5236 0406 0B060000 		.4byte	0x60b
 5237 040a 05       		.uleb128 0x5
 5238 040b 03       		.byte	0x3
 5239 040c 30000000 		.4byte	cy_cfg_addr_table.5026
 5240 0410 15       		.uleb128 0x15
 5241 0411 F7000000 		.4byte	.LASF57
 5242 0415 01       		.byte	0x1
 5243 0416 D001     		.2byte	0x1d0
 5244 0418 21060000 		.4byte	0x621
 5245 041c 05       		.uleb128 0x5
 5246 041d 03       		.byte	0x3
 5247 041e D8000000 		.4byte	cy_cfg_data_table.5027
 5248 0422 19       		.uleb128 0x19
 5249 0423 06       		.byte	0x6
 5250 0424 01       		.byte	0x1
 5251 0425 D408     		.2byte	0x8d4
 5252 0427 46040000 		.4byte	0x446
 5253 042b 1A       		.uleb128 0x1a
 5254 042c FC030000 		.4byte	.LASF58
 5255 0430 01       		.byte	0x1
 5256 0431 D508     		.2byte	0x8d5
 5257 0433 84000000 		.4byte	0x84
 5258 0437 00       		.byte	0
 5259 0438 1A       		.uleb128 0x1a
 5260 0439 22020000 		.4byte	.LASF59
 5261 043d 01       		.byte	0x1
 5262 043e D608     		.2byte	0x8d6
 5263 0440 99000000 		.4byte	0x99
 5264 0444 04       		.byte	0x4
 5265 0445 00       		.byte	0
 5266 0446 06       		.uleb128 0x6
 5267 0447 82020000 		.4byte	.LASF60
 5268 044b 01       		.byte	0x1
 5269 044c D708     		.2byte	0x8d7
 5270 044e 22040000 		.4byte	0x422
 5271 0452 19       		.uleb128 0x19
 5272 0453 0A       		.byte	0xa
 5273 0454 01       		.byte	0x1
 5274 0455 DA08     		.2byte	0x8da
 5275 0457 83040000 		.4byte	0x483
 5276 045b 1A       		.uleb128 0x1a
 5277 045c B0020000 		.4byte	.LASF25
 5278 0460 01       		.byte	0x1
 5279 0461 DB08     		.2byte	0x8db
 5280 0463 84000000 		.4byte	0x84
 5281 0467 00       		.byte	0
ARM GAS  C:\Users\r\AppData\Local\Temp\cc1ZHhx7.s 			page 135


 5282 0468 1B       		.uleb128 0x1b
 5283 0469 73726300 		.ascii	"src\000"
 5284 046d 01       		.byte	0x1
 5285 046e DC08     		.2byte	0x8dc
 5286 0470 79010000 		.4byte	0x179
 5287 0474 04       		.byte	0x4
 5288 0475 1A       		.uleb128 0x1a
 5289 0476 22020000 		.4byte	.LASF59
 5290 047a 01       		.byte	0x1
 5291 047b DD08     		.2byte	0x8dd
 5292 047d 99000000 		.4byte	0x99
 5293 0481 08       		.byte	0x8
 5294 0482 00       		.byte	0
 5295 0483 06       		.uleb128 0x6
 5296 0484 03020000 		.4byte	.LASF61
 5297 0488 01       		.byte	0x1
 5298 0489 DE08     		.2byte	0x8de
 5299 048b 52040000 		.4byte	0x452
 5300 048f 1C       		.uleb128 0x1c
 5301 0490 9F040000 		.4byte	0x49f
 5302 0494 9F040000 		.4byte	0x49f
 5303 0498 1D       		.uleb128 0x1d
 5304 0499 7D000000 		.4byte	0x7d
 5305 049d 05       		.byte	0x5
 5306 049e 00       		.byte	0
 5307 049f 13       		.uleb128 0x13
 5308 04a0 46040000 		.4byte	0x446
 5309 04a4 15       		.uleb128 0x15
 5310 04a5 8F020000 		.4byte	.LASF62
 5311 04a9 01       		.byte	0x1
 5312 04aa E008     		.2byte	0x8e0
 5313 04ac B6040000 		.4byte	0x4b6
 5314 04b0 05       		.uleb128 0x5
 5315 04b1 03       		.byte	0x3
 5316 04b2 00000000 		.4byte	cfg_memset_list.5037
 5317 04b6 13       		.uleb128 0x13
 5318 04b7 8F040000 		.4byte	0x48f
 5319 04bb 15       		.uleb128 0x15
 5320 04bc 82030000 		.4byte	.LASF63
 5321 04c0 01       		.byte	0x1
 5322 04c1 EB08     		.2byte	0x8eb
 5323 04c3 36060000 		.4byte	0x636
 5324 04c7 05       		.uleb128 0x5
 5325 04c8 03       		.byte	0x3
 5326 04c9 400F0000 		.4byte	BS_UCFG_BCTL0_VAL.5038
 5327 04cd 1C       		.uleb128 0x1c
 5328 04ce DD040000 		.4byte	0x4dd
 5329 04d2 DD040000 		.4byte	0x4dd
 5330 04d6 1D       		.uleb128 0x1d
 5331 04d7 7D000000 		.4byte	0x7d
 5332 04db 00       		.byte	0
 5333 04dc 00       		.byte	0
 5334 04dd 13       		.uleb128 0x13
 5335 04de 83040000 		.4byte	0x483
 5336 04e2 15       		.uleb128 0x15
 5337 04e3 26040000 		.4byte	.LASF64
 5338 04e7 01       		.byte	0x1
ARM GAS  C:\Users\r\AppData\Local\Temp\cc1ZHhx7.s 			page 136


 5339 04e8 EE08     		.2byte	0x8ee
 5340 04ea F4040000 		.4byte	0x4f4
 5341 04ee 05       		.uleb128 0x5
 5342 04ef 03       		.byte	0x3
 5343 04f0 24000000 		.4byte	cfg_memcpy_list.5039
 5344 04f4 13       		.uleb128 0x13
 5345 04f5 CD040000 		.4byte	0x4cd
 5346 04f9 1E       		.uleb128 0x1e
 5347 04fa 6900     		.ascii	"i\000"
 5348 04fc 01       		.byte	0x1
 5349 04fd F308     		.2byte	0x8f3
 5350 04ff 8D000000 		.4byte	0x8d
 5351 0503 02       		.uleb128 0x2
 5352 0504 91       		.byte	0x91
 5353 0505 77       		.sleb128 -9
 5354 0506 1F       		.uleb128 0x1f
 5355 0507 2E000000 		.4byte	.LBB4
 5356 050b 22000000 		.4byte	.LBE4-.LBB4
 5357 050f 28050000 		.4byte	0x528
 5358 0513 1E       		.uleb128 0x1e
 5359 0514 6D7300   		.ascii	"ms\000"
 5360 0517 01       		.byte	0x1
 5361 0518 F808     		.2byte	0x8f8
 5362 051a 21050000 		.4byte	0x521
 5363 051e 02       		.uleb128 0x2
 5364 051f 91       		.byte	0x91
 5365 0520 70       		.sleb128 -16
 5366 0521 0D       		.uleb128 0xd
 5367 0522 04       		.byte	0x4
 5368 0523 9F040000 		.4byte	0x49f
 5369 0527 00       		.byte	0
 5370 0528 11       		.uleb128 0x11
 5371 0529 62000000 		.4byte	.LBB5
 5372 052d 34000000 		.4byte	.LBE5-.LBB5
 5373 0531 1E       		.uleb128 0x1e
 5374 0532 6D6300   		.ascii	"mc\000"
 5375 0535 01       		.byte	0x1
 5376 0536 FF08     		.2byte	0x8ff
 5377 0538 3F050000 		.4byte	0x53f
 5378 053c 02       		.uleb128 0x2
 5379 053d 91       		.byte	0x91
 5380 053e 6C       		.sleb128 -20
 5381 053f 0D       		.uleb128 0xd
 5382 0540 04       		.byte	0x4
 5383 0541 DD040000 		.4byte	0x4dd
 5384 0545 15       		.uleb128 0x15
 5385 0546 BB020000 		.4byte	.LASF65
 5386 054a 01       		.byte	0x1
 5387 054b 0009     		.2byte	0x900
 5388 054d 84000000 		.4byte	0x84
 5389 0551 02       		.uleb128 0x2
 5390 0552 91       		.byte	0x91
 5391 0553 68       		.sleb128 -24
 5392 0554 15       		.uleb128 0x15
 5393 0555 7B030000 		.4byte	.LASF66
 5394 0559 01       		.byte	0x1
 5395 055a 0109     		.2byte	0x901
ARM GAS  C:\Users\r\AppData\Local\Temp\cc1ZHhx7.s 			page 137


 5396 055c 79010000 		.4byte	0x179
 5397 0560 02       		.uleb128 0x2
 5398 0561 91       		.byte	0x91
 5399 0562 64       		.sleb128 -28
 5400 0563 15       		.uleb128 0x15
 5401 0564 CC010000 		.4byte	.LASF67
 5402 0568 01       		.byte	0x1
 5403 0569 0209     		.2byte	0x902
 5404 056b 99000000 		.4byte	0x99
 5405 056f 02       		.uleb128 0x2
 5406 0570 91       		.byte	0x91
 5407 0571 62       		.sleb128 -30
 5408 0572 00       		.byte	0
 5409 0573 00       		.byte	0
 5410 0574 00       		.byte	0
 5411 0575 1C       		.uleb128 0x1c
 5412 0576 85050000 		.4byte	0x585
 5413 057a 85050000 		.4byte	0x585
 5414 057e 1D       		.uleb128 0x1d
 5415 057f 7D000000 		.4byte	0x7d
 5416 0583 09       		.byte	0x9
 5417 0584 00       		.byte	0
 5418 0585 13       		.uleb128 0x13
 5419 0586 8D000000 		.4byte	0x8d
 5420 058a 13       		.uleb128 0x13
 5421 058b 75050000 		.4byte	0x575
 5422 058f 1C       		.uleb128 0x1c
 5423 0590 85050000 		.4byte	0x585
 5424 0594 9F050000 		.4byte	0x59f
 5425 0598 1D       		.uleb128 0x1d
 5426 0599 7D000000 		.4byte	0x7d
 5427 059d 07       		.byte	0x7
 5428 059e 00       		.byte	0
 5429 059f 13       		.uleb128 0x13
 5430 05a0 8F050000 		.4byte	0x58f
 5431 05a4 1C       		.uleb128 0x1c
 5432 05a5 85050000 		.4byte	0x585
 5433 05a9 B4050000 		.4byte	0x5b4
 5434 05ad 1D       		.uleb128 0x1d
 5435 05ae 7D000000 		.4byte	0x7d
 5436 05b2 04       		.byte	0x4
 5437 05b3 00       		.byte	0
 5438 05b4 13       		.uleb128 0x13
 5439 05b5 A4050000 		.4byte	0x5a4
 5440 05b9 13       		.uleb128 0x13
 5441 05ba 75050000 		.4byte	0x575
 5442 05be 13       		.uleb128 0x13
 5443 05bf 8F050000 		.4byte	0x58f
 5444 05c3 13       		.uleb128 0x13
 5445 05c4 8F050000 		.4byte	0x58f
 5446 05c8 13       		.uleb128 0x13
 5447 05c9 75050000 		.4byte	0x575
 5448 05cd 13       		.uleb128 0x13
 5449 05ce 8F050000 		.4byte	0x58f
 5450 05d2 13       		.uleb128 0x13
 5451 05d3 8F050000 		.4byte	0x58f
 5452 05d7 13       		.uleb128 0x13
ARM GAS  C:\Users\r\AppData\Local\Temp\cc1ZHhx7.s 			page 138


 5453 05d8 8F050000 		.4byte	0x58f
 5454 05dc 1C       		.uleb128 0x1c
 5455 05dd 85050000 		.4byte	0x585
 5456 05e1 EC050000 		.4byte	0x5ec
 5457 05e5 1D       		.uleb128 0x1d
 5458 05e6 7D000000 		.4byte	0x7d
 5459 05ea 03       		.byte	0x3
 5460 05eb 00       		.byte	0
 5461 05ec 13       		.uleb128 0x13
 5462 05ed DC050000 		.4byte	0x5dc
 5463 05f1 13       		.uleb128 0x13
 5464 05f2 DC050000 		.4byte	0x5dc
 5465 05f6 13       		.uleb128 0x13
 5466 05f7 DC050000 		.4byte	0x5dc
 5467 05fb 1C       		.uleb128 0x1c
 5468 05fc 58020000 		.4byte	0x258
 5469 0600 0B060000 		.4byte	0x60b
 5470 0604 1D       		.uleb128 0x1d
 5471 0605 7D000000 		.4byte	0x7d
 5472 0609 29       		.byte	0x29
 5473 060a 00       		.byte	0
 5474 060b 13       		.uleb128 0x13
 5475 060c FB050000 		.4byte	0x5fb
 5476 0610 1C       		.uleb128 0x1c
 5477 0611 63020000 		.4byte	0x263
 5478 0615 21060000 		.4byte	0x621
 5479 0619 20       		.uleb128 0x20
 5480 061a 7D000000 		.4byte	0x7d
 5481 061e FE06     		.2byte	0x6fe
 5482 0620 00       		.byte	0
 5483 0621 13       		.uleb128 0x13
 5484 0622 10060000 		.4byte	0x610
 5485 0626 1C       		.uleb128 0x1c
 5486 0627 85050000 		.4byte	0x585
 5487 062b 36060000 		.4byte	0x636
 5488 062f 1D       		.uleb128 0x1d
 5489 0630 7D000000 		.4byte	0x7d
 5490 0634 0F       		.byte	0xf
 5491 0635 00       		.byte	0
 5492 0636 13       		.uleb128 0x13
 5493 0637 26060000 		.4byte	0x626
 5494 063b 00       		.byte	0
 5495              		.section	.debug_abbrev,"",%progbits
 5496              	.Ldebug_abbrev0:
 5497 0000 01       		.uleb128 0x1
 5498 0001 11       		.uleb128 0x11
 5499 0002 01       		.byte	0x1
 5500 0003 25       		.uleb128 0x25
 5501 0004 0E       		.uleb128 0xe
 5502 0005 13       		.uleb128 0x13
 5503 0006 0B       		.uleb128 0xb
 5504 0007 03       		.uleb128 0x3
 5505 0008 0E       		.uleb128 0xe
 5506 0009 1B       		.uleb128 0x1b
 5507 000a 0E       		.uleb128 0xe
 5508 000b 55       		.uleb128 0x55
 5509 000c 17       		.uleb128 0x17
ARM GAS  C:\Users\r\AppData\Local\Temp\cc1ZHhx7.s 			page 139


 5510 000d 11       		.uleb128 0x11
 5511 000e 01       		.uleb128 0x1
 5512 000f 10       		.uleb128 0x10
 5513 0010 17       		.uleb128 0x17
 5514 0011 00       		.byte	0
 5515 0012 00       		.byte	0
 5516 0013 02       		.uleb128 0x2
 5517 0014 24       		.uleb128 0x24
 5518 0015 00       		.byte	0
 5519 0016 0B       		.uleb128 0xb
 5520 0017 0B       		.uleb128 0xb
 5521 0018 3E       		.uleb128 0x3e
 5522 0019 0B       		.uleb128 0xb
 5523 001a 03       		.uleb128 0x3
 5524 001b 08       		.uleb128 0x8
 5525 001c 00       		.byte	0
 5526 001d 00       		.byte	0
 5527 001e 03       		.uleb128 0x3
 5528 001f 16       		.uleb128 0x16
 5529 0020 00       		.byte	0
 5530 0021 03       		.uleb128 0x3
 5531 0022 0E       		.uleb128 0xe
 5532 0023 3A       		.uleb128 0x3a
 5533 0024 0B       		.uleb128 0xb
 5534 0025 3B       		.uleb128 0x3b
 5535 0026 0B       		.uleb128 0xb
 5536 0027 49       		.uleb128 0x49
 5537 0028 13       		.uleb128 0x13
 5538 0029 00       		.byte	0
 5539 002a 00       		.byte	0
 5540 002b 04       		.uleb128 0x4
 5541 002c 24       		.uleb128 0x24
 5542 002d 00       		.byte	0
 5543 002e 0B       		.uleb128 0xb
 5544 002f 0B       		.uleb128 0xb
 5545 0030 3E       		.uleb128 0x3e
 5546 0031 0B       		.uleb128 0xb
 5547 0032 03       		.uleb128 0x3
 5548 0033 0E       		.uleb128 0xe
 5549 0034 00       		.byte	0
 5550 0035 00       		.byte	0
 5551 0036 05       		.uleb128 0x5
 5552 0037 0F       		.uleb128 0xf
 5553 0038 00       		.byte	0
 5554 0039 0B       		.uleb128 0xb
 5555 003a 0B       		.uleb128 0xb
 5556 003b 00       		.byte	0
 5557 003c 00       		.byte	0
 5558 003d 06       		.uleb128 0x6
 5559 003e 16       		.uleb128 0x16
 5560 003f 00       		.byte	0
 5561 0040 03       		.uleb128 0x3
 5562 0041 0E       		.uleb128 0xe
 5563 0042 3A       		.uleb128 0x3a
 5564 0043 0B       		.uleb128 0xb
 5565 0044 3B       		.uleb128 0x3b
 5566 0045 05       		.uleb128 0x5
ARM GAS  C:\Users\r\AppData\Local\Temp\cc1ZHhx7.s 			page 140


 5567 0046 49       		.uleb128 0x49
 5568 0047 13       		.uleb128 0x13
 5569 0048 00       		.byte	0
 5570 0049 00       		.byte	0
 5571 004a 07       		.uleb128 0x7
 5572 004b 35       		.uleb128 0x35
 5573 004c 00       		.byte	0
 5574 004d 49       		.uleb128 0x49
 5575 004e 13       		.uleb128 0x13
 5576 004f 00       		.byte	0
 5577 0050 00       		.byte	0
 5578 0051 08       		.uleb128 0x8
 5579 0052 13       		.uleb128 0x13
 5580 0053 01       		.byte	0x1
 5581 0054 0B       		.uleb128 0xb
 5582 0055 0B       		.uleb128 0xb
 5583 0056 3A       		.uleb128 0x3a
 5584 0057 0B       		.uleb128 0xb
 5585 0058 3B       		.uleb128 0x3b
 5586 0059 0B       		.uleb128 0xb
 5587 005a 01       		.uleb128 0x1
 5588 005b 13       		.uleb128 0x13
 5589 005c 00       		.byte	0
 5590 005d 00       		.byte	0
 5591 005e 09       		.uleb128 0x9
 5592 005f 0D       		.uleb128 0xd
 5593 0060 00       		.byte	0
 5594 0061 03       		.uleb128 0x3
 5595 0062 0E       		.uleb128 0xe
 5596 0063 3A       		.uleb128 0x3a
 5597 0064 0B       		.uleb128 0xb
 5598 0065 3B       		.uleb128 0x3b
 5599 0066 0B       		.uleb128 0xb
 5600 0067 49       		.uleb128 0x49
 5601 0068 13       		.uleb128 0x13
 5602 0069 38       		.uleb128 0x38
 5603 006a 0B       		.uleb128 0xb
 5604 006b 00       		.byte	0
 5605 006c 00       		.byte	0
 5606 006d 0A       		.uleb128 0xa
 5607 006e 2E       		.uleb128 0x2e
 5608 006f 01       		.byte	0x1
 5609 0070 03       		.uleb128 0x3
 5610 0071 0E       		.uleb128 0xe
 5611 0072 3A       		.uleb128 0x3a
 5612 0073 0B       		.uleb128 0xb
 5613 0074 3B       		.uleb128 0x3b
 5614 0075 0B       		.uleb128 0xb
 5615 0076 27       		.uleb128 0x27
 5616 0077 19       		.uleb128 0x19
 5617 0078 11       		.uleb128 0x11
 5618 0079 01       		.uleb128 0x1
 5619 007a 12       		.uleb128 0x12
 5620 007b 06       		.uleb128 0x6
 5621 007c 40       		.uleb128 0x40
 5622 007d 18       		.uleb128 0x18
 5623 007e 9642     		.uleb128 0x2116
ARM GAS  C:\Users\r\AppData\Local\Temp\cc1ZHhx7.s 			page 141


 5624 0080 19       		.uleb128 0x19
 5625 0081 01       		.uleb128 0x1
 5626 0082 13       		.uleb128 0x13
 5627 0083 00       		.byte	0
 5628 0084 00       		.byte	0
 5629 0085 0B       		.uleb128 0xb
 5630 0086 05       		.uleb128 0x5
 5631 0087 00       		.byte	0
 5632 0088 03       		.uleb128 0x3
 5633 0089 08       		.uleb128 0x8
 5634 008a 3A       		.uleb128 0x3a
 5635 008b 0B       		.uleb128 0xb
 5636 008c 3B       		.uleb128 0x3b
 5637 008d 0B       		.uleb128 0xb
 5638 008e 49       		.uleb128 0x49
 5639 008f 13       		.uleb128 0x13
 5640 0090 02       		.uleb128 0x2
 5641 0091 18       		.uleb128 0x18
 5642 0092 00       		.byte	0
 5643 0093 00       		.byte	0
 5644 0094 0C       		.uleb128 0xc
 5645 0095 05       		.uleb128 0x5
 5646 0096 00       		.byte	0
 5647 0097 03       		.uleb128 0x3
 5648 0098 0E       		.uleb128 0xe
 5649 0099 3A       		.uleb128 0x3a
 5650 009a 0B       		.uleb128 0xb
 5651 009b 3B       		.uleb128 0x3b
 5652 009c 0B       		.uleb128 0xb
 5653 009d 49       		.uleb128 0x49
 5654 009e 13       		.uleb128 0x13
 5655 009f 02       		.uleb128 0x2
 5656 00a0 18       		.uleb128 0x18
 5657 00a1 00       		.byte	0
 5658 00a2 00       		.byte	0
 5659 00a3 0D       		.uleb128 0xd
 5660 00a4 0F       		.uleb128 0xf
 5661 00a5 00       		.byte	0
 5662 00a6 0B       		.uleb128 0xb
 5663 00a7 0B       		.uleb128 0xb
 5664 00a8 49       		.uleb128 0x49
 5665 00a9 13       		.uleb128 0x13
 5666 00aa 00       		.byte	0
 5667 00ab 00       		.byte	0
 5668 00ac 0E       		.uleb128 0xe
 5669 00ad 26       		.uleb128 0x26
 5670 00ae 00       		.byte	0
 5671 00af 00       		.byte	0
 5672 00b0 00       		.byte	0
 5673 00b1 0F       		.uleb128 0xf
 5674 00b2 2E       		.uleb128 0x2e
 5675 00b3 01       		.byte	0x1
 5676 00b4 03       		.uleb128 0x3
 5677 00b5 0E       		.uleb128 0xe
 5678 00b6 3A       		.uleb128 0x3a
 5679 00b7 0B       		.uleb128 0xb
 5680 00b8 3B       		.uleb128 0x3b
ARM GAS  C:\Users\r\AppData\Local\Temp\cc1ZHhx7.s 			page 142


 5681 00b9 0B       		.uleb128 0xb
 5682 00ba 27       		.uleb128 0x27
 5683 00bb 19       		.uleb128 0x19
 5684 00bc 11       		.uleb128 0x11
 5685 00bd 01       		.uleb128 0x1
 5686 00be 12       		.uleb128 0x12
 5687 00bf 06       		.uleb128 0x6
 5688 00c0 40       		.uleb128 0x40
 5689 00c1 18       		.uleb128 0x18
 5690 00c2 9742     		.uleb128 0x2117
 5691 00c4 19       		.uleb128 0x19
 5692 00c5 01       		.uleb128 0x1
 5693 00c6 13       		.uleb128 0x13
 5694 00c7 00       		.byte	0
 5695 00c8 00       		.byte	0
 5696 00c9 10       		.uleb128 0x10
 5697 00ca 34       		.uleb128 0x34
 5698 00cb 00       		.byte	0
 5699 00cc 03       		.uleb128 0x3
 5700 00cd 08       		.uleb128 0x8
 5701 00ce 3A       		.uleb128 0x3a
 5702 00cf 0B       		.uleb128 0xb
 5703 00d0 3B       		.uleb128 0x3b
 5704 00d1 0B       		.uleb128 0xb
 5705 00d2 49       		.uleb128 0x49
 5706 00d3 13       		.uleb128 0x13
 5707 00d4 02       		.uleb128 0x2
 5708 00d5 18       		.uleb128 0x18
 5709 00d6 00       		.byte	0
 5710 00d7 00       		.byte	0
 5711 00d8 11       		.uleb128 0x11
 5712 00d9 0B       		.uleb128 0xb
 5713 00da 01       		.byte	0x1
 5714 00db 11       		.uleb128 0x11
 5715 00dc 01       		.uleb128 0x1
 5716 00dd 12       		.uleb128 0x12
 5717 00de 06       		.uleb128 0x6
 5718 00df 00       		.byte	0
 5719 00e0 00       		.byte	0
 5720 00e1 12       		.uleb128 0x12
 5721 00e2 34       		.uleb128 0x34
 5722 00e3 00       		.byte	0
 5723 00e4 03       		.uleb128 0x3
 5724 00e5 0E       		.uleb128 0xe
 5725 00e6 3A       		.uleb128 0x3a
 5726 00e7 0B       		.uleb128 0xb
 5727 00e8 3B       		.uleb128 0x3b
 5728 00e9 0B       		.uleb128 0xb
 5729 00ea 49       		.uleb128 0x49
 5730 00eb 13       		.uleb128 0x13
 5731 00ec 02       		.uleb128 0x2
 5732 00ed 18       		.uleb128 0x18
 5733 00ee 00       		.byte	0
 5734 00ef 00       		.byte	0
 5735 00f0 13       		.uleb128 0x13
 5736 00f1 26       		.uleb128 0x26
 5737 00f2 00       		.byte	0
ARM GAS  C:\Users\r\AppData\Local\Temp\cc1ZHhx7.s 			page 143


 5738 00f3 49       		.uleb128 0x49
 5739 00f4 13       		.uleb128 0x13
 5740 00f5 00       		.byte	0
 5741 00f6 00       		.byte	0
 5742 00f7 14       		.uleb128 0x14
 5743 00f8 2E       		.uleb128 0x2e
 5744 00f9 01       		.byte	0x1
 5745 00fa 03       		.uleb128 0x3
 5746 00fb 0E       		.uleb128 0xe
 5747 00fc 3A       		.uleb128 0x3a
 5748 00fd 0B       		.uleb128 0xb
 5749 00fe 3B       		.uleb128 0x3b
 5750 00ff 05       		.uleb128 0x5
 5751 0100 27       		.uleb128 0x27
 5752 0101 19       		.uleb128 0x19
 5753 0102 11       		.uleb128 0x11
 5754 0103 01       		.uleb128 0x1
 5755 0104 12       		.uleb128 0x12
 5756 0105 06       		.uleb128 0x6
 5757 0106 40       		.uleb128 0x40
 5758 0107 18       		.uleb128 0x18
 5759 0108 9742     		.uleb128 0x2117
 5760 010a 19       		.uleb128 0x19
 5761 010b 01       		.uleb128 0x1
 5762 010c 13       		.uleb128 0x13
 5763 010d 00       		.byte	0
 5764 010e 00       		.byte	0
 5765 010f 15       		.uleb128 0x15
 5766 0110 34       		.uleb128 0x34
 5767 0111 00       		.byte	0
 5768 0112 03       		.uleb128 0x3
 5769 0113 0E       		.uleb128 0xe
 5770 0114 3A       		.uleb128 0x3a
 5771 0115 0B       		.uleb128 0xb
 5772 0116 3B       		.uleb128 0x3b
 5773 0117 05       		.uleb128 0x5
 5774 0118 49       		.uleb128 0x49
 5775 0119 13       		.uleb128 0x13
 5776 011a 02       		.uleb128 0x2
 5777 011b 18       		.uleb128 0x18
 5778 011c 00       		.byte	0
 5779 011d 00       		.byte	0
 5780 011e 16       		.uleb128 0x16
 5781 011f 2E       		.uleb128 0x2e
 5782 0120 01       		.byte	0x1
 5783 0121 3F       		.uleb128 0x3f
 5784 0122 19       		.uleb128 0x19
 5785 0123 03       		.uleb128 0x3
 5786 0124 0E       		.uleb128 0xe
 5787 0125 3A       		.uleb128 0x3a
 5788 0126 0B       		.uleb128 0xb
 5789 0127 3B       		.uleb128 0x3b
 5790 0128 05       		.uleb128 0x5
 5791 0129 27       		.uleb128 0x27
 5792 012a 19       		.uleb128 0x19
 5793 012b 11       		.uleb128 0x11
 5794 012c 01       		.uleb128 0x1
ARM GAS  C:\Users\r\AppData\Local\Temp\cc1ZHhx7.s 			page 144


 5795 012d 12       		.uleb128 0x12
 5796 012e 06       		.uleb128 0x6
 5797 012f 40       		.uleb128 0x40
 5798 0130 18       		.uleb128 0x18
 5799 0131 9742     		.uleb128 0x2117
 5800 0133 19       		.uleb128 0x19
 5801 0134 01       		.uleb128 0x1
 5802 0135 13       		.uleb128 0x13
 5803 0136 00       		.byte	0
 5804 0137 00       		.byte	0
 5805 0138 17       		.uleb128 0x17
 5806 0139 05       		.uleb128 0x5
 5807 013a 00       		.byte	0
 5808 013b 03       		.uleb128 0x3
 5809 013c 0E       		.uleb128 0xe
 5810 013d 3A       		.uleb128 0x3a
 5811 013e 0B       		.uleb128 0xb
 5812 013f 3B       		.uleb128 0x3b
 5813 0140 05       		.uleb128 0x5
 5814 0141 49       		.uleb128 0x49
 5815 0142 13       		.uleb128 0x13
 5816 0143 02       		.uleb128 0x2
 5817 0144 18       		.uleb128 0x18
 5818 0145 00       		.byte	0
 5819 0146 00       		.byte	0
 5820 0147 18       		.uleb128 0x18
 5821 0148 2E       		.uleb128 0x2e
 5822 0149 01       		.byte	0x1
 5823 014a 3F       		.uleb128 0x3f
 5824 014b 19       		.uleb128 0x19
 5825 014c 03       		.uleb128 0x3
 5826 014d 0E       		.uleb128 0xe
 5827 014e 3A       		.uleb128 0x3a
 5828 014f 0B       		.uleb128 0xb
 5829 0150 3B       		.uleb128 0x3b
 5830 0151 05       		.uleb128 0x5
 5831 0152 27       		.uleb128 0x27
 5832 0153 19       		.uleb128 0x19
 5833 0154 11       		.uleb128 0x11
 5834 0155 01       		.uleb128 0x1
 5835 0156 12       		.uleb128 0x12
 5836 0157 06       		.uleb128 0x6
 5837 0158 40       		.uleb128 0x40
 5838 0159 18       		.uleb128 0x18
 5839 015a 9642     		.uleb128 0x2116
 5840 015c 19       		.uleb128 0x19
 5841 015d 01       		.uleb128 0x1
 5842 015e 13       		.uleb128 0x13
 5843 015f 00       		.byte	0
 5844 0160 00       		.byte	0
 5845 0161 19       		.uleb128 0x19
 5846 0162 13       		.uleb128 0x13
 5847 0163 01       		.byte	0x1
 5848 0164 0B       		.uleb128 0xb
 5849 0165 0B       		.uleb128 0xb
 5850 0166 3A       		.uleb128 0x3a
 5851 0167 0B       		.uleb128 0xb
ARM GAS  C:\Users\r\AppData\Local\Temp\cc1ZHhx7.s 			page 145


 5852 0168 3B       		.uleb128 0x3b
 5853 0169 05       		.uleb128 0x5
 5854 016a 01       		.uleb128 0x1
 5855 016b 13       		.uleb128 0x13
 5856 016c 00       		.byte	0
 5857 016d 00       		.byte	0
 5858 016e 1A       		.uleb128 0x1a
 5859 016f 0D       		.uleb128 0xd
 5860 0170 00       		.byte	0
 5861 0171 03       		.uleb128 0x3
 5862 0172 0E       		.uleb128 0xe
 5863 0173 3A       		.uleb128 0x3a
 5864 0174 0B       		.uleb128 0xb
 5865 0175 3B       		.uleb128 0x3b
 5866 0176 05       		.uleb128 0x5
 5867 0177 49       		.uleb128 0x49
 5868 0178 13       		.uleb128 0x13
 5869 0179 38       		.uleb128 0x38
 5870 017a 0B       		.uleb128 0xb
 5871 017b 00       		.byte	0
 5872 017c 00       		.byte	0
 5873 017d 1B       		.uleb128 0x1b
 5874 017e 0D       		.uleb128 0xd
 5875 017f 00       		.byte	0
 5876 0180 03       		.uleb128 0x3
 5877 0181 08       		.uleb128 0x8
 5878 0182 3A       		.uleb128 0x3a
 5879 0183 0B       		.uleb128 0xb
 5880 0184 3B       		.uleb128 0x3b
 5881 0185 05       		.uleb128 0x5
 5882 0186 49       		.uleb128 0x49
 5883 0187 13       		.uleb128 0x13
 5884 0188 38       		.uleb128 0x38
 5885 0189 0B       		.uleb128 0xb
 5886 018a 00       		.byte	0
 5887 018b 00       		.byte	0
 5888 018c 1C       		.uleb128 0x1c
 5889 018d 01       		.uleb128 0x1
 5890 018e 01       		.byte	0x1
 5891 018f 49       		.uleb128 0x49
 5892 0190 13       		.uleb128 0x13
 5893 0191 01       		.uleb128 0x1
 5894 0192 13       		.uleb128 0x13
 5895 0193 00       		.byte	0
 5896 0194 00       		.byte	0
 5897 0195 1D       		.uleb128 0x1d
 5898 0196 21       		.uleb128 0x21
 5899 0197 00       		.byte	0
 5900 0198 49       		.uleb128 0x49
 5901 0199 13       		.uleb128 0x13
 5902 019a 2F       		.uleb128 0x2f
 5903 019b 0B       		.uleb128 0xb
 5904 019c 00       		.byte	0
 5905 019d 00       		.byte	0
 5906 019e 1E       		.uleb128 0x1e
 5907 019f 34       		.uleb128 0x34
 5908 01a0 00       		.byte	0
ARM GAS  C:\Users\r\AppData\Local\Temp\cc1ZHhx7.s 			page 146


 5909 01a1 03       		.uleb128 0x3
 5910 01a2 08       		.uleb128 0x8
 5911 01a3 3A       		.uleb128 0x3a
 5912 01a4 0B       		.uleb128 0xb
 5913 01a5 3B       		.uleb128 0x3b
 5914 01a6 05       		.uleb128 0x5
 5915 01a7 49       		.uleb128 0x49
 5916 01a8 13       		.uleb128 0x13
 5917 01a9 02       		.uleb128 0x2
 5918 01aa 18       		.uleb128 0x18
 5919 01ab 00       		.byte	0
 5920 01ac 00       		.byte	0
 5921 01ad 1F       		.uleb128 0x1f
 5922 01ae 0B       		.uleb128 0xb
 5923 01af 01       		.byte	0x1
 5924 01b0 11       		.uleb128 0x11
 5925 01b1 01       		.uleb128 0x1
 5926 01b2 12       		.uleb128 0x12
 5927 01b3 06       		.uleb128 0x6
 5928 01b4 01       		.uleb128 0x1
 5929 01b5 13       		.uleb128 0x13
 5930 01b6 00       		.byte	0
 5931 01b7 00       		.byte	0
 5932 01b8 20       		.uleb128 0x20
 5933 01b9 21       		.uleb128 0x21
 5934 01ba 00       		.byte	0
 5935 01bb 49       		.uleb128 0x49
 5936 01bc 13       		.uleb128 0x13
 5937 01bd 2F       		.uleb128 0x2f
 5938 01be 05       		.uleb128 0x5
 5939 01bf 00       		.byte	0
 5940 01c0 00       		.byte	0
 5941 01c1 00       		.byte	0
 5942              		.section	.debug_aranges,"",%progbits
 5943 0000 5C000000 		.4byte	0x5c
 5944 0004 0200     		.2byte	0x2
 5945 0006 00000000 		.4byte	.Ldebug_info0
 5946 000a 04       		.byte	0x4
 5947 000b 00       		.byte	0
 5948 000c 0000     		.2byte	0
 5949 000e 0000     		.2byte	0
 5950 0010 00000000 		.4byte	.LFB0
 5951 0014 1C000000 		.4byte	.LFE0-.LFB0
 5952 0018 00000000 		.4byte	.LFB1
 5953 001c 1E000000 		.4byte	.LFE1-.LFB1
 5954 0020 00000000 		.4byte	.LFB2
 5955 0024 1E000000 		.4byte	.LFE2-.LFB2
 5956 0028 00000000 		.4byte	.LFB3
 5957 002c 0C000000 		.4byte	.LFE3-.LFB3
 5958 0030 00000000 		.4byte	.LFB4
 5959 0034 74000000 		.4byte	.LFE4-.LFB4
 5960 0038 00000000 		.4byte	.LFB5
 5961 003c 44010000 		.4byte	.LFE5-.LFB5
 5962 0040 00000000 		.4byte	.LFB6
 5963 0044 74000000 		.4byte	.LFE6-.LFB6
 5964 0048 00000000 		.4byte	.LFB7
 5965 004c 3C000000 		.4byte	.LFE7-.LFB7
ARM GAS  C:\Users\r\AppData\Local\Temp\cc1ZHhx7.s 			page 147


 5966 0050 00000000 		.4byte	.LFB8
 5967 0054 38020000 		.4byte	.LFE8-.LFB8
 5968 0058 00000000 		.4byte	0
 5969 005c 00000000 		.4byte	0
 5970              		.section	.debug_ranges,"",%progbits
 5971              	.Ldebug_ranges0:
 5972 0000 00000000 		.4byte	.LFB0
 5973 0004 1C000000 		.4byte	.LFE0
 5974 0008 00000000 		.4byte	.LFB1
 5975 000c 1E000000 		.4byte	.LFE1
 5976 0010 00000000 		.4byte	.LFB2
 5977 0014 1E000000 		.4byte	.LFE2
 5978 0018 00000000 		.4byte	.LFB3
 5979 001c 0C000000 		.4byte	.LFE3
 5980 0020 00000000 		.4byte	.LFB4
 5981 0024 74000000 		.4byte	.LFE4
 5982 0028 00000000 		.4byte	.LFB5
 5983 002c 44010000 		.4byte	.LFE5
 5984 0030 00000000 		.4byte	.LFB6
 5985 0034 74000000 		.4byte	.LFE6
 5986 0038 00000000 		.4byte	.LFB7
 5987 003c 3C000000 		.4byte	.LFE7
 5988 0040 00000000 		.4byte	.LFB8
 5989 0044 38020000 		.4byte	.LFE8
 5990 0048 00000000 		.4byte	0
 5991 004c 00000000 		.4byte	0
 5992              		.section	.debug_line,"",%progbits
 5993              	.Ldebug_line0:
 5994 0000 2E020000 		.section	.debug_str,"MS",%progbits,1
 5994      0200CB00 
 5994      00000201 
 5994      FB0E0D00 
 5994      01010101 
 5995              	.LASF14:
 5996 0000 75696E74 		.ascii	"uint16\000"
 5996      313600
 5997              	.LASF32:
 5998 0007 62617365 		.ascii	"baseAddr\000"
 5998      41646472 
 5998      00
 5999              	.LASF12:
 6000 0010 73697A65 		.ascii	"size_t\000"
 6000      5F7400
 6001              	.LASF27:
 6002 0017 4379436C 		.ascii	"CyClockStartupError\000"
 6002      6F636B53 
 6002      74617274 
 6002      75704572 
 6002      726F7200 
 6003              	.LASF68:
 6004 002b 474E5520 		.ascii	"GNU C11 5.4.1 20160609 (release) [ARM/embedded-5-br"
 6004      43313120 
 6004      352E342E 
 6004      31203230 
 6004      31363036 
 6005 005e 616E6368 		.ascii	"anch revision 237715] -mcpu=cortex-m3 -mthumb -g -O"
 6005      20726576 
ARM GAS  C:\Users\r\AppData\Local\Temp\cc1ZHhx7.s 			page 148


 6005      6973696F 
 6005      6E203233 
 6005      37373135 
 6006 0091 30202D66 		.ascii	"0 -ffunction-sections -ffat-lto-objects\000"
 6006      66756E63 
 6006      74696F6E 
 6006      2D736563 
 6006      74696F6E 
 6007              	.LASF44:
 6008 00b9 42535F49 		.ascii	"BS_IOPINS0_7_VAL\000"
 6008      4F50494E 
 6008      53305F37 
 6008      5F56414C 
 6008      00
 6009              	.LASF31:
 6010 00ca 64617461 		.ascii	"data_table\000"
 6010      5F746162 
 6010      6C6500
 6011              	.LASF9:
 6012 00d5 6C6F6E67 		.ascii	"long long unsigned int\000"
 6012      206C6F6E 
 6012      6720756E 
 6012      7369676E 
 6012      65642069 
 6013              	.LASF30:
 6014 00ec 61646472 		.ascii	"addr_table\000"
 6014      5F746162 
 6014      6C6500
 6015              	.LASF57:
 6016 00f7 63795F63 		.ascii	"cy_cfg_data_table\000"
 6016      66675F64 
 6016      6174615F 
 6016      7461626C 
 6016      6500
 6017              	.LASF37:
 6018 0109 416E616C 		.ascii	"AnalogSetDefault\000"
 6018      6F675365 
 6018      74446566 
 6018      61756C74 
 6018      00
 6019              	.LASF1:
 6020 011a 6C6F6E67 		.ascii	"long long int\000"
 6020      206C6F6E 
 6020      6720696E 
 6020      7400
 6021              	.LASF3:
 6022 0128 7369676E 		.ascii	"signed char\000"
 6022      65642063 
 6022      68617200 
 6023              	.LASF56:
 6024 0134 63795F63 		.ascii	"cy_cfg_addr_table\000"
 6024      66675F61 
 6024      6464725F 
 6024      7461626C 
 6024      6500
 6025              	.LASF23:
 6026 0146 43594D45 		.ascii	"CYMEMZERO\000"
ARM GAS  C:\Users\r\AppData\Local\Temp\cc1ZHhx7.s 			page 149


 6026      4D5A4552 
 6026      4F00
 6027              	.LASF34:
 6028 0150 436C6F63 		.ascii	"ClockSetup\000"
 6028      6B536574 
 6028      757000
 6029              	.LASF28:
 6030 015b 6572726F 		.ascii	"errorCode\000"
 6030      72436F64 
 6030      6500
 6031              	.LASF50:
 6032 0165 42535F49 		.ascii	"BS_IOPINS0_4_VAL\000"
 6032      4F50494E 
 6032      53305F34 
 6032      5F56414C 
 6032      00
 6033              	.LASF7:
 6034 0176 6C6F6E67 		.ascii	"long int\000"
 6034      20696E74 
 6034      00
 6035              	.LASF19:
 6036 017f 72656731 		.ascii	"reg16\000"
 6036      3600
 6037              	.LASF13:
 6038 0185 75696E74 		.ascii	"uint8\000"
 6038      3800
 6039              	.LASF17:
 6040 018b 646F7562 		.ascii	"double\000"
 6040      6C6500
 6041              	.LASF15:
 6042 0192 75696E74 		.ascii	"uint32\000"
 6042      333200
 6043              	.LASF33:
 6044 0199 636F756E 		.ascii	"count\000"
 6044      7400
 6045              	.LASF40:
 6046 019f 72656756 		.ascii	"regValue\000"
 6046      616C7565 
 6046      00
 6047              	.LASF47:
 6048 01a8 42535F49 		.ascii	"BS_IOPINS0_1_VAL\000"
 6048      4F50494E 
 6048      53305F31 
 6048      5F56414C 
 6048      00
 6049              	.LASF21:
 6050 01b9 76616C75 		.ascii	"value\000"
 6050      6500
 6051              	.LASF0:
 6052 01bf 756E7369 		.ascii	"unsigned int\000"
 6052      676E6564 
 6052      20696E74 
 6052      00
 6053              	.LASF67:
 6054 01cc 6E756D42 		.ascii	"numBytes\000"
 6054      79746573 
 6054      00
ARM GAS  C:\Users\r\AppData\Local\Temp\cc1ZHhx7.s 			page 150


 6055              	.LASF8:
 6056 01d5 6C6F6E67 		.ascii	"long unsigned int\000"
 6056      20756E73 
 6056      69676E65 
 6056      6420696E 
 6056      7400
 6057              	.LASF35:
 6058 01e7 74696D65 		.ascii	"timeout\000"
 6058      6F757400 
 6059              	.LASF54:
 6060 01ef 42535F50 		.ascii	"BS_PHUB_CFGMEM2_VAL\000"
 6060      4855425F 
 6060      4346474D 
 6060      454D325F 
 6060      56414C00 
 6061              	.LASF61:
 6062 0203 6366675F 		.ascii	"cfg_memcpy_t\000"
 6062      6D656D63 
 6062      70795F74 
 6062      00
 6063              	.LASF29:
 6064 0210 6366675F 		.ascii	"cfg_write_bytes32\000"
 6064      77726974 
 6064      655F6279 
 6064      74657333 
 6064      3200
 6065              	.LASF59:
 6066 0222 73697A65 		.ascii	"size\000"
 6066      00
 6067              	.LASF6:
 6068 0227 73686F72 		.ascii	"short unsigned int\000"
 6068      7420756E 
 6068      7369676E 
 6068      65642069 
 6068      6E7400
 6069              	.LASF52:
 6070 023a 42535F49 		.ascii	"BS_IOPINS0_6_VAL\000"
 6070      4F50494E 
 6070      53305F36 
 6070      5F56414C 
 6070      00
 6071              	.LASF26:
 6072 024b 4359434F 		.ascii	"CYCONFIGCPYCODE\000"
 6072      4E464947 
 6072      43505943 
 6072      4F444500 
 6073              	.LASF10:
 6074 025b 73697A65 		.ascii	"sizetype\000"
 6074      74797065 
 6074      00
 6075              	.LASF2:
 6076 0264 6C6F6E67 		.ascii	"long double\000"
 6076      20646F75 
 6076      626C6500 
 6077              	.LASF38:
 6078 0270 62675F78 		.ascii	"bg_xover_inl_trim\000"
 6078      6F766572 
ARM GAS  C:\Users\r\AppData\Local\Temp\cc1ZHhx7.s 			page 151


 6078      5F696E6C 
 6078      5F747269 
 6078      6D00
 6079              	.LASF60:
 6080 0282 6366675F 		.ascii	"cfg_memset_t\000"
 6080      6D656D73 
 6080      65745F74 
 6080      00
 6081              	.LASF62:
 6082 028f 6366675F 		.ascii	"cfg_memset_list\000"
 6082      6D656D73 
 6082      65745F6C 
 6082      69737400 
 6083              	.LASF49:
 6084 029f 42535F49 		.ascii	"BS_IOPINS0_3_VAL\000"
 6084      4F50494E 
 6084      53305F33 
 6084      5F56414C 
 6084      00
 6085              	.LASF25:
 6086 02b0 64657374 		.ascii	"dest\000"
 6086      00
 6087              	.LASF16:
 6088 02b5 666C6F61 		.ascii	"float\000"
 6088      7400
 6089              	.LASF65:
 6090 02bb 64657374 		.ascii	"destPtr\000"
 6090      50747200 
 6091              	.LASF18:
 6092 02c3 72656738 		.ascii	"reg8\000"
 6092      00
 6093              	.LASF4:
 6094 02c8 756E7369 		.ascii	"unsigned char\000"
 6094      676E6564 
 6094      20636861 
 6094      7200
 6095              	.LASF5:
 6096 02d6 73686F72 		.ascii	"short int\000"
 6096      7420696E 
 6096      7400
 6097              	.LASF43:
 6098 02e0 42535F49 		.ascii	"BS_IOPINS0_0_VAL\000"
 6098      4F50494E 
 6098      53305F30 
 6098      5F56414C 
 6098      00
 6099              	.LASF70:
 6100 02f1 433A5C55 		.ascii	"C:\\Users\\r\\Documents\\Data Sheets\\apple\\SCSI2S"
 6100      73657273 
 6100      5C725C44 
 6100      6F63756D 
 6100      656E7473 
 6101 031e 445C5343 		.ascii	"D\\SCSI2SD_Copy_01.cydsn\000"
 6101      53493253 
 6101      445F436F 
 6101      70795F30 
 6101      312E6379 
ARM GAS  C:\Users\r\AppData\Local\Temp\cc1ZHhx7.s 			page 152


 6102              	.LASF36:
 6103 0336 706C6C4C 		.ascii	"pllLock\000"
 6103      6F636B00 
 6104              	.LASF46:
 6105 033e 42535F49 		.ascii	"BS_IOPINS0_8_VAL\000"
 6105      4F50494E 
 6105      53305F38 
 6105      5F56414C 
 6105      00
 6106              	.LASF22:
 6107 034f 63795F63 		.ascii	"cy_cfg_addrvalue_t\000"
 6107      66675F61 
 6107      64647276 
 6107      616C7565 
 6107      5F7400
 6108              	.LASF53:
 6109 0362 42535F50 		.ascii	"BS_PHUB_CFGMEM1_VAL\000"
 6109      4855425F 
 6109      4346474D 
 6109      454D315F 
 6109      56414C00 
 6110              	.LASF11:
 6111 0376 63686172 		.ascii	"char\000"
 6111      00
 6112              	.LASF66:
 6113 037b 73726350 		.ascii	"srcPtr\000"
 6113      747200
 6114              	.LASF63:
 6115 0382 42535F55 		.ascii	"BS_UCFG_BCTL0_VAL\000"
 6115      4346475F 
 6115      4243544C 
 6115      305F5641 
 6115      4C00
 6116              	.LASF41:
 6117 0394 53657441 		.ascii	"SetAnalogRoutingPumps\000"
 6117      6E616C6F 
 6117      67526F75 
 6117      74696E67 
 6117      50756D70 
 6118              	.LASF20:
 6119 03aa 6F666673 		.ascii	"offset\000"
 6119      657400
 6120              	.LASF51:
 6121 03b1 42535F49 		.ascii	"BS_IOPINS0_5_VAL\000"
 6121      4F50494E 
 6121      53305F35 
 6121      5F56414C 
 6121      00
 6122              	.LASF39:
 6123 03c2 656E6162 		.ascii	"enabled\000"
 6123      6C656400 
 6124              	.LASF24:
 6125 03ca 4359434F 		.ascii	"CYCONFIGCPY\000"
 6125      4E464947 
 6125      43505900 
 6126              	.LASF69:
 6127 03d6 47656E65 		.ascii	"Generated_Source\\PSoC5\\cyfitter_cfg.c\000"
ARM GAS  C:\Users\r\AppData\Local\Temp\cc1ZHhx7.s 			page 153


 6127      72617465 
 6127      645F536F 
 6127      75726365 
 6127      5C50536F 
 6128              	.LASF58:
 6129 03fc 61646472 		.ascii	"address\000"
 6129      65737300 
 6130              	.LASF45:
 6131 0404 42535F49 		.ascii	"BS_IOPINS1_7_VAL\000"
 6131      4F50494E 
 6131      53315F37 
 6131      5F56414C 
 6131      00
 6132              	.LASF48:
 6133 0415 42535F49 		.ascii	"BS_IOPINS0_2_VAL\000"
 6133      4F50494E 
 6133      53305F32 
 6133      5F56414C 
 6133      00
 6134              	.LASF64:
 6135 0426 6366675F 		.ascii	"cfg_memcpy_list\000"
 6135      6D656D63 
 6135      70795F6C 
 6135      69737400 
 6136              	.LASF42:
 6137 0436 63796669 		.ascii	"cyfitter_cfg\000"
 6137      74746572 
 6137      5F636667 
 6137      00
 6138              	.LASF55:
 6139 0443 42535F50 		.ascii	"BS_PHUB_CFGMEM3_VAL\000"
 6139      4855425F 
 6139      4346474D 
 6139      454D335F 
 6139      56414C00 
 6140              		.ident	"GCC: (GNU Tools for ARM Embedded Processors) 5.4.1 20160609 (release) [ARM/embedded-5-bran
