ARM GAS  C:\Users\r\AppData\Local\Temp\ccBAatSA.s 			page 1


   1              		.syntax unified
   2              		.cpu cortex-m3
   3              		.fpu softvfp
   4              		.eabi_attribute 20, 1
   5              		.eabi_attribute 21, 1
   6              		.eabi_attribute 23, 3
   7              		.eabi_attribute 24, 1
   8              		.eabi_attribute 25, 1
   9              		.eabi_attribute 26, 1
  10              		.eabi_attribute 30, 6
  11              		.eabi_attribute 34, 1
  12              		.eabi_attribute 18, 4
  13              		.thumb
  14              		.syntax unified
  15              		.file	"disk.c"
  16              		.text
  17              	.Ltext0:
  18              		.cfi_sections	.debug_frame
  19              		.section	.text.SDSectorsPerSCSISector,"ax",%progbits
  20              		.align	2
  21              		.thumb
  22              		.thumb_func
  23              		.type	SDSectorsPerSCSISector, %function
  24              	SDSectorsPerSCSISector:
  25              	.LFB63:
  26              		.file 1 "..\\..\\src\\geometry.h"
   1:..\..\src/geometry.h **** //	Copyright (C) 2013 Michael McMaster <michael@codesrc.com>
   2:..\..\src/geometry.h **** //
   3:..\..\src/geometry.h **** //	This file is part of SCSI2SD.
   4:..\..\src/geometry.h **** //
   5:..\..\src/geometry.h **** //	SCSI2SD is free software: you can redistribute it and/or modify
   6:..\..\src/geometry.h **** //	it under the terms of the GNU General Public License as published by
   7:..\..\src/geometry.h **** //	the Free Software Foundation, either version 3 of the License, or
   8:..\..\src/geometry.h **** //	(at your option) any later version.
   9:..\..\src/geometry.h **** //
  10:..\..\src/geometry.h **** //	SCSI2SD is distributed in the hope that it will be useful,
  11:..\..\src/geometry.h **** //	but WITHOUT ANY WARRANTY; without even the implied warranty of
  12:..\..\src/geometry.h **** //	MERCHANTABILITY or FITNESS FOR A PARTICULAR PURPOSE.  See the
  13:..\..\src/geometry.h **** //	GNU General Public License for more details.
  14:..\..\src/geometry.h **** //
  15:..\..\src/geometry.h **** //	You should have received a copy of the GNU General Public License
  16:..\..\src/geometry.h **** //	along with SCSI2SD.  If not, see <http://www.gnu.org/licenses/>.
  17:..\..\src/geometry.h **** #ifndef GEOMETRY_H
  18:..\..\src/geometry.h **** #define GEOMETRY_H
  19:..\..\src/geometry.h **** 
  20:..\..\src/geometry.h **** #include "device.h"
  21:..\..\src/geometry.h **** 
  22:..\..\src/geometry.h **** #include "config.h"
  23:..\..\src/geometry.h **** #include "sd.h"
  24:..\..\src/geometry.h **** 
  25:..\..\src/geometry.h **** typedef enum
  26:..\..\src/geometry.h **** {
  27:..\..\src/geometry.h **** 	ADDRESS_BLOCK = 0,
  28:..\..\src/geometry.h **** 	ADDRESS_PHYSICAL_BYTE = 4,
  29:..\..\src/geometry.h **** 	ADDRESS_PHYSICAL_SECTOR = 5
  30:..\..\src/geometry.h **** } SCSI_ADDRESS_FORMAT;
  31:..\..\src/geometry.h **** 
ARM GAS  C:\Users\r\AppData\Local\Temp\ccBAatSA.s 			page 2


  32:..\..\src/geometry.h **** static inline int SDSectorsPerSCSISector(uint16_t bytesPerSector)
  33:..\..\src/geometry.h **** {
  27              		.loc 1 33 0
  28              		.cfi_startproc
  29              		@ args = 0, pretend = 0, frame = 8
  30              		@ frame_needed = 1, uses_anonymous_args = 0
  31              		@ link register save eliminated.
  32 0000 80B4     		push	{r7}
  33              		.cfi_def_cfa_offset 4
  34              		.cfi_offset 7, -4
  35 0002 83B0     		sub	sp, sp, #12
  36              		.cfi_def_cfa_offset 16
  37 0004 00AF     		add	r7, sp, #0
  38              		.cfi_def_cfa_register 7
  39 0006 0346     		mov	r3, r0
  40 0008 FB80     		strh	r3, [r7, #6]	@ movhi
  34:..\..\src/geometry.h **** 	return (bytesPerSector + SD_SECTOR_SIZE - 1) / SD_SECTOR_SIZE;
  41              		.loc 1 34 0
  42 000a FB88     		ldrh	r3, [r7, #6]
  43 000c 03F2FF13 		addw	r3, r3, #511
  44 0010 002B     		cmp	r3, #0
  45 0012 01DA     		bge	.L2
  46 0014 03F2FF13 		addw	r3, r3, #511
  47              	.L2:
  48 0018 5B12     		asrs	r3, r3, #9
  35:..\..\src/geometry.h **** }
  49              		.loc 1 35 0
  50 001a 1846     		mov	r0, r3
  51 001c 0C37     		adds	r7, r7, #12
  52              		.cfi_def_cfa_offset 4
  53 001e BD46     		mov	sp, r7
  54              		.cfi_def_cfa_register 13
  55              		@ sp needed
  56 0020 80BC     		pop	{r7}
  57              		.cfi_restore 7
  58              		.cfi_def_cfa_offset 0
  59 0022 7047     		bx	lr
  60              		.cfi_endproc
  61              	.LFE63:
  62              		.size	SDSectorsPerSCSISector, .-SDSectorsPerSCSISector
  63              		.comm	blockDev,4,4
  64              		.comm	transfer,16,4
  65              		.section	.text.doSdInit,"ax",%progbits
  66              		.align	2
  67              		.thumb
  68              		.thumb_func
  69              		.type	doSdInit, %function
  70              	doSdInit:
  71              	.LFB64:
  72              		.file 2 "..\\..\\src\\disk.c"
   1:..\..\src/disk.c **** //	Copyright (C) 2013 Michael McMaster <michael@codesrc.com>
   2:..\..\src/disk.c **** //	Copyright (C) 2014 Doug Brown <doug@downtowndougbrown.com>
   3:..\..\src/disk.c **** //
   4:..\..\src/disk.c **** //	This file is part of SCSI2SD.
   5:..\..\src/disk.c **** //
   6:..\..\src/disk.c **** //	SCSI2SD is free software: you can redistribute it and/or modify
   7:..\..\src/disk.c **** //	it under the terms of the GNU General Public License as published by
ARM GAS  C:\Users\r\AppData\Local\Temp\ccBAatSA.s 			page 3


   8:..\..\src/disk.c **** //	the Free Software Foundation, either version 3 of the License, or
   9:..\..\src/disk.c **** //	(at your option) any later version.
  10:..\..\src/disk.c **** //
  11:..\..\src/disk.c **** //	SCSI2SD is distributed in the hope that it will be useful,
  12:..\..\src/disk.c **** //	but WITHOUT ANY WARRANTY; without even the implied warranty of
  13:..\..\src/disk.c **** //	MERCHANTABILITY or FITNESS FOR A PARTICULAR PURPOSE.  See the
  14:..\..\src/disk.c **** //	GNU General Public License for more details.
  15:..\..\src/disk.c **** //
  16:..\..\src/disk.c **** //	You should have received a copy of the GNU General Public License
  17:..\..\src/disk.c **** //	along with SCSI2SD.  If not, see <http://www.gnu.org/licenses/>.
  18:..\..\src/disk.c **** #include "device.h"
  19:..\..\src/disk.c **** #include "scsi.h"
  20:..\..\src/disk.c **** #include "scsiPhy.h"
  21:..\..\src/disk.c **** #include "config.h"
  22:..\..\src/disk.c **** #include "debug.h"
  23:..\..\src/disk.c **** #include "debug.h"
  24:..\..\src/disk.c **** #include "disk.h"
  25:..\..\src/disk.c **** #include "sd.h"
  26:..\..\src/disk.c **** #include "time.h"
  27:..\..\src/disk.c **** 
  28:..\..\src/disk.c **** #include <string.h>
  29:..\..\src/disk.c **** 
  30:..\..\src/disk.c **** // Global
  31:..\..\src/disk.c **** BlockDevice blockDev;
  32:..\..\src/disk.c **** Transfer transfer;
  33:..\..\src/disk.c **** 
  34:..\..\src/disk.c **** static int doSdInit()
  35:..\..\src/disk.c **** {
  73              		.loc 2 35 0
  74              		.cfi_startproc
  75              		@ args = 0, pretend = 0, frame = 8
  76              		@ frame_needed = 1, uses_anonymous_args = 0
  77 0000 80B5     		push	{r7, lr}
  78              		.cfi_def_cfa_offset 8
  79              		.cfi_offset 7, -8
  80              		.cfi_offset 14, -4
  81 0002 82B0     		sub	sp, sp, #8
  82              		.cfi_def_cfa_offset 16
  83 0004 00AF     		add	r7, sp, #0
  84              		.cfi_def_cfa_register 7
  36:..\..\src/disk.c **** 	int result = 0;
  85              		.loc 2 36 0
  86 0006 0023     		movs	r3, #0
  87 0008 7B60     		str	r3, [r7, #4]
  37:..\..\src/disk.c **** 	if (blockDev.state & DISK_PRESENT)
  88              		.loc 2 37 0
  89 000a 0B4B     		ldr	r3, .L7
  90 000c 1B68     		ldr	r3, [r3]
  91 000e 03F00203 		and	r3, r3, #2
  92 0012 002B     		cmp	r3, #0
  93 0014 0BD0     		beq	.L5
  38:..\..\src/disk.c **** 	{
  39:..\..\src/disk.c **** 		result = sdInit();
  94              		.loc 2 39 0
  95 0016 FFF7FEFF 		bl	sdInit
  96 001a 7860     		str	r0, [r7, #4]
  40:..\..\src/disk.c **** 
ARM GAS  C:\Users\r\AppData\Local\Temp\ccBAatSA.s 			page 4


  41:..\..\src/disk.c **** 		if (result)
  97              		.loc 2 41 0
  98 001c 7B68     		ldr	r3, [r7, #4]
  99 001e 002B     		cmp	r3, #0
 100 0020 05D0     		beq	.L5
  42:..\..\src/disk.c **** 		{
  43:..\..\src/disk.c **** 			blockDev.state = blockDev.state | DISK_INITIALISED;
 101              		.loc 2 43 0
 102 0022 054B     		ldr	r3, .L7
 103 0024 1B68     		ldr	r3, [r3]
 104 0026 43F00403 		orr	r3, r3, #4
 105 002a 034A     		ldr	r2, .L7
 106 002c 1360     		str	r3, [r2]
 107              	.L5:
  44:..\..\src/disk.c **** 		}
  45:..\..\src/disk.c **** 	}
  46:..\..\src/disk.c **** 	return result;
 108              		.loc 2 46 0
 109 002e 7B68     		ldr	r3, [r7, #4]
  47:..\..\src/disk.c **** }
 110              		.loc 2 47 0
 111 0030 1846     		mov	r0, r3
 112 0032 0837     		adds	r7, r7, #8
 113              		.cfi_def_cfa_offset 8
 114 0034 BD46     		mov	sp, r7
 115              		.cfi_def_cfa_register 13
 116              		@ sp needed
 117 0036 80BD     		pop	{r7, pc}
 118              	.L8:
 119              		.align	2
 120              	.L7:
 121 0038 00000000 		.word	blockDev
 122              		.cfi_endproc
 123              	.LFE64:
 124              		.size	doSdInit, .-doSdInit
 125              		.section	.text.doFormatUnitComplete,"ax",%progbits
 126              		.align	2
 127              		.thumb
 128              		.thumb_func
 129              		.type	doFormatUnitComplete, %function
 130              	doFormatUnitComplete:
 131              	.LFB65:
  48:..\..\src/disk.c **** 
  49:..\..\src/disk.c **** // Callback once all data has been read in the data out phase.
  50:..\..\src/disk.c **** static void doFormatUnitComplete(void)
  51:..\..\src/disk.c **** {
 132              		.loc 2 51 0
 133              		.cfi_startproc
 134              		@ args = 0, pretend = 0, frame = 0
 135              		@ frame_needed = 1, uses_anonymous_args = 0
 136              		@ link register save eliminated.
 137 0000 80B4     		push	{r7}
 138              		.cfi_def_cfa_offset 4
 139              		.cfi_offset 7, -4
 140 0002 00AF     		add	r7, sp, #0
 141              		.cfi_def_cfa_register 7
  52:..\..\src/disk.c **** 	// TODO start writing the initialisation pattern to the SD
ARM GAS  C:\Users\r\AppData\Local\Temp\ccBAatSA.s 			page 5


  53:..\..\src/disk.c **** 	// card
  54:..\..\src/disk.c **** 	scsiDev.phase = STATUS;
 142              		.loc 2 54 0
 143 0004 034B     		ldr	r3, .L10
 144 0006 0622     		movs	r2, #6
 145 0008 C3F87821 		str	r2, [r3, #376]
  55:..\..\src/disk.c **** }
 146              		.loc 2 55 0
 147 000c 00BF     		nop
 148 000e BD46     		mov	sp, r7
 149              		.cfi_def_cfa_register 13
 150              		@ sp needed
 151 0010 80BC     		pop	{r7}
 152              		.cfi_restore 7
 153              		.cfi_def_cfa_offset 0
 154 0012 7047     		bx	lr
 155              	.L11:
 156              		.align	2
 157              	.L10:
 158 0014 00000000 		.word	scsiDev
 159              		.cfi_endproc
 160              	.LFE65:
 161              		.size	doFormatUnitComplete, .-doFormatUnitComplete
 162              		.section	.text.doFormatUnitSkipData,"ax",%progbits
 163              		.align	2
 164              		.thumb
 165              		.thumb_func
 166              		.type	doFormatUnitSkipData, %function
 167              	doFormatUnitSkipData:
 168              	.LFB66:
  56:..\..\src/disk.c **** 
  57:..\..\src/disk.c **** static void doFormatUnitSkipData(int bytes)
  58:..\..\src/disk.c **** {
 169              		.loc 2 58 0
 170              		.cfi_startproc
 171              		@ args = 0, pretend = 0, frame = 16
 172              		@ frame_needed = 1, uses_anonymous_args = 0
 173 0000 80B5     		push	{r7, lr}
 174              		.cfi_def_cfa_offset 8
 175              		.cfi_offset 7, -8
 176              		.cfi_offset 14, -4
 177 0002 84B0     		sub	sp, sp, #16
 178              		.cfi_def_cfa_offset 24
 179 0004 00AF     		add	r7, sp, #0
 180              		.cfi_def_cfa_register 7
 181 0006 7860     		str	r0, [r7, #4]
  59:..\..\src/disk.c **** 	// We may not have enough memory to store the initialisation pattern and
  60:..\..\src/disk.c **** 	// defect list data.  Since we're not making use of it yet anyway, just
  61:..\..\src/disk.c **** 	// discard the bytes.
  62:..\..\src/disk.c **** 	scsiEnterPhase(DATA_OUT);
 182              		.loc 2 62 0
 183 0008 0020     		movs	r0, #0
 184 000a FFF7FEFF 		bl	scsiEnterPhase
  63:..\..\src/disk.c **** 	int i;
  64:..\..\src/disk.c **** 	for (i = 0; i < bytes; ++i)
 185              		.loc 2 64 0
 186 000e 0023     		movs	r3, #0
ARM GAS  C:\Users\r\AppData\Local\Temp\ccBAatSA.s 			page 6


 187 0010 FB60     		str	r3, [r7, #12]
 188 0012 04E0     		b	.L13
 189              	.L14:
  65:..\..\src/disk.c **** 	{
  66:..\..\src/disk.c **** 		scsiReadByte();
 190              		.loc 2 66 0 discriminator 3
 191 0014 FFF7FEFF 		bl	scsiReadByte
  64:..\..\src/disk.c **** 	{
 192              		.loc 2 64 0 discriminator 3
 193 0018 FB68     		ldr	r3, [r7, #12]
 194 001a 0133     		adds	r3, r3, #1
 195 001c FB60     		str	r3, [r7, #12]
 196              	.L13:
  64:..\..\src/disk.c **** 	{
 197              		.loc 2 64 0 is_stmt 0 discriminator 1
 198 001e FA68     		ldr	r2, [r7, #12]
 199 0020 7B68     		ldr	r3, [r7, #4]
 200 0022 9A42     		cmp	r2, r3
 201 0024 F6DB     		blt	.L14
  67:..\..\src/disk.c **** 	}
  68:..\..\src/disk.c **** }
 202              		.loc 2 68 0 is_stmt 1
 203 0026 00BF     		nop
 204 0028 1037     		adds	r7, r7, #16
 205              		.cfi_def_cfa_offset 8
 206 002a BD46     		mov	sp, r7
 207              		.cfi_def_cfa_register 13
 208              		@ sp needed
 209 002c 80BD     		pop	{r7, pc}
 210              		.cfi_endproc
 211              	.LFE66:
 212              		.size	doFormatUnitSkipData, .-doFormatUnitSkipData
 213 002e 00BF     		.section	.text.doFormatUnitPatternHeader,"ax",%progbits
 214              		.align	2
 215              		.thumb
 216              		.thumb_func
 217              		.type	doFormatUnitPatternHeader, %function
 218              	doFormatUnitPatternHeader:
 219              	.LFB67:
  69:..\..\src/disk.c **** 
  70:..\..\src/disk.c **** // Callback from the data out phase.
  71:..\..\src/disk.c **** static void doFormatUnitPatternHeader(void)
  72:..\..\src/disk.c **** {
 220              		.loc 2 72 0
 221              		.cfi_startproc
 222              		@ args = 0, pretend = 0, frame = 8
 223              		@ frame_needed = 1, uses_anonymous_args = 0
 224 0000 80B5     		push	{r7, lr}
 225              		.cfi_def_cfa_offset 8
 226              		.cfi_offset 7, -8
 227              		.cfi_offset 14, -4
 228 0002 82B0     		sub	sp, sp, #8
 229              		.cfi_def_cfa_offset 16
 230 0004 00AF     		add	r7, sp, #0
 231              		.cfi_def_cfa_register 7
  73:..\..\src/disk.c **** 	int defectLength =
  74:..\..\src/disk.c **** 		((((uint16_t)scsiDev.data[2])) << 8) +
ARM GAS  C:\Users\r\AppData\Local\Temp\ccBAatSA.s 			page 7


 232              		.loc 2 74 0
 233 0006 0F4B     		ldr	r3, .L16
 234 0008 93F87E31 		ldrb	r3, [r3, #382]	@ zero_extendqisi2
 235 000c 1B02     		lsls	r3, r3, #8
  75:..\..\src/disk.c **** 			scsiDev.data[3];
 236              		.loc 2 75 0
 237 000e 0D4A     		ldr	r2, .L16
 238 0010 92F87F21 		ldrb	r2, [r2, #383]	@ zero_extendqisi2
  73:..\..\src/disk.c **** 	int defectLength =
 239              		.loc 2 73 0
 240 0014 1344     		add	r3, r3, r2
 241 0016 7B60     		str	r3, [r7, #4]
  76:..\..\src/disk.c **** 
  77:..\..\src/disk.c **** 	int patternLength =
  78:..\..\src/disk.c **** 		((((uint16_t)scsiDev.data[4 + 2])) << 8) +
 242              		.loc 2 78 0
 243 0018 0A4B     		ldr	r3, .L16
 244 001a 93F88231 		ldrb	r3, [r3, #386]	@ zero_extendqisi2
 245 001e 1B02     		lsls	r3, r3, #8
  79:..\..\src/disk.c **** 		scsiDev.data[4 + 3];
 246              		.loc 2 79 0
 247 0020 084A     		ldr	r2, .L16
 248 0022 92F88321 		ldrb	r2, [r2, #387]	@ zero_extendqisi2
  77:..\..\src/disk.c **** 		((((uint16_t)scsiDev.data[4 + 2])) << 8) +
 249              		.loc 2 77 0
 250 0026 1344     		add	r3, r3, r2
 251 0028 3B60     		str	r3, [r7]
  80:..\..\src/disk.c **** 
  81:..\..\src/disk.c **** 		doFormatUnitSkipData(defectLength + patternLength);
 252              		.loc 2 81 0
 253 002a 7A68     		ldr	r2, [r7, #4]
 254 002c 3B68     		ldr	r3, [r7]
 255 002e 1344     		add	r3, r3, r2
 256 0030 1846     		mov	r0, r3
 257 0032 FFF7FEFF 		bl	doFormatUnitSkipData
  82:..\..\src/disk.c **** 		doFormatUnitComplete();
 258              		.loc 2 82 0
 259 0036 FFF7FEFF 		bl	doFormatUnitComplete
  83:..\..\src/disk.c **** }
 260              		.loc 2 83 0
 261 003a 00BF     		nop
 262 003c 0837     		adds	r7, r7, #8
 263              		.cfi_def_cfa_offset 8
 264 003e BD46     		mov	sp, r7
 265              		.cfi_def_cfa_register 13
 266              		@ sp needed
 267 0040 80BD     		pop	{r7, pc}
 268              	.L17:
 269 0042 00BF     		.align	2
 270              	.L16:
 271 0044 00000000 		.word	scsiDev
 272              		.cfi_endproc
 273              	.LFE67:
 274              		.size	doFormatUnitPatternHeader, .-doFormatUnitPatternHeader
 275              		.section	.text.doFormatUnitHeader,"ax",%progbits
 276              		.align	2
 277              		.thumb
ARM GAS  C:\Users\r\AppData\Local\Temp\ccBAatSA.s 			page 8


 278              		.thumb_func
 279              		.type	doFormatUnitHeader, %function
 280              	doFormatUnitHeader:
 281              	.LFB68:
  84:..\..\src/disk.c **** 
  85:..\..\src/disk.c **** // Callback from the data out phase.
  86:..\..\src/disk.c **** static void doFormatUnitHeader(void)
  87:..\..\src/disk.c **** {
 282              		.loc 2 87 0
 283              		.cfi_startproc
 284              		@ args = 0, pretend = 0, frame = 16
 285              		@ frame_needed = 1, uses_anonymous_args = 0
 286 0000 80B5     		push	{r7, lr}
 287              		.cfi_def_cfa_offset 8
 288              		.cfi_offset 7, -8
 289              		.cfi_offset 14, -4
 290 0002 84B0     		sub	sp, sp, #16
 291              		.cfi_def_cfa_offset 24
 292 0004 00AF     		add	r7, sp, #0
 293              		.cfi_def_cfa_register 7
  88:..\..\src/disk.c **** 	int IP = (scsiDev.data[1] & 0x08) ? 1 : 0;
 294              		.loc 2 88 0
 295 0006 274B     		ldr	r3, .L23
 296 0008 93F87D31 		ldrb	r3, [r3, #381]	@ zero_extendqisi2
 297 000c 03F00803 		and	r3, r3, #8
 298 0010 002B     		cmp	r3, #0
 299 0012 14BF     		ite	ne
 300 0014 0123     		movne	r3, #1
 301 0016 0023     		moveq	r3, #0
 302 0018 DBB2     		uxtb	r3, r3
 303 001a FB60     		str	r3, [r7, #12]
  89:..\..\src/disk.c **** 	int DSP = (scsiDev.data[1] & 0x04) ? 1 : 0;
 304              		.loc 2 89 0
 305 001c 214B     		ldr	r3, .L23
 306 001e 93F87D31 		ldrb	r3, [r3, #381]	@ zero_extendqisi2
 307 0022 03F00403 		and	r3, r3, #4
 308 0026 002B     		cmp	r3, #0
 309 0028 14BF     		ite	ne
 310 002a 0123     		movne	r3, #1
 311 002c 0023     		moveq	r3, #0
 312 002e DBB2     		uxtb	r3, r3
 313 0030 BB60     		str	r3, [r7, #8]
  90:..\..\src/disk.c **** 
  91:..\..\src/disk.c **** 	if (! DSP) // disable save parameters
 314              		.loc 2 91 0
 315 0032 BB68     		ldr	r3, [r7, #8]
 316 0034 002B     		cmp	r3, #0
 317 0036 0AD1     		bne	.L19
  92:..\..\src/disk.c **** 	{
  93:..\..\src/disk.c **** 		// Save the "MODE SELECT savable parameters"
  94:..\..\src/disk.c **** 		configSave(
  95:..\..\src/disk.c **** 			scsiDev.target->targetId,
 318              		.loc 2 95 0
 319 0038 1A4B     		ldr	r3, .L23
 320 003a 1B6E     		ldr	r3, [r3, #96]
 321 003c 1B78     		ldrb	r3, [r3]	@ zero_extendqisi2
  94:..\..\src/disk.c **** 			scsiDev.target->targetId,
ARM GAS  C:\Users\r\AppData\Local\Temp\ccBAatSA.s 			page 9


 322              		.loc 2 94 0
 323 003e 1A46     		mov	r2, r3
  96:..\..\src/disk.c **** 			scsiDev.target->liveCfg.bytesPerSector);
 324              		.loc 2 96 0
 325 0040 184B     		ldr	r3, .L23
 326 0042 1B6E     		ldr	r3, [r3, #96]
  94:..\..\src/disk.c **** 			scsiDev.target->targetId,
 327              		.loc 2 94 0
 328 0044 1B89     		ldrh	r3, [r3, #8]
 329 0046 1946     		mov	r1, r3
 330 0048 1046     		mov	r0, r2
 331 004a FFF7FEFF 		bl	configSave
 332              	.L19:
  97:..\..\src/disk.c **** 	}
  98:..\..\src/disk.c **** 
  99:..\..\src/disk.c **** 	if (IP)
 333              		.loc 2 99 0
 334 004e FB68     		ldr	r3, [r7, #12]
 335 0050 002B     		cmp	r3, #0
 336 0052 15D0     		beq	.L20
 100:..\..\src/disk.c **** 	{
 101:..\..\src/disk.c **** 		// We need to read the initialisation pattern header first.
 102:..\..\src/disk.c **** 		scsiDev.dataLen += 4;
 337              		.loc 2 102 0
 338 0054 134B     		ldr	r3, .L23
 339 0056 03F58343 		add	r3, r3, #16768
 340 005a 0433     		adds	r3, r3, #4
 341 005c 1B68     		ldr	r3, [r3]
 342 005e 1A1D     		adds	r2, r3, #4
 343 0060 104B     		ldr	r3, .L23
 344 0062 03F58343 		add	r3, r3, #16768
 345 0066 0433     		adds	r3, r3, #4
 346 0068 1A60     		str	r2, [r3]
 103:..\..\src/disk.c **** 		scsiDev.phase = DATA_OUT;
 347              		.loc 2 103 0
 348 006a 0E4B     		ldr	r3, .L23
 349 006c 0022     		movs	r2, #0
 350 006e C3F87821 		str	r2, [r3, #376]
 104:..\..\src/disk.c **** 		scsiDev.postDataOutHook = doFormatUnitPatternHeader;
 351              		.loc 2 104 0
 352 0072 0C4B     		ldr	r3, .L23
 353 0074 03F58343 		add	r3, r3, #16768
 354 0078 2033     		adds	r3, r3, #32
 355 007a 0B4A     		ldr	r2, .L23+4
 356 007c 1A60     		str	r2, [r3]
 105:..\..\src/disk.c **** 	}
 106:..\..\src/disk.c **** 	else
 107:..\..\src/disk.c **** 	{
 108:..\..\src/disk.c **** 		// Read the defect list data
 109:..\..\src/disk.c **** 		int defectLength =
 110:..\..\src/disk.c **** 			((((uint16_t)scsiDev.data[2])) << 8) +
 111:..\..\src/disk.c **** 			scsiDev.data[3];
 112:..\..\src/disk.c **** 		doFormatUnitSkipData(defectLength);
 113:..\..\src/disk.c **** 		doFormatUnitComplete();
 114:..\..\src/disk.c **** 	}
 115:..\..\src/disk.c **** }
 357              		.loc 2 115 0
ARM GAS  C:\Users\r\AppData\Local\Temp\ccBAatSA.s 			page 10


 358 007e 0DE0     		b	.L22
 359              	.L20:
 360              	.LBB2:
 110:..\..\src/disk.c **** 			scsiDev.data[3];
 361              		.loc 2 110 0
 362 0080 084B     		ldr	r3, .L23
 363 0082 93F87E31 		ldrb	r3, [r3, #382]	@ zero_extendqisi2
 364 0086 1B02     		lsls	r3, r3, #8
 111:..\..\src/disk.c **** 		doFormatUnitSkipData(defectLength);
 365              		.loc 2 111 0
 366 0088 064A     		ldr	r2, .L23
 367 008a 92F87F21 		ldrb	r2, [r2, #383]	@ zero_extendqisi2
 109:..\..\src/disk.c **** 			((((uint16_t)scsiDev.data[2])) << 8) +
 368              		.loc 2 109 0
 369 008e 1344     		add	r3, r3, r2
 370 0090 7B60     		str	r3, [r7, #4]
 112:..\..\src/disk.c **** 		doFormatUnitComplete();
 371              		.loc 2 112 0
 372 0092 7868     		ldr	r0, [r7, #4]
 373 0094 FFF7FEFF 		bl	doFormatUnitSkipData
 113:..\..\src/disk.c **** 	}
 374              		.loc 2 113 0
 375 0098 FFF7FEFF 		bl	doFormatUnitComplete
 376              	.L22:
 377              	.LBE2:
 378              		.loc 2 115 0
 379 009c 00BF     		nop
 380 009e 1037     		adds	r7, r7, #16
 381              		.cfi_def_cfa_offset 8
 382 00a0 BD46     		mov	sp, r7
 383              		.cfi_def_cfa_register 13
 384              		@ sp needed
 385 00a2 80BD     		pop	{r7, pc}
 386              	.L24:
 387              		.align	2
 388              	.L23:
 389 00a4 00000000 		.word	scsiDev
 390 00a8 00000000 		.word	doFormatUnitPatternHeader
 391              		.cfi_endproc
 392              	.LFE68:
 393              		.size	doFormatUnitHeader, .-doFormatUnitHeader
 394              		.section	.text.doReadCapacity,"ax",%progbits
 395              		.align	2
 396              		.thumb
 397              		.thumb_func
 398              		.type	doReadCapacity, %function
 399              	doReadCapacity:
 400              	.LFB69:
 116:..\..\src/disk.c **** 
 117:..\..\src/disk.c **** static void doReadCapacity()
 118:..\..\src/disk.c **** {
 401              		.loc 2 118 0
 402              		.cfi_startproc
 403              		@ args = 0, pretend = 0, frame = 24
 404              		@ frame_needed = 1, uses_anonymous_args = 0
 405 0000 80B5     		push	{r7, lr}
 406              		.cfi_def_cfa_offset 8
ARM GAS  C:\Users\r\AppData\Local\Temp\ccBAatSA.s 			page 11


 407              		.cfi_offset 7, -8
 408              		.cfi_offset 14, -4
 409 0002 86B0     		sub	sp, sp, #24
 410              		.cfi_def_cfa_offset 32
 411 0004 00AF     		add	r7, sp, #0
 412              		.cfi_def_cfa_register 7
 119:..\..\src/disk.c **** 	uint32_t lba = (((uint32) scsiDev.cdb[2]) << 24) +
 413              		.loc 2 119 0
 414 0006 534B     		ldr	r3, .L30
 415 0008 03F58343 		add	r3, r3, #16768
 416 000c 0A33     		adds	r3, r3, #10
 417 000e 1B78     		ldrb	r3, [r3]	@ zero_extendqisi2
 418 0010 1A06     		lsls	r2, r3, #24
 120:..\..\src/disk.c **** 		(((uint32) scsiDev.cdb[3]) << 16) +
 419              		.loc 2 120 0
 420 0012 504B     		ldr	r3, .L30
 421 0014 03F58343 		add	r3, r3, #16768
 422 0018 0B33     		adds	r3, r3, #11
 423 001a 1B78     		ldrb	r3, [r3]	@ zero_extendqisi2
 424 001c 1B04     		lsls	r3, r3, #16
 119:..\..\src/disk.c **** 	uint32_t lba = (((uint32) scsiDev.cdb[2]) << 24) +
 425              		.loc 2 119 0
 426 001e 1A44     		add	r2, r2, r3
 121:..\..\src/disk.c **** 		(((uint32) scsiDev.cdb[4]) << 8) +
 427              		.loc 2 121 0
 428 0020 4C4B     		ldr	r3, .L30
 429 0022 03F58343 		add	r3, r3, #16768
 430 0026 0C33     		adds	r3, r3, #12
 431 0028 1B78     		ldrb	r3, [r3]	@ zero_extendqisi2
 432 002a 1B02     		lsls	r3, r3, #8
 120:..\..\src/disk.c **** 		(((uint32) scsiDev.cdb[3]) << 16) +
 433              		.loc 2 120 0
 434 002c 1A44     		add	r2, r2, r3
 122:..\..\src/disk.c **** 		scsiDev.cdb[5];
 435              		.loc 2 122 0
 436 002e 494B     		ldr	r3, .L30
 437 0030 03F58343 		add	r3, r3, #16768
 438 0034 0D33     		adds	r3, r3, #13
 439 0036 1B78     		ldrb	r3, [r3]	@ zero_extendqisi2
 119:..\..\src/disk.c **** 		(((uint32) scsiDev.cdb[3]) << 16) +
 440              		.loc 2 119 0
 441 0038 1344     		add	r3, r3, r2
 442 003a 7B61     		str	r3, [r7, #20]
 123:..\..\src/disk.c **** 	int pmi = scsiDev.cdb[8] & 1;
 443              		.loc 2 123 0
 444 003c 454B     		ldr	r3, .L30
 445 003e 03F58343 		add	r3, r3, #16768
 446 0042 1033     		adds	r3, r3, #16
 447 0044 1B78     		ldrb	r3, [r3]	@ zero_extendqisi2
 448 0046 03F00103 		and	r3, r3, #1
 449 004a 3B61     		str	r3, [r7, #16]
 124:..\..\src/disk.c **** 
 125:..\..\src/disk.c **** 	uint32_t capacity = getScsiCapacity(
 126:..\..\src/disk.c **** 		scsiDev.target->cfg->sdSectorStart,
 450              		.loc 2 126 0
 451 004c 414B     		ldr	r3, .L30
 452 004e 1B6E     		ldr	r3, [r3, #96]
ARM GAS  C:\Users\r\AppData\Local\Temp\ccBAatSA.s 			page 12


 453 0050 5B68     		ldr	r3, [r3, #4]
 125:..\..\src/disk.c **** 		scsiDev.target->cfg->sdSectorStart,
 454              		.loc 2 125 0
 455 0052 5868     		ldr	r0, [r3, #4]	@ unaligned
 127:..\..\src/disk.c **** 		scsiDev.target->liveCfg.bytesPerSector,
 456              		.loc 2 127 0
 457 0054 3F4B     		ldr	r3, .L30
 458 0056 1B6E     		ldr	r3, [r3, #96]
 125:..\..\src/disk.c **** 		scsiDev.target->cfg->sdSectorStart,
 459              		.loc 2 125 0
 460 0058 1989     		ldrh	r1, [r3, #8]
 128:..\..\src/disk.c **** 		scsiDev.target->cfg->scsiSectors);
 461              		.loc 2 128 0
 462 005a 3E4B     		ldr	r3, .L30
 463 005c 1B6E     		ldr	r3, [r3, #96]
 464 005e 5B68     		ldr	r3, [r3, #4]
 125:..\..\src/disk.c **** 		scsiDev.target->cfg->sdSectorStart,
 465              		.loc 2 125 0
 466 0060 9B68     		ldr	r3, [r3, #8]	@ unaligned
 467 0062 1A46     		mov	r2, r3
 468 0064 FFF7FEFF 		bl	getScsiCapacity
 469 0068 F860     		str	r0, [r7, #12]
 129:..\..\src/disk.c **** 
 130:..\..\src/disk.c **** 	if (!pmi && lba)
 470              		.loc 2 130 0
 471 006a 3B69     		ldr	r3, [r7, #16]
 472 006c 002B     		cmp	r3, #0
 473 006e 16D1     		bne	.L26
 474              		.loc 2 130 0 is_stmt 0 discriminator 1
 475 0070 7B69     		ldr	r3, [r7, #20]
 476 0072 002B     		cmp	r3, #0
 477 0074 13D0     		beq	.L26
 131:..\..\src/disk.c **** 	{
 132:..\..\src/disk.c **** 		// error.
 133:..\..\src/disk.c **** 		// We don't do anything with the "partial medium indicator", and
 134:..\..\src/disk.c **** 		// assume that delays are constant across each block. But the spec
 135:..\..\src/disk.c **** 		// says we must return this error if pmi is specified incorrectly.
 136:..\..\src/disk.c **** 		scsiDev.status = CHECK_CONDITION;
 478              		.loc 2 136 0 is_stmt 1
 479 0076 374B     		ldr	r3, .L30
 480 0078 03F58343 		add	r3, r3, #16768
 481 007c 1C33     		adds	r3, r3, #28
 482 007e 0222     		movs	r2, #2
 483 0080 1A70     		strb	r2, [r3]
 137:..\..\src/disk.c **** 		scsiDev.target->sense.code = ILLEGAL_REQUEST;
 484              		.loc 2 137 0
 485 0082 344B     		ldr	r3, .L30
 486 0084 1B6E     		ldr	r3, [r3, #96]
 487 0086 0522     		movs	r2, #5
 488 0088 9A72     		strb	r2, [r3, #10]
 138:..\..\src/disk.c **** 		scsiDev.target->sense.asc = INVALID_FIELD_IN_CDB;
 489              		.loc 2 138 0
 490 008a 324B     		ldr	r3, .L30
 491 008c 1B6E     		ldr	r3, [r3, #96]
 492 008e 4FF41052 		mov	r2, #9216
 493 0092 9A81     		strh	r2, [r3, #12]	@ movhi
 139:..\..\src/disk.c **** 		scsiDev.phase = STATUS;
ARM GAS  C:\Users\r\AppData\Local\Temp\ccBAatSA.s 			page 13


 494              		.loc 2 139 0
 495 0094 2F4B     		ldr	r3, .L30
 496 0096 0622     		movs	r2, #6
 497 0098 C3F87821 		str	r2, [r3, #376]
 140:..\..\src/disk.c **** 	}
 141:..\..\src/disk.c **** 	else if (capacity > 0)
 142:..\..\src/disk.c **** 	{
 143:..\..\src/disk.c **** 		uint32_t highestBlock = capacity - 1;
 144:..\..\src/disk.c **** 
 145:..\..\src/disk.c **** 		scsiDev.data[0] = highestBlock >> 24;
 146:..\..\src/disk.c **** 		scsiDev.data[1] = highestBlock >> 16;
 147:..\..\src/disk.c **** 		scsiDev.data[2] = highestBlock >> 8;
 148:..\..\src/disk.c **** 		scsiDev.data[3] = highestBlock;
 149:..\..\src/disk.c **** 
 150:..\..\src/disk.c **** 		uint32_t bytesPerSector = scsiDev.target->liveCfg.bytesPerSector;
 151:..\..\src/disk.c **** 		scsiDev.data[4] = bytesPerSector >> 24;
 152:..\..\src/disk.c **** 		scsiDev.data[5] = bytesPerSector >> 16;
 153:..\..\src/disk.c **** 		scsiDev.data[6] = bytesPerSector >> 8;
 154:..\..\src/disk.c **** 		scsiDev.data[7] = bytesPerSector;
 155:..\..\src/disk.c **** 		scsiDev.dataLen = 8;
 156:..\..\src/disk.c **** 		scsiDev.phase = DATA_IN;
 157:..\..\src/disk.c **** 	}
 158:..\..\src/disk.c **** 	else
 159:..\..\src/disk.c **** 	{
 160:..\..\src/disk.c **** 		scsiDev.status = CHECK_CONDITION;
 161:..\..\src/disk.c **** 		scsiDev.target->sense.code = NOT_READY;
 162:..\..\src/disk.c **** 		scsiDev.target->sense.asc = MEDIUM_NOT_PRESENT;
 163:..\..\src/disk.c **** 		scsiDev.phase = STATUS;
 164:..\..\src/disk.c **** 	}
 165:..\..\src/disk.c **** }
 498              		.loc 2 165 0
 499 009c 55E0     		b	.L29
 500              	.L26:
 141:..\..\src/disk.c **** 	{
 501              		.loc 2 141 0
 502 009e FB68     		ldr	r3, [r7, #12]
 503 00a0 002B     		cmp	r3, #0
 504 00a2 3FD0     		beq	.L28
 505              	.LBB3:
 143:..\..\src/disk.c **** 
 506              		.loc 2 143 0
 507 00a4 FB68     		ldr	r3, [r7, #12]
 508 00a6 013B     		subs	r3, r3, #1
 509 00a8 BB60     		str	r3, [r7, #8]
 145:..\..\src/disk.c **** 		scsiDev.data[1] = highestBlock >> 16;
 510              		.loc 2 145 0
 511 00aa BB68     		ldr	r3, [r7, #8]
 512 00ac 1B0E     		lsrs	r3, r3, #24
 513 00ae DAB2     		uxtb	r2, r3
 514 00b0 284B     		ldr	r3, .L30
 515 00b2 83F87C21 		strb	r2, [r3, #380]
 146:..\..\src/disk.c **** 		scsiDev.data[2] = highestBlock >> 8;
 516              		.loc 2 146 0
 517 00b6 BB68     		ldr	r3, [r7, #8]
 518 00b8 1B0C     		lsrs	r3, r3, #16
 519 00ba DAB2     		uxtb	r2, r3
 520 00bc 254B     		ldr	r3, .L30
ARM GAS  C:\Users\r\AppData\Local\Temp\ccBAatSA.s 			page 14


 521 00be 83F87D21 		strb	r2, [r3, #381]
 147:..\..\src/disk.c **** 		scsiDev.data[3] = highestBlock;
 522              		.loc 2 147 0
 523 00c2 BB68     		ldr	r3, [r7, #8]
 524 00c4 1B0A     		lsrs	r3, r3, #8
 525 00c6 DAB2     		uxtb	r2, r3
 526 00c8 224B     		ldr	r3, .L30
 527 00ca 83F87E21 		strb	r2, [r3, #382]
 148:..\..\src/disk.c **** 
 528              		.loc 2 148 0
 529 00ce BB68     		ldr	r3, [r7, #8]
 530 00d0 DAB2     		uxtb	r2, r3
 531 00d2 204B     		ldr	r3, .L30
 532 00d4 83F87F21 		strb	r2, [r3, #383]
 150:..\..\src/disk.c **** 		scsiDev.data[4] = bytesPerSector >> 24;
 533              		.loc 2 150 0
 534 00d8 1E4B     		ldr	r3, .L30
 535 00da 1B6E     		ldr	r3, [r3, #96]
 536 00dc 1B89     		ldrh	r3, [r3, #8]
 537 00de 7B60     		str	r3, [r7, #4]
 151:..\..\src/disk.c **** 		scsiDev.data[5] = bytesPerSector >> 16;
 538              		.loc 2 151 0
 539 00e0 7B68     		ldr	r3, [r7, #4]
 540 00e2 1B0E     		lsrs	r3, r3, #24
 541 00e4 DAB2     		uxtb	r2, r3
 542 00e6 1B4B     		ldr	r3, .L30
 543 00e8 83F88021 		strb	r2, [r3, #384]
 152:..\..\src/disk.c **** 		scsiDev.data[6] = bytesPerSector >> 8;
 544              		.loc 2 152 0
 545 00ec 7B68     		ldr	r3, [r7, #4]
 546 00ee 1B0C     		lsrs	r3, r3, #16
 547 00f0 DAB2     		uxtb	r2, r3
 548 00f2 184B     		ldr	r3, .L30
 549 00f4 83F88121 		strb	r2, [r3, #385]
 153:..\..\src/disk.c **** 		scsiDev.data[7] = bytesPerSector;
 550              		.loc 2 153 0
 551 00f8 7B68     		ldr	r3, [r7, #4]
 552 00fa 1B0A     		lsrs	r3, r3, #8
 553 00fc DAB2     		uxtb	r2, r3
 554 00fe 154B     		ldr	r3, .L30
 555 0100 83F88221 		strb	r2, [r3, #386]
 154:..\..\src/disk.c **** 		scsiDev.dataLen = 8;
 556              		.loc 2 154 0
 557 0104 7B68     		ldr	r3, [r7, #4]
 558 0106 DAB2     		uxtb	r2, r3
 559 0108 124B     		ldr	r3, .L30
 560 010a 83F88321 		strb	r2, [r3, #387]
 155:..\..\src/disk.c **** 		scsiDev.phase = DATA_IN;
 561              		.loc 2 155 0
 562 010e 114B     		ldr	r3, .L30
 563 0110 03F58343 		add	r3, r3, #16768
 564 0114 0433     		adds	r3, r3, #4
 565 0116 0822     		movs	r2, #8
 566 0118 1A60     		str	r2, [r3]
 156:..\..\src/disk.c **** 	}
 567              		.loc 2 156 0
 568 011a 0E4B     		ldr	r3, .L30
ARM GAS  C:\Users\r\AppData\Local\Temp\ccBAatSA.s 			page 15


 569 011c 0422     		movs	r2, #4
 570 011e C3F87821 		str	r2, [r3, #376]
 571              	.LBE3:
 572              		.loc 2 165 0
 573 0122 12E0     		b	.L29
 574              	.L28:
 160:..\..\src/disk.c **** 		scsiDev.target->sense.code = NOT_READY;
 575              		.loc 2 160 0
 576 0124 0B4B     		ldr	r3, .L30
 577 0126 03F58343 		add	r3, r3, #16768
 578 012a 1C33     		adds	r3, r3, #28
 579 012c 0222     		movs	r2, #2
 580 012e 1A70     		strb	r2, [r3]
 161:..\..\src/disk.c **** 		scsiDev.target->sense.asc = MEDIUM_NOT_PRESENT;
 581              		.loc 2 161 0
 582 0130 084B     		ldr	r3, .L30
 583 0132 1B6E     		ldr	r3, [r3, #96]
 584 0134 0222     		movs	r2, #2
 585 0136 9A72     		strb	r2, [r3, #10]
 162:..\..\src/disk.c **** 		scsiDev.phase = STATUS;
 586              		.loc 2 162 0
 587 0138 064B     		ldr	r3, .L30
 588 013a 1B6E     		ldr	r3, [r3, #96]
 589 013c 4FF46852 		mov	r2, #14848
 590 0140 9A81     		strh	r2, [r3, #12]	@ movhi
 163:..\..\src/disk.c **** 	}
 591              		.loc 2 163 0
 592 0142 044B     		ldr	r3, .L30
 593 0144 0622     		movs	r2, #6
 594 0146 C3F87821 		str	r2, [r3, #376]
 595              	.L29:
 596              		.loc 2 165 0
 597 014a 00BF     		nop
 598 014c 1837     		adds	r7, r7, #24
 599              		.cfi_def_cfa_offset 8
 600 014e BD46     		mov	sp, r7
 601              		.cfi_def_cfa_register 13
 602              		@ sp needed
 603 0150 80BD     		pop	{r7, pc}
 604              	.L31:
 605 0152 00BF     		.align	2
 606              	.L30:
 607 0154 00000000 		.word	scsiDev
 608              		.cfi_endproc
 609              	.LFE69:
 610              		.size	doReadCapacity, .-doReadCapacity
 611              		.section	.text.doWrite,"ax",%progbits
 612              		.align	2
 613              		.thumb
 614              		.thumb_func
 615              		.type	doWrite, %function
 616              	doWrite:
 617              	.LFB70:
 166:..\..\src/disk.c **** 
 167:..\..\src/disk.c **** static void doWrite(uint32 lba, uint32 blocks)
 168:..\..\src/disk.c **** {
 618              		.loc 2 168 0
ARM GAS  C:\Users\r\AppData\Local\Temp\ccBAatSA.s 			page 16


 619              		.cfi_startproc
 620              		@ args = 0, pretend = 0, frame = 24
 621              		@ frame_needed = 1, uses_anonymous_args = 0
 622 0000 F0B5     		push	{r4, r5, r6, r7, lr}
 623              		.cfi_def_cfa_offset 20
 624              		.cfi_offset 4, -20
 625              		.cfi_offset 5, -16
 626              		.cfi_offset 6, -12
 627              		.cfi_offset 7, -8
 628              		.cfi_offset 14, -4
 629 0002 87B0     		sub	sp, sp, #28
 630              		.cfi_def_cfa_offset 48
 631 0004 00AF     		add	r7, sp, #0
 632              		.cfi_def_cfa_register 7
 633 0006 7860     		str	r0, [r7, #4]
 634 0008 3960     		str	r1, [r7]
 169:..\..\src/disk.c **** 	if (unlikely(scsiDev.target->cfg->deviceType == CONFIG_FLOPPY_14MB)) {
 635              		.loc 2 169 0
 636 000a 584B     		ldr	r3, .L39
 637 000c 1B6E     		ldr	r3, [r3, #96]
 638 000e 5B68     		ldr	r3, [r3, #4]
 639 0010 5B78     		ldrb	r3, [r3, #1]	@ zero_extendqisi2
 640 0012 032B     		cmp	r3, #3
 641 0014 0CBF     		ite	eq
 642 0016 0123     		moveq	r3, #1
 643 0018 0023     		movne	r3, #0
 644 001a DBB2     		uxtb	r3, r3
 645 001c 002B     		cmp	r3, #0
 646 001e 02D0     		beq	.L33
 170:..\..\src/disk.c **** 		// Floppies are supposed to be slow. Some systems can't handle a floppy
 171:..\..\src/disk.c **** 		// without an access time
 172:..\..\src/disk.c **** 		CyDelay(10);
 647              		.loc 2 172 0
 648 0020 0A20     		movs	r0, #10
 649 0022 FFF7FEFF 		bl	CyDelay
 650              	.L33:
 173:..\..\src/disk.c **** 	}
 174:..\..\src/disk.c **** 
 175:..\..\src/disk.c **** 	uint32_t bytesPerSector = scsiDev.target->liveCfg.bytesPerSector;
 651              		.loc 2 175 0
 652 0026 514B     		ldr	r3, .L39
 653 0028 1B6E     		ldr	r3, [r3, #96]
 654 002a 1B89     		ldrh	r3, [r3, #8]
 655 002c 7B61     		str	r3, [r7, #20]
 176:..\..\src/disk.c **** 
 177:..\..\src/disk.c **** 	if (unlikely(blockDev.state & DISK_WP) ||
 656              		.loc 2 177 0
 657 002e 504B     		ldr	r3, .L39+4
 658 0030 1B68     		ldr	r3, [r3]
 659 0032 03F00803 		and	r3, r3, #8
 660 0036 002B     		cmp	r3, #0
 661 0038 14BF     		ite	ne
 662 003a 0123     		movne	r3, #1
 663 003c 0023     		moveq	r3, #0
 664 003e DBB2     		uxtb	r3, r3
 665 0040 002B     		cmp	r3, #0
 666 0042 0AD1     		bne	.L34
ARM GAS  C:\Users\r\AppData\Local\Temp\ccBAatSA.s 			page 17


 178:..\..\src/disk.c **** 		unlikely(scsiDev.target->cfg->deviceType == CONFIG_OPTICAL))
 667              		.loc 2 178 0 discriminator 1
 668 0044 494B     		ldr	r3, .L39
 669 0046 1B6E     		ldr	r3, [r3, #96]
 670 0048 5B68     		ldr	r3, [r3, #4]
 671 004a 5B78     		ldrb	r3, [r3, #1]	@ zero_extendqisi2
 672 004c 022B     		cmp	r3, #2
 673 004e 0CBF     		ite	eq
 674 0050 0123     		moveq	r3, #1
 675 0052 0023     		movne	r3, #0
 676 0054 DBB2     		uxtb	r3, r3
 177:..\..\src/disk.c **** 		unlikely(scsiDev.target->cfg->deviceType == CONFIG_OPTICAL))
 677              		.loc 2 177 0 discriminator 1
 678 0056 002B     		cmp	r3, #0
 679 0058 13D0     		beq	.L35
 680              	.L34:
 179:..\..\src/disk.c **** 
 180:..\..\src/disk.c **** 	{
 181:..\..\src/disk.c **** 		scsiDev.status = CHECK_CONDITION;
 681              		.loc 2 181 0
 682 005a 444B     		ldr	r3, .L39
 683 005c 03F58343 		add	r3, r3, #16768
 684 0060 1C33     		adds	r3, r3, #28
 685 0062 0222     		movs	r2, #2
 686 0064 1A70     		strb	r2, [r3]
 182:..\..\src/disk.c **** 		scsiDev.target->sense.code = ILLEGAL_REQUEST;
 687              		.loc 2 182 0
 688 0066 414B     		ldr	r3, .L39
 689 0068 1B6E     		ldr	r3, [r3, #96]
 690 006a 0522     		movs	r2, #5
 691 006c 9A72     		strb	r2, [r3, #10]
 183:..\..\src/disk.c **** 		scsiDev.target->sense.asc = WRITE_PROTECTED;
 692              		.loc 2 183 0
 693 006e 3F4B     		ldr	r3, .L39
 694 0070 1B6E     		ldr	r3, [r3, #96]
 695 0072 4FF41C52 		mov	r2, #9984
 696 0076 9A81     		strh	r2, [r3, #12]	@ movhi
 184:..\..\src/disk.c **** 		scsiDev.phase = STATUS;
 697              		.loc 2 184 0
 698 0078 3C4B     		ldr	r3, .L39
 699 007a 0622     		movs	r2, #6
 700 007c C3F87821 		str	r2, [r3, #376]
 185:..\..\src/disk.c **** 	}
 186:..\..\src/disk.c **** 	else if (unlikely(((uint64) lba) + blocks >
 187:..\..\src/disk.c **** 		getScsiCapacity(
 188:..\..\src/disk.c **** 			scsiDev.target->cfg->sdSectorStart,
 189:..\..\src/disk.c **** 			bytesPerSector,
 190:..\..\src/disk.c **** 			scsiDev.target->cfg->scsiSectors
 191:..\..\src/disk.c **** 			)
 192:..\..\src/disk.c **** 		))
 193:..\..\src/disk.c **** 	{
 194:..\..\src/disk.c **** 		scsiDev.status = CHECK_CONDITION;
 195:..\..\src/disk.c **** 		scsiDev.target->sense.code = ILLEGAL_REQUEST;
 196:..\..\src/disk.c **** 		scsiDev.target->sense.asc = LOGICAL_BLOCK_ADDRESS_OUT_OF_RANGE;
 197:..\..\src/disk.c **** 		scsiDev.phase = STATUS;
 198:..\..\src/disk.c **** 	}
 199:..\..\src/disk.c **** 	else
ARM GAS  C:\Users\r\AppData\Local\Temp\ccBAatSA.s 			page 18


 200:..\..\src/disk.c **** 	{
 201:..\..\src/disk.c **** 		transfer.lba = lba;
 202:..\..\src/disk.c **** 		transfer.blocks = blocks;
 203:..\..\src/disk.c **** 		transfer.currentBlock = 0;
 204:..\..\src/disk.c **** 		scsiDev.phase = DATA_OUT;
 205:..\..\src/disk.c **** 		scsiDev.dataLen = bytesPerSector;
 206:..\..\src/disk.c **** 		scsiDev.dataPtr = bytesPerSector;
 207:..\..\src/disk.c **** 
 208:..\..\src/disk.c **** 		// No need for single-block writes atm.  Overhead of the
 209:..\..\src/disk.c **** 		// multi-block write is minimal.
 210:..\..\src/disk.c **** 		transfer.multiBlock = 1;
 211:..\..\src/disk.c **** 
 212:..\..\src/disk.c **** 
 213:..\..\src/disk.c **** 		uint32_t sdLBA =
 214:..\..\src/disk.c **** 			SCSISector2SD(
 215:..\..\src/disk.c **** 				scsiDev.target->cfg->sdSectorStart,
 216:..\..\src/disk.c **** 				bytesPerSector,
 217:..\..\src/disk.c **** 				lba);
 218:..\..\src/disk.c **** 		uint32_t sdBlocks = blocks * SDSectorsPerSCSISector(bytesPerSector);
 219:..\..\src/disk.c **** 		sdWriteMultiSectorPrep(sdLBA, sdBlocks);
 220:..\..\src/disk.c **** 	}
 221:..\..\src/disk.c **** }
 701              		.loc 2 221 0
 702 0080 6FE0     		b	.L38
 703              	.L35:
 186:..\..\src/disk.c **** 		getScsiCapacity(
 704              		.loc 2 186 0
 705 0082 7B68     		ldr	r3, [r7, #4]
 706 0084 1946     		mov	r1, r3
 707 0086 4FF00002 		mov	r2, #0
 708 008a 3B68     		ldr	r3, [r7]
 709 008c 4FF00004 		mov	r4, #0
 710 0090 CD18     		adds	r5, r1, r3
 711 0092 42EB0406 		adc	r6, r2, r4
 712 0096 2C46     		mov	r4, r5
 713 0098 3546     		mov	r5, r6
 714 009a 344B     		ldr	r3, .L39
 715 009c 1B6E     		ldr	r3, [r3, #96]
 716 009e 5B68     		ldr	r3, [r3, #4]
 717 00a0 5868     		ldr	r0, [r3, #4]	@ unaligned
 718 00a2 7B69     		ldr	r3, [r7, #20]
 719 00a4 99B2     		uxth	r1, r3
 720 00a6 314B     		ldr	r3, .L39
 721 00a8 1B6E     		ldr	r3, [r3, #96]
 722 00aa 5B68     		ldr	r3, [r3, #4]
 723 00ac 9B68     		ldr	r3, [r3, #8]	@ unaligned
 724 00ae 1A46     		mov	r2, r3
 725 00b0 FFF7FEFF 		bl	getScsiCapacity
 726 00b4 0346     		mov	r3, r0
 727 00b6 1A46     		mov	r2, r3
 728 00b8 4FF00003 		mov	r3, #0
 729 00bc AB42     		cmp	r3, r5
 730 00be 08BF     		it	eq
 731 00c0 A242     		cmpeq	r2, r4
 732 00c2 34BF     		ite	cc
 733 00c4 0123     		movcc	r3, #1
 734 00c6 0023     		movcs	r3, #0
ARM GAS  C:\Users\r\AppData\Local\Temp\ccBAatSA.s 			page 19


 735 00c8 DBB2     		uxtb	r3, r3
 736 00ca 002B     		cmp	r3, #0
 737 00cc 13D0     		beq	.L37
 194:..\..\src/disk.c **** 		scsiDev.target->sense.code = ILLEGAL_REQUEST;
 738              		.loc 2 194 0
 739 00ce 274B     		ldr	r3, .L39
 740 00d0 03F58343 		add	r3, r3, #16768
 741 00d4 1C33     		adds	r3, r3, #28
 742 00d6 0222     		movs	r2, #2
 743 00d8 1A70     		strb	r2, [r3]
 195:..\..\src/disk.c **** 		scsiDev.target->sense.asc = LOGICAL_BLOCK_ADDRESS_OUT_OF_RANGE;
 744              		.loc 2 195 0
 745 00da 244B     		ldr	r3, .L39
 746 00dc 1B6E     		ldr	r3, [r3, #96]
 747 00de 0522     		movs	r2, #5
 748 00e0 9A72     		strb	r2, [r3, #10]
 196:..\..\src/disk.c **** 		scsiDev.phase = STATUS;
 749              		.loc 2 196 0
 750 00e2 224B     		ldr	r3, .L39
 751 00e4 1B6E     		ldr	r3, [r3, #96]
 752 00e6 4FF40452 		mov	r2, #8448
 753 00ea 9A81     		strh	r2, [r3, #12]	@ movhi
 197:..\..\src/disk.c **** 	}
 754              		.loc 2 197 0
 755 00ec 1F4B     		ldr	r3, .L39
 756 00ee 0622     		movs	r2, #6
 757 00f0 C3F87821 		str	r2, [r3, #376]
 758              		.loc 2 221 0
 759 00f4 35E0     		b	.L38
 760              	.L37:
 761              	.LBB4:
 201:..\..\src/disk.c **** 		transfer.blocks = blocks;
 762              		.loc 2 201 0
 763 00f6 1F4A     		ldr	r2, .L39+8
 764 00f8 7B68     		ldr	r3, [r7, #4]
 765 00fa 5360     		str	r3, [r2, #4]
 202:..\..\src/disk.c **** 		transfer.currentBlock = 0;
 766              		.loc 2 202 0
 767 00fc 1D4A     		ldr	r2, .L39+8
 768 00fe 3B68     		ldr	r3, [r7]
 769 0100 9360     		str	r3, [r2, #8]
 203:..\..\src/disk.c **** 		scsiDev.phase = DATA_OUT;
 770              		.loc 2 203 0
 771 0102 1C4B     		ldr	r3, .L39+8
 772 0104 0022     		movs	r2, #0
 773 0106 DA60     		str	r2, [r3, #12]
 204:..\..\src/disk.c **** 		scsiDev.dataLen = bytesPerSector;
 774              		.loc 2 204 0
 775 0108 184B     		ldr	r3, .L39
 776 010a 0022     		movs	r2, #0
 777 010c C3F87821 		str	r2, [r3, #376]
 205:..\..\src/disk.c **** 		scsiDev.dataPtr = bytesPerSector;
 778              		.loc 2 205 0
 779 0110 7A69     		ldr	r2, [r7, #20]
 780 0112 164B     		ldr	r3, .L39
 781 0114 03F58343 		add	r3, r3, #16768
 782 0118 0433     		adds	r3, r3, #4
ARM GAS  C:\Users\r\AppData\Local\Temp\ccBAatSA.s 			page 20


 783 011a 1A60     		str	r2, [r3]
 206:..\..\src/disk.c **** 
 784              		.loc 2 206 0
 785 011c 7A69     		ldr	r2, [r7, #20]
 786 011e 134B     		ldr	r3, .L39
 787 0120 03F58243 		add	r3, r3, #16640
 788 0124 7C33     		adds	r3, r3, #124
 789 0126 1A60     		str	r2, [r3]
 210:..\..\src/disk.c **** 
 790              		.loc 2 210 0
 791 0128 124B     		ldr	r3, .L39+8
 792 012a 0122     		movs	r2, #1
 793 012c 1A60     		str	r2, [r3]
 215:..\..\src/disk.c **** 				bytesPerSector,
 794              		.loc 2 215 0
 795 012e 0F4B     		ldr	r3, .L39
 796 0130 1B6E     		ldr	r3, [r3, #96]
 797 0132 5B68     		ldr	r3, [r3, #4]
 214:..\..\src/disk.c **** 				scsiDev.target->cfg->sdSectorStart,
 798              		.loc 2 214 0
 799 0134 5B68     		ldr	r3, [r3, #4]	@ unaligned
 800 0136 7A69     		ldr	r2, [r7, #20]
 801 0138 91B2     		uxth	r1, r2
 213:..\..\src/disk.c **** 			SCSISector2SD(
 802              		.loc 2 213 0
 803 013a 7A68     		ldr	r2, [r7, #4]
 804 013c 1846     		mov	r0, r3
 805 013e FFF7FEFF 		bl	SCSISector2SD
 806 0142 3861     		str	r0, [r7, #16]
 218:..\..\src/disk.c **** 		sdWriteMultiSectorPrep(sdLBA, sdBlocks);
 807              		.loc 2 218 0
 808 0144 7B69     		ldr	r3, [r7, #20]
 809 0146 9BB2     		uxth	r3, r3
 810 0148 1846     		mov	r0, r3
 811 014a FFF7FEFF 		bl	SDSectorsPerSCSISector
 812 014e 0346     		mov	r3, r0
 813 0150 1A46     		mov	r2, r3
 814 0152 3B68     		ldr	r3, [r7]
 815 0154 03FB02F3 		mul	r3, r3, r2
 816 0158 FB60     		str	r3, [r7, #12]
 219:..\..\src/disk.c **** 	}
 817              		.loc 2 219 0
 818 015a F968     		ldr	r1, [r7, #12]
 819 015c 3869     		ldr	r0, [r7, #16]
 820 015e FFF7FEFF 		bl	sdWriteMultiSectorPrep
 821              	.L38:
 822              	.LBE4:
 823              		.loc 2 221 0
 824 0162 00BF     		nop
 825 0164 1C37     		adds	r7, r7, #28
 826              		.cfi_def_cfa_offset 20
 827 0166 BD46     		mov	sp, r7
 828              		.cfi_def_cfa_register 13
 829              		@ sp needed
 830 0168 F0BD     		pop	{r4, r5, r6, r7, pc}
 831              	.L40:
 832 016a 00BF     		.align	2
ARM GAS  C:\Users\r\AppData\Local\Temp\ccBAatSA.s 			page 21


 833              	.L39:
 834 016c 00000000 		.word	scsiDev
 835 0170 00000000 		.word	blockDev
 836 0174 00000000 		.word	transfer
 837              		.cfi_endproc
 838              	.LFE70:
 839              		.size	doWrite, .-doWrite
 840              		.section	.text.doRead,"ax",%progbits
 841              		.align	2
 842              		.thumb
 843              		.thumb_func
 844              		.type	doRead, %function
 845              	doRead:
 846              	.LFB71:
 222:..\..\src/disk.c **** 
 223:..\..\src/disk.c **** 
 224:..\..\src/disk.c **** static void doRead(uint32 lba, uint32 blocks)
 225:..\..\src/disk.c **** {
 847              		.loc 2 225 0
 848              		.cfi_startproc
 849              		@ args = 0, pretend = 0, frame = 32
 850              		@ frame_needed = 1, uses_anonymous_args = 0
 851 0000 90B5     		push	{r4, r7, lr}
 852              		.cfi_def_cfa_offset 12
 853              		.cfi_offset 4, -12
 854              		.cfi_offset 7, -8
 855              		.cfi_offset 14, -4
 856 0002 89B0     		sub	sp, sp, #36
 857              		.cfi_def_cfa_offset 48
 858 0004 00AF     		add	r7, sp, #0
 859              		.cfi_def_cfa_register 7
 860 0006 7860     		str	r0, [r7, #4]
 861 0008 3960     		str	r1, [r7]
 226:..\..\src/disk.c **** 	if (unlikely(scsiDev.target->cfg->deviceType == CONFIG_FLOPPY_14MB)) {
 862              		.loc 2 226 0
 863 000a 524B     		ldr	r3, .L49
 864 000c 1B6E     		ldr	r3, [r3, #96]
 865 000e 5B68     		ldr	r3, [r3, #4]
 866 0010 5B78     		ldrb	r3, [r3, #1]	@ zero_extendqisi2
 867 0012 032B     		cmp	r3, #3
 868 0014 0CBF     		ite	eq
 869 0016 0123     		moveq	r3, #1
 870 0018 0023     		movne	r3, #0
 871 001a DBB2     		uxtb	r3, r3
 872 001c 002B     		cmp	r3, #0
 873 001e 02D0     		beq	.L42
 227:..\..\src/disk.c **** 		// Floppies are supposed to be slow. Some systems can't handle a floppy
 228:..\..\src/disk.c **** 		// without an access time
 229:..\..\src/disk.c **** 		CyDelay(10);
 874              		.loc 2 229 0
 875 0020 0A20     		movs	r0, #10
 876 0022 FFF7FEFF 		bl	CyDelay
 877              	.L42:
 230:..\..\src/disk.c **** 	}
 231:..\..\src/disk.c **** 
 232:..\..\src/disk.c **** 	uint32_t capacity = getScsiCapacity(
 233:..\..\src/disk.c **** 		scsiDev.target->cfg->sdSectorStart,
ARM GAS  C:\Users\r\AppData\Local\Temp\ccBAatSA.s 			page 22


 878              		.loc 2 233 0
 879 0026 4B4B     		ldr	r3, .L49
 880 0028 1B6E     		ldr	r3, [r3, #96]
 881 002a 5B68     		ldr	r3, [r3, #4]
 232:..\..\src/disk.c **** 		scsiDev.target->cfg->sdSectorStart,
 882              		.loc 2 232 0
 883 002c 5868     		ldr	r0, [r3, #4]	@ unaligned
 234:..\..\src/disk.c **** 		scsiDev.target->liveCfg.bytesPerSector,
 884              		.loc 2 234 0
 885 002e 494B     		ldr	r3, .L49
 886 0030 1B6E     		ldr	r3, [r3, #96]
 232:..\..\src/disk.c **** 		scsiDev.target->cfg->sdSectorStart,
 887              		.loc 2 232 0
 888 0032 1989     		ldrh	r1, [r3, #8]
 235:..\..\src/disk.c **** 		scsiDev.target->cfg->scsiSectors);
 889              		.loc 2 235 0
 890 0034 474B     		ldr	r3, .L49
 891 0036 1B6E     		ldr	r3, [r3, #96]
 892 0038 5B68     		ldr	r3, [r3, #4]
 232:..\..\src/disk.c **** 		scsiDev.target->cfg->sdSectorStart,
 893              		.loc 2 232 0
 894 003a 9B68     		ldr	r3, [r3, #8]	@ unaligned
 895 003c 1A46     		mov	r2, r3
 896 003e FFF7FEFF 		bl	getScsiCapacity
 897 0042 F861     		str	r0, [r7, #28]
 236:..\..\src/disk.c **** 	if (unlikely(((uint64) lba) + blocks > capacity))
 898              		.loc 2 236 0
 899 0044 7B68     		ldr	r3, [r7, #4]
 900 0046 1946     		mov	r1, r3
 901 0048 4FF00002 		mov	r2, #0
 902 004c 3B68     		ldr	r3, [r7]
 903 004e 4FF00004 		mov	r4, #0
 904 0052 5B18     		adds	r3, r3, r1
 905 0054 44EB0204 		adc	r4, r4, r2
 906 0058 FA69     		ldr	r2, [r7, #28]
 907 005a 1146     		mov	r1, r2
 908 005c 4FF00002 		mov	r2, #0
 909 0060 A242     		cmp	r2, r4
 910 0062 08BF     		it	eq
 911 0064 9942     		cmpeq	r1, r3
 912 0066 34BF     		ite	cc
 913 0068 0123     		movcc	r3, #1
 914 006a 0023     		movcs	r3, #0
 915 006c DBB2     		uxtb	r3, r3
 916 006e 002B     		cmp	r3, #0
 917 0070 13D0     		beq	.L43
 237:..\..\src/disk.c **** 	{
 238:..\..\src/disk.c **** 		scsiDev.status = CHECK_CONDITION;
 918              		.loc 2 238 0
 919 0072 384B     		ldr	r3, .L49
 920 0074 03F58343 		add	r3, r3, #16768
 921 0078 1C33     		adds	r3, r3, #28
 922 007a 0222     		movs	r2, #2
 923 007c 1A70     		strb	r2, [r3]
 239:..\..\src/disk.c **** 		scsiDev.target->sense.code = ILLEGAL_REQUEST;
 924              		.loc 2 239 0
 925 007e 354B     		ldr	r3, .L49
ARM GAS  C:\Users\r\AppData\Local\Temp\ccBAatSA.s 			page 23


 926 0080 1B6E     		ldr	r3, [r3, #96]
 927 0082 0522     		movs	r2, #5
 928 0084 9A72     		strb	r2, [r3, #10]
 240:..\..\src/disk.c **** 		scsiDev.target->sense.asc = LOGICAL_BLOCK_ADDRESS_OUT_OF_RANGE;
 929              		.loc 2 240 0
 930 0086 334B     		ldr	r3, .L49
 931 0088 1B6E     		ldr	r3, [r3, #96]
 932 008a 4FF40452 		mov	r2, #8448
 933 008e 9A81     		strh	r2, [r3, #12]	@ movhi
 241:..\..\src/disk.c **** 		scsiDev.phase = STATUS;
 934              		.loc 2 241 0
 935 0090 304B     		ldr	r3, .L49
 936 0092 0622     		movs	r2, #6
 937 0094 C3F87821 		str	r2, [r3, #376]
 242:..\..\src/disk.c **** 	}
 243:..\..\src/disk.c **** 	else
 244:..\..\src/disk.c **** 	{
 245:..\..\src/disk.c **** 		transfer.lba = lba;
 246:..\..\src/disk.c **** 		transfer.blocks = blocks;
 247:..\..\src/disk.c **** 		transfer.currentBlock = 0;
 248:..\..\src/disk.c **** 		scsiDev.phase = DATA_IN;
 249:..\..\src/disk.c **** 		scsiDev.dataLen = 0; // No data yet
 250:..\..\src/disk.c **** 
 251:..\..\src/disk.c **** 		uint32_t bytesPerSector = scsiDev.target->liveCfg.bytesPerSector;
 252:..\..\src/disk.c **** 		uint32_t sdSectorPerSCSISector = SDSectorsPerSCSISector(bytesPerSector);
 253:..\..\src/disk.c **** 		uint32_t sdSectors =
 254:..\..\src/disk.c **** 			blocks * sdSectorPerSCSISector;
 255:..\..\src/disk.c **** 
 256:..\..\src/disk.c **** 		if ((
 257:..\..\src/disk.c **** 				(sdSectors == 1) &&
 258:..\..\src/disk.c **** 				!(scsiDev.boardCfg.flags & CONFIG_ENABLE_CACHE)
 259:..\..\src/disk.c **** 			) ||
 260:..\..\src/disk.c **** 			unlikely(((uint64) lba) + blocks == capacity)
 261:..\..\src/disk.c **** 			)
 262:..\..\src/disk.c **** 		{
 263:..\..\src/disk.c **** 			// We get errors on reading the last sector using a multi-sector
 264:..\..\src/disk.c **** 			// read :-(
 265:..\..\src/disk.c **** 			transfer.multiBlock = 0;
 266:..\..\src/disk.c **** 		}
 267:..\..\src/disk.c **** 		else
 268:..\..\src/disk.c **** 		{
 269:..\..\src/disk.c **** 			transfer.multiBlock = 1;
 270:..\..\src/disk.c **** 
 271:..\..\src/disk.c **** 			uint32_t sdLBA =
 272:..\..\src/disk.c **** 				SCSISector2SD(
 273:..\..\src/disk.c **** 					scsiDev.target->cfg->sdSectorStart,
 274:..\..\src/disk.c **** 					bytesPerSector,
 275:..\..\src/disk.c **** 					lba);
 276:..\..\src/disk.c **** 
 277:..\..\src/disk.c **** 			sdReadMultiSectorPrep(sdLBA, sdSectors);
 278:..\..\src/disk.c **** 		}
 279:..\..\src/disk.c **** 	}
 280:..\..\src/disk.c **** }
 938              		.loc 2 280 0
 939 0098 57E0     		b	.L48
 940              	.L43:
 941              	.LBB5:
ARM GAS  C:\Users\r\AppData\Local\Temp\ccBAatSA.s 			page 24


 245:..\..\src/disk.c **** 		transfer.blocks = blocks;
 942              		.loc 2 245 0
 943 009a 2F4A     		ldr	r2, .L49+4
 944 009c 7B68     		ldr	r3, [r7, #4]
 945 009e 5360     		str	r3, [r2, #4]
 246:..\..\src/disk.c **** 		transfer.currentBlock = 0;
 946              		.loc 2 246 0
 947 00a0 2D4A     		ldr	r2, .L49+4
 948 00a2 3B68     		ldr	r3, [r7]
 949 00a4 9360     		str	r3, [r2, #8]
 247:..\..\src/disk.c **** 		scsiDev.phase = DATA_IN;
 950              		.loc 2 247 0
 951 00a6 2C4B     		ldr	r3, .L49+4
 952 00a8 0022     		movs	r2, #0
 953 00aa DA60     		str	r2, [r3, #12]
 248:..\..\src/disk.c **** 		scsiDev.dataLen = 0; // No data yet
 954              		.loc 2 248 0
 955 00ac 294B     		ldr	r3, .L49
 956 00ae 0422     		movs	r2, #4
 957 00b0 C3F87821 		str	r2, [r3, #376]
 249:..\..\src/disk.c **** 
 958              		.loc 2 249 0
 959 00b4 274B     		ldr	r3, .L49
 960 00b6 03F58343 		add	r3, r3, #16768
 961 00ba 0433     		adds	r3, r3, #4
 962 00bc 0022     		movs	r2, #0
 963 00be 1A60     		str	r2, [r3]
 251:..\..\src/disk.c **** 		uint32_t sdSectorPerSCSISector = SDSectorsPerSCSISector(bytesPerSector);
 964              		.loc 2 251 0
 965 00c0 244B     		ldr	r3, .L49
 966 00c2 1B6E     		ldr	r3, [r3, #96]
 967 00c4 1B89     		ldrh	r3, [r3, #8]
 968 00c6 BB61     		str	r3, [r7, #24]
 252:..\..\src/disk.c **** 		uint32_t sdSectors =
 969              		.loc 2 252 0
 970 00c8 BB69     		ldr	r3, [r7, #24]
 971 00ca 9BB2     		uxth	r3, r3
 972 00cc 1846     		mov	r0, r3
 973 00ce FFF7FEFF 		bl	SDSectorsPerSCSISector
 974 00d2 0346     		mov	r3, r0
 975 00d4 7B61     		str	r3, [r7, #20]
 253:..\..\src/disk.c **** 			blocks * sdSectorPerSCSISector;
 976              		.loc 2 253 0
 977 00d6 3B68     		ldr	r3, [r7]
 978 00d8 7A69     		ldr	r2, [r7, #20]
 979 00da 02FB03F3 		mul	r3, r2, r3
 980 00de 3B61     		str	r3, [r7, #16]
 256:..\..\src/disk.c **** 				(sdSectors == 1) &&
 981              		.loc 2 256 0
 982 00e0 3B69     		ldr	r3, [r7, #16]
 983 00e2 012B     		cmp	r3, #1
 984 00e4 06D1     		bne	.L45
 258:..\..\src/disk.c **** 			) ||
 985              		.loc 2 258 0
 986 00e6 1B4B     		ldr	r3, .L49
 987 00e8 93F86830 		ldrb	r3, [r3, #104]	@ zero_extendqisi2
 988 00ec 03F01003 		and	r3, r3, #16
ARM GAS  C:\Users\r\AppData\Local\Temp\ccBAatSA.s 			page 25


 257:..\..\src/disk.c **** 				!(scsiDev.boardCfg.flags & CONFIG_ENABLE_CACHE)
 989              		.loc 2 257 0
 990 00f0 002B     		cmp	r3, #0
 991 00f2 14D0     		beq	.L46
 992              	.L45:
 260:..\..\src/disk.c **** 			)
 993              		.loc 2 260 0
 994 00f4 7B68     		ldr	r3, [r7, #4]
 995 00f6 1946     		mov	r1, r3
 996 00f8 4FF00002 		mov	r2, #0
 997 00fc 3B68     		ldr	r3, [r7]
 998 00fe 4FF00004 		mov	r4, #0
 999 0102 C918     		adds	r1, r1, r3
 1000 0104 42EB0402 		adc	r2, r2, r4
 1001 0108 FB69     		ldr	r3, [r7, #28]
 1002 010a 4FF00004 		mov	r4, #0
 1003 010e A242     		cmp	r2, r4
 1004 0110 06BF     		itte	eq
 1005 0112 9942     		cmpeq	r1, r3
 1006 0114 0123     		moveq	r3, #1
 1007 0116 0023     		movne	r3, #0
 1008 0118 DBB2     		uxtb	r3, r3
 259:..\..\src/disk.c **** 			unlikely(((uint64) lba) + blocks == capacity)
 1009              		.loc 2 259 0
 1010 011a 002B     		cmp	r3, #0
 1011 011c 03D0     		beq	.L47
 1012              	.L46:
 265:..\..\src/disk.c **** 		}
 1013              		.loc 2 265 0
 1014 011e 0E4B     		ldr	r3, .L49+4
 1015 0120 0022     		movs	r2, #0
 1016 0122 1A60     		str	r2, [r3]
 1017              	.LBE5:
 1018              		.loc 2 280 0
 1019 0124 11E0     		b	.L48
 1020              	.L47:
 1021              	.LBB7:
 1022              	.LBB6:
 269:..\..\src/disk.c **** 
 1023              		.loc 2 269 0
 1024 0126 0C4B     		ldr	r3, .L49+4
 1025 0128 0122     		movs	r2, #1
 1026 012a 1A60     		str	r2, [r3]
 273:..\..\src/disk.c **** 					bytesPerSector,
 1027              		.loc 2 273 0
 1028 012c 094B     		ldr	r3, .L49
 1029 012e 1B6E     		ldr	r3, [r3, #96]
 1030 0130 5B68     		ldr	r3, [r3, #4]
 272:..\..\src/disk.c **** 					scsiDev.target->cfg->sdSectorStart,
 1031              		.loc 2 272 0
 1032 0132 5B68     		ldr	r3, [r3, #4]	@ unaligned
 1033 0134 BA69     		ldr	r2, [r7, #24]
 1034 0136 91B2     		uxth	r1, r2
 271:..\..\src/disk.c **** 				SCSISector2SD(
 1035              		.loc 2 271 0
 1036 0138 7A68     		ldr	r2, [r7, #4]
 1037 013a 1846     		mov	r0, r3
ARM GAS  C:\Users\r\AppData\Local\Temp\ccBAatSA.s 			page 26


 1038 013c FFF7FEFF 		bl	SCSISector2SD
 1039 0140 F860     		str	r0, [r7, #12]
 277:..\..\src/disk.c **** 		}
 1040              		.loc 2 277 0
 1041 0142 3969     		ldr	r1, [r7, #16]
 1042 0144 F868     		ldr	r0, [r7, #12]
 1043 0146 FFF7FEFF 		bl	sdReadMultiSectorPrep
 1044              	.L48:
 1045              	.LBE6:
 1046              	.LBE7:
 1047              		.loc 2 280 0
 1048 014a 00BF     		nop
 1049 014c 2437     		adds	r7, r7, #36
 1050              		.cfi_def_cfa_offset 12
 1051 014e BD46     		mov	sp, r7
 1052              		.cfi_def_cfa_register 13
 1053              		@ sp needed
 1054 0150 90BD     		pop	{r4, r7, pc}
 1055              	.L50:
 1056 0152 00BF     		.align	2
 1057              	.L49:
 1058 0154 00000000 		.word	scsiDev
 1059 0158 00000000 		.word	transfer
 1060              		.cfi_endproc
 1061              	.LFE71:
 1062              		.size	doRead, .-doRead
 1063              		.section	.text.doSeek,"ax",%progbits
 1064              		.align	2
 1065              		.thumb
 1066              		.thumb_func
 1067              		.type	doSeek, %function
 1068              	doSeek:
 1069              	.LFB72:
 281:..\..\src/disk.c **** 
 282:..\..\src/disk.c **** static void doSeek(uint32 lba)
 283:..\..\src/disk.c **** {
 1070              		.loc 2 283 0
 1071              		.cfi_startproc
 1072              		@ args = 0, pretend = 0, frame = 8
 1073              		@ frame_needed = 1, uses_anonymous_args = 0
 1074 0000 80B5     		push	{r7, lr}
 1075              		.cfi_def_cfa_offset 8
 1076              		.cfi_offset 7, -8
 1077              		.cfi_offset 14, -4
 1078 0002 82B0     		sub	sp, sp, #8
 1079              		.cfi_def_cfa_offset 16
 1080 0004 00AF     		add	r7, sp, #0
 1081              		.cfi_def_cfa_register 7
 1082 0006 7860     		str	r0, [r7, #4]
 284:..\..\src/disk.c **** 	if (lba >=
 285:..\..\src/disk.c **** 		getScsiCapacity(
 286:..\..\src/disk.c **** 			scsiDev.target->cfg->sdSectorStart,
 1083              		.loc 2 286 0
 1084 0008 164B     		ldr	r3, .L55
 1085 000a 1B6E     		ldr	r3, [r3, #96]
 1086 000c 5B68     		ldr	r3, [r3, #4]
 285:..\..\src/disk.c **** 			scsiDev.target->cfg->sdSectorStart,
ARM GAS  C:\Users\r\AppData\Local\Temp\ccBAatSA.s 			page 27


 1087              		.loc 2 285 0
 1088 000e 5868     		ldr	r0, [r3, #4]	@ unaligned
 287:..\..\src/disk.c **** 			scsiDev.target->liveCfg.bytesPerSector,
 1089              		.loc 2 287 0
 1090 0010 144B     		ldr	r3, .L55
 1091 0012 1B6E     		ldr	r3, [r3, #96]
 285:..\..\src/disk.c **** 			scsiDev.target->cfg->sdSectorStart,
 1092              		.loc 2 285 0
 1093 0014 1989     		ldrh	r1, [r3, #8]
 288:..\..\src/disk.c **** 			scsiDev.target->cfg->scsiSectors)
 1094              		.loc 2 288 0
 1095 0016 134B     		ldr	r3, .L55
 1096 0018 1B6E     		ldr	r3, [r3, #96]
 1097 001a 5B68     		ldr	r3, [r3, #4]
 285:..\..\src/disk.c **** 			scsiDev.target->cfg->sdSectorStart,
 1098              		.loc 2 285 0
 1099 001c 9B68     		ldr	r3, [r3, #8]	@ unaligned
 1100 001e 1A46     		mov	r2, r3
 1101 0020 FFF7FEFF 		bl	getScsiCapacity
 1102 0024 0246     		mov	r2, r0
 284:..\..\src/disk.c **** 		getScsiCapacity(
 1103              		.loc 2 284 0
 1104 0026 7B68     		ldr	r3, [r7, #4]
 1105 0028 9A42     		cmp	r2, r3
 1106 002a 13D8     		bhi	.L52
 289:..\..\src/disk.c **** 		)
 290:..\..\src/disk.c **** 	{
 291:..\..\src/disk.c **** 		scsiDev.status = CHECK_CONDITION;
 1107              		.loc 2 291 0
 1108 002c 0D4B     		ldr	r3, .L55
 1109 002e 03F58343 		add	r3, r3, #16768
 1110 0032 1C33     		adds	r3, r3, #28
 1111 0034 0222     		movs	r2, #2
 1112 0036 1A70     		strb	r2, [r3]
 292:..\..\src/disk.c **** 		scsiDev.target->sense.code = ILLEGAL_REQUEST;
 1113              		.loc 2 292 0
 1114 0038 0A4B     		ldr	r3, .L55
 1115 003a 1B6E     		ldr	r3, [r3, #96]
 1116 003c 0522     		movs	r2, #5
 1117 003e 9A72     		strb	r2, [r3, #10]
 293:..\..\src/disk.c **** 		scsiDev.target->sense.asc = LOGICAL_BLOCK_ADDRESS_OUT_OF_RANGE;
 1118              		.loc 2 293 0
 1119 0040 084B     		ldr	r3, .L55
 1120 0042 1B6E     		ldr	r3, [r3, #96]
 1121 0044 4FF40452 		mov	r2, #8448
 1122 0048 9A81     		strh	r2, [r3, #12]	@ movhi
 294:..\..\src/disk.c **** 		scsiDev.phase = STATUS;
 1123              		.loc 2 294 0
 1124 004a 064B     		ldr	r3, .L55
 1125 004c 0622     		movs	r2, #6
 1126 004e C3F87821 		str	r2, [r3, #376]
 295:..\..\src/disk.c **** 	}
 296:..\..\src/disk.c ****     else
 297:..\..\src/disk.c ****     {
 298:..\..\src/disk.c ****         CyDelay(10);
 299:..\..\src/disk.c ****     }
 300:..\..\src/disk.c **** }
ARM GAS  C:\Users\r\AppData\Local\Temp\ccBAatSA.s 			page 28


 1127              		.loc 2 300 0
 1128 0052 02E0     		b	.L54
 1129              	.L52:
 298:..\..\src/disk.c ****     }
 1130              		.loc 2 298 0
 1131 0054 0A20     		movs	r0, #10
 1132 0056 FFF7FEFF 		bl	CyDelay
 1133              	.L54:
 1134              		.loc 2 300 0
 1135 005a 00BF     		nop
 1136 005c 0837     		adds	r7, r7, #8
 1137              		.cfi_def_cfa_offset 8
 1138 005e BD46     		mov	sp, r7
 1139              		.cfi_def_cfa_register 13
 1140              		@ sp needed
 1141 0060 80BD     		pop	{r7, pc}
 1142              	.L56:
 1143 0062 00BF     		.align	2
 1144              	.L55:
 1145 0064 00000000 		.word	scsiDev
 1146              		.cfi_endproc
 1147              	.LFE72:
 1148              		.size	doSeek, .-doSeek
 1149              		.section	.text.doTestUnitReady,"ax",%progbits
 1150              		.align	2
 1151              		.thumb
 1152              		.thumb_func
 1153              		.type	doTestUnitReady, %function
 1154              	doTestUnitReady:
 1155              	.LFB73:
 301:..\..\src/disk.c **** 
 302:..\..\src/disk.c **** static int doTestUnitReady()
 303:..\..\src/disk.c **** {
 1156              		.loc 2 303 0
 1157              		.cfi_startproc
 1158              		@ args = 0, pretend = 0, frame = 8
 1159              		@ frame_needed = 1, uses_anonymous_args = 0
 1160              		@ link register save eliminated.
 1161 0000 80B4     		push	{r7}
 1162              		.cfi_def_cfa_offset 4
 1163              		.cfi_offset 7, -4
 1164 0002 83B0     		sub	sp, sp, #12
 1165              		.cfi_def_cfa_offset 16
 1166 0004 00AF     		add	r7, sp, #0
 1167              		.cfi_def_cfa_register 7
 304:..\..\src/disk.c **** 	int ready = 1;
 1168              		.loc 2 304 0
 1169 0006 0123     		movs	r3, #1
 1170 0008 7B60     		str	r3, [r7, #4]
 305:..\..\src/disk.c **** 	if (likely(blockDev.state == (DISK_STARTED | DISK_PRESENT | DISK_INITIALISED)))
 1171              		.loc 2 305 0
 1172 000a 384B     		ldr	r3, .L62
 1173 000c 1B68     		ldr	r3, [r3]
 1174 000e 072B     		cmp	r3, #7
 1175 0010 0CBF     		ite	eq
 1176 0012 0123     		moveq	r3, #1
 1177 0014 0023     		movne	r3, #0
ARM GAS  C:\Users\r\AppData\Local\Temp\ccBAatSA.s 			page 29


 1178 0016 DBB2     		uxtb	r3, r3
 1179 0018 002B     		cmp	r3, #0
 1180 001a 61D1     		bne	.L58
 306:..\..\src/disk.c **** 	{
 307:..\..\src/disk.c **** 		// nothing to do.
 308:..\..\src/disk.c **** 	}
 309:..\..\src/disk.c **** 	else if (unlikely(!(blockDev.state & DISK_STARTED)))
 1181              		.loc 2 309 0
 1182 001c 334B     		ldr	r3, .L62
 1183 001e 1B68     		ldr	r3, [r3]
 1184 0020 03F00103 		and	r3, r3, #1
 1185 0024 002B     		cmp	r3, #0
 1186 0026 0CBF     		ite	eq
 1187 0028 0123     		moveq	r3, #1
 1188 002a 0023     		movne	r3, #0
 1189 002c DBB2     		uxtb	r3, r3
 1190 002e 002B     		cmp	r3, #0
 1191 0030 15D0     		beq	.L59
 310:..\..\src/disk.c **** 	{
 311:..\..\src/disk.c **** 		ready = 0;
 1192              		.loc 2 311 0
 1193 0032 0023     		movs	r3, #0
 1194 0034 7B60     		str	r3, [r7, #4]
 312:..\..\src/disk.c **** 		scsiDev.status = CHECK_CONDITION;
 1195              		.loc 2 312 0
 1196 0036 2E4B     		ldr	r3, .L62+4
 1197 0038 03F58343 		add	r3, r3, #16768
 1198 003c 1C33     		adds	r3, r3, #28
 1199 003e 0222     		movs	r2, #2
 1200 0040 1A70     		strb	r2, [r3]
 313:..\..\src/disk.c **** 		scsiDev.target->sense.code = NOT_READY;
 1201              		.loc 2 313 0
 1202 0042 2B4B     		ldr	r3, .L62+4
 1203 0044 1B6E     		ldr	r3, [r3, #96]
 1204 0046 0222     		movs	r2, #2
 1205 0048 9A72     		strb	r2, [r3, #10]
 314:..\..\src/disk.c **** 		scsiDev.target->sense.asc = LOGICAL_UNIT_NOT_READY_INITIALIZING_COMMAND_REQUIRED;
 1206              		.loc 2 314 0
 1207 004a 294B     		ldr	r3, .L62+4
 1208 004c 1B6E     		ldr	r3, [r3, #96]
 1209 004e 40F20242 		movw	r2, #1026
 1210 0052 9A81     		strh	r2, [r3, #12]	@ movhi
 315:..\..\src/disk.c **** 		scsiDev.phase = STATUS;
 1211              		.loc 2 315 0
 1212 0054 264B     		ldr	r3, .L62+4
 1213 0056 0622     		movs	r2, #6
 1214 0058 C3F87821 		str	r2, [r3, #376]
 1215 005c 40E0     		b	.L58
 1216              	.L59:
 316:..\..\src/disk.c **** 	}
 317:..\..\src/disk.c **** 	else if (unlikely(!(blockDev.state & DISK_PRESENT)))
 1217              		.loc 2 317 0
 1218 005e 234B     		ldr	r3, .L62
 1219 0060 1B68     		ldr	r3, [r3]
 1220 0062 03F00203 		and	r3, r3, #2
 1221 0066 002B     		cmp	r3, #0
 1222 0068 0CBF     		ite	eq
ARM GAS  C:\Users\r\AppData\Local\Temp\ccBAatSA.s 			page 30


 1223 006a 0123     		moveq	r3, #1
 1224 006c 0023     		movne	r3, #0
 1225 006e DBB2     		uxtb	r3, r3
 1226 0070 002B     		cmp	r3, #0
 1227 0072 15D0     		beq	.L60
 318:..\..\src/disk.c **** 	{
 319:..\..\src/disk.c **** 		ready = 0;
 1228              		.loc 2 319 0
 1229 0074 0023     		movs	r3, #0
 1230 0076 7B60     		str	r3, [r7, #4]
 320:..\..\src/disk.c **** 		scsiDev.status = CHECK_CONDITION;
 1231              		.loc 2 320 0
 1232 0078 1D4B     		ldr	r3, .L62+4
 1233 007a 03F58343 		add	r3, r3, #16768
 1234 007e 1C33     		adds	r3, r3, #28
 1235 0080 0222     		movs	r2, #2
 1236 0082 1A70     		strb	r2, [r3]
 321:..\..\src/disk.c **** 		scsiDev.target->sense.code = NOT_READY;
 1237              		.loc 2 321 0
 1238 0084 1A4B     		ldr	r3, .L62+4
 1239 0086 1B6E     		ldr	r3, [r3, #96]
 1240 0088 0222     		movs	r2, #2
 1241 008a 9A72     		strb	r2, [r3, #10]
 322:..\..\src/disk.c **** 		scsiDev.target->sense.asc = MEDIUM_NOT_PRESENT;
 1242              		.loc 2 322 0
 1243 008c 184B     		ldr	r3, .L62+4
 1244 008e 1B6E     		ldr	r3, [r3, #96]
 1245 0090 4FF46852 		mov	r2, #14848
 1246 0094 9A81     		strh	r2, [r3, #12]	@ movhi
 323:..\..\src/disk.c **** 		scsiDev.phase = STATUS;
 1247              		.loc 2 323 0
 1248 0096 164B     		ldr	r3, .L62+4
 1249 0098 0622     		movs	r2, #6
 1250 009a C3F87821 		str	r2, [r3, #376]
 1251 009e 1FE0     		b	.L58
 1252              	.L60:
 324:..\..\src/disk.c **** 	}
 325:..\..\src/disk.c **** 	else if (unlikely(!(blockDev.state & DISK_INITIALISED)))
 1253              		.loc 2 325 0
 1254 00a0 124B     		ldr	r3, .L62
 1255 00a2 1B68     		ldr	r3, [r3]
 1256 00a4 03F00403 		and	r3, r3, #4
 1257 00a8 002B     		cmp	r3, #0
 1258 00aa 0CBF     		ite	eq
 1259 00ac 0123     		moveq	r3, #1
 1260 00ae 0023     		movne	r3, #0
 1261 00b0 DBB2     		uxtb	r3, r3
 1262 00b2 002B     		cmp	r3, #0
 1263 00b4 14D0     		beq	.L58
 326:..\..\src/disk.c **** 	{
 327:..\..\src/disk.c **** 		ready = 0;
 1264              		.loc 2 327 0
 1265 00b6 0023     		movs	r3, #0
 1266 00b8 7B60     		str	r3, [r7, #4]
 328:..\..\src/disk.c **** 		scsiDev.status = CHECK_CONDITION;
 1267              		.loc 2 328 0
 1268 00ba 0D4B     		ldr	r3, .L62+4
ARM GAS  C:\Users\r\AppData\Local\Temp\ccBAatSA.s 			page 31


 1269 00bc 03F58343 		add	r3, r3, #16768
 1270 00c0 1C33     		adds	r3, r3, #28
 1271 00c2 0222     		movs	r2, #2
 1272 00c4 1A70     		strb	r2, [r3]
 329:..\..\src/disk.c **** 		scsiDev.target->sense.code = NOT_READY;
 1273              		.loc 2 329 0
 1274 00c6 0A4B     		ldr	r3, .L62+4
 1275 00c8 1B6E     		ldr	r3, [r3, #96]
 1276 00ca 0222     		movs	r2, #2
 1277 00cc 9A72     		strb	r2, [r3, #10]
 330:..\..\src/disk.c **** 		scsiDev.target->sense.asc = LOGICAL_UNIT_NOT_READY_CAUSE_NOT_REPORTABLE;
 1278              		.loc 2 330 0
 1279 00ce 084B     		ldr	r3, .L62+4
 1280 00d0 1B6E     		ldr	r3, [r3, #96]
 1281 00d2 4FF48062 		mov	r2, #1024
 1282 00d6 9A81     		strh	r2, [r3, #12]	@ movhi
 331:..\..\src/disk.c **** 		scsiDev.phase = STATUS;
 1283              		.loc 2 331 0
 1284 00d8 054B     		ldr	r3, .L62+4
 1285 00da 0622     		movs	r2, #6
 1286 00dc C3F87821 		str	r2, [r3, #376]
 1287              	.L58:
 332:..\..\src/disk.c **** 	}
 333:..\..\src/disk.c **** 	return ready;
 1288              		.loc 2 333 0
 1289 00e0 7B68     		ldr	r3, [r7, #4]
 334:..\..\src/disk.c **** }
 1290              		.loc 2 334 0
 1291 00e2 1846     		mov	r0, r3
 1292 00e4 0C37     		adds	r7, r7, #12
 1293              		.cfi_def_cfa_offset 4
 1294 00e6 BD46     		mov	sp, r7
 1295              		.cfi_def_cfa_register 13
 1296              		@ sp needed
 1297 00e8 80BC     		pop	{r7}
 1298              		.cfi_restore 7
 1299              		.cfi_def_cfa_offset 0
 1300 00ea 7047     		bx	lr
 1301              	.L63:
 1302              		.align	2
 1303              	.L62:
 1304 00ec 00000000 		.word	blockDev
 1305 00f0 00000000 		.word	scsiDev
 1306              		.cfi_endproc
 1307              	.LFE73:
 1308              		.size	doTestUnitReady, .-doTestUnitReady
 1309              		.section	.text.scsiDiskCommand,"ax",%progbits
 1310              		.align	2
 1311              		.global	scsiDiskCommand
 1312              		.thumb
 1313              		.thumb_func
 1314              		.type	scsiDiskCommand, %function
 1315              	scsiDiskCommand:
 1316              	.LFB74:
 335:..\..\src/disk.c **** 
 336:..\..\src/disk.c **** // Handle direct-access scsi device commands
 337:..\..\src/disk.c **** int scsiDiskCommand()
ARM GAS  C:\Users\r\AppData\Local\Temp\ccBAatSA.s 			page 32


 338:..\..\src/disk.c **** {
 1317              		.loc 2 338 0
 1318              		.cfi_startproc
 1319              		@ args = 0, pretend = 0, frame = 56
 1320              		@ frame_needed = 1, uses_anonymous_args = 0
 1321 0000 80B5     		push	{r7, lr}
 1322              		.cfi_def_cfa_offset 8
 1323              		.cfi_offset 7, -8
 1324              		.cfi_offset 14, -4
 1325 0002 8EB0     		sub	sp, sp, #56
 1326              		.cfi_def_cfa_offset 64
 1327 0004 00AF     		add	r7, sp, #0
 1328              		.cfi_def_cfa_register 7
 339:..\..\src/disk.c **** 	int commandHandled = 1;
 1329              		.loc 2 339 0
 1330 0006 0123     		movs	r3, #1
 1331 0008 7B63     		str	r3, [r7, #52]
 340:..\..\src/disk.c **** 
 341:..\..\src/disk.c **** 	uint8 command = scsiDev.cdb[0];
 1332              		.loc 2 341 0
 1333 000a A94B     		ldr	r3, .L87
 1334 000c 03F58343 		add	r3, r3, #16768
 1335 0010 0833     		adds	r3, r3, #8
 1336 0012 1B78     		ldrb	r3, [r3]
 1337 0014 87F82B30 		strb	r3, [r7, #43]
 342:..\..\src/disk.c **** 	if (unlikely(command == 0x1B))
 1338              		.loc 2 342 0
 1339 0018 97F82B30 		ldrb	r3, [r7, #43]	@ zero_extendqisi2
 1340 001c 1B2B     		cmp	r3, #27
 1341 001e 0CBF     		ite	eq
 1342 0020 0123     		moveq	r3, #1
 1343 0022 0023     		movne	r3, #0
 1344 0024 DBB2     		uxtb	r3, r3
 1345 0026 002B     		cmp	r3, #0
 1346 0028 21D0     		beq	.L65
 1347              	.LBB8:
 343:..\..\src/disk.c **** 	{
 344:..\..\src/disk.c **** 		// START STOP UNIT
 345:..\..\src/disk.c **** 		// Enable or disable media access operations.
 346:..\..\src/disk.c **** 		// Ignore load/eject requests. We can't do that.
 347:..\..\src/disk.c **** 		//int immed = scsiDev.cdb[1] & 1;
 348:..\..\src/disk.c **** 		int start = scsiDev.cdb[4] & 1;
 1348              		.loc 2 348 0
 1349 002a A14B     		ldr	r3, .L87
 1350 002c 03F58343 		add	r3, r3, #16768
 1351 0030 0C33     		adds	r3, r3, #12
 1352 0032 1B78     		ldrb	r3, [r3]	@ zero_extendqisi2
 1353 0034 03F00103 		and	r3, r3, #1
 1354 0038 7B62     		str	r3, [r7, #36]
 349:..\..\src/disk.c **** 
 350:..\..\src/disk.c **** 		if (start)
 1355              		.loc 2 350 0
 1356 003a 7B6A     		ldr	r3, [r7, #36]
 1357 003c 002B     		cmp	r3, #0
 1358 003e 0FD0     		beq	.L66
 351:..\..\src/disk.c **** 		{
 352:..\..\src/disk.c **** 			blockDev.state = blockDev.state | DISK_STARTED;
ARM GAS  C:\Users\r\AppData\Local\Temp\ccBAatSA.s 			page 33


 1359              		.loc 2 352 0
 1360 0040 9C4B     		ldr	r3, .L87+4
 1361 0042 1B68     		ldr	r3, [r3]
 1362 0044 43F00103 		orr	r3, r3, #1
 1363 0048 9A4A     		ldr	r2, .L87+4
 1364 004a 1360     		str	r3, [r2]
 353:..\..\src/disk.c **** 			if (!(blockDev.state & DISK_INITIALISED))
 1365              		.loc 2 353 0
 1366 004c 994B     		ldr	r3, .L87+4
 1367 004e 1B68     		ldr	r3, [r3]
 1368 0050 03F00403 		and	r3, r3, #4
 1369 0054 002B     		cmp	r3, #0
 1370 0056 40F0FA81 		bne	.L69
 354:..\..\src/disk.c **** 			{
 355:..\..\src/disk.c **** 				doSdInit();
 1371              		.loc 2 355 0
 1372 005a FFF7FEFF 		bl	doSdInit
 1373 005e F6E1     		b	.L69
 1374              	.L66:
 356:..\..\src/disk.c **** 			}
 357:..\..\src/disk.c **** 		}
 358:..\..\src/disk.c **** 		else
 359:..\..\src/disk.c **** 		{
 360:..\..\src/disk.c **** 			blockDev.state &= ~DISK_STARTED;
 1375              		.loc 2 360 0
 1376 0060 944B     		ldr	r3, .L87+4
 1377 0062 1B68     		ldr	r3, [r3]
 1378 0064 23F00103 		bic	r3, r3, #1
 1379 0068 924A     		ldr	r2, .L87+4
 1380 006a 1360     		str	r3, [r2]
 1381 006c EFE1     		b	.L69
 1382              	.L65:
 1383              	.LBE8:
 361:..\..\src/disk.c **** 		}
 362:..\..\src/disk.c **** 	}
 363:..\..\src/disk.c **** 	else if (unlikely(command == 0x00))
 1384              		.loc 2 363 0
 1385 006e 97F82B30 		ldrb	r3, [r7, #43]	@ zero_extendqisi2
 1386 0072 002B     		cmp	r3, #0
 1387 0074 0CBF     		ite	eq
 1388 0076 0123     		moveq	r3, #1
 1389 0078 0023     		movne	r3, #0
 1390 007a DBB2     		uxtb	r3, r3
 1391 007c 002B     		cmp	r3, #0
 1392 007e 02D0     		beq	.L70
 364:..\..\src/disk.c **** 	{
 365:..\..\src/disk.c **** 		// TEST UNIT READY
 366:..\..\src/disk.c **** 		doTestUnitReady();
 1393              		.loc 2 366 0
 1394 0080 FFF7FEFF 		bl	doTestUnitReady
 1395 0084 E3E1     		b	.L69
 1396              	.L70:
 367:..\..\src/disk.c **** 	}
 368:..\..\src/disk.c **** 	else if (unlikely(!doTestUnitReady()))
 1397              		.loc 2 368 0
 1398 0086 FFF7FEFF 		bl	doTestUnitReady
 1399 008a 0346     		mov	r3, r0
ARM GAS  C:\Users\r\AppData\Local\Temp\ccBAatSA.s 			page 34


 1400 008c 002B     		cmp	r3, #0
 1401 008e 0CBF     		ite	eq
 1402 0090 0123     		moveq	r3, #1
 1403 0092 0023     		movne	r3, #0
 1404 0094 DBB2     		uxtb	r3, r3
 1405 0096 002B     		cmp	r3, #0
 1406 0098 40F0D981 		bne	.L69
 369:..\..\src/disk.c **** 	{
 370:..\..\src/disk.c **** 		// Status and sense codes already set by doTestUnitReady
 371:..\..\src/disk.c **** 	}
 372:..\..\src/disk.c **** 	else if (likely(command == 0x08))
 1407              		.loc 2 372 0
 1408 009c 97F82B30 		ldrb	r3, [r7, #43]	@ zero_extendqisi2
 1409 00a0 082B     		cmp	r3, #8
 1410 00a2 0CBF     		ite	eq
 1411 00a4 0123     		moveq	r3, #1
 1412 00a6 0023     		movne	r3, #0
 1413 00a8 DBB2     		uxtb	r3, r3
 1414 00aa 002B     		cmp	r3, #0
 1415 00ac 2BD0     		beq	.L71
 1416              	.LBB9:
 373:..\..\src/disk.c **** 	{
 374:..\..\src/disk.c **** 		// READ(6)
 375:..\..\src/disk.c **** 		uint32 lba =
 376:..\..\src/disk.c **** 			(((uint32) scsiDev.cdb[1] & 0x1F) << 16) +
 1417              		.loc 2 376 0
 1418 00ae 804B     		ldr	r3, .L87
 1419 00b0 03F58343 		add	r3, r3, #16768
 1420 00b4 0933     		adds	r3, r3, #9
 1421 00b6 1B78     		ldrb	r3, [r3]	@ zero_extendqisi2
 1422 00b8 1B04     		lsls	r3, r3, #16
 1423 00ba 03F4F812 		and	r2, r3, #2031616
 377:..\..\src/disk.c **** 			(((uint32) scsiDev.cdb[2]) << 8) +
 1424              		.loc 2 377 0
 1425 00be 7C4B     		ldr	r3, .L87
 1426 00c0 03F58343 		add	r3, r3, #16768
 1427 00c4 0A33     		adds	r3, r3, #10
 1428 00c6 1B78     		ldrb	r3, [r3]	@ zero_extendqisi2
 1429 00c8 1B02     		lsls	r3, r3, #8
 376:..\..\src/disk.c **** 			(((uint32) scsiDev.cdb[2]) << 8) +
 1430              		.loc 2 376 0
 1431 00ca 1A44     		add	r2, r2, r3
 378:..\..\src/disk.c **** 			scsiDev.cdb[3];
 1432              		.loc 2 378 0
 1433 00cc 784B     		ldr	r3, .L87
 1434 00ce 03F58343 		add	r3, r3, #16768
 1435 00d2 0B33     		adds	r3, r3, #11
 1436 00d4 1B78     		ldrb	r3, [r3]	@ zero_extendqisi2
 375:..\..\src/disk.c **** 			(((uint32) scsiDev.cdb[1] & 0x1F) << 16) +
 1437              		.loc 2 375 0
 1438 00d6 1344     		add	r3, r3, r2
 1439 00d8 3B62     		str	r3, [r7, #32]
 379:..\..\src/disk.c **** 		uint32 blocks = scsiDev.cdb[4];
 1440              		.loc 2 379 0
 1441 00da 754B     		ldr	r3, .L87
 1442 00dc 03F58343 		add	r3, r3, #16768
 1443 00e0 0C33     		adds	r3, r3, #12
ARM GAS  C:\Users\r\AppData\Local\Temp\ccBAatSA.s 			page 35


 1444 00e2 1B78     		ldrb	r3, [r3]	@ zero_extendqisi2
 1445 00e4 3B63     		str	r3, [r7, #48]
 380:..\..\src/disk.c **** 		if (unlikely(blocks == 0)) blocks = 256;
 1446              		.loc 2 380 0
 1447 00e6 3B6B     		ldr	r3, [r7, #48]
 1448 00e8 002B     		cmp	r3, #0
 1449 00ea 0CBF     		ite	eq
 1450 00ec 0123     		moveq	r3, #1
 1451 00ee 0023     		movne	r3, #0
 1452 00f0 DBB2     		uxtb	r3, r3
 1453 00f2 002B     		cmp	r3, #0
 1454 00f4 02D0     		beq	.L72
 1455              		.loc 2 380 0 is_stmt 0 discriminator 1
 1456 00f6 4FF48073 		mov	r3, #256
 1457 00fa 3B63     		str	r3, [r7, #48]
 1458              	.L72:
 381:..\..\src/disk.c **** 		doRead(lba, blocks);
 1459              		.loc 2 381 0 is_stmt 1
 1460 00fc 396B     		ldr	r1, [r7, #48]
 1461 00fe 386A     		ldr	r0, [r7, #32]
 1462 0100 FFF7FEFF 		bl	doRead
 1463              	.LBE9:
 1464 0104 A3E1     		b	.L69
 1465              	.L71:
 382:..\..\src/disk.c **** 	}
 383:..\..\src/disk.c **** 	else if (likely(command == 0x28))
 1466              		.loc 2 383 0
 1467 0106 97F82B30 		ldrb	r3, [r7, #43]	@ zero_extendqisi2
 1468 010a 282B     		cmp	r3, #40
 1469 010c 0CBF     		ite	eq
 1470 010e 0123     		moveq	r3, #1
 1471 0110 0023     		movne	r3, #0
 1472 0112 DBB2     		uxtb	r3, r3
 1473 0114 002B     		cmp	r3, #0
 1474 0116 2CD0     		beq	.L73
 1475              	.LBB10:
 384:..\..\src/disk.c **** 	{
 385:..\..\src/disk.c **** 		// READ(10)
 386:..\..\src/disk.c **** 		// Ignore all cache control bits - we don't support a memory cache.
 387:..\..\src/disk.c **** 
 388:..\..\src/disk.c **** 		uint32 lba =
 389:..\..\src/disk.c **** 			(((uint32) scsiDev.cdb[2]) << 24) +
 1476              		.loc 2 389 0
 1477 0118 654B     		ldr	r3, .L87
 1478 011a 03F58343 		add	r3, r3, #16768
 1479 011e 0A33     		adds	r3, r3, #10
 1480 0120 1B78     		ldrb	r3, [r3]	@ zero_extendqisi2
 1481 0122 1A06     		lsls	r2, r3, #24
 390:..\..\src/disk.c **** 			(((uint32) scsiDev.cdb[3]) << 16) +
 1482              		.loc 2 390 0
 1483 0124 624B     		ldr	r3, .L87
 1484 0126 03F58343 		add	r3, r3, #16768
 1485 012a 0B33     		adds	r3, r3, #11
 1486 012c 1B78     		ldrb	r3, [r3]	@ zero_extendqisi2
 1487 012e 1B04     		lsls	r3, r3, #16
 389:..\..\src/disk.c **** 			(((uint32) scsiDev.cdb[3]) << 16) +
 1488              		.loc 2 389 0
ARM GAS  C:\Users\r\AppData\Local\Temp\ccBAatSA.s 			page 36


 1489 0130 1A44     		add	r2, r2, r3
 391:..\..\src/disk.c **** 			(((uint32) scsiDev.cdb[4]) << 8) +
 1490              		.loc 2 391 0
 1491 0132 5F4B     		ldr	r3, .L87
 1492 0134 03F58343 		add	r3, r3, #16768
 1493 0138 0C33     		adds	r3, r3, #12
 1494 013a 1B78     		ldrb	r3, [r3]	@ zero_extendqisi2
 1495 013c 1B02     		lsls	r3, r3, #8
 390:..\..\src/disk.c **** 			(((uint32) scsiDev.cdb[3]) << 16) +
 1496              		.loc 2 390 0
 1497 013e 1A44     		add	r2, r2, r3
 392:..\..\src/disk.c **** 			scsiDev.cdb[5];
 1498              		.loc 2 392 0
 1499 0140 5B4B     		ldr	r3, .L87
 1500 0142 03F58343 		add	r3, r3, #16768
 1501 0146 0D33     		adds	r3, r3, #13
 1502 0148 1B78     		ldrb	r3, [r3]	@ zero_extendqisi2
 388:..\..\src/disk.c **** 			(((uint32) scsiDev.cdb[2]) << 24) +
 1503              		.loc 2 388 0
 1504 014a 1344     		add	r3, r3, r2
 1505 014c FB61     		str	r3, [r7, #28]
 393:..\..\src/disk.c **** 		uint32 blocks =
 394:..\..\src/disk.c **** 			(((uint32) scsiDev.cdb[7]) << 8) +
 1506              		.loc 2 394 0
 1507 014e 584B     		ldr	r3, .L87
 1508 0150 03F58343 		add	r3, r3, #16768
 1509 0154 0F33     		adds	r3, r3, #15
 1510 0156 1B78     		ldrb	r3, [r3]	@ zero_extendqisi2
 1511 0158 1A02     		lsls	r2, r3, #8
 395:..\..\src/disk.c **** 			scsiDev.cdb[8];
 1512              		.loc 2 395 0
 1513 015a 554B     		ldr	r3, .L87
 1514 015c 03F58343 		add	r3, r3, #16768
 1515 0160 1033     		adds	r3, r3, #16
 1516 0162 1B78     		ldrb	r3, [r3]	@ zero_extendqisi2
 393:..\..\src/disk.c **** 		uint32 blocks =
 1517              		.loc 2 393 0
 1518 0164 1344     		add	r3, r3, r2
 1519 0166 BB61     		str	r3, [r7, #24]
 396:..\..\src/disk.c **** 
 397:..\..\src/disk.c **** 		doRead(lba, blocks);
 1520              		.loc 2 397 0
 1521 0168 B969     		ldr	r1, [r7, #24]
 1522 016a F869     		ldr	r0, [r7, #28]
 1523 016c FFF7FEFF 		bl	doRead
 1524              	.LBE10:
 1525 0170 6DE1     		b	.L69
 1526              	.L73:
 398:..\..\src/disk.c **** 	}
 399:..\..\src/disk.c **** 	else if (likely(command == 0x0A))
 1527              		.loc 2 399 0
 1528 0172 97F82B30 		ldrb	r3, [r7, #43]	@ zero_extendqisi2
 1529 0176 0A2B     		cmp	r3, #10
 1530 0178 0CBF     		ite	eq
 1531 017a 0123     		moveq	r3, #1
 1532 017c 0023     		movne	r3, #0
 1533 017e DBB2     		uxtb	r3, r3
ARM GAS  C:\Users\r\AppData\Local\Temp\ccBAatSA.s 			page 37


 1534 0180 002B     		cmp	r3, #0
 1535 0182 2BD0     		beq	.L74
 1536              	.LBB11:
 400:..\..\src/disk.c **** 	{
 401:..\..\src/disk.c **** 		// WRITE(6)
 402:..\..\src/disk.c **** 		uint32 lba =
 403:..\..\src/disk.c **** 			(((uint32) scsiDev.cdb[1] & 0x1F) << 16) +
 1537              		.loc 2 403 0
 1538 0184 4A4B     		ldr	r3, .L87
 1539 0186 03F58343 		add	r3, r3, #16768
 1540 018a 0933     		adds	r3, r3, #9
 1541 018c 1B78     		ldrb	r3, [r3]	@ zero_extendqisi2
 1542 018e 1B04     		lsls	r3, r3, #16
 1543 0190 03F4F812 		and	r2, r3, #2031616
 404:..\..\src/disk.c **** 			(((uint32) scsiDev.cdb[2]) << 8) +
 1544              		.loc 2 404 0
 1545 0194 464B     		ldr	r3, .L87
 1546 0196 03F58343 		add	r3, r3, #16768
 1547 019a 0A33     		adds	r3, r3, #10
 1548 019c 1B78     		ldrb	r3, [r3]	@ zero_extendqisi2
 1549 019e 1B02     		lsls	r3, r3, #8
 403:..\..\src/disk.c **** 			(((uint32) scsiDev.cdb[2]) << 8) +
 1550              		.loc 2 403 0
 1551 01a0 1A44     		add	r2, r2, r3
 405:..\..\src/disk.c **** 			scsiDev.cdb[3];
 1552              		.loc 2 405 0
 1553 01a2 434B     		ldr	r3, .L87
 1554 01a4 03F58343 		add	r3, r3, #16768
 1555 01a8 0B33     		adds	r3, r3, #11
 1556 01aa 1B78     		ldrb	r3, [r3]	@ zero_extendqisi2
 402:..\..\src/disk.c **** 			(((uint32) scsiDev.cdb[1] & 0x1F) << 16) +
 1557              		.loc 2 402 0
 1558 01ac 1344     		add	r3, r3, r2
 1559 01ae 7B61     		str	r3, [r7, #20]
 406:..\..\src/disk.c **** 		uint32 blocks = scsiDev.cdb[4];
 1560              		.loc 2 406 0
 1561 01b0 3F4B     		ldr	r3, .L87
 1562 01b2 03F58343 		add	r3, r3, #16768
 1563 01b6 0C33     		adds	r3, r3, #12
 1564 01b8 1B78     		ldrb	r3, [r3]	@ zero_extendqisi2
 1565 01ba FB62     		str	r3, [r7, #44]
 407:..\..\src/disk.c **** 		if (unlikely(blocks == 0)) blocks = 256;
 1566              		.loc 2 407 0
 1567 01bc FB6A     		ldr	r3, [r7, #44]
 1568 01be 002B     		cmp	r3, #0
 1569 01c0 0CBF     		ite	eq
 1570 01c2 0123     		moveq	r3, #1
 1571 01c4 0023     		movne	r3, #0
 1572 01c6 DBB2     		uxtb	r3, r3
 1573 01c8 002B     		cmp	r3, #0
 1574 01ca 02D0     		beq	.L75
 1575              		.loc 2 407 0 is_stmt 0 discriminator 1
 1576 01cc 4FF48073 		mov	r3, #256
 1577 01d0 FB62     		str	r3, [r7, #44]
 1578              	.L75:
 408:..\..\src/disk.c **** 		doWrite(lba, blocks);
 1579              		.loc 2 408 0 is_stmt 1
ARM GAS  C:\Users\r\AppData\Local\Temp\ccBAatSA.s 			page 38


 1580 01d2 F96A     		ldr	r1, [r7, #44]
 1581 01d4 7869     		ldr	r0, [r7, #20]
 1582 01d6 FFF7FEFF 		bl	doWrite
 1583              	.LBE11:
 1584 01da 38E1     		b	.L69
 1585              	.L74:
 409:..\..\src/disk.c **** 	}
 410:..\..\src/disk.c **** 	else if (likely(command == 0x2A) || // WRITE(10)
 1586              		.loc 2 410 0
 1587 01dc 97F82B30 		ldrb	r3, [r7, #43]	@ zero_extendqisi2
 1588 01e0 2A2B     		cmp	r3, #42
 1589 01e2 0CBF     		ite	eq
 1590 01e4 0123     		moveq	r3, #1
 1591 01e6 0023     		movne	r3, #0
 1592 01e8 DBB2     		uxtb	r3, r3
 1593 01ea 002B     		cmp	r3, #0
 1594 01ec 08D1     		bne	.L76
 411:..\..\src/disk.c **** 		unlikely(command == 0x2E)) // WRITE AND VERIFY
 1595              		.loc 2 411 0 discriminator 1
 1596 01ee 97F82B30 		ldrb	r3, [r7, #43]	@ zero_extendqisi2
 1597 01f2 2E2B     		cmp	r3, #46
 1598 01f4 0CBF     		ite	eq
 1599 01f6 0123     		moveq	r3, #1
 1600 01f8 0023     		movne	r3, #0
 1601 01fa DBB2     		uxtb	r3, r3
 410:..\..\src/disk.c **** 		unlikely(command == 0x2E)) // WRITE AND VERIFY
 1602              		.loc 2 410 0 discriminator 1
 1603 01fc 002B     		cmp	r3, #0
 1604 01fe 2CD0     		beq	.L77
 1605              	.L76:
 1606              	.LBB12:
 412:..\..\src/disk.c **** 	{
 413:..\..\src/disk.c **** 		// Ignore all cache control bits - we don't support a memory cache.
 414:..\..\src/disk.c **** 		// Don't bother verifying either. The SD card likely stores ECC
 415:..\..\src/disk.c **** 		// along with each flash row.
 416:..\..\src/disk.c **** 
 417:..\..\src/disk.c **** 		uint32 lba =
 418:..\..\src/disk.c **** 			(((uint32) scsiDev.cdb[2]) << 24) +
 1607              		.loc 2 418 0
 1608 0200 2B4B     		ldr	r3, .L87
 1609 0202 03F58343 		add	r3, r3, #16768
 1610 0206 0A33     		adds	r3, r3, #10
 1611 0208 1B78     		ldrb	r3, [r3]	@ zero_extendqisi2
 1612 020a 1A06     		lsls	r2, r3, #24
 419:..\..\src/disk.c **** 			(((uint32) scsiDev.cdb[3]) << 16) +
 1613              		.loc 2 419 0
 1614 020c 284B     		ldr	r3, .L87
 1615 020e 03F58343 		add	r3, r3, #16768
 1616 0212 0B33     		adds	r3, r3, #11
 1617 0214 1B78     		ldrb	r3, [r3]	@ zero_extendqisi2
 1618 0216 1B04     		lsls	r3, r3, #16
 418:..\..\src/disk.c **** 			(((uint32) scsiDev.cdb[3]) << 16) +
 1619              		.loc 2 418 0
 1620 0218 1A44     		add	r2, r2, r3
 420:..\..\src/disk.c **** 			(((uint32) scsiDev.cdb[4]) << 8) +
 1621              		.loc 2 420 0
 1622 021a 254B     		ldr	r3, .L87
ARM GAS  C:\Users\r\AppData\Local\Temp\ccBAatSA.s 			page 39


 1623 021c 03F58343 		add	r3, r3, #16768
 1624 0220 0C33     		adds	r3, r3, #12
 1625 0222 1B78     		ldrb	r3, [r3]	@ zero_extendqisi2
 1626 0224 1B02     		lsls	r3, r3, #8
 419:..\..\src/disk.c **** 			(((uint32) scsiDev.cdb[3]) << 16) +
 1627              		.loc 2 419 0
 1628 0226 1A44     		add	r2, r2, r3
 421:..\..\src/disk.c **** 			scsiDev.cdb[5];
 1629              		.loc 2 421 0
 1630 0228 214B     		ldr	r3, .L87
 1631 022a 03F58343 		add	r3, r3, #16768
 1632 022e 0D33     		adds	r3, r3, #13
 1633 0230 1B78     		ldrb	r3, [r3]	@ zero_extendqisi2
 417:..\..\src/disk.c **** 			(((uint32) scsiDev.cdb[2]) << 24) +
 1634              		.loc 2 417 0
 1635 0232 1344     		add	r3, r3, r2
 1636 0234 7B60     		str	r3, [r7, #4]
 422:..\..\src/disk.c **** 		uint32 blocks =
 423:..\..\src/disk.c **** 			(((uint32) scsiDev.cdb[7]) << 8) +
 1637              		.loc 2 423 0
 1638 0236 1E4B     		ldr	r3, .L87
 1639 0238 03F58343 		add	r3, r3, #16768
 1640 023c 0F33     		adds	r3, r3, #15
 1641 023e 1B78     		ldrb	r3, [r3]	@ zero_extendqisi2
 1642 0240 1A02     		lsls	r2, r3, #8
 424:..\..\src/disk.c **** 			scsiDev.cdb[8];
 1643              		.loc 2 424 0
 1644 0242 1B4B     		ldr	r3, .L87
 1645 0244 03F58343 		add	r3, r3, #16768
 1646 0248 1033     		adds	r3, r3, #16
 1647 024a 1B78     		ldrb	r3, [r3]	@ zero_extendqisi2
 422:..\..\src/disk.c **** 		uint32 blocks =
 1648              		.loc 2 422 0
 1649 024c 1344     		add	r3, r3, r2
 1650 024e 3B60     		str	r3, [r7]
 425:..\..\src/disk.c **** 
 426:..\..\src/disk.c **** 		doWrite(lba, blocks);
 1651              		.loc 2 426 0
 1652 0250 3968     		ldr	r1, [r7]
 1653 0252 7868     		ldr	r0, [r7, #4]
 1654 0254 FFF7FEFF 		bl	doWrite
 1655              	.LBE12:
 412:..\..\src/disk.c **** 		// Ignore all cache control bits - we don't support a memory cache.
 1656              		.loc 2 412 0
 1657 0258 F9E0     		b	.L69
 1658              	.L77:
 427:..\..\src/disk.c **** 	}
 428:..\..\src/disk.c **** 
 429:..\..\src/disk.c **** 	else if (unlikely(command == 0x04))
 1659              		.loc 2 429 0
 1660 025a 97F82B30 		ldrb	r3, [r7, #43]	@ zero_extendqisi2
 1661 025e 042B     		cmp	r3, #4
 1662 0260 0CBF     		ite	eq
 1663 0262 0123     		moveq	r3, #1
 1664 0264 0023     		movne	r3, #0
 1665 0266 DBB2     		uxtb	r3, r3
 1666 0268 002B     		cmp	r3, #0
ARM GAS  C:\Users\r\AppData\Local\Temp\ccBAatSA.s 			page 40


 1667 026a 27D0     		beq	.L78
 1668              	.LBB13:
 430:..\..\src/disk.c **** 	{
 431:..\..\src/disk.c **** 		// FORMAT UNIT
 432:..\..\src/disk.c **** 		// We don't really do any formatting, but we need to read the correct
 433:..\..\src/disk.c **** 		// number of bytes in the DATA_OUT phase to make the SCSI host happy.
 434:..\..\src/disk.c **** 
 435:..\..\src/disk.c **** 		int fmtData = (scsiDev.cdb[1] & 0x10) ? 1 : 0;
 1669              		.loc 2 435 0
 1670 026c 104B     		ldr	r3, .L87
 1671 026e 03F58343 		add	r3, r3, #16768
 1672 0272 0933     		adds	r3, r3, #9
 1673 0274 1B78     		ldrb	r3, [r3]	@ zero_extendqisi2
 1674 0276 03F01003 		and	r3, r3, #16
 1675 027a 002B     		cmp	r3, #0
 1676 027c 14BF     		ite	ne
 1677 027e 0123     		movne	r3, #1
 1678 0280 0023     		moveq	r3, #0
 1679 0282 DBB2     		uxtb	r3, r3
 1680 0284 3B61     		str	r3, [r7, #16]
 436:..\..\src/disk.c **** 		if (fmtData)
 1681              		.loc 2 436 0
 1682 0286 3B69     		ldr	r3, [r7, #16]
 1683 0288 002B     		cmp	r3, #0
 1684 028a 00F0E080 		beq	.L69
 437:..\..\src/disk.c **** 		{
 438:..\..\src/disk.c **** 			// We need to read the parameter list, but we don't know how
 439:..\..\src/disk.c **** 			// big it is yet. Start with the header.
 440:..\..\src/disk.c **** 			scsiDev.dataLen = 4;
 1685              		.loc 2 440 0
 1686 028e 084B     		ldr	r3, .L87
 1687 0290 03F58343 		add	r3, r3, #16768
 1688 0294 0433     		adds	r3, r3, #4
 1689 0296 0422     		movs	r2, #4
 1690 0298 1A60     		str	r2, [r3]
 441:..\..\src/disk.c **** 			scsiDev.phase = DATA_OUT;
 1691              		.loc 2 441 0
 1692 029a 054B     		ldr	r3, .L87
 1693 029c 0022     		movs	r2, #0
 1694 029e C3F87821 		str	r2, [r3, #376]
 442:..\..\src/disk.c **** 			scsiDev.postDataOutHook = doFormatUnitHeader;
 1695              		.loc 2 442 0
 1696 02a2 034B     		ldr	r3, .L87
 1697 02a4 03F58343 		add	r3, r3, #16768
 1698 02a8 2033     		adds	r3, r3, #32
 1699 02aa 034A     		ldr	r2, .L87+8
 1700 02ac 1A60     		str	r2, [r3]
 1701 02ae CEE0     		b	.L69
 1702              	.L88:
 1703              		.align	2
 1704              	.L87:
 1705 02b0 00000000 		.word	scsiDev
 1706 02b4 00000000 		.word	blockDev
 1707 02b8 00000000 		.word	doFormatUnitHeader
 1708              	.L78:
 1709              	.LBE13:
 443:..\..\src/disk.c **** 		}
ARM GAS  C:\Users\r\AppData\Local\Temp\ccBAatSA.s 			page 41


 444:..\..\src/disk.c **** 		else
 445:..\..\src/disk.c **** 		{
 446:..\..\src/disk.c **** 			// No data to read, we're already finished!
 447:..\..\src/disk.c **** 		}
 448:..\..\src/disk.c **** 	}
 449:..\..\src/disk.c **** 	else if (unlikely(command == 0x25))
 1710              		.loc 2 449 0
 1711 02bc 97F82B30 		ldrb	r3, [r7, #43]	@ zero_extendqisi2
 1712 02c0 252B     		cmp	r3, #37
 1713 02c2 0CBF     		ite	eq
 1714 02c4 0123     		moveq	r3, #1
 1715 02c6 0023     		movne	r3, #0
 1716 02c8 DBB2     		uxtb	r3, r3
 1717 02ca 002B     		cmp	r3, #0
 1718 02cc 02D0     		beq	.L80
 450:..\..\src/disk.c **** 	{
 451:..\..\src/disk.c **** 		// READ CAPACITY
 452:..\..\src/disk.c **** 		doReadCapacity();
 1719              		.loc 2 452 0
 1720 02ce FFF7FEFF 		bl	doReadCapacity
 1721 02d2 BCE0     		b	.L69
 1722              	.L80:
 453:..\..\src/disk.c **** 	}
 454:..\..\src/disk.c **** 	else if (unlikely(command == 0x0B))
 1723              		.loc 2 454 0
 1724 02d4 97F82B30 		ldrb	r3, [r7, #43]	@ zero_extendqisi2
 1725 02d8 0B2B     		cmp	r3, #11
 1726 02da 0CBF     		ite	eq
 1727 02dc 0123     		moveq	r3, #1
 1728 02de 0023     		movne	r3, #0
 1729 02e0 DBB2     		uxtb	r3, r3
 1730 02e2 002B     		cmp	r3, #0
 1731 02e4 19D0     		beq	.L81
 1732              	.LBB14:
 455:..\..\src/disk.c **** 	{
 456:..\..\src/disk.c **** 		// SEEK(6)
 457:..\..\src/disk.c **** 		uint32 lba =
 458:..\..\src/disk.c **** 			(((uint32) scsiDev.cdb[1] & 0x1F) << 16) +
 1733              		.loc 2 458 0
 1734 02e6 5C4B     		ldr	r3, .L89
 1735 02e8 03F58343 		add	r3, r3, #16768
 1736 02ec 0933     		adds	r3, r3, #9
 1737 02ee 1B78     		ldrb	r3, [r3]	@ zero_extendqisi2
 1738 02f0 1B04     		lsls	r3, r3, #16
 1739 02f2 03F4F812 		and	r2, r3, #2031616
 459:..\..\src/disk.c **** 			(((uint32) scsiDev.cdb[2]) << 8) +
 1740              		.loc 2 459 0
 1741 02f6 584B     		ldr	r3, .L89
 1742 02f8 03F58343 		add	r3, r3, #16768
 1743 02fc 0A33     		adds	r3, r3, #10
 1744 02fe 1B78     		ldrb	r3, [r3]	@ zero_extendqisi2
 1745 0300 1B02     		lsls	r3, r3, #8
 458:..\..\src/disk.c **** 			(((uint32) scsiDev.cdb[2]) << 8) +
 1746              		.loc 2 458 0
 1747 0302 1A44     		add	r2, r2, r3
 460:..\..\src/disk.c **** 			scsiDev.cdb[3];
 1748              		.loc 2 460 0
ARM GAS  C:\Users\r\AppData\Local\Temp\ccBAatSA.s 			page 42


 1749 0304 544B     		ldr	r3, .L89
 1750 0306 03F58343 		add	r3, r3, #16768
 1751 030a 0B33     		adds	r3, r3, #11
 1752 030c 1B78     		ldrb	r3, [r3]	@ zero_extendqisi2
 457:..\..\src/disk.c **** 			(((uint32) scsiDev.cdb[1] & 0x1F) << 16) +
 1753              		.loc 2 457 0
 1754 030e 1344     		add	r3, r3, r2
 1755 0310 FB60     		str	r3, [r7, #12]
 461:..\..\src/disk.c **** 
 462:..\..\src/disk.c **** 		doSeek(lba);
 1756              		.loc 2 462 0
 1757 0312 F868     		ldr	r0, [r7, #12]
 1758 0314 FFF7FEFF 		bl	doSeek
 1759              	.LBE14:
 1760 0318 99E0     		b	.L69
 1761              	.L81:
 463:..\..\src/disk.c **** 	}
 464:..\..\src/disk.c **** 
 465:..\..\src/disk.c **** 	else if (unlikely(command == 0x2B))
 1762              		.loc 2 465 0
 1763 031a 97F82B30 		ldrb	r3, [r7, #43]	@ zero_extendqisi2
 1764 031e 2B2B     		cmp	r3, #43
 1765 0320 0CBF     		ite	eq
 1766 0322 0123     		moveq	r3, #1
 1767 0324 0023     		movne	r3, #0
 1768 0326 DBB2     		uxtb	r3, r3
 1769 0328 002B     		cmp	r3, #0
 1770 032a 1ED0     		beq	.L82
 1771              	.LBB15:
 466:..\..\src/disk.c **** 	{
 467:..\..\src/disk.c **** 		// SEEK(10)
 468:..\..\src/disk.c **** 		uint32 lba =
 469:..\..\src/disk.c **** 			(((uint32) scsiDev.cdb[2]) << 24) +
 1772              		.loc 2 469 0
 1773 032c 4A4B     		ldr	r3, .L89
 1774 032e 03F58343 		add	r3, r3, #16768
 1775 0332 0A33     		adds	r3, r3, #10
 1776 0334 1B78     		ldrb	r3, [r3]	@ zero_extendqisi2
 1777 0336 1A06     		lsls	r2, r3, #24
 470:..\..\src/disk.c **** 			(((uint32) scsiDev.cdb[3]) << 16) +
 1778              		.loc 2 470 0
 1779 0338 474B     		ldr	r3, .L89
 1780 033a 03F58343 		add	r3, r3, #16768
 1781 033e 0B33     		adds	r3, r3, #11
 1782 0340 1B78     		ldrb	r3, [r3]	@ zero_extendqisi2
 1783 0342 1B04     		lsls	r3, r3, #16
 469:..\..\src/disk.c **** 			(((uint32) scsiDev.cdb[3]) << 16) +
 1784              		.loc 2 469 0
 1785 0344 1A44     		add	r2, r2, r3
 471:..\..\src/disk.c **** 			(((uint32) scsiDev.cdb[4]) << 8) +
 1786              		.loc 2 471 0
 1787 0346 444B     		ldr	r3, .L89
 1788 0348 03F58343 		add	r3, r3, #16768
 1789 034c 0C33     		adds	r3, r3, #12
 1790 034e 1B78     		ldrb	r3, [r3]	@ zero_extendqisi2
 1791 0350 1B02     		lsls	r3, r3, #8
 470:..\..\src/disk.c **** 			(((uint32) scsiDev.cdb[3]) << 16) +
ARM GAS  C:\Users\r\AppData\Local\Temp\ccBAatSA.s 			page 43


 1792              		.loc 2 470 0
 1793 0352 1A44     		add	r2, r2, r3
 472:..\..\src/disk.c **** 			scsiDev.cdb[5];
 1794              		.loc 2 472 0
 1795 0354 404B     		ldr	r3, .L89
 1796 0356 03F58343 		add	r3, r3, #16768
 1797 035a 0D33     		adds	r3, r3, #13
 1798 035c 1B78     		ldrb	r3, [r3]	@ zero_extendqisi2
 468:..\..\src/disk.c **** 			(((uint32) scsiDev.cdb[2]) << 24) +
 1799              		.loc 2 468 0
 1800 035e 1344     		add	r3, r3, r2
 1801 0360 BB60     		str	r3, [r7, #8]
 473:..\..\src/disk.c **** 
 474:..\..\src/disk.c **** 		doSeek(lba);
 1802              		.loc 2 474 0
 1803 0362 B868     		ldr	r0, [r7, #8]
 1804 0364 FFF7FEFF 		bl	doSeek
 1805              	.LBE15:
 1806 0368 71E0     		b	.L69
 1807              	.L82:
 475:..\..\src/disk.c **** 	}
 476:..\..\src/disk.c **** 	else if (unlikely(command == 0x36))
 1808              		.loc 2 476 0
 1809 036a 97F82B30 		ldrb	r3, [r7, #43]	@ zero_extendqisi2
 1810 036e 362B     		cmp	r3, #54
 1811 0370 0CBF     		ite	eq
 1812 0372 0123     		moveq	r3, #1
 1813 0374 0023     		movne	r3, #0
 1814 0376 DBB2     		uxtb	r3, r3
 1815 0378 002B     		cmp	r3, #0
 1816 037a 68D1     		bne	.L69
 477:..\..\src/disk.c **** 	{
 478:..\..\src/disk.c **** 		// LOCK UNLOCK CACHE
 479:..\..\src/disk.c **** 		// We don't have a cache to lock data into. do nothing.
 480:..\..\src/disk.c **** 	}
 481:..\..\src/disk.c **** 	else if (unlikely(command == 0x34))
 1817              		.loc 2 481 0
 1818 037c 97F82B30 		ldrb	r3, [r7, #43]	@ zero_extendqisi2
 1819 0380 342B     		cmp	r3, #52
 1820 0382 0CBF     		ite	eq
 1821 0384 0123     		moveq	r3, #1
 1822 0386 0023     		movne	r3, #0
 1823 0388 DBB2     		uxtb	r3, r3
 1824 038a 002B     		cmp	r3, #0
 1825 038c 5FD1     		bne	.L69
 482:..\..\src/disk.c **** 	{
 483:..\..\src/disk.c **** 		// PRE-FETCH.
 484:..\..\src/disk.c **** 		// We don't have a cache to pre-fetch into. do nothing.
 485:..\..\src/disk.c **** 	}
 486:..\..\src/disk.c **** 	else if (unlikely(command == 0x1E))
 1826              		.loc 2 486 0
 1827 038e 97F82B30 		ldrb	r3, [r7, #43]	@ zero_extendqisi2
 1828 0392 1E2B     		cmp	r3, #30
 1829 0394 0CBF     		ite	eq
 1830 0396 0123     		moveq	r3, #1
 1831 0398 0023     		movne	r3, #0
 1832 039a DBB2     		uxtb	r3, r3
ARM GAS  C:\Users\r\AppData\Local\Temp\ccBAatSA.s 			page 44


 1833 039c 002B     		cmp	r3, #0
 1834 039e 56D1     		bne	.L69
 487:..\..\src/disk.c **** 	{
 488:..\..\src/disk.c **** 		// PREVENT ALLOW MEDIUM REMOVAL
 489:..\..\src/disk.c **** 		// Not much we can do to prevent the user removing the SD card.
 490:..\..\src/disk.c **** 		// do nothing.
 491:..\..\src/disk.c **** 	}
 492:..\..\src/disk.c **** 	else if (unlikely(command == 0x01))
 1835              		.loc 2 492 0
 1836 03a0 97F82B30 		ldrb	r3, [r7, #43]	@ zero_extendqisi2
 1837 03a4 012B     		cmp	r3, #1
 1838 03a6 0CBF     		ite	eq
 1839 03a8 0123     		moveq	r3, #1
 1840 03aa 0023     		movne	r3, #0
 1841 03ac DBB2     		uxtb	r3, r3
 1842 03ae 002B     		cmp	r3, #0
 1843 03b0 4DD1     		bne	.L69
 493:..\..\src/disk.c **** 	{
 494:..\..\src/disk.c **** 		// REZERO UNIT
 495:..\..\src/disk.c **** 		// Set the lun to a vendor-specific state. Ignore.
 496:..\..\src/disk.c **** 	}
 497:..\..\src/disk.c **** 	else if (unlikely(command == 0x35))
 1844              		.loc 2 497 0
 1845 03b2 97F82B30 		ldrb	r3, [r7, #43]	@ zero_extendqisi2
 1846 03b6 352B     		cmp	r3, #53
 1847 03b8 0CBF     		ite	eq
 1848 03ba 0123     		moveq	r3, #1
 1849 03bc 0023     		movne	r3, #0
 1850 03be DBB2     		uxtb	r3, r3
 1851 03c0 002B     		cmp	r3, #0
 1852 03c2 44D1     		bne	.L69
 498:..\..\src/disk.c **** 	{
 499:..\..\src/disk.c **** 		// SYNCHRONIZE CACHE
 500:..\..\src/disk.c **** 		// We don't have a cache. do nothing.
 501:..\..\src/disk.c **** 	}
 502:..\..\src/disk.c **** 	else if (unlikely(command == 0x2F))
 1853              		.loc 2 502 0
 1854 03c4 97F82B30 		ldrb	r3, [r7, #43]	@ zero_extendqisi2
 1855 03c8 2F2B     		cmp	r3, #47
 1856 03ca 0CBF     		ite	eq
 1857 03cc 0123     		moveq	r3, #1
 1858 03ce 0023     		movne	r3, #0
 1859 03d0 DBB2     		uxtb	r3, r3
 1860 03d2 002B     		cmp	r3, #0
 1861 03d4 1CD0     		beq	.L83
 503:..\..\src/disk.c **** 	{
 504:..\..\src/disk.c **** 		// VERIFY
 505:..\..\src/disk.c **** 		// TODO: When they supply data to verify, we should read the data and
 506:..\..\src/disk.c **** 		// verify it. If they don't supply any data, just say success.
 507:..\..\src/disk.c **** 		if ((scsiDev.cdb[1] & 0x02) == 0)
 1862              		.loc 2 507 0
 1863 03d6 204B     		ldr	r3, .L89
 1864 03d8 03F58343 		add	r3, r3, #16768
 1865 03dc 0933     		adds	r3, r3, #9
 1866 03de 1B78     		ldrb	r3, [r3]	@ zero_extendqisi2
 1867 03e0 03F00203 		and	r3, r3, #2
 1868 03e4 002B     		cmp	r3, #0
ARM GAS  C:\Users\r\AppData\Local\Temp\ccBAatSA.s 			page 45


 1869 03e6 32D0     		beq	.L69
 508:..\..\src/disk.c **** 		{
 509:..\..\src/disk.c **** 			// They are asking us to do a medium verification with no data
 510:..\..\src/disk.c **** 			// comparison. Assume success, do nothing.
 511:..\..\src/disk.c **** 		}
 512:..\..\src/disk.c **** 		else
 513:..\..\src/disk.c **** 		{
 514:..\..\src/disk.c **** 			// TODO. This means they are supplying data to verify against.
 515:..\..\src/disk.c **** 			// Technically we should probably grab the data and compare it.
 516:..\..\src/disk.c **** 			scsiDev.status = CHECK_CONDITION;
 1870              		.loc 2 516 0
 1871 03e8 1B4B     		ldr	r3, .L89
 1872 03ea 03F58343 		add	r3, r3, #16768
 1873 03ee 1C33     		adds	r3, r3, #28
 1874 03f0 0222     		movs	r2, #2
 1875 03f2 1A70     		strb	r2, [r3]
 517:..\..\src/disk.c **** 			scsiDev.target->sense.code = ILLEGAL_REQUEST;
 1876              		.loc 2 517 0
 1877 03f4 184B     		ldr	r3, .L89
 1878 03f6 1B6E     		ldr	r3, [r3, #96]
 1879 03f8 0522     		movs	r2, #5
 1880 03fa 9A72     		strb	r2, [r3, #10]
 518:..\..\src/disk.c **** 			scsiDev.target->sense.asc = INVALID_FIELD_IN_CDB;
 1881              		.loc 2 518 0
 1882 03fc 164B     		ldr	r3, .L89
 1883 03fe 1B6E     		ldr	r3, [r3, #96]
 1884 0400 4FF41052 		mov	r2, #9216
 1885 0404 9A81     		strh	r2, [r3, #12]	@ movhi
 519:..\..\src/disk.c **** 			scsiDev.phase = STATUS;
 1886              		.loc 2 519 0
 1887 0406 144B     		ldr	r3, .L89
 1888 0408 0622     		movs	r2, #6
 1889 040a C3F87821 		str	r2, [r3, #376]
 1890 040e 1EE0     		b	.L69
 1891              	.L83:
 520:..\..\src/disk.c **** 		}
 521:..\..\src/disk.c **** 	}
 522:..\..\src/disk.c **** 	else if (unlikely(command == 0x37))
 1892              		.loc 2 522 0
 1893 0410 97F82B30 		ldrb	r3, [r7, #43]	@ zero_extendqisi2
 1894 0414 372B     		cmp	r3, #55
 1895 0416 0CBF     		ite	eq
 1896 0418 0123     		moveq	r3, #1
 1897 041a 0023     		movne	r3, #0
 1898 041c DBB2     		uxtb	r3, r3
 1899 041e 002B     		cmp	r3, #0
 1900 0420 13D0     		beq	.L85
 523:..\..\src/disk.c **** 	{
 524:..\..\src/disk.c **** 		// READ DEFECT DATA
 525:..\..\src/disk.c **** 		scsiDev.status = CHECK_CONDITION;
 1901              		.loc 2 525 0
 1902 0422 0D4B     		ldr	r3, .L89
 1903 0424 03F58343 		add	r3, r3, #16768
 1904 0428 1C33     		adds	r3, r3, #28
 1905 042a 0222     		movs	r2, #2
 1906 042c 1A70     		strb	r2, [r3]
 526:..\..\src/disk.c **** 		scsiDev.target->sense.code = NO_SENSE;
ARM GAS  C:\Users\r\AppData\Local\Temp\ccBAatSA.s 			page 46


 1907              		.loc 2 526 0
 1908 042e 0A4B     		ldr	r3, .L89
 1909 0430 1B6E     		ldr	r3, [r3, #96]
 1910 0432 0022     		movs	r2, #0
 1911 0434 9A72     		strb	r2, [r3, #10]
 527:..\..\src/disk.c **** 		scsiDev.target->sense.asc = DEFECT_LIST_NOT_FOUND;
 1912              		.loc 2 527 0
 1913 0436 084B     		ldr	r3, .L89
 1914 0438 1B6E     		ldr	r3, [r3, #96]
 1915 043a 4FF4E052 		mov	r2, #7168
 1916 043e 9A81     		strh	r2, [r3, #12]	@ movhi
 528:..\..\src/disk.c **** 		scsiDev.phase = STATUS;
 1917              		.loc 2 528 0
 1918 0440 054B     		ldr	r3, .L89
 1919 0442 0622     		movs	r2, #6
 1920 0444 C3F87821 		str	r2, [r3, #376]
 1921 0448 01E0     		b	.L69
 1922              	.L85:
 529:..\..\src/disk.c **** 
 530:..\..\src/disk.c **** 	}
 531:..\..\src/disk.c **** 	else
 532:..\..\src/disk.c **** 	{
 533:..\..\src/disk.c **** 		commandHandled = 0;
 1923              		.loc 2 533 0
 1924 044a 0023     		movs	r3, #0
 1925 044c 7B63     		str	r3, [r7, #52]
 1926              	.L69:
 534:..\..\src/disk.c **** 	}
 535:..\..\src/disk.c **** 
 536:..\..\src/disk.c **** 	return commandHandled;
 1927              		.loc 2 536 0
 1928 044e 7B6B     		ldr	r3, [r7, #52]
 537:..\..\src/disk.c **** }
 1929              		.loc 2 537 0
 1930 0450 1846     		mov	r0, r3
 1931 0452 3837     		adds	r7, r7, #56
 1932              		.cfi_def_cfa_offset 8
 1933 0454 BD46     		mov	sp, r7
 1934              		.cfi_def_cfa_register 13
 1935              		@ sp needed
 1936 0456 80BD     		pop	{r7, pc}
 1937              	.L90:
 1938              		.align	2
 1939              	.L89:
 1940 0458 00000000 		.word	scsiDev
 1941              		.cfi_endproc
 1942              	.LFE74:
 1943              		.size	scsiDiskCommand, .-scsiDiskCommand
 1944              		.section	.text.scsiDiskPoll,"ax",%progbits
 1945              		.align	2
 1946              		.global	scsiDiskPoll
 1947              		.thumb
 1948              		.thumb_func
 1949              		.type	scsiDiskPoll, %function
 1950              	scsiDiskPoll:
 1951              	.LFB75:
 538:..\..\src/disk.c **** 
ARM GAS  C:\Users\r\AppData\Local\Temp\ccBAatSA.s 			page 47


 539:..\..\src/disk.c **** void scsiDiskPoll()
 540:..\..\src/disk.c **** {
 1952              		.loc 2 540 0
 1953              		.cfi_startproc
 1954              		@ args = 0, pretend = 0, frame = 120
 1955              		@ frame_needed = 1, uses_anonymous_args = 0
 1956 0000 90B5     		push	{r4, r7, lr}
 1957              		.cfi_def_cfa_offset 12
 1958              		.cfi_offset 4, -12
 1959              		.cfi_offset 7, -8
 1960              		.cfi_offset 14, -4
 1961 0002 9FB0     		sub	sp, sp, #124
 1962              		.cfi_def_cfa_offset 136
 1963 0004 00AF     		add	r7, sp, #0
 1964              		.cfi_def_cfa_register 7
 541:..\..\src/disk.c **** 	uint32_t bytesPerSector = scsiDev.target->liveCfg.bytesPerSector;
 1965              		.loc 2 541 0
 1966 0006 AB4B     		ldr	r3, .L146
 1967 0008 1B6E     		ldr	r3, [r3, #96]
 1968 000a 1B89     		ldrh	r3, [r3, #8]
 1969 000c FB62     		str	r3, [r7, #44]
 542:..\..\src/disk.c **** 
 543:..\..\src/disk.c **** 	if (scsiDev.phase == DATA_IN &&
 1970              		.loc 2 543 0
 1971 000e A94B     		ldr	r3, .L146
 1972 0010 D3F87831 		ldr	r3, [r3, #376]
 1973 0014 042B     		cmp	r3, #4
 1974 0016 40F01D81 		bne	.L92
 544:..\..\src/disk.c **** 		transfer.currentBlock != transfer.blocks)
 1975              		.loc 2 544 0 discriminator 1
 1976 001a A74B     		ldr	r3, .L146+4
 1977 001c DA68     		ldr	r2, [r3, #12]
 1978 001e A64B     		ldr	r3, .L146+4
 1979 0020 9B68     		ldr	r3, [r3, #8]
 543:..\..\src/disk.c **** 		transfer.currentBlock != transfer.blocks)
 1980              		.loc 2 543 0 discriminator 1
 1981 0022 9A42     		cmp	r2, r3
 1982 0024 00F01681 		beq	.L92
 1983              	.LBB16:
 545:..\..\src/disk.c **** 	{
 546:..\..\src/disk.c **** 		scsiEnterPhase(DATA_IN);
 1984              		.loc 2 546 0
 1985 0028 0420     		movs	r0, #4
 1986 002a FFF7FEFF 		bl	scsiEnterPhase
 547:..\..\src/disk.c **** 
 548:..\..\src/disk.c **** 		int totalSDSectors =
 549:..\..\src/disk.c **** 			transfer.blocks * SDSectorsPerSCSISector(bytesPerSector);
 1987              		.loc 2 549 0
 1988 002e A24B     		ldr	r3, .L146+4
 1989 0030 9C68     		ldr	r4, [r3, #8]
 1990 0032 FB6A     		ldr	r3, [r7, #44]
 1991 0034 9BB2     		uxth	r3, r3
 1992 0036 1846     		mov	r0, r3
 1993 0038 FFF7FEFF 		bl	SDSectorsPerSCSISector
 1994 003c 0346     		mov	r3, r0
 1995 003e 03FB04F3 		mul	r3, r3, r4
 548:..\..\src/disk.c **** 			transfer.blocks * SDSectorsPerSCSISector(bytesPerSector);
ARM GAS  C:\Users\r\AppData\Local\Temp\ccBAatSA.s 			page 48


 1996              		.loc 2 548 0
 1997 0042 BB62     		str	r3, [r7, #40]
 550:..\..\src/disk.c **** 		uint32_t sdLBA =
 551:..\..\src/disk.c **** 			SCSISector2SD(
 552:..\..\src/disk.c **** 				scsiDev.target->cfg->sdSectorStart,
 1998              		.loc 2 552 0
 1999 0044 9B4B     		ldr	r3, .L146
 2000 0046 1B6E     		ldr	r3, [r3, #96]
 2001 0048 5B68     		ldr	r3, [r3, #4]
 551:..\..\src/disk.c **** 				scsiDev.target->cfg->sdSectorStart,
 2002              		.loc 2 551 0
 2003 004a 5868     		ldr	r0, [r3, #4]	@ unaligned
 2004 004c FB6A     		ldr	r3, [r7, #44]
 2005 004e 99B2     		uxth	r1, r3
 2006 0050 994B     		ldr	r3, .L146+4
 2007 0052 5B68     		ldr	r3, [r3, #4]
 550:..\..\src/disk.c **** 		uint32_t sdLBA =
 2008              		.loc 2 550 0
 2009 0054 1A46     		mov	r2, r3
 2010 0056 FFF7FEFF 		bl	SCSISector2SD
 2011 005a 7862     		str	r0, [r7, #36]
 553:..\..\src/disk.c **** 				bytesPerSector,
 554:..\..\src/disk.c **** 				transfer.lba);
 555:..\..\src/disk.c **** 
 556:..\..\src/disk.c **** 		const int sdPerScsi = SDSectorsPerSCSISector(bytesPerSector);
 2012              		.loc 2 556 0
 2013 005c FB6A     		ldr	r3, [r7, #44]
 2014 005e 9BB2     		uxth	r3, r3
 2015 0060 1846     		mov	r0, r3
 2016 0062 FFF7FEFF 		bl	SDSectorsPerSCSISector
 2017 0066 3862     		str	r0, [r7, #32]
 557:..\..\src/disk.c **** 		int buffers = sizeof(scsiDev.data) / SD_SECTOR_SIZE;
 2018              		.loc 2 557 0
 2019 0068 2023     		movs	r3, #32
 2020 006a FB61     		str	r3, [r7, #28]
 558:..\..\src/disk.c **** 		int prep = 0;
 2021              		.loc 2 558 0
 2022 006c 0023     		movs	r3, #0
 2023 006e 7B67     		str	r3, [r7, #116]
 559:..\..\src/disk.c **** 		int i = 0;
 2024              		.loc 2 559 0
 2025 0070 0023     		movs	r3, #0
 2026 0072 3B67     		str	r3, [r7, #112]
 560:..\..\src/disk.c **** 		int scsiActive = 0;
 2027              		.loc 2 560 0
 2028 0074 0023     		movs	r3, #0
 2029 0076 FB66     		str	r3, [r7, #108]
 561:..\..\src/disk.c **** 		int sdActive = 0;
 2030              		.loc 2 561 0
 2031 0078 0023     		movs	r3, #0
 2032 007a BB66     		str	r3, [r7, #104]
 562:..\..\src/disk.c **** 		while ((i < totalSDSectors) &&
 2033              		.loc 2 562 0
 2034 007c C4E0     		b	.L93
 2035              	.L111:
 2036              	.LBB17:
 563:..\..\src/disk.c **** 			likely(scsiDev.phase == DATA_IN) &&
ARM GAS  C:\Users\r\AppData\Local\Temp\ccBAatSA.s 			page 49


 564:..\..\src/disk.c **** 			likely(!scsiDev.resetFlag))
 565:..\..\src/disk.c **** 		{
 566:..\..\src/disk.c **** 			// Wait for the next DMA interrupt. It's beneficial to halt the
 567:..\..\src/disk.c **** 			// processor to give the DMA controller more memory bandwidth to
 568:..\..\src/disk.c **** 			// work with.
 569:..\..\src/disk.c **** 			int scsiBusy = 1;
 2037              		.loc 2 569 0
 2038 007e 0123     		movs	r3, #1
 2039 0080 7B66     		str	r3, [r7, #100]
 570:..\..\src/disk.c **** 			int sdBusy = 1;
 2040              		.loc 2 570 0
 2041 0082 0123     		movs	r3, #1
 2042 0084 3B66     		str	r3, [r7, #96]
 571:..\..\src/disk.c **** 			while (scsiBusy && sdBusy)
 2043              		.loc 2 571 0
 2044 0086 2AE0     		b	.L94
 2045              	.L103:
 2046              	.LBB18:
 572:..\..\src/disk.c **** 			{
 573:..\..\src/disk.c **** 				uint8_t intr = CyEnterCriticalSection();
 2047              		.loc 2 573 0
 2048 0088 FFF7FEFF 		bl	CyEnterCriticalSection
 2049 008c 0346     		mov	r3, r0
 2050 008e FB76     		strb	r3, [r7, #27]
 574:..\..\src/disk.c **** 				scsiBusy = scsiDMABusy();
 2051              		.loc 2 574 0
 2052 0090 8A4B     		ldr	r3, .L146+8
 2053 0092 1B78     		ldrb	r3, [r3]
 2054 0094 DBB2     		uxtb	r3, r3
 2055 0096 002B     		cmp	r3, #0
 2056 0098 04D0     		beq	.L95
 2057              		.loc 2 574 0 is_stmt 0 discriminator 2
 2058 009a 894B     		ldr	r3, .L146+12
 2059 009c 1B78     		ldrb	r3, [r3]
 2060 009e DBB2     		uxtb	r3, r3
 2061 00a0 002B     		cmp	r3, #0
 2062 00a2 01D1     		bne	.L96
 2063              	.L95:
 2064              		.loc 2 574 0 discriminator 3
 2065 00a4 0123     		movs	r3, #1
 2066 00a6 00E0     		b	.L97
 2067              	.L96:
 2068              		.loc 2 574 0 discriminator 4
 2069 00a8 0023     		movs	r3, #0
 2070              	.L97:
 2071              		.loc 2 574 0 discriminator 6
 2072 00aa 7B66     		str	r3, [r7, #100]
 575:..\..\src/disk.c **** 				sdBusy = sdDMABusy();
 2073              		.loc 2 575 0 is_stmt 1 discriminator 6
 2074 00ac 854B     		ldr	r3, .L146+16
 2075 00ae 1B78     		ldrb	r3, [r3]
 2076 00b0 DBB2     		uxtb	r3, r3
 2077 00b2 002B     		cmp	r3, #0
 2078 00b4 04D0     		beq	.L98
 2079              		.loc 2 575 0 is_stmt 0 discriminator 2
 2080 00b6 844B     		ldr	r3, .L146+20
 2081 00b8 1B78     		ldrb	r3, [r3]
ARM GAS  C:\Users\r\AppData\Local\Temp\ccBAatSA.s 			page 50


 2082 00ba DBB2     		uxtb	r3, r3
 2083 00bc 002B     		cmp	r3, #0
 2084 00be 01D1     		bne	.L99
 2085              	.L98:
 2086              		.loc 2 575 0 discriminator 3
 2087 00c0 0123     		movs	r3, #1
 2088 00c2 00E0     		b	.L100
 2089              	.L99:
 2090              		.loc 2 575 0 discriminator 4
 2091 00c4 0023     		movs	r3, #0
 2092              	.L100:
 2093              		.loc 2 575 0 discriminator 6
 2094 00c6 3B66     		str	r3, [r7, #96]
 576:..\..\src/disk.c **** 				if (scsiBusy && sdBusy)
 2095              		.loc 2 576 0 is_stmt 1 discriminator 6
 2096 00c8 7B6E     		ldr	r3, [r7, #100]
 2097 00ca 002B     		cmp	r3, #0
 2098 00cc 03D0     		beq	.L101
 2099              		.loc 2 576 0 is_stmt 0 discriminator 1
 2100 00ce 3B6E     		ldr	r3, [r7, #96]
 2101 00d0 002B     		cmp	r3, #0
 2102 00d2 00D0     		beq	.L101
 577:..\..\src/disk.c **** 				{
 578:..\..\src/disk.c **** 					__WFI();
 2103              		.loc 2 578 0 is_stmt 1
 2104              		.syntax unified
 2105              	@ 578 "..\..\src\disk.c" 1
 2106 00d4 30BF     		wfi
 2107              	@ 0 "" 2
 2108              		.thumb
 2109              		.syntax unified
 2110              	.L101:
 579:..\..\src/disk.c **** 				}
 580:..\..\src/disk.c **** 				CyExitCriticalSection(intr);
 2111              		.loc 2 580 0
 2112 00d6 FB7E     		ldrb	r3, [r7, #27]	@ zero_extendqisi2
 2113 00d8 1846     		mov	r0, r3
 2114 00da FFF7FEFF 		bl	CyExitCriticalSection
 2115              	.L94:
 2116              	.LBE18:
 571:..\..\src/disk.c **** 			{
 2117              		.loc 2 571 0
 2118 00de 7B6E     		ldr	r3, [r7, #100]
 2119 00e0 002B     		cmp	r3, #0
 2120 00e2 02D0     		beq	.L102
 571:..\..\src/disk.c **** 			{
 2121              		.loc 2 571 0 is_stmt 0 discriminator 1
 2122 00e4 3B6E     		ldr	r3, [r7, #96]
 2123 00e6 002B     		cmp	r3, #0
 2124 00e8 CED1     		bne	.L103
 2125              	.L102:
 581:..\..\src/disk.c **** 			}
 582:..\..\src/disk.c **** 
 583:..\..\src/disk.c **** 			if (sdActive && !sdBusy && sdReadSectorDMAPoll())
 2126              		.loc 2 583 0 is_stmt 1
 2127 00ea BB6E     		ldr	r3, [r7, #104]
 2128 00ec 002B     		cmp	r3, #0
ARM GAS  C:\Users\r\AppData\Local\Temp\ccBAatSA.s 			page 51


 2129 00ee 0CD0     		beq	.L104
 2130              		.loc 2 583 0 is_stmt 0 discriminator 1
 2131 00f0 3B6E     		ldr	r3, [r7, #96]
 2132 00f2 002B     		cmp	r3, #0
 2133 00f4 09D1     		bne	.L104
 2134              		.loc 2 583 0 discriminator 2
 2135 00f6 FFF7FEFF 		bl	sdReadSectorDMAPoll
 2136 00fa 0346     		mov	r3, r0
 2137 00fc 002B     		cmp	r3, #0
 2138 00fe 04D0     		beq	.L104
 584:..\..\src/disk.c **** 			{
 585:..\..\src/disk.c **** 				sdActive = 0;
 2139              		.loc 2 585 0 is_stmt 1
 2140 0100 0023     		movs	r3, #0
 2141 0102 BB66     		str	r3, [r7, #104]
 586:..\..\src/disk.c **** 				prep++;
 2142              		.loc 2 586 0
 2143 0104 7B6F     		ldr	r3, [r7, #116]
 2144 0106 0133     		adds	r3, r3, #1
 2145 0108 7B67     		str	r3, [r7, #116]
 2146              	.L104:
 587:..\..\src/disk.c **** 			}
 588:..\..\src/disk.c **** 
 589:..\..\src/disk.c **** 			// Usually SD is slower than the SCSI interface.
 590:..\..\src/disk.c **** 			// Prioritise starting the read of the next sector over starting a
 591:..\..\src/disk.c **** 			// SCSI transfer for the last sector
 592:..\..\src/disk.c **** 			// ie. NO "else" HERE.
 593:..\..\src/disk.c **** 			if (!sdActive &&
 2147              		.loc 2 593 0
 2148 010a BB6E     		ldr	r3, [r7, #104]
 2149 010c 002B     		cmp	r3, #0
 2150 010e 35D1     		bne	.L105
 594:..\..\src/disk.c **** 				(prep - i < buffers) &&
 2151              		.loc 2 594 0 discriminator 1
 2152 0110 7A6F     		ldr	r2, [r7, #116]
 2153 0112 3B6F     		ldr	r3, [r7, #112]
 2154 0114 D21A     		subs	r2, r2, r3
 593:..\..\src/disk.c **** 				(prep - i < buffers) &&
 2155              		.loc 2 593 0 discriminator 1
 2156 0116 FB69     		ldr	r3, [r7, #28]
 2157 0118 9A42     		cmp	r2, r3
 2158 011a 2FDA     		bge	.L105
 2159              		.loc 2 594 0
 2160 011c 7A6F     		ldr	r2, [r7, #116]
 2161 011e BB6A     		ldr	r3, [r7, #40]
 2162 0120 9A42     		cmp	r2, r3
 2163 0122 2BDA     		bge	.L105
 595:..\..\src/disk.c **** 				(prep < totalSDSectors))
 596:..\..\src/disk.c **** 			{
 597:..\..\src/disk.c **** 				// Start an SD transfer if we have space.
 598:..\..\src/disk.c **** 				if (transfer.multiBlock)
 2164              		.loc 2 598 0
 2165 0124 644B     		ldr	r3, .L146+4
 2166 0126 1B68     		ldr	r3, [r3]
 2167 0128 002B     		cmp	r3, #0
 2168 012a 11D0     		beq	.L106
 599:..\..\src/disk.c **** 				{
ARM GAS  C:\Users\r\AppData\Local\Temp\ccBAatSA.s 			page 52


 600:..\..\src/disk.c **** 					sdReadMultiSectorDMA(&scsiDev.data[SD_SECTOR_SIZE * (prep % buffers)]);
 2169              		.loc 2 600 0
 2170 012c 7B6F     		ldr	r3, [r7, #116]
 2171 012e FA69     		ldr	r2, [r7, #28]
 2172 0130 93FBF2F2 		sdiv	r2, r3, r2
 2173 0134 F969     		ldr	r1, [r7, #28]
 2174 0136 01FB02F2 		mul	r2, r1, r2
 2175 013a 9B1A     		subs	r3, r3, r2
 2176 013c 5B02     		lsls	r3, r3, #9
 2177 013e 03F5BC73 		add	r3, r3, #376
 2178 0142 5C4A     		ldr	r2, .L146
 2179 0144 1344     		add	r3, r3, r2
 2180 0146 0433     		adds	r3, r3, #4
 2181 0148 1846     		mov	r0, r3
 2182 014a FFF7FEFF 		bl	sdReadMultiSectorDMA
 2183 014e 13E0     		b	.L107
 2184              	.L106:
 601:..\..\src/disk.c **** 				}
 602:..\..\src/disk.c **** 				else
 603:..\..\src/disk.c **** 				{
 604:..\..\src/disk.c **** 					sdReadSingleSectorDMA(sdLBA + prep, &scsiDev.data[SD_SECTOR_SIZE * (prep % buffers)]);
 2185              		.loc 2 604 0
 2186 0150 7A6F     		ldr	r2, [r7, #116]
 2187 0152 7B6A     		ldr	r3, [r7, #36]
 2188 0154 D018     		adds	r0, r2, r3
 2189 0156 7B6F     		ldr	r3, [r7, #116]
 2190 0158 FA69     		ldr	r2, [r7, #28]
 2191 015a 93FBF2F2 		sdiv	r2, r3, r2
 2192 015e F969     		ldr	r1, [r7, #28]
 2193 0160 01FB02F2 		mul	r2, r1, r2
 2194 0164 9B1A     		subs	r3, r3, r2
 2195 0166 5B02     		lsls	r3, r3, #9
 2196 0168 03F5BC73 		add	r3, r3, #376
 2197 016c 514A     		ldr	r2, .L146
 2198 016e 1344     		add	r3, r3, r2
 2199 0170 0433     		adds	r3, r3, #4
 2200 0172 1946     		mov	r1, r3
 2201 0174 FFF7FEFF 		bl	sdReadSingleSectorDMA
 2202              	.L107:
 605:..\..\src/disk.c **** 				}
 606:..\..\src/disk.c **** 				sdActive = 1;
 2203              		.loc 2 606 0
 2204 0178 0123     		movs	r3, #1
 2205 017a BB66     		str	r3, [r7, #104]
 2206              	.L105:
 607:..\..\src/disk.c **** 			}
 608:..\..\src/disk.c **** 
 609:..\..\src/disk.c **** 			if (scsiActive && !scsiBusy && scsiWriteDMAPoll())
 2207              		.loc 2 609 0
 2208 017c FB6E     		ldr	r3, [r7, #108]
 2209 017e 002B     		cmp	r3, #0
 2210 0180 0CD0     		beq	.L108
 2211              		.loc 2 609 0 is_stmt 0 discriminator 1
 2212 0182 7B6E     		ldr	r3, [r7, #100]
 2213 0184 002B     		cmp	r3, #0
 2214 0186 09D1     		bne	.L108
 2215              		.loc 2 609 0 discriminator 2
ARM GAS  C:\Users\r\AppData\Local\Temp\ccBAatSA.s 			page 53


 2216 0188 FFF7FEFF 		bl	scsiWriteDMAPoll
 2217 018c 0346     		mov	r3, r0
 2218 018e 002B     		cmp	r3, #0
 2219 0190 04D0     		beq	.L108
 610:..\..\src/disk.c **** 			{
 611:..\..\src/disk.c **** 				scsiActive = 0;
 2220              		.loc 2 611 0 is_stmt 1
 2221 0192 0023     		movs	r3, #0
 2222 0194 FB66     		str	r3, [r7, #108]
 612:..\..\src/disk.c **** 				++i;
 2223              		.loc 2 612 0
 2224 0196 3B6F     		ldr	r3, [r7, #112]
 2225 0198 0133     		adds	r3, r3, #1
 2226 019a 3B67     		str	r3, [r7, #112]
 2227              	.L108:
 613:..\..\src/disk.c **** 			}
 614:..\..\src/disk.c **** 			if (!scsiActive && ((prep - i) > 0))
 2228              		.loc 2 614 0
 2229 019c FB6E     		ldr	r3, [r7, #108]
 2230 019e 002B     		cmp	r3, #0
 2231 01a0 32D1     		bne	.L93
 2232              		.loc 2 614 0 is_stmt 0 discriminator 1
 2233 01a2 7A6F     		ldr	r2, [r7, #116]
 2234 01a4 3B6F     		ldr	r3, [r7, #112]
 2235 01a6 D31A     		subs	r3, r2, r3
 2236 01a8 002B     		cmp	r3, #0
 2237 01aa 2DDD     		ble	.L93
 2238              	.LBB19:
 615:..\..\src/disk.c **** 			{
 616:..\..\src/disk.c **** 				int dmaBytes = SD_SECTOR_SIZE;
 2239              		.loc 2 616 0 is_stmt 1
 2240 01ac 4FF40073 		mov	r3, #512
 2241 01b0 FB65     		str	r3, [r7, #92]
 617:..\..\src/disk.c **** 				if ((i % sdPerScsi) == (sdPerScsi - 1))
 2242              		.loc 2 617 0
 2243 01b2 3B6F     		ldr	r3, [r7, #112]
 2244 01b4 3A6A     		ldr	r2, [r7, #32]
 2245 01b6 93FBF2F2 		sdiv	r2, r3, r2
 2246 01ba 396A     		ldr	r1, [r7, #32]
 2247 01bc 01FB02F2 		mul	r2, r1, r2
 2248 01c0 9A1A     		subs	r2, r3, r2
 2249 01c2 3B6A     		ldr	r3, [r7, #32]
 2250 01c4 013B     		subs	r3, r3, #1
 2251 01c6 9A42     		cmp	r2, r3
 2252 01c8 09D1     		bne	.L109
 618:..\..\src/disk.c **** 				{
 619:..\..\src/disk.c **** 					dmaBytes = bytesPerSector % SD_SECTOR_SIZE;
 2253              		.loc 2 619 0
 2254 01ca FB6A     		ldr	r3, [r7, #44]
 2255 01cc C3F30803 		ubfx	r3, r3, #0, #9
 2256 01d0 FB65     		str	r3, [r7, #92]
 620:..\..\src/disk.c **** 					if (dmaBytes == 0) dmaBytes = SD_SECTOR_SIZE;
 2257              		.loc 2 620 0
 2258 01d2 FB6D     		ldr	r3, [r7, #92]
 2259 01d4 002B     		cmp	r3, #0
 2260 01d6 02D1     		bne	.L109
 2261              		.loc 2 620 0 is_stmt 0 discriminator 1
ARM GAS  C:\Users\r\AppData\Local\Temp\ccBAatSA.s 			page 54


 2262 01d8 4FF40073 		mov	r3, #512
 2263 01dc FB65     		str	r3, [r7, #92]
 2264              	.L109:
 621:..\..\src/disk.c **** 				}
 622:..\..\src/disk.c **** 				scsiWriteDMA(&scsiDev.data[SD_SECTOR_SIZE * (i % buffers)], dmaBytes);
 2265              		.loc 2 622 0 is_stmt 1
 2266 01de 3B6F     		ldr	r3, [r7, #112]
 2267 01e0 FA69     		ldr	r2, [r7, #28]
 2268 01e2 93FBF2F2 		sdiv	r2, r3, r2
 2269 01e6 F969     		ldr	r1, [r7, #28]
 2270 01e8 01FB02F2 		mul	r2, r1, r2
 2271 01ec 9B1A     		subs	r3, r3, r2
 2272 01ee 5B02     		lsls	r3, r3, #9
 2273 01f0 03F5BC73 		add	r3, r3, #376
 2274 01f4 2F4A     		ldr	r2, .L146
 2275 01f6 1344     		add	r3, r3, r2
 2276 01f8 0433     		adds	r3, r3, #4
 2277 01fa FA6D     		ldr	r2, [r7, #92]
 2278 01fc 1146     		mov	r1, r2
 2279 01fe 1846     		mov	r0, r3
 2280 0200 FFF7FEFF 		bl	scsiWriteDMA
 623:..\..\src/disk.c **** 				scsiActive = 1;
 2281              		.loc 2 623 0
 2282 0204 0123     		movs	r3, #1
 2283 0206 FB66     		str	r3, [r7, #108]
 2284              	.L93:
 2285              	.LBE19:
 2286              	.LBE17:
 562:..\..\src/disk.c **** 			likely(scsiDev.phase == DATA_IN) &&
 2287              		.loc 2 562 0
 2288 0208 3A6F     		ldr	r2, [r7, #112]
 2289 020a BB6A     		ldr	r3, [r7, #40]
 2290 020c 9A42     		cmp	r2, r3
 2291 020e 14DA     		bge	.L110
 563:..\..\src/disk.c **** 			likely(!scsiDev.resetFlag))
 2292              		.loc 2 563 0 discriminator 1
 2293 0210 284B     		ldr	r3, .L146
 2294 0212 D3F87831 		ldr	r3, [r3, #376]
 2295 0216 042B     		cmp	r3, #4
 2296 0218 0CBF     		ite	eq
 2297 021a 0123     		moveq	r3, #1
 2298 021c 0023     		movne	r3, #0
 2299 021e DBB2     		uxtb	r3, r3
 562:..\..\src/disk.c **** 			likely(scsiDev.phase == DATA_IN) &&
 2300              		.loc 2 562 0 discriminator 1
 2301 0220 002B     		cmp	r3, #0
 2302 0222 0AD0     		beq	.L110
 564:..\..\src/disk.c **** 		{
 2303              		.loc 2 564 0
 2304 0224 234B     		ldr	r3, .L146
 2305 0226 D3F86831 		ldr	r3, [r3, #360]
 2306 022a 002B     		cmp	r3, #0
 2307 022c 0CBF     		ite	eq
 2308 022e 0123     		moveq	r3, #1
 2309 0230 0023     		movne	r3, #0
 2310 0232 DBB2     		uxtb	r3, r3
 563:..\..\src/disk.c **** 			likely(!scsiDev.resetFlag))
ARM GAS  C:\Users\r\AppData\Local\Temp\ccBAatSA.s 			page 55


 2311              		.loc 2 563 0
 2312 0234 002B     		cmp	r3, #0
 2313 0236 7FF422AF 		bne	.L111
 2314              	.L110:
 624:..\..\src/disk.c **** 			}
 625:..\..\src/disk.c **** 		}
 626:..\..\src/disk.c **** 		if (scsiDev.phase == DATA_IN)
 2315              		.loc 2 626 0
 2316 023a 1E4B     		ldr	r3, .L146
 2317 023c D3F87831 		ldr	r3, [r3, #376]
 2318 0240 042B     		cmp	r3, #4
 2319 0242 03D1     		bne	.L112
 627:..\..\src/disk.c **** 		{
 628:..\..\src/disk.c **** 			scsiDev.phase = STATUS;
 2320              		.loc 2 628 0
 2321 0244 1B4B     		ldr	r3, .L146
 2322 0246 0622     		movs	r2, #6
 2323 0248 C3F87821 		str	r2, [r3, #376]
 2324              	.L112:
 629:..\..\src/disk.c **** 		}
 630:..\..\src/disk.c **** 		scsiDiskReset();
 2325              		.loc 2 630 0
 2326 024c FFF7FEFF 		bl	scsiDiskReset
 2327              	.LBE16:
 545:..\..\src/disk.c **** 		scsiEnterPhase(DATA_IN);
 2328              		.loc 2 545 0
 2329 0250 00BF     		nop
 631:..\..\src/disk.c **** 	}
 632:..\..\src/disk.c **** 	else if (scsiDev.phase == DATA_OUT &&
 633:..\..\src/disk.c **** 		transfer.currentBlock != transfer.blocks)
 634:..\..\src/disk.c **** 	{
 635:..\..\src/disk.c **** 		scsiEnterPhase(DATA_OUT);
 636:..\..\src/disk.c **** 
 637:..\..\src/disk.c **** 		const int sdPerScsi = SDSectorsPerSCSISector(bytesPerSector);
 638:..\..\src/disk.c **** 		int totalSDSectors = transfer.blocks * sdPerScsi;
 639:..\..\src/disk.c **** 		int buffers = sizeof(scsiDev.data) / SD_SECTOR_SIZE;
 640:..\..\src/disk.c **** 		int prep = 0;
 641:..\..\src/disk.c **** 		int i = 0;
 642:..\..\src/disk.c **** 		int scsiDisconnected = 0;
 643:..\..\src/disk.c **** 		int scsiComplete = 0;
 644:..\..\src/disk.c **** 		int clearBSY = 0;
 645:..\..\src/disk.c **** 		uint32_t lastActivityTime = getTime_ms();
 646:..\..\src/disk.c **** 		int scsiActive = 0;
 647:..\..\src/disk.c **** 		int sdActive = 0;
 648:..\..\src/disk.c **** 
 649:..\..\src/disk.c **** 		while ((i < totalSDSectors) &&
 650:..\..\src/disk.c **** 			(likely(scsiDev.phase == DATA_OUT) || // scsiDisconnect keeps our phase.
 651:..\..\src/disk.c **** 				scsiComplete) &&
 652:..\..\src/disk.c **** 			likely(!scsiDev.resetFlag))
 653:..\..\src/disk.c **** 		{
 654:..\..\src/disk.c **** 			// Wait for the next DMA interrupt. It's beneficial to halt the
 655:..\..\src/disk.c **** 			// processor to give the DMA controller more memory bandwidth to
 656:..\..\src/disk.c **** 			// work with.
 657:..\..\src/disk.c **** 			int scsiBusy = 1;
 658:..\..\src/disk.c **** 			int sdBusy = 1;
 659:..\..\src/disk.c **** 			while (scsiBusy && sdBusy)
 660:..\..\src/disk.c **** 			{
ARM GAS  C:\Users\r\AppData\Local\Temp\ccBAatSA.s 			page 56


 661:..\..\src/disk.c **** 				uint8_t intr = CyEnterCriticalSection();
 662:..\..\src/disk.c **** 				scsiBusy = scsiDMABusy();
 663:..\..\src/disk.c **** 				sdBusy = sdDMABusy();
 664:..\..\src/disk.c **** 				if (scsiBusy && sdBusy)
 665:..\..\src/disk.c **** 				{
 666:..\..\src/disk.c **** 					__WFI();
 667:..\..\src/disk.c **** 				}
 668:..\..\src/disk.c **** 				CyExitCriticalSection(intr);
 669:..\..\src/disk.c **** 			}
 670:..\..\src/disk.c **** 
 671:..\..\src/disk.c **** 			if (sdActive && !sdBusy && sdWriteSectorDMAPoll())
 672:..\..\src/disk.c **** 			{
 673:..\..\src/disk.c **** 				sdActive = 0;
 674:..\..\src/disk.c **** 				i++;
 675:..\..\src/disk.c **** 			}
 676:..\..\src/disk.c **** 			if (!sdActive && ((prep - i) > 0))
 677:..\..\src/disk.c **** 			{
 678:..\..\src/disk.c **** 				// Start an SD transfer if we have space.
 679:..\..\src/disk.c **** 				sdWriteMultiSectorDMA(&scsiDev.data[SD_SECTOR_SIZE * (i % buffers)]);
 680:..\..\src/disk.c **** 				sdActive = 1;
 681:..\..\src/disk.c **** 			}
 682:..\..\src/disk.c **** 
 683:..\..\src/disk.c **** 			uint32_t now = getTime_ms();
 684:..\..\src/disk.c **** 
 685:..\..\src/disk.c **** 			if (scsiActive && !scsiBusy && scsiReadDMAPoll())
 686:..\..\src/disk.c **** 			{
 687:..\..\src/disk.c **** 				scsiActive = 0;
 688:..\..\src/disk.c **** 				++prep;
 689:..\..\src/disk.c **** 				lastActivityTime = now;
 690:..\..\src/disk.c **** 			}
 691:..\..\src/disk.c **** 			if (!scsiActive &&
 692:..\..\src/disk.c **** 				((prep - i) < buffers) &&
 693:..\..\src/disk.c **** 				(prep < totalSDSectors) &&
 694:..\..\src/disk.c **** 				likely(!scsiDisconnected))
 695:..\..\src/disk.c **** 			{
 696:..\..\src/disk.c **** 				int dmaBytes = SD_SECTOR_SIZE;
 697:..\..\src/disk.c **** 				if ((prep % sdPerScsi) == (sdPerScsi - 1))
 698:..\..\src/disk.c **** 				{
 699:..\..\src/disk.c **** 					dmaBytes = bytesPerSector % SD_SECTOR_SIZE;
 700:..\..\src/disk.c **** 					if (dmaBytes == 0) dmaBytes = SD_SECTOR_SIZE;
 701:..\..\src/disk.c **** 				}
 702:..\..\src/disk.c **** 				scsiReadDMA(&scsiDev.data[SD_SECTOR_SIZE * (prep % buffers)], dmaBytes);
 703:..\..\src/disk.c **** 				scsiActive = 1;
 704:..\..\src/disk.c **** 			}
 705:..\..\src/disk.c **** 			else if (
 706:..\..\src/disk.c **** 				(scsiDev.boardCfg.flags & CONFIG_ENABLE_DISCONNECT) &&
 707:..\..\src/disk.c **** 				(scsiActive == 0) &&
 708:..\..\src/disk.c **** 				likely(!scsiDisconnected) &&
 709:..\..\src/disk.c **** 				unlikely(scsiDev.discPriv) &&
 710:..\..\src/disk.c **** 				unlikely(diffTime_ms(lastActivityTime, now) >= 20) &&
 711:..\..\src/disk.c **** 				likely(scsiDev.phase == DATA_OUT))
 712:..\..\src/disk.c **** 			{
 713:..\..\src/disk.c **** 				// We're transferring over the SCSI bus faster than the SD card
 714:..\..\src/disk.c **** 				// can write.  There is no more buffer space once we've finished
 715:..\..\src/disk.c **** 				// this SCSI transfer.
 716:..\..\src/disk.c **** 				// The NCR 53C700 interface chips have a 250ms "byte-to-byte"
 717:..\..\src/disk.c **** 				// timeout buffer. SD card writes are supposed to complete
ARM GAS  C:\Users\r\AppData\Local\Temp\ccBAatSA.s 			page 57


 718:..\..\src/disk.c **** 				// within 200ms, but sometimes they don't.
 719:..\..\src/disk.c **** 				// The NCR 53C700 series is used on HP 9000 workstations.
 720:..\..\src/disk.c **** 				scsiDisconnect();
 721:..\..\src/disk.c **** 				scsiDisconnected = 1;
 722:..\..\src/disk.c **** 				lastActivityTime = getTime_ms();
 723:..\..\src/disk.c **** 			}
 724:..\..\src/disk.c **** 			else if (unlikely(scsiDisconnected) &&
 725:..\..\src/disk.c **** 				(
 726:..\..\src/disk.c **** 					(prep == i) || // Buffers empty.
 727:..\..\src/disk.c **** 					// Send some messages every 100ms so we don't timeout.
 728:..\..\src/disk.c **** 					// At a minimum, a reselection involves an IDENTIFY message.
 729:..\..\src/disk.c **** 					unlikely(diffTime_ms(lastActivityTime, now) >= 100)
 730:..\..\src/disk.c **** 				))
 731:..\..\src/disk.c **** 			{
 732:..\..\src/disk.c **** 				int reconnected = scsiReconnect();
 733:..\..\src/disk.c **** 				if (reconnected)
 734:..\..\src/disk.c **** 				{
 735:..\..\src/disk.c **** 					scsiDisconnected = 0;
 736:..\..\src/disk.c **** 					lastActivityTime = getTime_ms(); // Don't disconnect immediately.
 737:..\..\src/disk.c **** 				}
 738:..\..\src/disk.c **** 				else if (diffTime_ms(lastActivityTime, getTime_ms()) >= 10000)
 739:..\..\src/disk.c **** 				{
 740:..\..\src/disk.c **** 					// Give up after 10 seconds of trying to reconnect.
 741:..\..\src/disk.c **** 					scsiDev.resetFlag = 1;
 742:..\..\src/disk.c **** 				}
 743:..\..\src/disk.c **** 			}
 744:..\..\src/disk.c **** 			else if (
 745:..\..\src/disk.c **** 				likely(!scsiComplete) &&
 746:..\..\src/disk.c **** 				(sdActive == 1) &&
 747:..\..\src/disk.c **** 				(prep == totalSDSectors) && // All scsi data read and buffered
 748:..\..\src/disk.c **** 				likely(!scsiDev.discPriv) && // Prefer disconnect where possible.
 749:..\..\src/disk.c **** 				unlikely(diffTime_ms(lastActivityTime, now) >= 150) &&
 750:..\..\src/disk.c **** 
 751:..\..\src/disk.c **** 				likely(scsiDev.phase == DATA_OUT) &&
 752:..\..\src/disk.c **** 				!(scsiDev.cdb[scsiDev.cdbLen - 1] & 0x01) // Not linked command
 753:..\..\src/disk.c **** 				)
 754:..\..\src/disk.c **** 			{
 755:..\..\src/disk.c **** 				// We're transferring over the SCSI bus faster than the SD card
 756:..\..\src/disk.c **** 				// can write.  All data is buffered, and we're just waiting for
 757:..\..\src/disk.c **** 				// the SD card to complete. The host won't let us disconnect.
 758:..\..\src/disk.c **** 				// Some drivers set a 250ms timeout on transfers to complete.
 759:..\..\src/disk.c **** 				// SD card writes are supposed to complete
 760:..\..\src/disk.c **** 				// within 200ms, but sometimes they don'to.
 761:..\..\src/disk.c **** 				// Just pretend we're finished.
 762:..\..\src/disk.c **** 				scsiComplete = 1;
 763:..\..\src/disk.c **** 
 764:..\..\src/disk.c **** 				process_Status();
 765:..\..\src/disk.c **** 				clearBSY = process_MessageIn(0); // Will go to BUS_FREE state but keeps BSY asserted
 766:..\..\src/disk.c **** 			}
 767:..\..\src/disk.c **** 		}
 768:..\..\src/disk.c **** 
 769:..\..\src/disk.c **** 		if (clearBSY)
 770:..\..\src/disk.c **** 		{
 771:..\..\src/disk.c **** 			enter_BusFree();
 772:..\..\src/disk.c **** 		}
 773:..\..\src/disk.c **** 		while (
 774:..\..\src/disk.c **** 			!scsiDev.resetFlag &&
ARM GAS  C:\Users\r\AppData\Local\Temp\ccBAatSA.s 			page 58


 775:..\..\src/disk.c **** 			unlikely(scsiDisconnected) &&
 776:..\..\src/disk.c **** 			(elapsedTime_ms(lastActivityTime) <= 10000))
 777:..\..\src/disk.c **** 		{
 778:..\..\src/disk.c **** 			scsiDisconnected = !scsiReconnect();
 779:..\..\src/disk.c **** 		}
 780:..\..\src/disk.c **** 		if (scsiDisconnected)
 781:..\..\src/disk.c **** 		{
 782:..\..\src/disk.c **** 			// Failed to reconnect
 783:..\..\src/disk.c **** 			scsiDev.resetFlag = 1;
 784:..\..\src/disk.c **** 		}
 785:..\..\src/disk.c **** 
 786:..\..\src/disk.c **** 		if (scsiDev.phase == DATA_OUT)
 787:..\..\src/disk.c **** 		{
 788:..\..\src/disk.c **** 			if (scsiDev.parityError &&
 789:..\..\src/disk.c **** 				(scsiDev.boardCfg.flags & CONFIG_ENABLE_PARITY) &&
 790:..\..\src/disk.c **** 				(scsiDev.compatMode >= COMPAT_SCSI2))
 791:..\..\src/disk.c **** 			{
 792:..\..\src/disk.c **** 				scsiDev.target->sense.code = ABORTED_COMMAND;
 793:..\..\src/disk.c **** 				scsiDev.target->sense.asc = SCSI_PARITY_ERROR;
 794:..\..\src/disk.c **** 				scsiDev.status = CHECK_CONDITION;;
 795:..\..\src/disk.c **** 			}
 796:..\..\src/disk.c **** 			scsiDev.phase = STATUS;
 797:..\..\src/disk.c **** 		}
 798:..\..\src/disk.c **** 		scsiDiskReset();
 799:..\..\src/disk.c **** 	}
 800:..\..\src/disk.c **** }
 2330              		.loc 2 800 0
 2331 0252 2EE2     		b	.L145
 2332              	.L92:
 632:..\..\src/disk.c **** 		transfer.currentBlock != transfer.blocks)
 2333              		.loc 2 632 0
 2334 0254 174B     		ldr	r3, .L146
 2335 0256 D3F87831 		ldr	r3, [r3, #376]
 2336 025a 002B     		cmp	r3, #0
 2337 025c 40F02982 		bne	.L145
 633:..\..\src/disk.c **** 	{
 2338              		.loc 2 633 0 discriminator 1
 2339 0260 154B     		ldr	r3, .L146+4
 2340 0262 DA68     		ldr	r2, [r3, #12]
 2341 0264 144B     		ldr	r3, .L146+4
 2342 0266 9B68     		ldr	r3, [r3, #8]
 632:..\..\src/disk.c **** 		transfer.currentBlock != transfer.blocks)
 2343              		.loc 2 632 0 discriminator 1
 2344 0268 9A42     		cmp	r2, r3
 2345 026a 00F02282 		beq	.L145
 2346              	.LBB20:
 635:..\..\src/disk.c **** 
 2347              		.loc 2 635 0
 2348 026e 0020     		movs	r0, #0
 2349 0270 FFF7FEFF 		bl	scsiEnterPhase
 637:..\..\src/disk.c **** 		int totalSDSectors = transfer.blocks * sdPerScsi;
 2350              		.loc 2 637 0
 2351 0274 FB6A     		ldr	r3, [r7, #44]
 2352 0276 9BB2     		uxth	r3, r3
 2353 0278 1846     		mov	r0, r3
 2354 027a FFF7FEFF 		bl	SDSectorsPerSCSISector
 2355 027e 7861     		str	r0, [r7, #20]
ARM GAS  C:\Users\r\AppData\Local\Temp\ccBAatSA.s 			page 59


 638:..\..\src/disk.c **** 		int buffers = sizeof(scsiDev.data) / SD_SECTOR_SIZE;
 2356              		.loc 2 638 0
 2357 0280 0D4B     		ldr	r3, .L146+4
 2358 0282 9B68     		ldr	r3, [r3, #8]
 2359 0284 7A69     		ldr	r2, [r7, #20]
 2360 0286 02FB03F3 		mul	r3, r2, r3
 2361 028a 3B61     		str	r3, [r7, #16]
 639:..\..\src/disk.c **** 		int prep = 0;
 2362              		.loc 2 639 0
 2363 028c 2023     		movs	r3, #32
 2364 028e FB60     		str	r3, [r7, #12]
 640:..\..\src/disk.c **** 		int i = 0;
 2365              		.loc 2 640 0
 2366 0290 0023     		movs	r3, #0
 2367 0292 BB65     		str	r3, [r7, #88]
 641:..\..\src/disk.c **** 		int scsiDisconnected = 0;
 2368              		.loc 2 641 0
 2369 0294 0023     		movs	r3, #0
 2370 0296 7B65     		str	r3, [r7, #84]
 642:..\..\src/disk.c **** 		int scsiComplete = 0;
 2371              		.loc 2 642 0
 2372 0298 0023     		movs	r3, #0
 2373 029a 3B65     		str	r3, [r7, #80]
 643:..\..\src/disk.c **** 		int clearBSY = 0;
 2374              		.loc 2 643 0
 2375 029c 0023     		movs	r3, #0
 2376 029e FB64     		str	r3, [r7, #76]
 644:..\..\src/disk.c **** 		uint32_t lastActivityTime = getTime_ms();
 2377              		.loc 2 644 0
 2378 02a0 0023     		movs	r3, #0
 2379 02a2 BB64     		str	r3, [r7, #72]
 645:..\..\src/disk.c **** 		int scsiActive = 0;
 2380              		.loc 2 645 0
 2381 02a4 FFF7FEFF 		bl	getTime_ms
 2382 02a8 7864     		str	r0, [r7, #68]
 646:..\..\src/disk.c **** 		int sdActive = 0;
 2383              		.loc 2 646 0
 2384 02aa 0023     		movs	r3, #0
 2385 02ac 3B64     		str	r3, [r7, #64]
 647:..\..\src/disk.c **** 
 2386              		.loc 2 647 0
 2387 02ae 0023     		movs	r3, #0
 2388 02b0 FB63     		str	r3, [r7, #60]
 649:..\..\src/disk.c **** 			(likely(scsiDev.phase == DATA_OUT) || // scsiDisconnect keeps our phase.
 2389              		.loc 2 649 0
 2390 02b2 8AE1     		b	.L114
 2391              	.L147:
 2392              		.align	2
 2393              	.L146:
 2394 02b4 00000000 		.word	scsiDev
 2395 02b8 00000000 		.word	transfer
 2396 02bc 00000000 		.word	scsiRxDMAComplete
 2397 02c0 00000000 		.word	scsiTxDMAComplete
 2398 02c4 00000000 		.word	sdRxDMAComplete
 2399 02c8 00000000 		.word	sdTxDMAComplete
 2400              	.L137:
 2401              	.LBB21:
ARM GAS  C:\Users\r\AppData\Local\Temp\ccBAatSA.s 			page 60


 657:..\..\src/disk.c **** 			int sdBusy = 1;
 2402              		.loc 2 657 0
 2403 02cc 0123     		movs	r3, #1
 2404 02ce BB63     		str	r3, [r7, #56]
 658:..\..\src/disk.c **** 			while (scsiBusy && sdBusy)
 2405              		.loc 2 658 0
 2406 02d0 0123     		movs	r3, #1
 2407 02d2 7B63     		str	r3, [r7, #52]
 659:..\..\src/disk.c **** 			{
 2408              		.loc 2 659 0
 2409 02d4 2AE0     		b	.L115
 2410              	.L124:
 2411              	.LBB22:
 661:..\..\src/disk.c **** 				scsiBusy = scsiDMABusy();
 2412              		.loc 2 661 0
 2413 02d6 FFF7FEFF 		bl	CyEnterCriticalSection
 2414 02da 0346     		mov	r3, r0
 2415 02dc FB72     		strb	r3, [r7, #11]
 662:..\..\src/disk.c **** 				sdBusy = sdDMABusy();
 2416              		.loc 2 662 0
 2417 02de 914B     		ldr	r3, .L148
 2418 02e0 1B78     		ldrb	r3, [r3]
 2419 02e2 DBB2     		uxtb	r3, r3
 2420 02e4 002B     		cmp	r3, #0
 2421 02e6 04D0     		beq	.L116
 662:..\..\src/disk.c **** 				sdBusy = sdDMABusy();
 2422              		.loc 2 662 0 is_stmt 0 discriminator 2
 2423 02e8 8F4B     		ldr	r3, .L148+4
 2424 02ea 1B78     		ldrb	r3, [r3]
 2425 02ec DBB2     		uxtb	r3, r3
 2426 02ee 002B     		cmp	r3, #0
 2427 02f0 01D1     		bne	.L117
 2428              	.L116:
 662:..\..\src/disk.c **** 				sdBusy = sdDMABusy();
 2429              		.loc 2 662 0 discriminator 3
 2430 02f2 0123     		movs	r3, #1
 2431 02f4 00E0     		b	.L118
 2432              	.L117:
 662:..\..\src/disk.c **** 				sdBusy = sdDMABusy();
 2433              		.loc 2 662 0 discriminator 4
 2434 02f6 0023     		movs	r3, #0
 2435              	.L118:
 662:..\..\src/disk.c **** 				sdBusy = sdDMABusy();
 2436              		.loc 2 662 0 discriminator 6
 2437 02f8 BB63     		str	r3, [r7, #56]
 663:..\..\src/disk.c **** 				if (scsiBusy && sdBusy)
 2438              		.loc 2 663 0 is_stmt 1 discriminator 6
 2439 02fa 8C4B     		ldr	r3, .L148+8
 2440 02fc 1B78     		ldrb	r3, [r3]
 2441 02fe DBB2     		uxtb	r3, r3
 2442 0300 002B     		cmp	r3, #0
 2443 0302 04D0     		beq	.L119
 663:..\..\src/disk.c **** 				if (scsiBusy && sdBusy)
 2444              		.loc 2 663 0 is_stmt 0 discriminator 2
 2445 0304 8A4B     		ldr	r3, .L148+12
 2446 0306 1B78     		ldrb	r3, [r3]
 2447 0308 DBB2     		uxtb	r3, r3
ARM GAS  C:\Users\r\AppData\Local\Temp\ccBAatSA.s 			page 61


 2448 030a 002B     		cmp	r3, #0
 2449 030c 01D1     		bne	.L120
 2450              	.L119:
 663:..\..\src/disk.c **** 				if (scsiBusy && sdBusy)
 2451              		.loc 2 663 0 discriminator 3
 2452 030e 0123     		movs	r3, #1
 2453 0310 00E0     		b	.L121
 2454              	.L120:
 663:..\..\src/disk.c **** 				if (scsiBusy && sdBusy)
 2455              		.loc 2 663 0 discriminator 4
 2456 0312 0023     		movs	r3, #0
 2457              	.L121:
 663:..\..\src/disk.c **** 				if (scsiBusy && sdBusy)
 2458              		.loc 2 663 0 discriminator 6
 2459 0314 7B63     		str	r3, [r7, #52]
 664:..\..\src/disk.c **** 				{
 2460              		.loc 2 664 0 is_stmt 1 discriminator 6
 2461 0316 BB6B     		ldr	r3, [r7, #56]
 2462 0318 002B     		cmp	r3, #0
 2463 031a 03D0     		beq	.L122
 664:..\..\src/disk.c **** 				{
 2464              		.loc 2 664 0 is_stmt 0 discriminator 1
 2465 031c 7B6B     		ldr	r3, [r7, #52]
 2466 031e 002B     		cmp	r3, #0
 2467 0320 00D0     		beq	.L122
 666:..\..\src/disk.c **** 				}
 2468              		.loc 2 666 0 is_stmt 1
 2469              		.syntax unified
 2470              	@ 666 "..\..\src\disk.c" 1
 2471 0322 30BF     		wfi
 2472              	@ 0 "" 2
 2473              		.thumb
 2474              		.syntax unified
 2475              	.L122:
 668:..\..\src/disk.c **** 			}
 2476              		.loc 2 668 0
 2477 0324 FB7A     		ldrb	r3, [r7, #11]	@ zero_extendqisi2
 2478 0326 1846     		mov	r0, r3
 2479 0328 FFF7FEFF 		bl	CyExitCriticalSection
 2480              	.L115:
 2481              	.LBE22:
 659:..\..\src/disk.c **** 			{
 2482              		.loc 2 659 0
 2483 032c BB6B     		ldr	r3, [r7, #56]
 2484 032e 002B     		cmp	r3, #0
 2485 0330 02D0     		beq	.L123
 659:..\..\src/disk.c **** 			{
 2486              		.loc 2 659 0 is_stmt 0 discriminator 1
 2487 0332 7B6B     		ldr	r3, [r7, #52]
 2488 0334 002B     		cmp	r3, #0
 2489 0336 CED1     		bne	.L124
 2490              	.L123:
 671:..\..\src/disk.c **** 			{
 2491              		.loc 2 671 0 is_stmt 1
 2492 0338 FB6B     		ldr	r3, [r7, #60]
 2493 033a 002B     		cmp	r3, #0
 2494 033c 0CD0     		beq	.L125
ARM GAS  C:\Users\r\AppData\Local\Temp\ccBAatSA.s 			page 62


 671:..\..\src/disk.c **** 			{
 2495              		.loc 2 671 0 is_stmt 0 discriminator 1
 2496 033e 7B6B     		ldr	r3, [r7, #52]
 2497 0340 002B     		cmp	r3, #0
 2498 0342 09D1     		bne	.L125
 671:..\..\src/disk.c **** 			{
 2499              		.loc 2 671 0 discriminator 2
 2500 0344 FFF7FEFF 		bl	sdWriteSectorDMAPoll
 2501 0348 0346     		mov	r3, r0
 2502 034a 002B     		cmp	r3, #0
 2503 034c 04D0     		beq	.L125
 673:..\..\src/disk.c **** 				i++;
 2504              		.loc 2 673 0 is_stmt 1
 2505 034e 0023     		movs	r3, #0
 2506 0350 FB63     		str	r3, [r7, #60]
 674:..\..\src/disk.c **** 			}
 2507              		.loc 2 674 0
 2508 0352 7B6D     		ldr	r3, [r7, #84]
 2509 0354 0133     		adds	r3, r3, #1
 2510 0356 7B65     		str	r3, [r7, #84]
 2511              	.L125:
 676:..\..\src/disk.c **** 			{
 2512              		.loc 2 676 0
 2513 0358 FB6B     		ldr	r3, [r7, #60]
 2514 035a 002B     		cmp	r3, #0
 2515 035c 17D1     		bne	.L126
 676:..\..\src/disk.c **** 			{
 2516              		.loc 2 676 0 is_stmt 0 discriminator 1
 2517 035e BA6D     		ldr	r2, [r7, #88]
 2518 0360 7B6D     		ldr	r3, [r7, #84]
 2519 0362 D31A     		subs	r3, r2, r3
 2520 0364 002B     		cmp	r3, #0
 2521 0366 12DD     		ble	.L126
 679:..\..\src/disk.c **** 				sdActive = 1;
 2522              		.loc 2 679 0 is_stmt 1
 2523 0368 7B6D     		ldr	r3, [r7, #84]
 2524 036a FA68     		ldr	r2, [r7, #12]
 2525 036c 93FBF2F2 		sdiv	r2, r3, r2
 2526 0370 F968     		ldr	r1, [r7, #12]
 2527 0372 01FB02F2 		mul	r2, r1, r2
 2528 0376 9B1A     		subs	r3, r3, r2
 2529 0378 5B02     		lsls	r3, r3, #9
 2530 037a 03F5BC73 		add	r3, r3, #376
 2531 037e 6D4A     		ldr	r2, .L148+16
 2532 0380 1344     		add	r3, r3, r2
 2533 0382 0433     		adds	r3, r3, #4
 2534 0384 1846     		mov	r0, r3
 2535 0386 FFF7FEFF 		bl	sdWriteMultiSectorDMA
 680:..\..\src/disk.c **** 			}
 2536              		.loc 2 680 0
 2537 038a 0123     		movs	r3, #1
 2538 038c FB63     		str	r3, [r7, #60]
 2539              	.L126:
 683:..\..\src/disk.c **** 
 2540              		.loc 2 683 0
 2541 038e FFF7FEFF 		bl	getTime_ms
 2542 0392 7860     		str	r0, [r7, #4]
ARM GAS  C:\Users\r\AppData\Local\Temp\ccBAatSA.s 			page 63


 685:..\..\src/disk.c **** 			{
 2543              		.loc 2 685 0
 2544 0394 3B6C     		ldr	r3, [r7, #64]
 2545 0396 002B     		cmp	r3, #0
 2546 0398 0ED0     		beq	.L127
 685:..\..\src/disk.c **** 			{
 2547              		.loc 2 685 0 is_stmt 0 discriminator 1
 2548 039a BB6B     		ldr	r3, [r7, #56]
 2549 039c 002B     		cmp	r3, #0
 2550 039e 0BD1     		bne	.L127
 685:..\..\src/disk.c **** 			{
 2551              		.loc 2 685 0 discriminator 2
 2552 03a0 FFF7FEFF 		bl	scsiReadDMAPoll
 2553 03a4 0346     		mov	r3, r0
 2554 03a6 002B     		cmp	r3, #0
 2555 03a8 06D0     		beq	.L127
 687:..\..\src/disk.c **** 				++prep;
 2556              		.loc 2 687 0 is_stmt 1
 2557 03aa 0023     		movs	r3, #0
 2558 03ac 3B64     		str	r3, [r7, #64]
 688:..\..\src/disk.c **** 				lastActivityTime = now;
 2559              		.loc 2 688 0
 2560 03ae BB6D     		ldr	r3, [r7, #88]
 2561 03b0 0133     		adds	r3, r3, #1
 2562 03b2 BB65     		str	r3, [r7, #88]
 689:..\..\src/disk.c **** 			}
 2563              		.loc 2 689 0
 2564 03b4 7B68     		ldr	r3, [r7, #4]
 2565 03b6 7B64     		str	r3, [r7, #68]
 2566              	.L127:
 691:..\..\src/disk.c **** 				((prep - i) < buffers) &&
 2567              		.loc 2 691 0
 2568 03b8 3B6C     		ldr	r3, [r7, #64]
 2569 03ba 002B     		cmp	r3, #0
 2570 03bc 40D1     		bne	.L128
 692:..\..\src/disk.c **** 				(prep < totalSDSectors) &&
 2571              		.loc 2 692 0 discriminator 1
 2572 03be BA6D     		ldr	r2, [r7, #88]
 2573 03c0 7B6D     		ldr	r3, [r7, #84]
 2574 03c2 D21A     		subs	r2, r2, r3
 691:..\..\src/disk.c **** 				((prep - i) < buffers) &&
 2575              		.loc 2 691 0 discriminator 1
 2576 03c4 FB68     		ldr	r3, [r7, #12]
 2577 03c6 9A42     		cmp	r2, r3
 2578 03c8 3ADA     		bge	.L128
 692:..\..\src/disk.c **** 				(prep < totalSDSectors) &&
 2579              		.loc 2 692 0
 2580 03ca BA6D     		ldr	r2, [r7, #88]
 2581 03cc 3B69     		ldr	r3, [r7, #16]
 2582 03ce 9A42     		cmp	r2, r3
 2583 03d0 36DA     		bge	.L128
 694:..\..\src/disk.c **** 			{
 2584              		.loc 2 694 0
 2585 03d2 3B6D     		ldr	r3, [r7, #80]
 2586 03d4 002B     		cmp	r3, #0
 2587 03d6 0CBF     		ite	eq
 2588 03d8 0123     		moveq	r3, #1
ARM GAS  C:\Users\r\AppData\Local\Temp\ccBAatSA.s 			page 64


 2589 03da 0023     		movne	r3, #0
 2590 03dc DBB2     		uxtb	r3, r3
 693:..\..\src/disk.c **** 				likely(!scsiDisconnected))
 2591              		.loc 2 693 0
 2592 03de 002B     		cmp	r3, #0
 2593 03e0 2ED0     		beq	.L128
 2594              	.LBB23:
 696:..\..\src/disk.c **** 				if ((prep % sdPerScsi) == (sdPerScsi - 1))
 2595              		.loc 2 696 0
 2596 03e2 4FF40073 		mov	r3, #512
 2597 03e6 3B63     		str	r3, [r7, #48]
 697:..\..\src/disk.c **** 				{
 2598              		.loc 2 697 0
 2599 03e8 BB6D     		ldr	r3, [r7, #88]
 2600 03ea 7A69     		ldr	r2, [r7, #20]
 2601 03ec 93FBF2F2 		sdiv	r2, r3, r2
 2602 03f0 7969     		ldr	r1, [r7, #20]
 2603 03f2 01FB02F2 		mul	r2, r1, r2
 2604 03f6 9A1A     		subs	r2, r3, r2
 2605 03f8 7B69     		ldr	r3, [r7, #20]
 2606 03fa 013B     		subs	r3, r3, #1
 2607 03fc 9A42     		cmp	r2, r3
 2608 03fe 09D1     		bne	.L129
 699:..\..\src/disk.c **** 					if (dmaBytes == 0) dmaBytes = SD_SECTOR_SIZE;
 2609              		.loc 2 699 0
 2610 0400 FB6A     		ldr	r3, [r7, #44]
 2611 0402 C3F30803 		ubfx	r3, r3, #0, #9
 2612 0406 3B63     		str	r3, [r7, #48]
 700:..\..\src/disk.c **** 				}
 2613              		.loc 2 700 0
 2614 0408 3B6B     		ldr	r3, [r7, #48]
 2615 040a 002B     		cmp	r3, #0
 2616 040c 02D1     		bne	.L129
 700:..\..\src/disk.c **** 				}
 2617              		.loc 2 700 0 is_stmt 0 discriminator 1
 2618 040e 4FF40073 		mov	r3, #512
 2619 0412 3B63     		str	r3, [r7, #48]
 2620              	.L129:
 702:..\..\src/disk.c **** 				scsiActive = 1;
 2621              		.loc 2 702 0 is_stmt 1
 2622 0414 BB6D     		ldr	r3, [r7, #88]
 2623 0416 FA68     		ldr	r2, [r7, #12]
 2624 0418 93FBF2F2 		sdiv	r2, r3, r2
 2625 041c F968     		ldr	r1, [r7, #12]
 2626 041e 01FB02F2 		mul	r2, r1, r2
 2627 0422 9B1A     		subs	r3, r3, r2
 2628 0424 5B02     		lsls	r3, r3, #9
 2629 0426 03F5BC73 		add	r3, r3, #376
 2630 042a 424A     		ldr	r2, .L148+16
 2631 042c 1344     		add	r3, r3, r2
 2632 042e 0433     		adds	r3, r3, #4
 2633 0430 3A6B     		ldr	r2, [r7, #48]
 2634 0432 1146     		mov	r1, r2
 2635 0434 1846     		mov	r0, r3
 2636 0436 FFF7FEFF 		bl	scsiReadDMA
 703:..\..\src/disk.c **** 			}
 2637              		.loc 2 703 0
ARM GAS  C:\Users\r\AppData\Local\Temp\ccBAatSA.s 			page 65


 2638 043a 0123     		movs	r3, #1
 2639 043c 3B64     		str	r3, [r7, #64]
 2640              	.LBE23:
 695:..\..\src/disk.c **** 				int dmaBytes = SD_SECTOR_SIZE;
 2641              		.loc 2 695 0
 2642 043e C4E0     		b	.L114
 2643              	.L128:
 706:..\..\src/disk.c **** 				(scsiActive == 0) &&
 2644              		.loc 2 706 0
 2645 0440 3C4B     		ldr	r3, .L148+16
 2646 0442 93F86830 		ldrb	r3, [r3, #104]	@ zero_extendqisi2
 2647 0446 03F02003 		and	r3, r3, #32
 705:..\..\src/disk.c **** 				(scsiDev.boardCfg.flags & CONFIG_ENABLE_DISCONNECT) &&
 2648              		.loc 2 705 0
 2649 044a 002B     		cmp	r3, #0
 2650 044c 34D0     		beq	.L130
 706:..\..\src/disk.c **** 				(scsiActive == 0) &&
 2651              		.loc 2 706 0
 2652 044e 3B6C     		ldr	r3, [r7, #64]
 2653 0450 002B     		cmp	r3, #0
 2654 0452 31D1     		bne	.L130
 708:..\..\src/disk.c **** 				unlikely(scsiDev.discPriv) &&
 2655              		.loc 2 708 0
 2656 0454 3B6D     		ldr	r3, [r7, #80]
 2657 0456 002B     		cmp	r3, #0
 2658 0458 0CBF     		ite	eq
 2659 045a 0123     		moveq	r3, #1
 2660 045c 0023     		movne	r3, #0
 2661 045e DBB2     		uxtb	r3, r3
 707:..\..\src/disk.c **** 				likely(!scsiDisconnected) &&
 2662              		.loc 2 707 0
 2663 0460 002B     		cmp	r3, #0
 2664 0462 29D0     		beq	.L130
 709:..\..\src/disk.c **** 				unlikely(diffTime_ms(lastActivityTime, now) >= 20) &&
 2665              		.loc 2 709 0
 2666 0464 334B     		ldr	r3, .L148+16
 2667 0466 03F58343 		add	r3, r3, #16768
 2668 046a 1633     		adds	r3, r3, #22
 2669 046c 1B78     		ldrb	r3, [r3]	@ zero_extendqisi2
 2670 046e 002B     		cmp	r3, #0
 2671 0470 14BF     		ite	ne
 2672 0472 0123     		movne	r3, #1
 2673 0474 0023     		moveq	r3, #0
 2674 0476 DBB2     		uxtb	r3, r3
 708:..\..\src/disk.c **** 				unlikely(scsiDev.discPriv) &&
 2675              		.loc 2 708 0
 2676 0478 002B     		cmp	r3, #0
 2677 047a 1DD0     		beq	.L130
 710:..\..\src/disk.c **** 				likely(scsiDev.phase == DATA_OUT))
 2678              		.loc 2 710 0
 2679 047c 7968     		ldr	r1, [r7, #4]
 2680 047e 786C     		ldr	r0, [r7, #68]
 2681 0480 FFF7FEFF 		bl	diffTime_ms
 2682 0484 0346     		mov	r3, r0
 2683 0486 132B     		cmp	r3, #19
 2684 0488 8CBF     		ite	hi
 2685 048a 0123     		movhi	r3, #1
ARM GAS  C:\Users\r\AppData\Local\Temp\ccBAatSA.s 			page 66


 2686 048c 0023     		movls	r3, #0
 2687 048e DBB2     		uxtb	r3, r3
 709:..\..\src/disk.c **** 				unlikely(diffTime_ms(lastActivityTime, now) >= 20) &&
 2688              		.loc 2 709 0
 2689 0490 002B     		cmp	r3, #0
 2690 0492 11D0     		beq	.L130
 711:..\..\src/disk.c **** 			{
 2691              		.loc 2 711 0
 2692 0494 274B     		ldr	r3, .L148+16
 2693 0496 D3F87831 		ldr	r3, [r3, #376]
 2694 049a 002B     		cmp	r3, #0
 2695 049c 0CBF     		ite	eq
 2696 049e 0123     		moveq	r3, #1
 2697 04a0 0023     		movne	r3, #0
 2698 04a2 DBB2     		uxtb	r3, r3
 710:..\..\src/disk.c **** 				likely(scsiDev.phase == DATA_OUT))
 2699              		.loc 2 710 0
 2700 04a4 002B     		cmp	r3, #0
 2701 04a6 07D0     		beq	.L130
 720:..\..\src/disk.c **** 				scsiDisconnected = 1;
 2702              		.loc 2 720 0
 2703 04a8 FFF7FEFF 		bl	scsiDisconnect
 721:..\..\src/disk.c **** 				lastActivityTime = getTime_ms();
 2704              		.loc 2 721 0
 2705 04ac 0123     		movs	r3, #1
 2706 04ae 3B65     		str	r3, [r7, #80]
 722:..\..\src/disk.c **** 			}
 2707              		.loc 2 722 0
 2708 04b0 FFF7FEFF 		bl	getTime_ms
 2709 04b4 7864     		str	r0, [r7, #68]
 2710 04b6 88E0     		b	.L114
 2711              	.L130:
 724:..\..\src/disk.c **** 				(
 2712              		.loc 2 724 0
 2713 04b8 3B6D     		ldr	r3, [r7, #80]
 2714 04ba 002B     		cmp	r3, #0
 2715 04bc 14BF     		ite	ne
 2716 04be 0123     		movne	r3, #1
 2717 04c0 0023     		moveq	r3, #0
 2718 04c2 DBB2     		uxtb	r3, r3
 2719 04c4 002B     		cmp	r3, #0
 2720 04c6 37D0     		beq	.L131
 724:..\..\src/disk.c **** 				(
 2721              		.loc 2 724 0 is_stmt 0 discriminator 1
 2722 04c8 BA6D     		ldr	r2, [r7, #88]
 2723 04ca 7B6D     		ldr	r3, [r7, #84]
 2724 04cc 9A42     		cmp	r2, r3
 2725 04ce 0BD0     		beq	.L132
 729:..\..\src/disk.c **** 				))
 2726              		.loc 2 729 0 is_stmt 1
 2727 04d0 7968     		ldr	r1, [r7, #4]
 2728 04d2 786C     		ldr	r0, [r7, #68]
 2729 04d4 FFF7FEFF 		bl	diffTime_ms
 2730 04d8 0346     		mov	r3, r0
 2731 04da 632B     		cmp	r3, #99
 2732 04dc 8CBF     		ite	hi
 2733 04de 0123     		movhi	r3, #1
ARM GAS  C:\Users\r\AppData\Local\Temp\ccBAatSA.s 			page 67


 2734 04e0 0023     		movls	r3, #0
 2735 04e2 DBB2     		uxtb	r3, r3
 726:..\..\src/disk.c **** 					// Send some messages every 100ms so we don't timeout.
 2736              		.loc 2 726 0
 2737 04e4 002B     		cmp	r3, #0
 2738 04e6 27D0     		beq	.L131
 2739              	.L132:
 2740              	.LBB24:
 732:..\..\src/disk.c **** 				if (reconnected)
 2741              		.loc 2 732 0
 2742 04e8 FFF7FEFF 		bl	scsiReconnect
 2743 04ec 3860     		str	r0, [r7]
 733:..\..\src/disk.c **** 				{
 2744              		.loc 2 733 0
 2745 04ee 3B68     		ldr	r3, [r7]
 2746 04f0 002B     		cmp	r3, #0
 2747 04f2 05D0     		beq	.L133
 735:..\..\src/disk.c **** 					lastActivityTime = getTime_ms(); // Don't disconnect immediately.
 2748              		.loc 2 735 0
 2749 04f4 0023     		movs	r3, #0
 2750 04f6 3B65     		str	r3, [r7, #80]
 736:..\..\src/disk.c **** 				}
 2751              		.loc 2 736 0
 2752 04f8 FFF7FEFF 		bl	getTime_ms
 2753 04fc 7864     		str	r0, [r7, #68]
 2754 04fe 64E0     		b	.L114
 2755              	.L133:
 738:..\..\src/disk.c **** 				{
 2756              		.loc 2 738 0
 2757 0500 FFF7FEFF 		bl	getTime_ms
 2758 0504 0346     		mov	r3, r0
 2759 0506 1946     		mov	r1, r3
 2760 0508 786C     		ldr	r0, [r7, #68]
 2761 050a FFF7FEFF 		bl	diffTime_ms
 2762 050e 0246     		mov	r2, r0
 2763 0510 42F20F73 		movw	r3, #9999
 2764 0514 9A42     		cmp	r2, r3
 2765 0516 58D9     		bls	.L114
 741:..\..\src/disk.c **** 				}
 2766              		.loc 2 741 0
 2767 0518 064B     		ldr	r3, .L148+16
 2768 051a 0122     		movs	r2, #1
 2769 051c C3F86821 		str	r2, [r3, #360]
 2770              	.LBE24:
 731:..\..\src/disk.c **** 				int reconnected = scsiReconnect();
 2771              		.loc 2 731 0
 2772 0520 53E0     		b	.L114
 2773              	.L149:
 2774 0522 00BF     		.align	2
 2775              	.L148:
 2776 0524 00000000 		.word	scsiRxDMAComplete
 2777 0528 00000000 		.word	scsiTxDMAComplete
 2778 052c 00000000 		.word	sdRxDMAComplete
 2779 0530 00000000 		.word	sdTxDMAComplete
 2780 0534 00000000 		.word	scsiDev
 2781              	.L131:
 745:..\..\src/disk.c **** 				(sdActive == 1) &&
ARM GAS  C:\Users\r\AppData\Local\Temp\ccBAatSA.s 			page 68


 2782              		.loc 2 745 0
 2783 0538 FB6C     		ldr	r3, [r7, #76]
 2784 053a 002B     		cmp	r3, #0
 2785 053c 0CBF     		ite	eq
 2786 053e 0123     		moveq	r3, #1
 2787 0540 0023     		movne	r3, #0
 2788 0542 DBB2     		uxtb	r3, r3
 744:..\..\src/disk.c **** 				likely(!scsiComplete) &&
 2789              		.loc 2 744 0
 2790 0544 002B     		cmp	r3, #0
 2791 0546 40D0     		beq	.L114
 745:..\..\src/disk.c **** 				(sdActive == 1) &&
 2792              		.loc 2 745 0
 2793 0548 FB6B     		ldr	r3, [r7, #60]
 2794 054a 012B     		cmp	r3, #1
 2795 054c 3DD1     		bne	.L114
 746:..\..\src/disk.c **** 				(prep == totalSDSectors) && // All scsi data read and buffered
 2796              		.loc 2 746 0
 2797 054e BA6D     		ldr	r2, [r7, #88]
 2798 0550 3B69     		ldr	r3, [r7, #16]
 2799 0552 9A42     		cmp	r2, r3
 2800 0554 39D1     		bne	.L114
 748:..\..\src/disk.c **** 				unlikely(diffTime_ms(lastActivityTime, now) >= 150) &&
 2801              		.loc 2 748 0
 2802 0556 594B     		ldr	r3, .L150
 2803 0558 03F58343 		add	r3, r3, #16768
 2804 055c 1633     		adds	r3, r3, #22
 2805 055e 1B78     		ldrb	r3, [r3]	@ zero_extendqisi2
 2806 0560 002B     		cmp	r3, #0
 2807 0562 0CBF     		ite	eq
 2808 0564 0123     		moveq	r3, #1
 2809 0566 0023     		movne	r3, #0
 2810 0568 DBB2     		uxtb	r3, r3
 747:..\..\src/disk.c **** 				likely(!scsiDev.discPriv) && // Prefer disconnect where possible.
 2811              		.loc 2 747 0
 2812 056a 002B     		cmp	r3, #0
 2813 056c 2DD0     		beq	.L114
 749:..\..\src/disk.c **** 
 2814              		.loc 2 749 0
 2815 056e 7968     		ldr	r1, [r7, #4]
 2816 0570 786C     		ldr	r0, [r7, #68]
 2817 0572 FFF7FEFF 		bl	diffTime_ms
 2818 0576 0346     		mov	r3, r0
 2819 0578 952B     		cmp	r3, #149
 2820 057a 8CBF     		ite	hi
 2821 057c 0123     		movhi	r3, #1
 2822 057e 0023     		movls	r3, #0
 2823 0580 DBB2     		uxtb	r3, r3
 748:..\..\src/disk.c **** 				unlikely(diffTime_ms(lastActivityTime, now) >= 150) &&
 2824              		.loc 2 748 0
 2825 0582 002B     		cmp	r3, #0
 2826 0584 21D0     		beq	.L114
 751:..\..\src/disk.c **** 				!(scsiDev.cdb[scsiDev.cdbLen - 1] & 0x01) // Not linked command
 2827              		.loc 2 751 0
 2828 0586 4D4B     		ldr	r3, .L150
 2829 0588 D3F87831 		ldr	r3, [r3, #376]
 2830 058c 002B     		cmp	r3, #0
ARM GAS  C:\Users\r\AppData\Local\Temp\ccBAatSA.s 			page 69


 2831 058e 0CBF     		ite	eq
 2832 0590 0123     		moveq	r3, #1
 2833 0592 0023     		movne	r3, #0
 2834 0594 DBB2     		uxtb	r3, r3
 749:..\..\src/disk.c **** 
 2835              		.loc 2 749 0
 2836 0596 002B     		cmp	r3, #0
 2837 0598 17D0     		beq	.L114
 752:..\..\src/disk.c **** 				)
 2838              		.loc 2 752 0
 2839 059a 484B     		ldr	r3, .L150
 2840 059c 03F58343 		add	r3, r3, #16768
 2841 05a0 1433     		adds	r3, r3, #20
 2842 05a2 1B78     		ldrb	r3, [r3]	@ zero_extendqisi2
 2843 05a4 013B     		subs	r3, r3, #1
 2844 05a6 454A     		ldr	r2, .L150
 2845 05a8 1344     		add	r3, r3, r2
 2846 05aa 03F58343 		add	r3, r3, #16768
 2847 05ae 0833     		adds	r3, r3, #8
 2848 05b0 1B78     		ldrb	r3, [r3]	@ zero_extendqisi2
 2849 05b2 03F00103 		and	r3, r3, #1
 751:..\..\src/disk.c **** 				!(scsiDev.cdb[scsiDev.cdbLen - 1] & 0x01) // Not linked command
 2850              		.loc 2 751 0
 2851 05b6 002B     		cmp	r3, #0
 2852 05b8 07D1     		bne	.L114
 762:..\..\src/disk.c **** 
 2853              		.loc 2 762 0
 2854 05ba 0123     		movs	r3, #1
 2855 05bc FB64     		str	r3, [r7, #76]
 764:..\..\src/disk.c **** 				clearBSY = process_MessageIn(0); // Will go to BUS_FREE state but keeps BSY asserted
 2856              		.loc 2 764 0
 2857 05be FFF7FEFF 		bl	process_Status
 765:..\..\src/disk.c **** 			}
 2858              		.loc 2 765 0
 2859 05c2 0020     		movs	r0, #0
 2860 05c4 FFF7FEFF 		bl	process_MessageIn
 2861 05c8 B864     		str	r0, [r7, #72]
 2862              	.L114:
 2863              	.LBE21:
 649:..\..\src/disk.c **** 			(likely(scsiDev.phase == DATA_OUT) || // scsiDisconnect keeps our phase.
 2864              		.loc 2 649 0
 2865 05ca 7A6D     		ldr	r2, [r7, #84]
 2866 05cc 3B69     		ldr	r3, [r7, #16]
 2867 05ce 9A42     		cmp	r2, r3
 2868 05d0 17DA     		bge	.L135
 650:..\..\src/disk.c **** 				scsiComplete) &&
 2869              		.loc 2 650 0 discriminator 1
 2870 05d2 3A4B     		ldr	r3, .L150
 2871 05d4 D3F87831 		ldr	r3, [r3, #376]
 2872 05d8 002B     		cmp	r3, #0
 2873 05da 0CBF     		ite	eq
 2874 05dc 0123     		moveq	r3, #1
 2875 05de 0023     		movne	r3, #0
 2876 05e0 DBB2     		uxtb	r3, r3
 649:..\..\src/disk.c **** 			(likely(scsiDev.phase == DATA_OUT) || // scsiDisconnect keeps our phase.
 2877              		.loc 2 649 0 discriminator 1
 2878 05e2 002B     		cmp	r3, #0
ARM GAS  C:\Users\r\AppData\Local\Temp\ccBAatSA.s 			page 70


 2879 05e4 02D1     		bne	.L136
 650:..\..\src/disk.c **** 				scsiComplete) &&
 2880              		.loc 2 650 0
 2881 05e6 FB6C     		ldr	r3, [r7, #76]
 2882 05e8 002B     		cmp	r3, #0
 2883 05ea 0AD0     		beq	.L135
 2884              	.L136:
 652:..\..\src/disk.c **** 		{
 2885              		.loc 2 652 0
 2886 05ec 334B     		ldr	r3, .L150
 2887 05ee D3F86831 		ldr	r3, [r3, #360]
 2888 05f2 002B     		cmp	r3, #0
 2889 05f4 0CBF     		ite	eq
 2890 05f6 0123     		moveq	r3, #1
 2891 05f8 0023     		movne	r3, #0
 2892 05fa DBB2     		uxtb	r3, r3
 651:..\..\src/disk.c **** 			likely(!scsiDev.resetFlag))
 2893              		.loc 2 651 0
 2894 05fc 002B     		cmp	r3, #0
 2895 05fe 7FF465AE 		bne	.L137
 2896              	.L135:
 769:..\..\src/disk.c **** 		{
 2897              		.loc 2 769 0
 2898 0602 BB6C     		ldr	r3, [r7, #72]
 2899 0604 002B     		cmp	r3, #0
 2900 0606 0BD0     		beq	.L139
 771:..\..\src/disk.c **** 		}
 2901              		.loc 2 771 0
 2902 0608 FFF7FEFF 		bl	enter_BusFree
 773:..\..\src/disk.c **** 			!scsiDev.resetFlag &&
 2903              		.loc 2 773 0
 2904 060c 08E0     		b	.L139
 2905              	.L141:
 778:..\..\src/disk.c **** 		}
 2906              		.loc 2 778 0
 2907 060e FFF7FEFF 		bl	scsiReconnect
 2908 0612 0346     		mov	r3, r0
 2909 0614 002B     		cmp	r3, #0
 2910 0616 0CBF     		ite	eq
 2911 0618 0123     		moveq	r3, #1
 2912 061a 0023     		movne	r3, #0
 2913 061c DBB2     		uxtb	r3, r3
 2914 061e 3B65     		str	r3, [r7, #80]
 2915              	.L139:
 774:..\..\src/disk.c **** 			unlikely(scsiDisconnected) &&
 2916              		.loc 2 774 0
 2917 0620 264B     		ldr	r3, .L150
 2918 0622 D3F86831 		ldr	r3, [r3, #360]
 773:..\..\src/disk.c **** 			!scsiDev.resetFlag &&
 2919              		.loc 2 773 0
 2920 0626 002B     		cmp	r3, #0
 2921 0628 0FD1     		bne	.L140
 775:..\..\src/disk.c **** 			(elapsedTime_ms(lastActivityTime) <= 10000))
 2922              		.loc 2 775 0
 2923 062a 3B6D     		ldr	r3, [r7, #80]
 2924 062c 002B     		cmp	r3, #0
 2925 062e 14BF     		ite	ne
ARM GAS  C:\Users\r\AppData\Local\Temp\ccBAatSA.s 			page 71


 2926 0630 0123     		movne	r3, #1
 2927 0632 0023     		moveq	r3, #0
 2928 0634 DBB2     		uxtb	r3, r3
 774:..\..\src/disk.c **** 			unlikely(scsiDisconnected) &&
 2929              		.loc 2 774 0
 2930 0636 002B     		cmp	r3, #0
 2931 0638 07D0     		beq	.L140
 776:..\..\src/disk.c **** 		{
 2932              		.loc 2 776 0
 2933 063a 786C     		ldr	r0, [r7, #68]
 2934 063c FFF7FEFF 		bl	elapsedTime_ms
 2935 0640 0246     		mov	r2, r0
 775:..\..\src/disk.c **** 			(elapsedTime_ms(lastActivityTime) <= 10000))
 2936              		.loc 2 775 0
 2937 0642 42F21073 		movw	r3, #10000
 2938 0646 9A42     		cmp	r2, r3
 2939 0648 E1D9     		bls	.L141
 2940              	.L140:
 780:..\..\src/disk.c **** 		{
 2941              		.loc 2 780 0
 2942 064a 3B6D     		ldr	r3, [r7, #80]
 2943 064c 002B     		cmp	r3, #0
 2944 064e 03D0     		beq	.L142
 783:..\..\src/disk.c **** 		}
 2945              		.loc 2 783 0
 2946 0650 1A4B     		ldr	r3, .L150
 2947 0652 0122     		movs	r2, #1
 2948 0654 C3F86821 		str	r2, [r3, #360]
 2949              	.L142:
 786:..\..\src/disk.c **** 		{
 2950              		.loc 2 786 0
 2951 0658 184B     		ldr	r3, .L150
 2952 065a D3F87831 		ldr	r3, [r3, #376]
 2953 065e 002B     		cmp	r3, #0
 2954 0660 25D1     		bne	.L143
 788:..\..\src/disk.c **** 				(scsiDev.boardCfg.flags & CONFIG_ENABLE_PARITY) &&
 2955              		.loc 2 788 0
 2956 0662 164B     		ldr	r3, .L150
 2957 0664 D3F87031 		ldr	r3, [r3, #368]
 2958 0668 002B     		cmp	r3, #0
 2959 066a 1CD0     		beq	.L144
 789:..\..\src/disk.c **** 				(scsiDev.compatMode >= COMPAT_SCSI2))
 2960              		.loc 2 789 0 discriminator 1
 2961 066c 134B     		ldr	r3, .L150
 2962 066e 93F86830 		ldrb	r3, [r3, #104]	@ zero_extendqisi2
 2963 0672 03F00203 		and	r3, r3, #2
 788:..\..\src/disk.c **** 				(scsiDev.boardCfg.flags & CONFIG_ENABLE_PARITY) &&
 2964              		.loc 2 788 0 discriminator 1
 2965 0676 002B     		cmp	r3, #0
 2966 0678 15D0     		beq	.L144
 790:..\..\src/disk.c **** 			{
 2967              		.loc 2 790 0
 2968 067a 104B     		ldr	r3, .L150
 2969 067c 03F58343 		add	r3, r3, #16768
 2970 0680 1733     		adds	r3, r3, #23
 2971 0682 1B78     		ldrb	r3, [r3]	@ zero_extendqisi2
 789:..\..\src/disk.c **** 				(scsiDev.compatMode >= COMPAT_SCSI2))
ARM GAS  C:\Users\r\AppData\Local\Temp\ccBAatSA.s 			page 72


 2972              		.loc 2 789 0
 2973 0684 022B     		cmp	r3, #2
 2974 0686 0ED9     		bls	.L144
 792:..\..\src/disk.c **** 				scsiDev.target->sense.asc = SCSI_PARITY_ERROR;
 2975              		.loc 2 792 0
 2976 0688 0C4B     		ldr	r3, .L150
 2977 068a 1B6E     		ldr	r3, [r3, #96]
 2978 068c 0B22     		movs	r2, #11
 2979 068e 9A72     		strb	r2, [r3, #10]
 793:..\..\src/disk.c **** 				scsiDev.status = CHECK_CONDITION;;
 2980              		.loc 2 793 0
 2981 0690 0A4B     		ldr	r3, .L150
 2982 0692 1B6E     		ldr	r3, [r3, #96]
 2983 0694 4FF48E42 		mov	r2, #18176
 2984 0698 9A81     		strh	r2, [r3, #12]	@ movhi
 794:..\..\src/disk.c **** 			}
 2985              		.loc 2 794 0
 2986 069a 084B     		ldr	r3, .L150
 2987 069c 03F58343 		add	r3, r3, #16768
 2988 06a0 1C33     		adds	r3, r3, #28
 2989 06a2 0222     		movs	r2, #2
 2990 06a4 1A70     		strb	r2, [r3]
 2991              	.L144:
 796:..\..\src/disk.c **** 		}
 2992              		.loc 2 796 0
 2993 06a6 054B     		ldr	r3, .L150
 2994 06a8 0622     		movs	r2, #6
 2995 06aa C3F87821 		str	r2, [r3, #376]
 2996              	.L143:
 798:..\..\src/disk.c **** 	}
 2997              		.loc 2 798 0
 2998 06ae FFF7FEFF 		bl	scsiDiskReset
 2999              	.L145:
 3000              	.LBE20:
 3001              		.loc 2 800 0
 3002 06b2 00BF     		nop
 3003 06b4 7C37     		adds	r7, r7, #124
 3004              		.cfi_def_cfa_offset 12
 3005 06b6 BD46     		mov	sp, r7
 3006              		.cfi_def_cfa_register 13
 3007              		@ sp needed
 3008 06b8 90BD     		pop	{r4, r7, pc}
 3009              	.L151:
 3010 06ba 00BF     		.align	2
 3011              	.L150:
 3012 06bc 00000000 		.word	scsiDev
 3013              		.cfi_endproc
 3014              	.LFE75:
 3015              		.size	scsiDiskPoll, .-scsiDiskPoll
 3016              		.section	.text.scsiDiskReset,"ax",%progbits
 3017              		.align	2
 3018              		.global	scsiDiskReset
 3019              		.thumb
 3020              		.thumb_func
 3021              		.type	scsiDiskReset, %function
 3022              	scsiDiskReset:
 3023              	.LFB76:
ARM GAS  C:\Users\r\AppData\Local\Temp\ccBAatSA.s 			page 73


 801:..\..\src/disk.c **** 
 802:..\..\src/disk.c **** void scsiDiskReset()
 803:..\..\src/disk.c **** {
 3024              		.loc 2 803 0
 3025              		.cfi_startproc
 3026              		@ args = 0, pretend = 0, frame = 0
 3027              		@ frame_needed = 1, uses_anonymous_args = 0
 3028 0000 80B5     		push	{r7, lr}
 3029              		.cfi_def_cfa_offset 8
 3030              		.cfi_offset 7, -8
 3031              		.cfi_offset 14, -4
 3032 0002 00AF     		add	r7, sp, #0
 3033              		.cfi_def_cfa_register 7
 804:..\..\src/disk.c **** 	scsiDev.dataPtr = 0;
 3034              		.loc 2 804 0
 3035 0004 144B     		ldr	r3, .L155
 3036 0006 03F58243 		add	r3, r3, #16640
 3037 000a 7C33     		adds	r3, r3, #124
 3038 000c 0022     		movs	r2, #0
 3039 000e 1A60     		str	r2, [r3]
 805:..\..\src/disk.c **** 	scsiDev.savedDataPtr = 0;
 3040              		.loc 2 805 0
 3041 0010 114B     		ldr	r3, .L155
 3042 0012 03F58343 		add	r3, r3, #16768
 3043 0016 0022     		movs	r2, #0
 3044 0018 1A60     		str	r2, [r3]
 806:..\..\src/disk.c **** 	scsiDev.dataLen = 0;
 3045              		.loc 2 806 0
 3046 001a 0F4B     		ldr	r3, .L155
 3047 001c 03F58343 		add	r3, r3, #16768
 3048 0020 0433     		adds	r3, r3, #4
 3049 0022 0022     		movs	r2, #0
 3050 0024 1A60     		str	r2, [r3]
 807:..\..\src/disk.c **** 	// transfer.lba = 0; // Needed in Request Sense to determine failure
 808:..\..\src/disk.c **** 	transfer.blocks = 0;
 3051              		.loc 2 808 0
 3052 0026 0D4B     		ldr	r3, .L155+4
 3053 0028 0022     		movs	r2, #0
 3054 002a 9A60     		str	r2, [r3, #8]
 809:..\..\src/disk.c **** 	transfer.currentBlock = 0;
 3055              		.loc 2 809 0
 3056 002c 0B4B     		ldr	r3, .L155+4
 3057 002e 0022     		movs	r2, #0
 3058 0030 DA60     		str	r2, [r3, #12]
 810:..\..\src/disk.c **** 
 811:..\..\src/disk.c **** 	// Cancel long running commands!
 812:..\..\src/disk.c **** 	if (
 813:..\..\src/disk.c **** 		((scsiDev.boardCfg.flags & CONFIG_ENABLE_CACHE) == 0) ||
 3059              		.loc 2 813 0
 3060 0032 094B     		ldr	r3, .L155
 3061 0034 93F86830 		ldrb	r3, [r3, #104]	@ zero_extendqisi2
 3062 0038 03F01003 		and	r3, r3, #16
 812:..\..\src/disk.c **** 		((scsiDev.boardCfg.flags & CONFIG_ENABLE_CACHE) == 0) ||
 3063              		.loc 2 812 0
 3064 003c 002B     		cmp	r3, #0
 3065 003e 03D0     		beq	.L153
 814:..\..\src/disk.c **** 			(transfer.multiBlock == 0)
ARM GAS  C:\Users\r\AppData\Local\Temp\ccBAatSA.s 			page 74


 3066              		.loc 2 814 0
 3067 0040 064B     		ldr	r3, .L155+4
 3068 0042 1B68     		ldr	r3, [r3]
 813:..\..\src/disk.c **** 			(transfer.multiBlock == 0)
 3069              		.loc 2 813 0
 3070 0044 002B     		cmp	r3, #0
 3071 0046 01D1     		bne	.L154
 3072              	.L153:
 815:..\..\src/disk.c **** 		)
 816:..\..\src/disk.c **** 	{
 817:..\..\src/disk.c **** 		sdCompleteTransfer();
 3073              		.loc 2 817 0
 3074 0048 FFF7FEFF 		bl	sdCompleteTransfer
 3075              	.L154:
 818:..\..\src/disk.c **** 	}
 819:..\..\src/disk.c **** 
 820:..\..\src/disk.c **** 	transfer.multiBlock = 0;
 3076              		.loc 2 820 0
 3077 004c 034B     		ldr	r3, .L155+4
 3078 004e 0022     		movs	r2, #0
 3079 0050 1A60     		str	r2, [r3]
 821:..\..\src/disk.c **** }
 3080              		.loc 2 821 0
 3081 0052 00BF     		nop
 3082 0054 80BD     		pop	{r7, pc}
 3083              	.L156:
 3084 0056 00BF     		.align	2
 3085              	.L155:
 3086 0058 00000000 		.word	scsiDev
 3087 005c 00000000 		.word	transfer
 3088              		.cfi_endproc
 3089              	.LFE76:
 3090              		.size	scsiDiskReset, .-scsiDiskReset
 3091              		.section	.text.scsiDiskInit,"ax",%progbits
 3092              		.align	2
 3093              		.global	scsiDiskInit
 3094              		.thumb
 3095              		.thumb_func
 3096              		.type	scsiDiskInit, %function
 3097              	scsiDiskInit:
 3098              	.LFB77:
 822:..\..\src/disk.c **** 
 823:..\..\src/disk.c **** void scsiDiskInit()
 824:..\..\src/disk.c **** {
 3099              		.loc 2 824 0
 3100              		.cfi_startproc
 3101              		@ args = 0, pretend = 0, frame = 0
 3102              		@ frame_needed = 1, uses_anonymous_args = 0
 3103 0000 80B5     		push	{r7, lr}
 3104              		.cfi_def_cfa_offset 8
 3105              		.cfi_offset 7, -8
 3106              		.cfi_offset 14, -4
 3107 0002 00AF     		add	r7, sp, #0
 3108              		.cfi_def_cfa_register 7
 825:..\..\src/disk.c **** 	scsiDiskReset();
 3109              		.loc 2 825 0
 3110 0004 FFF7FEFF 		bl	scsiDiskReset
ARM GAS  C:\Users\r\AppData\Local\Temp\ccBAatSA.s 			page 75


 826:..\..\src/disk.c **** 
 827:..\..\src/disk.c **** 	// Don't require the host to send us a START STOP UNIT command
 828:..\..\src/disk.c **** 	blockDev.state = DISK_STARTED;
 3111              		.loc 2 828 0
 3112 0008 024B     		ldr	r3, .L158
 3113 000a 0122     		movs	r2, #1
 3114 000c 1A60     		str	r2, [r3]
 829:..\..\src/disk.c **** 	// WP pin not available for micro-sd
 830:..\..\src/disk.c **** 	// TODO read card WP register
 831:..\..\src/disk.c **** 	#if 0
 832:..\..\src/disk.c **** 	if (SD_WP_Read())
 833:..\..\src/disk.c **** 	{
 834:..\..\src/disk.c **** 		blockDev.state = blockDev.state | DISK_WP;
 835:..\..\src/disk.c **** 	}
 836:..\..\src/disk.c **** 	#endif
 837:..\..\src/disk.c **** }
 3115              		.loc 2 837 0
 3116 000e 00BF     		nop
 3117 0010 80BD     		pop	{r7, pc}
 3118              	.L159:
 3119 0012 00BF     		.align	2
 3120              	.L158:
 3121 0014 00000000 		.word	blockDev
 3122              		.cfi_endproc
 3123              	.LFE77:
 3124              		.size	scsiDiskInit, .-scsiDiskInit
 3125              		.text
 3126              	.Letext0:
 3127              		.file 3 "c:\\program files (x86)\\cypress\\psoc creator\\4.2\\psoc creator\\import\\gnu\\arm\\5.4.
 3128              		.file 4 "c:\\program files (x86)\\cypress\\psoc creator\\4.2\\psoc creator\\import\\gnu\\arm\\5.4.
 3129              		.file 5 "Generated_Source\\PSoC5/cytypes.h"
 3130              		.file 6 "../../../include/scsi2sd.h"
 3131              		.file 7 "..\\..\\src\\sense.h"
 3132              		.file 8 "..\\..\\src\\scsi.h"
 3133              		.file 9 "..\\..\\src\\disk.h"
 3134              		.file 10 "Generated_Source\\PSoC5/core_cm3.h"
 3135              		.file 11 "..\\..\\src\\sd.h"
 3136              		.file 12 "..\\..\\src\\scsiPhy.h"