ARM GAS  C:\Users\r\AppData\Local\Temp\ccBAatSA.s 			page 1


   1              		.syntax unified
   2              		.cpu cortex-m3
   3              		.fpu softvfp
   4              		.eabi_attribute 20, 1
   5              		.eabi_attribute 21, 1
   6              		.eabi_attribute 23, 3
   7              		.eabi_attribute 24, 1
   8              		.eabi_attribute 25, 1
   9              		.eabi_attribute 26, 1
  10              		.eabi_attribute 30, 6
  11              		.eabi_attribute 34, 1
  12              		.eabi_attribute 18, 4
  13              		.thumb
  14              		.syntax unified
  15              		.file	"disk.c"
  16              		.text
  17              	.Ltext0:
  18              		.cfi_sections	.debug_frame
  19              		.section	.text.SDSectorsPerSCSISector,"ax",%progbits
  20              		.align	2
  21              		.thumb
  22              		.thumb_func
  23              		.type	SDSectorsPerSCSISector, %function
  24              	SDSectorsPerSCSISector:
  25              	.LFB63:
  26              		.file 1 "..\\..\\src\\geometry.h"
   1:..\..\src/geometry.h **** //	Copyright (C) 2013 Michael McMaster <michael@codesrc.com>
   2:..\..\src/geometry.h **** //
   3:..\..\src/geometry.h **** //	This file is part of SCSI2SD.
   4:..\..\src/geometry.h **** //
   5:..\..\src/geometry.h **** //	SCSI2SD is free software: you can redistribute it and/or modify
   6:..\..\src/geometry.h **** //	it under the terms of the GNU General Public License as published by
   7:..\..\src/geometry.h **** //	the Free Software Foundation, either version 3 of the License, or
   8:..\..\src/geometry.h **** //	(at your option) any later version.
   9:..\..\src/geometry.h **** //
  10:..\..\src/geometry.h **** //	SCSI2SD is distributed in the hope that it will be useful,
  11:..\..\src/geometry.h **** //	but WITHOUT ANY WARRANTY; without even the implied warranty of
  12:..\..\src/geometry.h **** //	MERCHANTABILITY or FITNESS FOR A PARTICULAR PURPOSE.  See the
  13:..\..\src/geometry.h **** //	GNU General Public License for more details.
  14:..\..\src/geometry.h **** //
  15:..\..\src/geometry.h **** //	You should have received a copy of the GNU General Public License
  16:..\..\src/geometry.h **** //	along with SCSI2SD.  If not, see <http://www.gnu.org/licenses/>.
  17:..\..\src/geometry.h **** #ifndef GEOMETRY_H
  18:..\..\src/geometry.h **** #define GEOMETRY_H
  19:..\..\src/geometry.h **** 
  20:..\..\src/geometry.h **** #include "device.h"
  21:..\..\src/geometry.h **** 
  22:..\..\src/geometry.h **** #include "config.h"
  23:..\..\src/geometry.h **** #include "sd.h"
  24:..\..\src/geometry.h **** 
  25:..\..\src/geometry.h **** typedef enum
  26:..\..\src/geometry.h **** {
  27:..\..\src/geometry.h **** 	ADDRESS_BLOCK = 0,
  28:..\..\src/geometry.h **** 	ADDRESS_PHYSICAL_BYTE = 4,
  29:..\..\src/geometry.h **** 	ADDRESS_PHYSICAL_SECTOR = 5
  30:..\..\src/geometry.h **** } SCSI_ADDRESS_FORMAT;
  31:..\..\src/geometry.h **** 
ARM GAS  C:\Users\r\AppData\Local\Temp\ccBAatSA.s 			page 2


  32:..\..\src/geometry.h **** static inline int SDSectorsPerSCSISector(uint16_t bytesPerSector)
  33:..\..\src/geometry.h **** {
  27              		.loc 1 33 0
  28              		.cfi_startproc
  29              		@ args = 0, pretend = 0, frame = 8
  30              		@ frame_needed = 1, uses_anonymous_args = 0
  31              		@ link register save eliminated.
  32 0000 80B4     		push	{r7}
  33              		.cfi_def_cfa_offset 4
  34              		.cfi_offset 7, -4
  35 0002 83B0     		sub	sp, sp, #12
  36              		.cfi_def_cfa_offset 16
  37 0004 00AF     		add	r7, sp, #0
  38              		.cfi_def_cfa_register 7
  39 0006 0346     		mov	r3, r0
  40 0008 FB80     		strh	r3, [r7, #6]	@ movhi
  34:..\..\src/geometry.h **** 	return (bytesPerSector + SD_SECTOR_SIZE - 1) / SD_SECTOR_SIZE;
  41              		.loc 1 34 0
  42 000a FB88     		ldrh	r3, [r7, #6]
  43 000c 03F2FF13 		addw	r3, r3, #511
  44 0010 002B     		cmp	r3, #0
  45 0012 01DA     		bge	.L2
  46 0014 03F2FF13 		addw	r3, r3, #511
  47              	.L2:
  48 0018 5B12     		asrs	r3, r3, #9
  35:..\..\src/geometry.h **** }
  49              		.loc 1 35 0
  50 001a 1846     		mov	r0, r3
  51 001c 0C37     		adds	r7, r7, #12
  52              		.cfi_def_cfa_offset 4
  53 001e BD46     		mov	sp, r7
  54              		.cfi_def_cfa_register 13
  55              		@ sp needed
  56 0020 80BC     		pop	{r7}
  57              		.cfi_restore 7
  58              		.cfi_def_cfa_offset 0
  59 0022 7047     		bx	lr
  60              		.cfi_endproc
  61              	.LFE63:
  62              		.size	SDSectorsPerSCSISector, .-SDSectorsPerSCSISector
  63              		.comm	blockDev,4,4
  64              		.comm	transfer,16,4
  65              		.section	.text.doSdInit,"ax",%progbits
  66              		.align	2
  67              		.thumb
  68              		.thumb_func
  69              		.type	doSdInit, %function
  70              	doSdInit:
  71              	.LFB64:
  72              		.file 2 "..\\..\\src\\disk.c"
   1:..\..\src/disk.c **** //	Copyright (C) 2013 Michael McMaster <michael@codesrc.com>
   2:..\..\src/disk.c **** //	Copyright (C) 2014 Doug Brown <doug@downtowndougbrown.com>
   3:..\..\src/disk.c **** //
   4:..\..\src/disk.c **** //	This file is part of SCSI2SD.
   5:..\..\src/disk.c **** //
   6:..\..\src/disk.c **** //	SCSI2SD is free software: you can redistribute it and/or modify
   7:..\..\src/disk.c **** //	it under the terms of the GNU General Public License as published by
ARM GAS  C:\Users\r\AppData\Local\Temp\ccBAatSA.s 			page 3


   8:..\..\src/disk.c **** //	the Free Software Foundation, either version 3 of the License, or
   9:..\..\src/disk.c **** //	(at your option) any later version.
  10:..\..\src/disk.c **** //
  11:..\..\src/disk.c **** //	SCSI2SD is distributed in the hope that it will be useful,
  12:..\..\src/disk.c **** //	but WITHOUT ANY WARRANTY; without even the implied warranty of
  13:..\..\src/disk.c **** //	MERCHANTABILITY or FITNESS FOR A PARTICULAR PURPOSE.  See the
  14:..\..\src/disk.c **** //	GNU General Public License for more details.
  15:..\..\src/disk.c **** //
  16:..\..\src/disk.c **** //	You should have received a copy of the GNU General Public License
  17:..\..\src/disk.c **** //	along with SCSI2SD.  If not, see <http://www.gnu.org/licenses/>.
  18:..\..\src/disk.c **** #include "device.h"
  19:..\..\src/disk.c **** #include "scsi.h"
  20:..\..\src/disk.c **** #include "scsiPhy.h"
  21:..\..\src/disk.c **** #include "config.h"
  22:..\..\src/disk.c **** #include "debug.h"
  23:..\..\src/disk.c **** #include "debug.h"
  24:..\..\src/disk.c **** #include "disk.h"
  25:..\..\src/disk.c **** #include "sd.h"
  26:..\..\src/disk.c **** #include "time.h"
  27:..\..\src/disk.c **** 
  28:..\..\src/disk.c **** #include <string.h>
  29:..\..\src/disk.c **** 
  30:..\..\src/disk.c **** // Global
  31:..\..\src/disk.c **** BlockDevice blockDev;
  32:..\..\src/disk.c **** Transfer transfer;
  33:..\..\src/disk.c **** 
  34:..\..\src/disk.c **** static int doSdInit()
  35:..\..\src/disk.c **** {
  73              		.loc 2 35 0
  74              		.cfi_startproc
  75              		@ args = 0, pretend = 0, frame = 8
  76              		@ frame_needed = 1, uses_anonymous_args = 0
  77 0000 80B5     		push	{r7, lr}
  78              		.cfi_def_cfa_offset 8
  79              		.cfi_offset 7, -8
  80              		.cfi_offset 14, -4
  81 0002 82B0     		sub	sp, sp, #8
  82              		.cfi_def_cfa_offset 16
  83 0004 00AF     		add	r7, sp, #0
  84              		.cfi_def_cfa_register 7
  36:..\..\src/disk.c **** 	int result = 0;
  85              		.loc 2 36 0
  86 0006 0023     		movs	r3, #0
  87 0008 7B60     		str	r3, [r7, #4]
  37:..\..\src/disk.c **** 	if (blockDev.state & DISK_PRESENT)
  88              		.loc 2 37 0
  89 000a 0B4B     		ldr	r3, .L7
  90 000c 1B68     		ldr	r3, [r3]
  91 000e 03F00203 		and	r3, r3, #2
  92 0012 002B     		cmp	r3, #0
  93 0014 0BD0     		beq	.L5
  38:..\..\src/disk.c **** 	{
  39:..\..\src/disk.c **** 		result = sdInit();
  94              		.loc 2 39 0
  95 0016 FFF7FEFF 		bl	sdInit
  96 001a 7860     		str	r0, [r7, #4]
  40:..\..\src/disk.c **** 
ARM GAS  C:\Users\r\AppData\Local\Temp\ccBAatSA.s 			page 4


  41:..\..\src/disk.c **** 		if (result)
  97              		.loc 2 41 0
  98 001c 7B68     		ldr	r3, [r7, #4]
  99 001e 002B     		cmp	r3, #0
 100 0020 05D0     		beq	.L5
  42:..\..\src/disk.c **** 		{
  43:..\..\src/disk.c **** 			blockDev.state = blockDev.state | DISK_INITIALISED;
 101              		.loc 2 43 0
 102 0022 054B     		ldr	r3, .L7
 103 0024 1B68     		ldr	r3, [r3]
 104 0026 43F00403 		orr	r3, r3, #4
 105 002a 034A     		ldr	r2, .L7
 106 002c 1360     		str	r3, [r2]
 107              	.L5:
  44:..\..\src/disk.c **** 		}
  45:..\..\src/disk.c **** 	}
  46:..\..\src/disk.c **** 	return result;
 108              		.loc 2 46 0
 109 002e 7B68     		ldr	r3, [r7, #4]
  47:..\..\src/disk.c **** }
 110              		.loc 2 47 0
 111 0030 1846     		mov	r0, r3
 112 0032 0837     		adds	r7, r7, #8
 113              		.cfi_def_cfa_offset 8
 114 0034 BD46     		mov	sp, r7
 115              		.cfi_def_cfa_register 13
 116              		@ sp needed
 117 0036 80BD     		pop	{r7, pc}
 118              	.L8:
 119              		.align	2
 120              	.L7:
 121 0038 00000000 		.word	blockDev
 122              		.cfi_endproc
 123              	.LFE64:
 124              		.size	doSdInit, .-doSdInit
 125              		.section	.text.doFormatUnitComplete,"ax",%progbits
 126              		.align	2
 127              		.thumb
 128              		.thumb_func
 129              		.type	doFormatUnitComplete, %function
 130              	doFormatUnitComplete:
 131              	.LFB65:
  48:..\..\src/disk.c **** 
  49:..\..\src/disk.c **** // Callback once all data has been read in the data out phase.
  50:..\..\src/disk.c **** static void doFormatUnitComplete(void)
  51:..\..\src/disk.c **** {
 132              		.loc 2 51 0
 133              		.cfi_startproc
 134              		@ args = 0, pretend = 0, frame = 0
 135              		@ frame_needed = 1, uses_anonymous_args = 0
 136              		@ link register save eliminated.
 137 0000 80B4     		push	{r7}
 138              		.cfi_def_cfa_offset 4
 139              		.cfi_offset 7, -4
 140 0002 00AF     		add	r7, sp, #0
 141              		.cfi_def_cfa_register 7
  52:..\..\src/disk.c **** 	// TODO start writing the initialisation pattern to the SD
ARM GAS  C:\Users\r\AppData\Local\Temp\ccBAatSA.s 			page 5


  53:..\..\src/disk.c **** 	// card
  54:..\..\src/disk.c **** 	scsiDev.phase = STATUS;
 142              		.loc 2 54 0
 143 0004 034B     		ldr	r3, .L10
 144 0006 0622     		movs	r2, #6
 145 0008 C3F87821 		str	r2, [r3, #376]
  55:..\..\src/disk.c **** }
 146              		.loc 2 55 0
 147 000c 00BF     		nop
 148 000e BD46     		mov	sp, r7
 149              		.cfi_def_cfa_register 13
 150              		@ sp needed
 151 0010 80BC     		pop	{r7}
 152              		.cfi_restore 7
 153              		.cfi_def_cfa_offset 0
 154 0012 7047     		bx	lr
 155              	.L11:
 156              		.align	2
 157              	.L10:
 158 0014 00000000 		.word	scsiDev
 159              		.cfi_endproc
 160              	.LFE65:
 161              		.size	doFormatUnitComplete, .-doFormatUnitComplete
 162              		.section	.text.doFormatUnitSkipData,"ax",%progbits
 163              		.align	2
 164              		.thumb
 165              		.thumb_func
 166              		.type	doFormatUnitSkipData, %function
 167              	doFormatUnitSkipData:
 168              	.LFB66:
  56:..\..\src/disk.c **** 
  57:..\..\src/disk.c **** static void doFormatUnitSkipData(int bytes)
  58:..\..\src/disk.c **** {
 169              		.loc 2 58 0
 170              		.cfi_startproc
 171              		@ args = 0, pretend = 0, frame = 16
 172              		@ frame_needed = 1, uses_anonymous_args = 0
 173 0000 80B5     		push	{r7, lr}
 174              		.cfi_def_cfa_offset 8
 175              		.cfi_offset 7, -8
 176              		.cfi_offset 14, -4
 177 0002 84B0     		sub	sp, sp, #16
 178              		.cfi_def_cfa_offset 24
 179 0004 00AF     		add	r7, sp, #0
 180              		.cfi_def_cfa_register 7
 181 0006 7860     		str	r0, [r7, #4]
  59:..\..\src/disk.c **** 	// We may not have enough memory to store the initialisation pattern and
  60:..\..\src/disk.c **** 	// defect list data.  Since we're not making use of it yet anyway, just
  61:..\..\src/disk.c **** 	// discard the bytes.
  62:..\..\src/disk.c **** 	scsiEnterPhase(DATA_OUT);
 182              		.loc 2 62 0
 183 0008 0020     		movs	r0, #0
 184 000a FFF7FEFF 		bl	scsiEnterPhase
  63:..\..\src/disk.c **** 	int i;
  64:..\..\src/disk.c **** 	for (i = 0; i < bytes; ++i)
 185              		.loc 2 64 0
 186 000e 0023     		movs	r3, #0
ARM GAS  C:\Users\r\AppData\Local\Temp\ccBAatSA.s 			page 6


 187 0010 FB60     		str	r3, [r7, #12]
 188 0012 04E0     		b	.L13
 189              	.L14:
  65:..\..\src/disk.c **** 	{
  66:..\..\src/disk.c **** 		scsiReadByte();
 190              		.loc 2 66 0 discriminator 3
 191 0014 FFF7FEFF 		bl	scsiReadByte
  64:..\..\src/disk.c **** 	{
 192              		.loc 2 64 0 discriminator 3
 193 0018 FB68     		ldr	r3, [r7, #12]
 194 001a 0133     		adds	r3, r3, #1
 195 001c FB60     		str	r3, [r7, #12]
 196              	.L13:
  64:..\..\src/disk.c **** 	{
 197              		.loc 2 64 0 is_stmt 0 discriminator 1
 198 001e FA68     		ldr	r2, [r7, #12]
 199 0020 7B68     		ldr	r3, [r7, #4]
 200 0022 9A42     		cmp	r2, r3
 201 0024 F6DB     		blt	.L14
  67:..\..\src/disk.c **** 	}
  68:..\..\src/disk.c **** }
 202              		.loc 2 68 0 is_stmt 1
 203 0026 00BF     		nop
 204 0028 1037     		adds	r7, r7, #16
 205              		.cfi_def_cfa_offset 8
 206 002a BD46     		mov	sp, r7
 207              		.cfi_def_cfa_register 13
 208              		@ sp needed
 209 002c 80BD     		pop	{r7, pc}
 210              		.cfi_endproc
 211              	.LFE66:
 212              		.size	doFormatUnitSkipData, .-doFormatUnitSkipData
 213 002e 00BF     		.section	.text.doFormatUnitPatternHeader,"ax",%progbits
 214              		.align	2
 215              		.thumb
 216              		.thumb_func
 217              		.type	doFormatUnitPatternHeader, %function
 218              	doFormatUnitPatternHeader:
 219              	.LFB67:
  69:..\..\src/disk.c **** 
  70:..\..\src/disk.c **** // Callback from the data out phase.
  71:..\..\src/disk.c **** static void doFormatUnitPatternHeader(void)
  72:..\..\src/disk.c **** {
 220              		.loc 2 72 0
 221              		.cfi_startproc
 222              		@ args = 0, pretend = 0, frame = 8
 223              		@ frame_needed = 1, uses_anonymous_args = 0
 224 0000 80B5     		push	{r7, lr}
 225              		.cfi_def_cfa_offset 8
 226              		.cfi_offset 7, -8
 227              		.cfi_offset 14, -4
 228 0002 82B0     		sub	sp, sp, #8
 229              		.cfi_def_cfa_offset 16
 230 0004 00AF     		add	r7, sp, #0
 231              		.cfi_def_cfa_register 7
  73:..\..\src/disk.c **** 	int defectLength =
  74:..\..\src/disk.c **** 		((((uint16_t)scsiDev.data[2])) << 8) +
ARM GAS  C:\Users\r\AppData\Local\Temp\ccBAatSA.s 			page 7


 232              		.loc 2 74 0
 233 0006 0F4B     		ldr	r3, .L16
 234 0008 93F87E31 		ldrb	r3, [r3, #382]	@ zero_extendqisi2
 235 000c 1B02     		lsls	r3, r3, #8
  75:..\..\src/disk.c **** 			scsiDev.data[3];
 236              		.loc 2 75 0
 237 000e 0D4A     		ldr	r2, .L16
 238 0010 92F87F21 		ldrb	r2, [r2, #383]	@ zero_extendqisi2
  73:..\..\src/disk.c **** 	int defectLength =
 239              		.loc 2 73 0
 240 0014 1344     		add	r3, r3, r2
 241 0016 7B60     		str	r3, [r7, #4]
  76:..\..\src/disk.c **** 
  77:..\..\src/disk.c **** 	int patternLength =
  78:..\..\src/disk.c **** 		((((uint16_t)scsiDev.data[4 + 2])) << 8) +
 242              		.loc 2 78 0
 243 0018 0A4B     		ldr	r3, .L16
 244 001a 93F88231 		ldrb	r3, [r3, #386]	@ zero_extendqisi2
 245 001e 1B02     		lsls	r3, r3, #8
  79:..\..\src/disk.c **** 		scsiDev.data[4 + 3];
 246              		.loc 2 79 0
 247 0020 084A     		ldr	r2, .L16
 248 0022 92F88321 		ldrb	r2, [r2, #387]	@ zero_extendqisi2
  77:..\..\src/disk.c **** 		((((uint16_t)scsiDev.data[4 + 2])) << 8) +
 249              		.loc 2 77 0
 250 0026 1344     		add	r3, r3, r2
 251 0028 3B60     		str	r3, [r7]
  80:..\..\src/disk.c **** 
  81:..\..\src/disk.c **** 		doFormatUnitSkipData(defectLength + patternLength);
 252              		.loc 2 81 0
 253 002a 7A68     		ldr	r2, [r7, #4]
 254 002c 3B68     		ldr	r3, [r7]
 255 002e 1344     		add	r3, r3, r2
 256 0030 1846     		mov	r0, r3
 257 0032 FFF7FEFF 		bl	doFormatUnitSkipData
  82:..\..\src/disk.c **** 		doFormatUnitComplete();
 258              		.loc 2 82 0
 259 0036 FFF7FEFF 		bl	doFormatUnitComplete
  83:..\..\src/disk.c **** }
 260              		.loc 2 83 0
 261 003a 00BF     		nop
 262 003c 0837     		adds	r7, r7, #8
 263              		.cfi_def_cfa_offset 8
 264 003e BD46     		mov	sp, r7
 265              		.cfi_def_cfa_register 13
 266              		@ sp needed
 267 0040 80BD     		pop	{r7, pc}
 268              	.L17:
 269 0042 00BF     		.align	2
 270              	.L16:
 271 0044 00000000 		.word	scsiDev
 272              		.cfi_endproc
 273              	.LFE67:
 274              		.size	doFormatUnitPatternHeader, .-doFormatUnitPatternHeader
 275              		.section	.text.doFormatUnitHeader,"ax",%progbits
 276              		.align	2
 277              		.thumb
ARM GAS  C:\Users\r\AppData\Local\Temp\ccBAatSA.s 			page 8


 278              		.thumb_func
 279              		.type	doFormatUnitHeader, %function
 280              	doFormatUnitHeader:
 281              	.LFB68:
  84:..\..\src/disk.c **** 
  85:..\..\src/disk.c **** // Callback from the data out phase.
  86:..\..\src/disk.c **** static void doFormatUnitHeader(void)
  87:..\..\src/disk.c **** {
 282              		.loc 2 87 0
 283              		.cfi_startproc
 284              		@ args = 0, pretend = 0, frame = 16
 285              		@ frame_needed = 1, uses_anonymous_args = 0
 286 0000 80B5     		push	{r7, lr}
 287              		.cfi_def_cfa_offset 8
 288              		.cfi_offset 7, -8
 289              		.cfi_offset 14, -4
 290 0002 84B0     		sub	sp, sp, #16
 291              		.cfi_def_cfa_offset 24
 292 0004 00AF     		add	r7, sp, #0
 293              		.cfi_def_cfa_register 7
  88:..\..\src/disk.c **** 	int IP = (scsiDev.data[1] & 0x08) ? 1 : 0;
 294              		.loc 2 88 0
 295 0006 274B     		ldr	r3, .L23
 296 0008 93F87D31 		ldrb	r3, [r3, #381]	@ zero_extendqisi2
 297 000c 03F00803 		and	r3, r3, #8
 298 0010 002B     		cmp	r3, #0
 299 0012 14BF     		ite	ne
 300 0014 0123     		movne	r3, #1
 301 0016 0023     		moveq	r3, #0
 302 0018 DBB2     		uxtb	r3, r3
 303 001a FB60     		str	r3, [r7, #12]
  89:..\..\src/disk.c **** 	int DSP = (scsiDev.data[1] & 0x04) ? 1 : 0;
 304              		.loc 2 89 0
 305 001c 214B     		ldr	r3, .L23
 306 001e 93F87D31 		ldrb	r3, [r3, #381]	@ zero_extendqisi2
 307 0022 03F00403 		and	r3, r3, #4
 308 0026 002B     		cmp	r3, #0
 309 0028 14BF     		ite	ne
 310 002a 0123     		movne	r3, #1
 311 002c 0023     		moveq	r3, #0
 312 002e DBB2     		uxtb	r3, r3
 313 0030 BB60     		str	r3, [r7, #8]
  90:..\..\src/disk.c **** 
  91:..\..\src/disk.c **** 	if (! DSP) // disable save parameters
 314              		.loc 2 91 0
 315 0032 BB68     		ldr	r3, [r7, #8]
 316 0034 002B     		cmp	r3, #0
 317 0036 0AD1     		bne	.L19
  92:..\..\src/disk.c **** 	{
  93:..\..\src/disk.c **** 		// Save the "MODE SELECT savable parameters"
  94:..\..\src/disk.c **** 		configSave(
  95:..\..\src/disk.c **** 			scsiDev.target->targetId,
 318              		.loc 2 95 0
 319 0038 1A4B     		ldr	r3, .L23
 320 003a 1B6E     		ldr	r3, [r3, #96]
 321 003c 1B78     		ldrb	r3, [r3]	@ zero_extendqisi2
  94:..\..\src/disk.c **** 			scsiDev.target->targetId,
ARM GAS  C:\Users\r\AppData\Local\Temp\ccBAatSA.s 			page 9


 322              		.loc 2 94 0
 323 003e 1A46     		mov	r2, r3
  96:..\..\src/disk.c **** 			scsiDev.target->liveCfg.bytesPerSector);
 324              		.loc 2 96 0
 325 0040 184B     		ldr	r3, .L23
 326 0042 1B6E     		ldr	r3, [r3, #96]
  94:..\..\src/disk.c **** 			scsiDev.target->targetId,
 327              		.loc 2 94 0
 328 0044 1B89     		ldrh	r3, [r3, #8]
 329 0046 1946     		mov	r1, r3
 330 0048 1046     		mov	r0, r2
 331 004a FFF7FEFF 		bl	configSave
 332              	.L19:
  97:..\..\src/disk.c **** 	}
  98:..\..\src/disk.c **** 
  99:..\..\src/disk.c **** 	if (IP)
 333              		.loc 2 99 0
 334 004e FB68     		ldr	r3, [r7, #12]
 335 0050 002B     		cmp	r3, #0
 336 0052 15D0     		beq	.L20
 100:..\..\src/disk.c **** 	{
 101:..\..\src/disk.c **** 		// We need to read the initialisation pattern header first.
 102:..\..\src/disk.c **** 		scsiDev.dataLen += 4;
 337              		.loc 2 102 0
 338 0054 134B     		ldr	r3, .L23
 339 0056 03F58343 		add	r3, r3, #16768
 340 005a 0433     		adds	r3, r3, #4
 341 005c 1B68     		ldr	r3, [r3]
 342 005e 1A1D     		adds	r2, r3, #4
 343 0060 104B     		ldr	r3, .L23
 344 0062 03F58343 		add	r3, r3, #16768
 345 0066 0433     		adds	r3, r3, #4
 346 0068 1A60     		str	r2, [r3]
 103:..\..\src/disk.c **** 		scsiDev.phase = DATA_OUT;
 347              		.loc 2 103 0
 348 006a 0E4B     		ldr	r3, .L23
 349 006c 0022     		movs	r2, #0
 350 006e C3F87821 		str	r2, [r3, #376]
 104:..\..\src/disk.c **** 		scsiDev.postDataOutHook = doFormatUnitPatternHeader;
 351              		.loc 2 104 0
 352 0072 0C4B     		ldr	r3, .L23
 353 0074 03F58343 		add	r3, r3, #16768
 354 0078 2033     		adds	r3, r3, #32
 355 007a 0B4A     		ldr	r2, .L23+4
 356 007c 1A60     		str	r2, [r3]
 105:..\..\src/disk.c **** 	}
 106:..\..\src/disk.c **** 	else
 107:..\..\src/disk.c **** 	{
 108:..\..\src/disk.c **** 		// Read the defect list data
 109:..\..\src/disk.c **** 		int defectLength =
 110:..\..\src/disk.c **** 			((((uint16_t)scsiDev.data[2])) << 8) +
 111:..\..\src/disk.c **** 			scsiDev.data[3];
 112:..\..\src/disk.c **** 		doFormatUnitSkipData(defectLength);
 113:..\..\src/disk.c **** 		doFormatUnitComplete();
 114:..\..\src/disk.c **** 	}
 115:..\..\src/disk.c **** }
 357              		.loc 2 115 0
ARM GAS  C:\Users\r\AppData\Local\Temp\ccBAatSA.s 			page 10


 358 007e 0DE0     		b	.L22
 359              	.L20:
 360              	.LBB2:
 110:..\..\src/disk.c **** 			scsiDev.data[3];
 361              		.loc 2 110 0
 362 0080 084B     		ldr	r3, .L23
 363 0082 93F87E31 		ldrb	r3, [r3, #382]	@ zero_extendqisi2
 364 0086 1B02     		lsls	r3, r3, #8
 111:..\..\src/disk.c **** 		doFormatUnitSkipData(defectLength);
 365              		.loc 2 111 0
 366 0088 064A     		ldr	r2, .L23
 367 008a 92F87F21 		ldrb	r2, [r2, #383]	@ zero_extendqisi2
 109:..\..\src/disk.c **** 			((((uint16_t)scsiDev.data[2])) << 8) +
 368              		.loc 2 109 0
 369 008e 1344     		add	r3, r3, r2
 370 0090 7B60     		str	r3, [r7, #4]
 112:..\..\src/disk.c **** 		doFormatUnitComplete();
 371              		.loc 2 112 0
 372 0092 7868     		ldr	r0, [r7, #4]
 373 0094 FFF7FEFF 		bl	doFormatUnitSkipData
 113:..\..\src/disk.c **** 	}
 374              		.loc 2 113 0
 375 0098 FFF7FEFF 		bl	doFormatUnitComplete
 376              	.L22:
 377              	.LBE2:
 378              		.loc 2 115 0
 379 009c 00BF     		nop
 380 009e 1037     		adds	r7, r7, #16
 381              		.cfi_def_cfa_offset 8
 382 00a0 BD46     		mov	sp, r7
 383              		.cfi_def_cfa_register 13
 384              		@ sp needed
 385 00a2 80BD     		pop	{r7, pc}
 386              	.L24:
 387              		.align	2
 388              	.L23:
 389 00a4 00000000 		.word	scsiDev
 390 00a8 00000000 		.word	doFormatUnitPatternHeader
 391              		.cfi_endproc
 392              	.LFE68:
 393              		.size	doFormatUnitHeader, .-doFormatUnitHeader
 394              		.section	.text.doReadCapacity,"ax",%progbits
 395              		.align	2
 396              		.thumb
 397              		.thumb_func
 398              		.type	doReadCapacity, %function
 399              	doReadCapacity:
 400              	.LFB69:
 116:..\..\src/disk.c **** 
 117:..\..\src/disk.c **** static void doReadCapacity()
 118:..\..\src/disk.c **** {
 401              		.loc 2 118 0
 402              		.cfi_startproc
 403              		@ args = 0, pretend = 0, frame = 24
 404              		@ frame_needed = 1, uses_anonymous_args = 0
 405 0000 80B5     		push	{r7, lr}
 406              		.cfi_def_cfa_offset 8
ARM GAS  C:\Users\r\AppData\Local\Temp\ccBAatSA.s 			page 11


 407              		.cfi_offset 7, -8
 408              		.cfi_offset 14, -4
 409 0002 86B0     		sub	sp, sp, #24
 410              		.cfi_def_cfa_offset 32
 411 0004 00AF     		add	r7, sp, #0
 412              		.cfi_def_cfa_register 7
 119:..\..\src/disk.c **** 	uint32_t lba = (((uint32) scsiDev.cdb[2]) << 24) +
 413              		.loc 2 119 0
 414 0006 534B     		ldr	r3, .L30
 415 0008 03F58343 		add	r3, r3, #16768
 416 000c 0A33     		adds	r3, r3, #10
 417 000e 1B78     		ldrb	r3, [r3]	@ zero_extendqisi2
 418 0010 1A06     		lsls	r2, r3, #24
 120:..\..\src/disk.c **** 		(((uint32) scsiDev.cdb[3]) << 16) +
 419              		.loc 2 120 0
 420 0012 504B     		ldr	r3, .L30
 421 0014 03F58343 		add	r3, r3, #16768
 422 0018 0B33     		adds	r3, r3, #11
 423 001a 1B78     		ldrb	r3, [r3]	@ zero_extendqisi2
 424 001c 1B04     		lsls	r3, r3, #16
 119:..\..\src/disk.c **** 	uint32_t lba = (((uint32) scsiDev.cdb[2]) << 24) +
 425              		.loc 2 119 0
 426 001e 1A44     		add	r2, r2, r3
 121:..\..\src/disk.c **** 		(((uint32) scsiDev.cdb[4]) << 8) +
 427              		.loc 2 121 0
 428 0020 4C4B     		ldr	r3, .L30
 429 0022 03F58343 		add	r3, r3, #16768
 430 0026 0C33     		adds	r3, r3, #12
 431 0028 1B78     		ldrb	r3, [r3]	@ zero_extendqisi2
 432 002a 1B02     		lsls	r3, r3, #8
 120:..\..\src/disk.c **** 		(((uint32) scsiDev.cdb[3]) << 16) +
 433              		.loc 2 120 0
 434 002c 1A44     		add	r2, r2, r3
 122:..\..\src/disk.c **** 		scsiDev.cdb[5];
 435              		.loc 2 122 0
 436 002e 494B     		ldr	r3, .L30
 437 0030 03F58343 		add	r3, r3, #16768
 438 0034 0D33     		adds	r3, r3, #13
 439 0036 1B78     		ldrb	r3, [r3]	@ zero_extendqisi2
 119:..\..\src/disk.c **** 		(((uint32) scsiDev.cdb[3]) << 16) +
 440              		.loc 2 119 0
 441 0038 1344     		add	r3, r3, r2
 442 003a 7B61     		str	r3, [r7, #20]
 123:..\..\src/disk.c **** 	int pmi = scsiDev.cdb[8] & 1;
 443              		.loc 2 123 0
 444 003c 454B     		ldr	r3, .L30
 445 003e 03F58343 		add	r3, r3, #16768
 446 0042 1033     		adds	r3, r3, #16
 447 0044 1B78     		ldrb	r3, [r3]	@ zero_extendqisi2
 448 0046 03F00103 		and	r3, r3, #1
 449 004a 3B61     		str	r3, [r7, #16]
 124:..\..\src/disk.c **** 
 125:..\..\src/disk.c **** 	uint32_t capacity = getScsiCapacity(
 126:..\..\src/disk.c **** 		scsiDev.target->cfg->sdSectorStart,
 450              		.loc 2 126 0
 451 004c 414B     		ldr	r3, .L30
 452 004e 1B6E     		ldr	r3, [r3, #96]
ARM GAS  C:\Users\r\AppData\Local\Temp\ccBAatSA.s 			page 12


 453 0050 5B68     		ldr	r3, [r3, #4]
 125:..\..\src/disk.c **** 		scsiDev.target->cfg->sdSectorStart,
 454              		.loc 2 125 0
 455 0052 5868     		ldr	r0, [r3, #4]	@ unaligned
 127:..\..\src/disk.c **** 		scsiDev.target->liveCfg.bytesPerSector,
 456              		.loc 2 127 0
 457 0054 3F4B     		ldr	r3, .L30
 458 0056 1B6E     		ldr	r3, [r3, #96]
 125:..\..\src/disk.c **** 		scsiDev.target->cfg->sdSectorStart,
 459              		.loc 2 125 0
 460 0058 1989     		ldrh	r1, [r3, #8]
 128:..\..\src/disk.c **** 		scsiDev.target->cfg->scsiSectors);
 461              		.loc 2 128 0
 462 005a 3E4B     		ldr	r3, .L30
 463 005c 1B6E     		ldr	r3, [r3, #96]
 464 005e 5B68     		ldr	r3, [r3, #4]
 125:..\..\src/disk.c **** 		scsiDev.target->cfg->sdSectorStart,
 465              		.loc 2 125 0
 466 0060 9B68     		ldr	r3, [r3, #8]	@ unaligned
 467 0062 1A46     		mov	r2, r3
 468 0064 FFF7FEFF 		bl	getScsiCapacity
 469 0068 F860     		str	r0, [r7, #12]
 129:..\..\src/disk.c **** 
 130:..\..\src/disk.c **** 	if (!pmi && lba)
 470              		.loc 2 130 0
 471 006a 3B69     		ldr	r3, [r7, #16]
 472 006c 002B     		cmp	r3, #0
 473 006e 16D1     		bne	.L26
 474              		.loc 2 130 0 is_stmt 0 discriminator 1
 475 0070 7B69     		ldr	r3, [r7, #20]
 476 0072 002B     		cmp	r3, #0
 477 0074 13D0     		beq	.L26
 131:..\..\src/disk.c **** 	{
 132:..\..\src/disk.c **** 		// error.
 133:..\..\src/disk.c **** 		// We don't do anything with the "partial medium indicator", and
 134:..\..\src/disk.c **** 		// assume that delays are constant across each block. But the spec
 135:..\..\src/disk.c **** 		// says we must return this error if pmi is specified incorrectly.
 136:..\..\src/disk.c **** 		scsiDev.status = CHECK_CONDITION;
 478              		.loc 2 136 0 is_stmt 1
 479 0076 374B     		ldr	r3, .L30
 480 0078 03F58343 		add	r3, r3, #16768
 481 007c 1C33     		adds	r3, r3, #28
 482 007e 0222     		movs	r2, #2
 483 0080 1A70     		strb	r2, [r3]
 137:..\..\src/disk.c **** 		scsiDev.target->sense.code = ILLEGAL_REQUEST;
 484              		.loc 2 137 0
 485 0082 344B     		ldr	r3, .L30
 486 0084 1B6E     		ldr	r3, [r3, #96]
 487 0086 0522     		movs	r2, #5
 488 0088 9A72     		strb	r2, [r3, #10]
 138:..\..\src/disk.c **** 		scsiDev.target->sense.asc = INVALID_FIELD_IN_CDB;
 489              		.loc 2 138 0
 490 008a 324B     		ldr	r3, .L30
 491 008c 1B6E     		ldr	r3, [r3, #96]
 492 008e 4FF41052 		mov	r2, #9216
 493 0092 9A81     		strh	r2, [r3, #12]	@ movhi
 139:..\..\src/disk.c **** 		scsiDev.phase = STATUS;
ARM GAS  C:\Users\r\AppData\Local\Temp\ccBAatSA.s 			page 13


 494              		.loc 2 139 0
 495 0094 2F4B     		ldr	r3, .L30
 496 0096 0622     		movs	r2, #6
 497 0098 C3F87821 		str	r2, [r3, #376]
 140:..\..\src/disk.c **** 	}
 141:..\..\src/disk.c **** 	else if (capacity > 0)
 142:..\..\src/disk.c **** 	{
 143:..\..\src/disk.c **** 		uint32_t highestBlock = capacity - 1;
 144:..\..\src/disk.c **** 
 145:..\..\src/disk.c **** 		scsiDev.data[0] = highestBlock >> 24;
 146:..\..\src/disk.c **** 		scsiDev.data[1] = highestBlock >> 16;
 147:..\..\src/disk.c **** 		scsiDev.data[2] = highestBlock >> 8;
 148:..\..\src/disk.c **** 		scsiDev.data[3] = highestBlock;
 149:..\..\src/disk.c **** 
 150:..\..\src/disk.c **** 		uint32_t bytesPerSector = scsiDev.target->liveCfg.bytesPerSector;
 151:..\..\src/disk.c **** 		scsiDev.data[4] = bytesPerSector >> 24;
 152:..\..\src/disk.c **** 		scsiDev.data[5] = bytesPerSector >> 16;
 153:..\..\src/disk.c **** 		scsiDev.data[6] = bytesPerSector >> 8;
 154:..\..\src/disk.c **** 		scsiDev.data[7] = bytesPerSector;
 155:..\..\src/disk.c **** 		scsiDev.dataLen = 8;
 156:..\..\src/disk.c **** 		scsiDev.phase = DATA_IN;
 157:..\..\src/disk.c **** 	}
 158:..\..\src/disk.c **** 	else
 159:..\..\src/disk.c **** 	{
 160:..\..\src/disk.c **** 		scsiDev.status = CHECK_CONDITION;
 161:..\..\src/disk.c **** 		scsiDev.target->sense.code = NOT_READY;
 162:..\..\src/disk.c **** 		scsiDev.target->sense.asc = MEDIUM_NOT_PRESENT;
 163:..\..\src/disk.c **** 		scsiDev.phase = STATUS;
 164:..\..\src/disk.c **** 	}
 165:..\..\src/disk.c **** }
 498              		.loc 2 165 0
 499 009c 55E0     		b	.L29
 500              	.L26:
 141:..\..\src/disk.c **** 	{
 501              		.loc 2 141 0
 502 009e FB68     		ldr	r3, [r7, #12]
 503 00a0 002B     		cmp	r3, #0
 504 00a2 3FD0     		beq	.L28
 505              	.LBB3:
 143:..\..\src/disk.c **** 
 506              		.loc 2 143 0
 507 00a4 FB68     		ldr	r3, [r7, #12]
 508 00a6 013B     		subs	r3, r3, #1
 509 00a8 BB60     		str	r3, [r7, #8]
 145:..\..\src/disk.c **** 		scsiDev.data[1] = highestBlock >> 16;
 510              		.loc 2 145 0
 511 00aa BB68     		ldr	r3, [r7, #8]
 512 00ac 1B0E     		lsrs	r3, r3, #24
 513 00ae DAB2     		uxtb	r2, r3
 514 00b0 284B     		ldr	r3, .L30
 515 00b2 83F87C21 		strb	r2, [r3, #380]
 146:..\..\src/disk.c **** 		scsiDev.data[2] = highestBlock >> 8;
 516              		.loc 2 146 0
 517 00b6 BB68     		ldr	r3, [r7, #8]
 518 00b8 1B0C     		lsrs	r3, r3, #16
 519 00ba DAB2     		uxtb	r2, r3
 520 00bc 254B     		ldr	r3, .L30
ARM GAS  C:\Users\r\AppData\Local\Temp\ccBAatSA.s 			page 14


 521 00be 83F87D21 		strb	r2, [r3, #381]
 147:..\..\src/disk.c **** 		scsiDev.data[3] = highestBlock;
 522              		.loc 2 147 0
 523 00c2 BB68     		ldr	r3, [r7, #8]
 524 00c4 1B0A     		lsrs	r3, r3, #8
 525 00c6 DAB2     		uxtb	r2, r3
 526 00c8 224B     		ldr	r3, .L30
 527 00ca 83F87E21 		strb	r2, [r3, #382]
 148:..\..\src/disk.c **** 
 528              		.loc 2 148 0
 529 00ce BB68     		ldr	r3, [r7, #8]
 530 00d0 DAB2     		uxtb	r2, r3
 531 00d2 204B     		ldr	r3, .L30
 532 00d4 83F87F21 		strb	r2, [r3, #383]
 150:..\..\src/disk.c **** 		scsiDev.data[4] = bytesPerSector >> 24;
 533              		.loc 2 150 0
 534 00d8 1E4B     		ldr	r3, .L30
 535 00da 1B6E     		ldr	r3, [r3, #96]
 536 00dc 1B89     		ldrh	r3, [r3, #8]
 537 00de 7B60     		str	r3, [r7, #4]
 151:..\..\src/disk.c **** 		scsiDev.data[5] = bytesPerSector >> 16;
 538              		.loc 2 151 0
 539 00e0 7B68     		ldr	r3, [r7, #4]
 540 00e2 1B0E     		lsrs	r3, r3, #24
 541 00e4 DAB2     		uxtb	r2, r3
 542 00e6 1B4B     		ldr	r3, .L30
 543 00e8 83F88021 		strb	r2, [r3, #384]
 152:..\..\src/disk.c **** 		scsiDev.data[6] = bytesPerSector >> 8;
 544              		.loc 2 152 0
 545 00ec 7B68     		ldr	r3, [r7, #4]
 546 00ee 1B0C     		lsrs	r3, r3, #16
 547 00f0 DAB2     		uxtb	r2, r3
 548 00f2 184B     		ldr	r3, .L30
 549 00f4 83F88121 		strb	r2, [r3, #385]
 153:..\..\src/disk.c **** 		scsiDev.data[7] = bytesPerSector;
 550              		.loc 2 153 0
 551 00f8 7B68     		ldr	r3, [r7, #4]
 552 00fa 1B0A     		lsrs	r3, r3, #8
 553 00fc DAB2     		uxtb	r2, r3
 554 00fe 154B     		ldr	r3, .L30
 555 0100 83F88221 		strb	r2, [r3, #386]
 154:..\..\src/disk.c **** 		scsiDev.dataLen = 8;
 556              		.loc 2 154 0
 557 0104 7B68     		ldr	r3, [r7, #4]
 558 0106 DAB2     		uxtb	r2, r3
 559 0108 124B     		ldr	r3, .L30
 560 010a 83F88321 		strb	r2, [r3, #387]
 155:..\..\src/disk.c **** 		scsiDev.phase = DATA_IN;
 561              		.loc 2 155 0
 562 010e 114B     		ldr	r3, .L30
 563 0110 03F58343 		add	r3, r3, #16768
 564 0114 0433     		adds	r3, r3, #4
 565 0116 0822     		movs	r2, #8
 566 0118 1A60     		str	r2, [r3]
 156:..\..\src/disk.c **** 	}
 567              		.loc 2 156 0
 568 011a 0E4B     		ldr	r3, .L30
ARM GAS  C:\Users\r\AppData\Local\Temp\ccBAatSA.s 			page 15


 569 011c 0422     		movs	r2, #4
 570 011e C3F87821 		str	r2, [r3, #376]
 571              	.LBE3:
 572              		.loc 2 165 0
 573 0122 12E0     		b	.L29
 574              	.L28:
 160:..\..\src/disk.c **** 		scsiDev.target->sense.code = NOT_READY;
 575              		.loc 2 160 0
 576 0124 0B4B     		ldr	r3, .L30
 577 0126 03F58343 		add	r3, r3, #16768
 578 012a 1C33     		adds	r3, r3, #28
 579 012c 0222     		movs	r2, #2
 580 012e 1A70     		strb	r2, [r3]
 161:..\..\src/disk.c **** 		scsiDev.target->sense.asc = MEDIUM_NOT_PRESENT;
 581              		.loc 2 161 0
 582 0130 084B     		ldr	r3, .L30
 583 0132 1B6E     		ldr	r3, [r3, #96]
 584 0134 0222     		movs	r2, #2
 585 0136 9A72     		strb	r2, [r3, #10]
 162:..\..\src/disk.c **** 		scsiDev.phase = STATUS;
 586              		.loc 2 162 0
 587 0138 064B     		ldr	r3, .L30
 588 013a 1B6E     		ldr	r3, [r3, #96]
 589 013c 4FF46852 		mov	r2, #14848
 590 0140 9A81     		strh	r2, [r3, #12]	@ movhi
 163:..\..\src/disk.c **** 	}
 591              		.loc 2 163 0
 592 0142 044B     		ldr	r3, .L30
 593 0144 0622     		movs	r2, #6
 594 0146 C3F87821 		str	r2, [r3, #376]
 595              	.L29:
 596              		.loc 2 165 0
 597 014a 00BF     		nop
 598 014c 1837     		adds	r7, r7, #24
 599              		.cfi_def_cfa_offset 8
 600 014e BD46     		mov	sp, r7
 601              		.cfi_def_cfa_register 13
 602              		@ sp needed
 603 0150 80BD     		pop	{r7, pc}
 604              	.L31:
 605 0152 00BF     		.align	2
 606              	.L30:
 607 0154 00000000 		.word	scsiDev
 608              		.cfi_endproc
 609              	.LFE69:
 610              		.size	doReadCapacity, .-doReadCapacity
 611              		.section	.text.doWrite,"ax",%progbits
 612              		.align	2
 613              		.thumb
 614              		.thumb_func
 615              		.type	doWrite, %function
 616              	doWrite:
 617              	.LFB70:
 166:..\..\src/disk.c **** 
 167:..\..\src/disk.c **** static void doWrite(uint32 lba, uint32 blocks)
 168:..\..\src/disk.c **** {
 618              		.loc 2 168 0
ARM GAS  C:\Users\r\AppData\Local\Temp\ccBAatSA.s 			page 16


 619              		.cfi_startproc
 620              		@ args = 0, pretend = 0, frame = 24
 621              		@ frame_needed = 1, uses_anonymous_args = 0
 622 0000 F0B5     		push	{r4, r5, r6, r7, lr}
 623              		.cfi_def_cfa_offset 20
 624              		.cfi_offset 4, -20
 625              		.cfi_offset 5, -16
 626              		.cfi_offset 6, -12
 627              		.cfi_offset 7, -8
 628              		.cfi_offset 14, -4
 629 0002 87B0     		sub	sp, sp, #28
 630              		.cfi_def_cfa_offset 48
 631 0004 00AF     		add	r7, sp, #0
 632              		.cfi_def_cfa_register 7
 633 0006 7860     		str	r0, [r7, #4]
 634 0008 3960     		str	r1, [r7]
 169:..\..\src/disk.c **** 	if (unlikely(scsiDev.target->cfg->deviceType == CONFIG_FLOPPY_14MB)) {
 635              		.loc 2 169 0
 636 000a 584B     		ldr	r3, .L39
 637 000c 1B6E     		ldr	r3, [r3, #96]
 638 000e 5B68     		ldr	r3, [r3, #4]
 639 0010 5B78     		ldrb	r3, [r3, #1]	@ zero_extendqisi2
 640 0012 032B     		cmp	r3, #3
 641 0014 0CBF     		ite	eq
 642 0016 0123     		moveq	r3, #1
 643 0018 0023     		movne	r3, #0
 644 001a DBB2     		uxtb	r3, r3
 645 001c 002B     		cmp	r3, #0
 646 001e 02D0     		beq	.L33
 170:..\..\src/disk.c **** 		// Floppies are supposed to be slow. Some systems can't handle a floppy
 171:..\..\src/disk.c **** 		// without an access time
 172:..\..\src/disk.c **** 		CyDelay(10);
 647              		.loc 2 172 0
 648 0020 0A20     		movs	r0, #10
 649 0022 FFF7FEFF 		bl	CyDelay
 650              	.L33:
 173:..\..\src/disk.c **** 	}
 174:..\..\src/disk.c **** 
 175:..\..\src/disk.c **** 	uint32_t bytesPerSector = scsiDev.target->liveCfg.bytesPerSector;
 651              		.loc 2 175 0
 652 0026 514B     		ldr	r3, .L39
 653 0028 1B6E     		ldr	r3, [r3, #96]
 654 002a 1B89     		ldrh	r3, [r3, #8]
 655 002c 7B61     		str	r3, [r7, #20]
 176:..\..\src/disk.c **** 
 177:..\..\src/disk.c **** 	if (unlikely(blockDev.state & DISK_WP) ||
 656              		.loc 2 177 0
 657 002e 504B     		ldr	r3, .L39+4
 658 0030 1B68     		ldr	r3, [r3]
 659 0032 03F00803 		and	r3, r3, #8
 660 0036 002B     		cmp	r3, #0
 661 0038 14BF     		ite	ne
 662 003a 0123     		movne	r3, #1
 663 003c 0023     		moveq	r3, #0
 664 003e DBB2     		uxtb	r3, r3
 665 0040 002B     		cmp	r3, #0
 666 0042 0AD1     		bne	.L34
ARM GAS  C:\Users\r\AppData\Local\Temp\ccBAatSA.s 			page 17


 178:..\..\src/disk.c **** 		unlikely(scsiDev.target->cfg->deviceType == CONFIG_OPTICAL))
 667              		.loc 2 178 0 discriminator 1
 668 0044 494B     		ldr	r3, .L39
 669 0046 1B6E     		ldr	r3, [r3, #96]
 670 0048 5B68     		ldr	r3, [r3, #4]
 671 004a 5B78     		ldrb	r3, [r3, #1]	@ zero_extendqisi2
 672 004c 022B     		cmp	r3, #2
 673 004e 0CBF     		ite	eq
 674 0050 0123     		moveq	r3, #1
 675 0052 0023     		movne	r3, #0
 676 0054 DBB2     		uxtb	r3, r3
 177:..\..\src/disk.c **** 		unlikely(scsiDev.target->cfg->deviceType == CONFIG_OPTICAL))
 677              		.loc 2 177 0 discriminator 1
 678 0056 002B     		cmp	r3, #0
 679 0058 13D0     		beq	.L35
 680              	.L34:
 179:..\..\src/disk.c **** 
 180:..\..\src/disk.c **** 	{
 181:..\..\src/disk.c **** 		scsiDev.status = CHECK_CONDITION;
 681              		.loc 2 181 0
 682 005a 444B     		ldr	r3, .L39
 683 005c 03F58343 		add	r3, r3, #16768
 684 0060 1C33     		adds	r3, r3, #28
 685 0062 0222     		movs	r2, #2
 686 0064 1A70     		strb	r2, [r3]
 182:..\..\src/disk.c **** 		scsiDev.target->sense.code = ILLEGAL_REQUEST;
 687              		.loc 2 182 0
 688 0066 414B     		ldr	r3, .L39
 689 0068 1B6E     		ldr	r3, [r3, #96]
 690 006a 0522     		movs	r2, #5
 691 006c 9A72     		strb	r2, [r3, #10]
 183:..\..\src/disk.c **** 		scsiDev.target->sense.asc = WRITE_PROTECTED;
 692              		.loc 2 183 0
 693 006e 3F4B     		ldr	r3, .L39
 694 0070 1B6E     		ldr	r3, [r3, #96]
 695 0072 4FF41C52 		mov	r2, #9984
 696 0076 9A81     		strh	r2, [r3, #12]	@ movhi
 184:..\..\src/disk.c **** 		scsiDev.phase = STATUS;
 697              		.loc 2 184 0
 698 0078 3C4B     		ldr	r3, .L39
 699 007a 0622     		movs	r2, #6
 700 007c C3F87821 		str	r2, [r3, #376]
 185:..\..\src/disk.c **** 	}
 186:..\..\src/disk.c **** 	else if (unlikely(((uint64) lba) + blocks >
 187:..\..\src/disk.c **** 		getScsiCapacity(
 188:..\..\src/disk.c **** 			scsiDev.target->cfg->sdSectorStart,
 189:..\..\src/disk.c **** 			bytesPerSector,
 190:..\..\src/disk.c **** 			scsiDev.target->cfg->scsiSectors
 191:..\..\src/disk.c **** 			)
 192:..\..\src/disk.c **** 		))
 193:..\..\src/disk.c **** 	{
 194:..\..\src/disk.c **** 		scsiDev.status = CHECK_CONDITION;
 195:..\..\src/disk.c **** 		scsiDev.target->sense.code = ILLEGAL_REQUEST;
 196:..\..\src/disk.c **** 		scsiDev.target->sense.asc = LOGICAL_BLOCK_ADDRESS_OUT_OF_RANGE;
 197:..\..\src/disk.c **** 		scsiDev.phase = STATUS;
 198:..\..\src/disk.c **** 	}
 199:..\..\src/disk.c **** 	else
ARM GAS  C:\Users\r\AppData\Local\Temp\ccBAatSA.s 			page 18


 200:..\..\src/disk.c **** 	{
 201:..\..\src/disk.c **** 		transfer.lba = lba;
 202:..\..\src/disk.c **** 		transfer.blocks = blocks;
 203:..\..\src/disk.c **** 		transfer.currentBlock = 0;
 204:..\..\src/disk.c **** 		scsiDev.phase = DATA_OUT;
 205:..\..\src/disk.c **** 		scsiDev.dataLen = bytesPerSector;
 206:..\..\src/disk.c **** 		scsiDev.dataPtr = bytesPerSector;
 207:..\..\src/disk.c **** 
 208:..\..\src/disk.c **** 		// No need for single-block writes atm.  Overhead of the
 209:..\..\src/disk.c **** 		// multi-block write is minimal.
 210:..\..\src/disk.c **** 		transfer.multiBlock = 1;
 211:..\..\src/disk.c **** 
 212:..\..\src/disk.c **** 
 213:..\..\src/disk.c **** 		uint32_t sdLBA =
 214:..\..\src/disk.c **** 			SCSISector2SD(
 215:..\..\src/disk.c **** 				scsiDev.target->cfg->sdSectorStart,
 216:..\..\src/disk.c **** 				bytesPerSector,
 217:..\..\src/disk.c **** 				lba);
 218:..\..\src/disk.c **** 		uint32_t sdBlocks = blocks * SDSectorsPerSCSISector(bytesPerSector);
 219:..\..\src/disk.c **** 		sdWriteMultiSectorPrep(sdLBA, sdBlocks);
 220:..\..\src/disk.c **** 	}
 221:..\..\src/disk.c **** }
 701              		.loc 2 221 0
 702 0080 6FE0     		b	.L38
 703              	.L35:
 186:..\..\src/disk.c **** 		getScsiCapacity(
 704              		.loc 2 186 0
 705 0082 7B68     		ldr	r3, [r7, #4]
 706 0084 1946     		mov	r1, r3
 707 0086 4FF00002 		mov	r2, #0
 708 008a 3B68     		ldr	r3, [r7]
 709 008c 4FF00004 		mov	r4, #0
 710 0090 CD18     		adds	r5, r1, r3
 711 0092 42EB0406 		adc	r6, r2, r4
 712 0096 2C46     		mov	r4, r5
 713 0098 3546     		mov	r5, r6
 714 009a 344B     		ldr	r3, .L39
 715 009c 1B6E     		ldr	r3, [r3, #96]
 716 009e 5B68     		ldr	r3, [r3, #4]
 717 00a0 5868     		ldr	r0, [r3, #4]	@ unaligned
 718 00a2 7B69     		ldr	r3, [r7, #20]
 719 00a4 99B2     		uxth	r1, r3
 720 00a6 314B     		ldr	r3, .L39
 721 00a8 1B6E     		ldr	r3, [r3, #96]
 722 00aa 5B68     		ldr	r3, [r3, #4]
 723 00ac 9B68     		ldr	r3, [r3, #8]	@ unaligned
 724 00ae 1A46     		mov	r2, r3
 725 00b0 FFF7FEFF 		bl	getScsiCapacity
 726 00b4 0346     		mov	r3, r0
 727 00b6 1A46     		mov	r2, r3
 728 00b8 4FF00003 		mov	r3, #0
 729 00bc AB42     		cmp	r3, r5
 730 00be 08BF     		it	eq
 731 00c0 A242     		cmpeq	r2, r4
 732 00c2 34BF     		ite	cc
 733 00c4 0123     		movcc	r3, #1
 734 00c6 0023     		movcs	r3, #0
ARM GAS  C:\Users\r\AppData\Local\Temp\ccBAatSA.s 			page 19


 735 00c8 DBB2     		uxtb	r3, r3
 736 00ca 002B     		cmp	r3, #0
 737 00cc 13D0     		beq	.L37
 194:..\..\src/disk.c **** 		scsiDev.target->sense.code = ILLEGAL_REQUEST;
 738              		.loc 2 194 0
 739 00ce 274B     		ldr	r3, .L39
 740 00d0 03F58343 		add	r3, r3, #16768
 741 00d4 1C33     		adds	r3, r3, #28
 742 00d6 0222     		movs	r2, #2
 743 00d8 1A70     		strb	r2, [r3]
 195:..\..\src/disk.c **** 		scsiDev.target->sense.asc = LOGICAL_BLOCK_ADDRESS_OUT_OF_RANGE;
 744              		.loc 2 195 0
 745 00da 244B     		ldr	r3, .L39
 746 00dc 1B6E     		ldr	r3, [r3, #96]
 747 00de 0522     		movs	r2, #5
 748 00e0 9A72     		strb	r2, [r3, #10]
 196:..\..\src/disk.c **** 		scsiDev.phase = STATUS;
 749              		.loc 2 196 0
 750 00e2 224B     		ldr	r3, .L39
 751 00e4 1B6E     		ldr	r3, [r3, #96]
 752 00e6 4FF40452 		mov	r2, #8448
 753 00ea 9A81     		strh	r2, [r3, #12]	@ movhi
 197:..\..\src/disk.c **** 	}
 754              		.loc 2 197 0
 755 00ec 1F4B     		ldr	r3, .L39
 756 00ee 0622     		movs	r2, #6
 757 00f0 C3F87821 		str	r2, [r3, #376]
 758              		.loc 2 221 0
 759 00f4 35E0     		b	.L38
 760              	.L37:
 761              	.LBB4:
 201:..\..\src/disk.c **** 		transfer.blocks = blocks;
 762              		.loc 2 201 0
 763 00f6 1F4A     		ldr	r2, .L39+8
 764 00f8 7B68     		ldr	r3, [r7, #4]
 765 00fa 5360     		str	r3, [r2, #4]
 202:..\..\src/disk.c **** 		transfer.currentBlock = 0;
 766              		.loc 2 202 0
 767 00fc 1D4A     		ldr	r2, .L39+8
 768 00fe 3B68     		ldr	r3, [r7]
 769 0100 9360     		str	r3, [r2, #8]
 203:..\..\src/disk.c **** 		scsiDev.phase = DATA_OUT;
 770              		.loc 2 203 0
 771 0102 1C4B     		ldr	r3, .L39+8
 772 0104 0022     		movs	r2, #0
 773 0106 DA60     		str	r2, [r3, #12]
 204:..\..\src/disk.c **** 		scsiDev.dataLen = bytesPerSector;
 774              		.loc 2 204 0
 775 0108 184B     		ldr	r3, .L39
 776 010a 0022     		movs	r2, #0
 777 010c C3F87821 		str	r2, [r3, #376]
 205:..\..\src/disk.c **** 		scsiDev.dataPtr = bytesPerSector;
 778              		.loc 2 205 0
 779 0110 7A69     		ldr	r2, [r7, #20]
 780 0112 164B     		ldr	r3, .L39
 781 0114 03F58343 		add	r3, r3, #16768
 782 0118 0433     		adds	r3, r3, #4
ARM GAS  C:\Users\r\AppData\Local\Temp\ccBAatSA.s 			page 20


 783 011a 1A60     		str	r2, [r3]
 206:..\..\src/disk.c **** 
 784              		.loc 2 206 0
 785 011c 7A69     		ldr	r2, [r7, #20]
 786 011e 134B     		ldr	r3, .L39
 787 0120 03F58243 		add	r3, r3, #16640
 788 0124 7C33     		adds	r3, r3, #124
 789 0126 1A60     		str	r2, [r3]
 210:..\..\src/disk.c **** 
 790              		.loc 2 210 0
 791 0128 124B     		ldr	r3, .L39+8
 792 012a 0122     		movs	r2, #1
 793 012c 1A60     		str	r2, [r3]
 215:..\..\src/disk.c **** 				bytesPerSector,
 794              		.loc 2 215 0
 795 012e 0F4B     		ldr	r3, .L39
 796 0130 1B6E     		ldr	r3, [r3, #96]
 797 0132 5B68     		ldr	r3, [r3, #4]
 214:..\..\src/disk.c **** 				scsiDev.target->cfg->sdSectorStart,
 798              		.loc 2 214 0
 799 0134 5B68     		ldr	r3, [r3, #4]	@ unaligned
 800 0136 7A69     		ldr	r2, [r7, #20]
 801 0138 91B2     		uxth	r1, r2
 213:..\..\src/disk.c **** 			SCSISector2SD(
 802              		.loc 2 213 0
 803 013a 7A68     		ldr	r2, [r7, #4]
 804 013c 1846     		mov	r0, r3
 805 013e FFF7FEFF 		bl	SCSISector2SD
 806 0142 3861     		str	r0, [r7, #16]
 218:..\..\src/disk.c **** 		sdWriteMultiSectorPrep(sdLBA, sdBlocks);
 807              		.loc 2 218 0
 808 0144 7B69     		ldr	r3, [r7, #20]
 809 0146 9BB2     		uxth	r3, r3
 810 0148 1846     		mov	r0, r3
 811 014a FFF7FEFF 		bl	SDSectorsPerSCSISector
 812 014e 0346     		mov	r3, r0
 813 0150 1A46     		mov	r2, r3
 814 0152 3B68     		ldr	r3, [r7]
 815 0154 03FB02F3 		mul	r3, r3, r2
 816 0158 FB60     		str	r3, [r7, #12]
 219:..\..\src/disk.c **** 	}
 817              		.loc 2 219 0
 818 015a F968     		ldr	r1, [r7, #12]
 819 015c 3869     		ldr	r0, [r7, #16]
 820 015e FFF7FEFF 		bl	sdWriteMultiSectorPrep
 821              	.L38:
 822              	.LBE4:
 823              		.loc 2 221 0
 824 0162 00BF     		nop
 825 0164 1C37     		adds	r7, r7, #28
 826              		.cfi_def_cfa_offset 20
 827 0166 BD46     		mov	sp, r7
 828              		.cfi_def_cfa_register 13
 829              		@ sp needed
 830 0168 F0BD     		pop	{r4, r5, r6, r7, pc}
 831              	.L40:
 832 016a 00BF     		.align	2
ARM GAS  C:\Users\r\AppData\Local\Temp\ccBAatSA.s 			page 21


 833              	.L39:
 834 016c 00000000 		.word	scsiDev
 835 0170 00000000 		.word	blockDev
 836 0174 00000000 		.word	transfer
 837              		.cfi_endproc
 838              	.LFE70:
 839              		.size	doWrite, .-doWrite
 840              		.section	.text.doRead,"ax",%progbits
 841              		.align	2
 842              		.thumb
 843              		.thumb_func
 844              		.type	doRead, %function
 845              	doRead:
 846              	.LFB71:
 222:..\..\src/disk.c **** 
 223:..\..\src/disk.c **** 
 224:..\..\src/disk.c **** static void doRead(uint32 lba, uint32 blocks)
 225:..\..\src/disk.c **** {
 847              		.loc 2 225 0
 848              		.cfi_startproc
 849              		@ args = 0, pretend = 0, frame = 32
 850              		@ frame_needed = 1, uses_anonymous_args = 0
 851 0000 90B5     		push	{r4, r7, lr}
 852              		.cfi_def_cfa_offset 12
 853              		.cfi_offset 4, -12
 854              		.cfi_offset 7, -8
 855              		.cfi_offset 14, -4
 856 0002 89B0     		sub	sp, sp, #36
 857              		.cfi_def_cfa_offset 48
 858 0004 00AF     		add	r7, sp, #0
 859              		.cfi_def_cfa_register 7
 860 0006 7860     		str	r0, [r7, #4]
 861 0008 3960     		str	r1, [r7]
 226:..\..\src/disk.c **** 	if (unlikely(scsiDev.target->cfg->deviceType == CONFIG_FLOPPY_14MB)) {
 862              		.loc 2 226 0
 863 000a 524B     		ldr	r3, .L49
 864 000c 1B6E     		ldr	r3, [r3, #96]
 865 000e 5B68     		ldr	r3, [r3, #4]
 866 0010 5B78     		ldrb	r3, [r3, #1]	@ zero_extendqisi2
 867 0012 032B     		cmp	r3, #3
 868 0014 0CBF     		ite	eq
 869 0016 0123     		moveq	r3, #1
 870 0018 0023     		movne	r3, #0
 871 001a DBB2     		uxtb	r3, r3
 872 001c 002B     		cmp	r3, #0
 873 001e 02D0     		beq	.L42
 227:..\..\src/disk.c **** 		// Floppies are supposed to be slow. Some systems can't handle a floppy
 228:..\..\src/disk.c **** 		// without an access time
 229:..\..\src/disk.c **** 		CyDelay(10);
 874              		.loc 2 229 0
 875 0020 0A20     		movs	r0, #10
 876 0022 FFF7FEFF 		bl	CyDelay
 877              	.L42:
 230:..\..\src/disk.c **** 	}
 231:..\..\src/disk.c **** 
 232:..\..\src/disk.c **** 	uint32_t capacity = getScsiCapacity(
 233:..\..\src/disk.c **** 		scsiDev.target->cfg->sdSectorStart,
ARM GAS  C:\Users\r\AppData\Local\Temp\ccBAatSA.s 			page 22


 878              		.loc 2 233 0
 879 0026 4B4B     		ldr	r3, .L49
 880 0028 1B6E     		ldr	r3, [r3, #96]
 881 002a 5B68     		ldr	r3, [r3, #4]
 232:..\..\src/disk.c **** 		scsiDev.target->cfg->sdSectorStart,
 882              		.loc 2 232 0
 883 002c 5868     		ldr	r0, [r3, #4]	@ unaligned
 234:..\..\src/disk.c **** 		scsiDev.target->liveCfg.bytesPerSector,
 884              		.loc 2 234 0
 885 002e 494B     		ldr	r3, .L49
 886 0030 1B6E     		ldr	r3, [r3, #96]
 232:..\..\src/disk.c **** 		scsiDev.target->cfg->sdSectorStart,
 887              		.loc 2 232 0
 888 0032 1989     		ldrh	r1, [r3, #8]
 235:..\..\src/disk.c **** 		scsiDev.target->cfg->scsiSectors);
 889              		.loc 2 235 0
 890 0034 474B     		ldr	r3, .L49
 891 0036 1B6E     		ldr	r3, [r3, #96]
 892 0038 5B68     		ldr	r3, [r3, #4]
 232:..\..\src/disk.c **** 		scsiDev.target->cfg->sdSectorStart,
 893              		.loc 2 232 0
 894 003a 9B68     		ldr	r3, [r3, #8]	@ unaligned
 895 003c 1A46     		mov	r2, r3
 896 003e FFF7FEFF 		bl	getScsiCapacity
 897 0042 F861     		str	r0, [r7, #28]
 236:..\..\src/disk.c **** 	if (unlikely(((uint64) lba) + blocks > capacity))
 898              		.loc 2 236 0
 899 0044 7B68     		ldr	r3, [r7, #4]
 900 0046 1946     		mov	r1, r3
 901 0048 4FF00002 		mov	r2, #0
 902 004c 3B68     		ldr	r3, [r7]
 903 004e 4FF00004 		mov	r4, #0
 904 0052 5B18     		adds	r3, r3, r1
 905 0054 44EB0204 		adc	r4, r4, r2
 906 0058 FA69     		ldr	r2, [r7, #28]
 907 005a 1146     		mov	r1, r2
 908 005c 4FF00002 		mov	r2, #0
 909 0060 A242     		cmp	r2, r4
 910 0062 08BF     		it	eq
 911 0064 9942     		cmpeq	r1, r3
 912 0066 34BF     		ite	cc
 913 0068 0123     		movcc	r3, #1
 914 006a 0023     		movcs	r3, #0
 915 006c DBB2     		uxtb	r3, r3
 916 006e 002B     		cmp	r3, #0
 917 0070 13D0     		beq	.L43
 237:..\..\src/disk.c **** 	{
 238:..\..\src/disk.c **** 		scsiDev.status = CHECK_CONDITION;
 918              		.loc 2 238 0
 919 0072 384B     		ldr	r3, .L49
 920 0074 03F58343 		add	r3, r3, #16768
 921 0078 1C33     		adds	r3, r3, #28
 922 007a 0222     		movs	r2, #2
 923 007c 1A70     		strb	r2, [r3]
 239:..\..\src/disk.c **** 		scsiDev.target->sense.code = ILLEGAL_REQUEST;
 924              		.loc 2 239 0
 925 007e 354B     		ldr	r3, .L49
ARM GAS  C:\Users\r\AppData\Local\Temp\ccBAatSA.s 			page 23


 926 0080 1B6E     		ldr	r3, [r3, #96]
 927 0082 0522     		movs	r2, #5
 928 0084 9A72     		strb	r2, [r3, #10]
 240:..\..\src/disk.c **** 		scsiDev.target->sense.asc = LOGICAL_BLOCK_ADDRESS_OUT_OF_RANGE;
 929              		.loc 2 240 0
 930 0086 334B     		ldr	r3, .L49
 931 0088 1B6E     		ldr	r3, [r3, #96]
 932 008a 4FF40452 		mov	r2, #8448
 933 008e 9A81     		strh	r2, [r3, #12]	@ movhi
 241:..\..\src/disk.c **** 		scsiDev.phase = STATUS;
 934              		.loc 2 241 0
 935 0090 304B     		ldr	r3, .L49
 936 0092 0622     		movs	r2, #6
 937 0094 C3F87821 		str	r2, [r3, #376]
 242:..\..\src/disk.c **** 	}
 243:..\..\src/disk.c **** 	else
 244:..\..\src/disk.c **** 	{
 245:..\..\src/disk.c **** 		transfer.lba = lba;
 246:..\..\src/disk.c **** 		transfer.blocks = blocks;
 247:..\..\src/disk.c **** 		transfer.currentBlock = 0;
 248:..\..\src/disk.c **** 		scsiDev.phase = DATA_IN;
 249:..\..\src/disk.c **** 		scsiDev.dataLen = 0; // No data yet
 250:..\..\src/disk.c **** 
 251:..\..\src/disk.c **** 		uint32_t bytesPerSector = scsiDev.target->liveCfg.bytesPerSector;
 252:..\..\src/disk.c **** 		uint32_t sdSectorPerSCSISector = SDSectorsPerSCSISector(bytesPerSector);
 253:..\..\src/disk.c **** 		uint32_t sdSectors =
 254:..\..\src/disk.c **** 			blocks * sdSectorPerSCSISector;
 255:..\..\src/disk.c **** 
 256:..\..\src/disk.c **** 		if ((
 257:..\..\src/disk.c **** 				(sdSectors == 1) &&
 258:..\..\src/disk.c **** 				!(scsiDev.boardCfg.flags & CONFIG_ENABLE_CACHE)
 259:..\..\src/disk.c **** 			) ||
 260:..\..\src/disk.c **** 			unlikely(((uint64) lba) + blocks == capacity)
 261:..\..\src/disk.c **** 			)
 262:..\..\src/disk.c **** 		{
 263:..\..\src/disk.c **** 			// We get errors on reading the last sector using a multi-sector
 264:..\..\src/disk.c **** 			// read :-(
 265:..\..\src/disk.c **** 			transfer.multiBlock = 0;
 266:..\..\src/disk.c **** 		}
 267:..\..\src/disk.c **** 		else
 268:..\..\src/disk.c **** 		{
 269:..\..\src/disk.c **** 			transfer.multiBlock = 1;
 270:..\..\src/disk.c **** 
 271:..\..\src/disk.c **** 			uint32_t sdLBA =
 272:..\..\src/disk.c **** 				SCSISector2SD(
 273:..\..\src/disk.c **** 					scsiDev.target->cfg->sdSectorStart,
 274:..\..\src/disk.c **** 					bytesPerSector,
 275:..\..\src/disk.c **** 					lba);
 276:..\..\src/disk.c **** 
 277:..\..\src/disk.c **** 			sdReadMultiSectorPrep(sdLBA, sdSectors);
 278:..\..\src/disk.c **** 		}
 279:..\..\src/disk.c **** 	}
 280:..\..\src/disk.c **** }
 938              		.loc 2 280 0
 939 0098 57E0     		b	.L48
 940              	.L43:
 941              	.LBB5:
ARM GAS  C:\Users\r\AppData\Local\Temp\ccBAatSA.s 			page 24


 245:..\..\src/disk.c **** 		transfer.blocks = blocks;
 942              		.loc 2 245 0
 943 009a 2F4A     		ldr	r2, .L49+4
 944 009c 7B68     		ldr	r3, [r7, #4]
 945 009e 5360     		str	r3, [r2, #4]
 246:..\..\src/disk.c **** 		transfer.currentBlock = 0;
 946              		.loc 2 246 0
 947 00a0 2D4A     		ldr	r2, .L49+4
 948 00a2 3B68     		ldr	r3, [r7]
 949 00a4 9360     		str	r3, [r2, #8]
 247:..\..\src/disk.c **** 		scsiDev.phase = DATA_IN;
 950              		.loc 2 247 0
 951 00a6 2C4B     		ldr	r3, .L49+4
 952 00a8 0022     		movs	r2, #0
 953 00aa DA60     		str	r2, [r3, #12]
 248:..\..\src/disk.c **** 		scsiDev.dataLen = 0; // No data yet
 954              		.loc 2 248 0
 955 00ac 294B     		ldr	r3, .L49
 956 00ae 0422     		movs	r2, #4
 957 00b0 C3F87821 		str	r2, [r3, #376]
 249:..\..\src/disk.c **** 
 958              		.loc 2 249 0
 959 00b4 274B     		ldr	r3, .L49
 960 00b6 03F58343 		add	r3, r3, #16768
 961 00ba 0433     		adds	r3, r3, #4
 962 00bc 0022     		movs	r2, #0
 963 00be 1A60     		str	r2, [r3]
 251:..\..\src/disk.c **** 		uint32_t sdSectorPerSCSISector = SDSectorsPerSCSISector(bytesPerSector);
 964              		.loc 2 251 0
 965 00c0 244B     		ldr	r3, .L49
 966 00c2 1B6E     		ldr	r3, [r3, #96]
 967 00c4 1B89     		ldrh	r3, [r3, #8]
 968 00c6 BB61     		str	r3, [r7, #24]
 252:..\..\src/disk.c **** 		uint32_t sdSectors =
 969              		.loc 2 252 0
 970 00c8 BB69     		ldr	r3, [r7, #24]
 971 00ca 9BB2     		uxth	r3, r3
 972 00cc 1846     		mov	r0, r3
 973 00ce FFF7FEFF 		bl	SDSectorsPerSCSISector
 974 00d2 0346     		mov	r3, r0
 975 00d4 7B61     		str	r3, [r7, #20]
 253:..\..\src/disk.c **** 			blocks * sdSectorPerSCSISector;
 976              		.loc 2 253 0
 977 00d6 3B68     		ldr	r3, [r7]
 978 00d8 7A69     		ldr	r2, [r7, #20]
 979 00da 02FB03F3 		mul	r3, r2, r3
 980 00de 3B61     		str	r3, [r7, #16]
 256:..\..\src/disk.c **** 				(sdSectors == 1) &&
 981              		.loc 2 256 0
 982 00e0 3B69     		ldr	r3, [r7, #16]
 983 00e2 012B     		cmp	r3, #1
 984 00e4 06D1     		bne	.L45
 258:..\..\src/disk.c **** 			) ||
 985              		.loc 2 258 0
 986 00e6 1B4B     		ldr	r3, .L49
 987 00e8 93F86830 		ldrb	r3, [r3, #104]	@ zero_extendqisi2
 988 00ec 03F01003 		and	r3, r3, #16
ARM GAS  C:\Users\r\AppData\Local\Temp\ccBAatSA.s 			page 25


 257:..\..\src/disk.c **** 				!(scsiDev.boardCfg.flags & CONFIG_ENABLE_CACHE)
 989              		.loc 2 257 0
 990 00f0 002B     		cmp	r3, #0
 991 00f2 14D0     		beq	.L46
 992              	.L45:
 260:..\..\src/disk.c **** 			)
 993              		.loc 2 260 0
 994 00f4 7B68     		ldr	r3, [r7, #4]
 995 00f6 1946     		mov	r1, r3
 996 00f8 4FF00002 		mov	r2, #0
 997 00fc 3B68     		ldr	r3, [r7]
 998 00fe 4FF00004 		mov	r4, #0
 999 0102 C918     		adds	r1, r1, r3
 1000 0104 42EB0402 		adc	r2, r2, r4
 1001 0108 FB69     		ldr	r3, [r7, #28]
 1002 010a 4FF00004 		mov	r4, #0
 1003 010e A242     		cmp	r2, r4
 1004 0110 06BF     		itte	eq
 1005 0112 9942     		cmpeq	r1, r3
 1006 0114 0123     		moveq	r3, #1
 1007 0116 0023     		movne	r3, #0
 1008 0118 DBB2     		uxtb	r3, r3
 259:..\..\src/disk.c **** 			unlikely(((uint64) lba) + blocks == capacity)
 1009              		.loc 2 259 0
 1010 011a 002B     		cmp	r3, #0
 1011 011c 03D0     		beq	.L47
 1012              	.L46:
 265:..\..\src/disk.c **** 		}
 1013              		.loc 2 265 0
 1014 011e 0E4B     		ldr	r3, .L49+4
 1015 0120 0022     		movs	r2, #0
 1016 0122 1A60     		str	r2, [r3]
 1017              	.LBE5:
 1018              		.loc 2 280 0
 1019 0124 11E0     		b	.L48
 1020              	.L47:
 1021              	.LBB7:
 1022              	.LBB6:
 269:..\..\src/disk.c **** 
 1023              		.loc 2 269 0
 1024 0126 0C4B     		ldr	r3, .L49+4
 1025 0128 0122     		movs	r2, #1
 1026 012a 1A60     		str	r2, [r3]
 273:..\..\src/disk.c **** 					bytesPerSector,
 1027              		.loc 2 273 0
 1028 012c 094B     		ldr	r3, .L49
 1029 012e 1B6E     		ldr	r3, [r3, #96]
 1030 0130 5B68     		ldr	r3, [r3, #4]
 272:..\..\src/disk.c **** 					scsiDev.target->cfg->sdSectorStart,
 1031              		.loc 2 272 0
 1032 0132 5B68     		ldr	r3, [r3, #4]	@ unaligned
 1033 0134 BA69     		ldr	r2, [r7, #24]
 1034 0136 91B2     		uxth	r1, r2
 271:..\..\src/disk.c **** 				SCSISector2SD(
 1035              		.loc 2 271 0
 1036 0138 7A68     		ldr	r2, [r7, #4]
 1037 013a 1846     		mov	r0, r3
ARM GAS  C:\Users\r\AppData\Local\Temp\ccBAatSA.s 			page 26


 1038 013c FFF7FEFF 		bl	SCSISector2SD
 1039 0140 F860     		str	r0, [r7, #12]
 277:..\..\src/disk.c **** 		}
 1040              		.loc 2 277 0
 1041 0142 3969     		ldr	r1, [r7, #16]
 1042 0144 F868     		ldr	r0, [r7, #12]
 1043 0146 FFF7FEFF 		bl	sdReadMultiSectorPrep
 1044              	.L48:
 1045              	.LBE6:
 1046              	.LBE7:
 1047              		.loc 2 280 0
 1048 014a 00BF     		nop
 1049 014c 2437     		adds	r7, r7, #36
 1050              		.cfi_def_cfa_offset 12
 1051 014e BD46     		mov	sp, r7
 1052              		.cfi_def_cfa_register 13
 1053              		@ sp needed
 1054 0150 90BD     		pop	{r4, r7, pc}
 1055              	.L50:
 1056 0152 00BF     		.align	2
 1057              	.L49:
 1058 0154 00000000 		.word	scsiDev
 1059 0158 00000000 		.word	transfer
 1060              		.cfi_endproc
 1061              	.LFE71:
 1062              		.size	doRead, .-doRead
 1063              		.section	.text.doSeek,"ax",%progbits
 1064              		.align	2
 1065              		.thumb
 1066              		.thumb_func
 1067              		.type	doSeek, %function
 1068              	doSeek:
 1069              	.LFB72:
 281:..\..\src/disk.c **** 
 282:..\..\src/disk.c **** static void doSeek(uint32 lba)
 283:..\..\src/disk.c **** {
 1070              		.loc 2 283 0
 1071              		.cfi_startproc
 1072              		@ args = 0, pretend = 0, frame = 8
 1073              		@ frame_needed = 1, uses_anonymous_args = 0
 1074 0000 80B5     		push	{r7, lr}
 1075              		.cfi_def_cfa_offset 8
 1076              		.cfi_offset 7, -8
 1077              		.cfi_offset 14, -4
 1078 0002 82B0     		sub	sp, sp, #8
 1079              		.cfi_def_cfa_offset 16
 1080 0004 00AF     		add	r7, sp, #0
 1081              		.cfi_def_cfa_register 7
 1082 0006 7860     		str	r0, [r7, #4]
 284:..\..\src/disk.c **** 	if (lba >=
 285:..\..\src/disk.c **** 		getScsiCapacity(
 286:..\..\src/disk.c **** 			scsiDev.target->cfg->sdSectorStart,
 1083              		.loc 2 286 0
 1084 0008 164B     		ldr	r3, .L55
 1085 000a 1B6E     		ldr	r3, [r3, #96]
 1086 000c 5B68     		ldr	r3, [r3, #4]
 285:..\..\src/disk.c **** 			scsiDev.target->cfg->sdSectorStart,
ARM GAS  C:\Users\r\AppData\Local\Temp\ccBAatSA.s 			page 27


 1087              		.loc 2 285 0
 1088 000e 5868     		ldr	r0, [r3, #4]	@ unaligned
 287:..\..\src/disk.c **** 			scsiDev.target->liveCfg.bytesPerSector,
 1089              		.loc 2 287 0
 1090 0010 144B     		ldr	r3, .L55
 1091 0012 1B6E     		ldr	r3, [r3, #96]
 285:..\..\src/disk.c **** 			scsiDev.target->cfg->sdSectorStart,
 1092              		.loc 2 285 0
 1093 0014 1989     		ldrh	r1, [r3, #8]
 288:..\..\src/disk.c **** 			scsiDev.target->cfg->scsiSectors)
 1094              		.loc 2 288 0
 1095 0016 134B     		ldr	r3, .L55
 1096 0018 1B6E     		ldr	r3, [r3, #96]
 1097 001a 5B68     		ldr	r3, [r3, #4]
 285:..\..\src/disk.c **** 			scsiDev.target->cfg->sdSectorStart,
 1098              		.loc 2 285 0
 1099 001c 9B68     		ldr	r3, [r3, #8]	@ unaligned
 1100 001e 1A46     		mov	r2, r3
 1101 0020 FFF7FEFF 		bl	getScsiCapacity
 1102 0024 0246     		mov	r2, r0
 284:..\..\src/disk.c **** 		getScsiCapacity(
 1103              		.loc 2 284 0
 1104 0026 7B68     		ldr	r3, [r7, #4]
 1105 0028 9A42     		cmp	r2, r3
 1106 002a 13D8     		bhi	.L52
 289:..\..\src/disk.c **** 		)
 290:..\..\src/disk.c **** 	{
 291:..\..\src/disk.c **** 		scsiDev.status = CHECK_CONDITION;
 1107              		.loc 2 291 0
 1108 002c 0D4B     		ldr	r3, .L55
 1109 002e 03F58343 		add	r3, r3, #16768
 1110 0032 1C33     		adds	r3, r3, #28
 1111 0034 0222     		movs	r2, #2
 1112 0036 1A70     		strb	r2, [r3]
 292:..\..\src/disk.c **** 		scsiDev.target->sense.code = ILLEGAL_REQUEST;
 1113              		.loc 2 292 0
 1114 0038 0A4B     		ldr	r3, .L55
 1115 003a 1B6E     		ldr	r3, [r3, #96]
 1116 003c 0522     		movs	r2, #5
 1117 003e 9A72     		strb	r2, [r3, #10]
 293:..\..\src/disk.c **** 		scsiDev.target->sense.asc = LOGICAL_BLOCK_ADDRESS_OUT_OF_RANGE;
 1118              		.loc 2 293 0
 1119 0040 084B     		ldr	r3, .L55
 1120 0042 1B6E     		ldr	r3, [r3, #96]
 1121 0044 4FF40452 		mov	r2, #8448
 1122 0048 9A81     		strh	r2, [r3, #12]	@ movhi
 294:..\..\src/disk.c **** 		scsiDev.phase = STATUS;
 1123              		.loc 2 294 0
 1124 004a 064B     		ldr	r3, .L55
 1125 004c 0622     		movs	r2, #6
 1126 004e C3F87821 		str	r2, [r3, #376]
 295:..\..\src/disk.c **** 	}
 296:..\..\src/disk.c ****     else
 297:..\..\src/disk.c ****     {
 298:..\..\src/disk.c ****         CyDelay(10);
 299:..\..\src/disk.c ****     }
 300:..\..\src/disk.c **** }
ARM GAS  C:\Users\r\AppData\Local\Temp\ccBAatSA.s 			page 28


 1127              		.loc 2 300 0
 1128 0052 02E0     		b	.L54
 1129              	.L52:
 298:..\..\src/disk.c ****     }
 1130              		.loc 2 298 0
 1131 0054 0A20     		movs	r0, #10
 1132 0056 FFF7FEFF 		bl	CyDelay
 1133              	.L54:
 1134              		.loc 2 300 0
 1135 005a 00BF     		nop
 1136 005c 0837     		adds	r7, r7, #8
 1137              		.cfi_def_cfa_offset 8
 1138 005e BD46     		mov	sp, r7
 1139              		.cfi_def_cfa_register 13
 1140              		@ sp needed
 1141 0060 80BD     		pop	{r7, pc}
 1142              	.L56:
 1143 0062 00BF     		.align	2
 1144              	.L55:
 1145 0064 00000000 		.word	scsiDev
 1146              		.cfi_endproc
 1147              	.LFE72:
 1148              		.size	doSeek, .-doSeek
 1149              		.section	.text.doTestUnitReady,"ax",%progbits
 1150              		.align	2
 1151              		.thumb
 1152              		.thumb_func
 1153              		.type	doTestUnitReady, %function
 1154              	doTestUnitReady:
 1155              	.LFB73:
 301:..\..\src/disk.c **** 
 302:..\..\src/disk.c **** static int doTestUnitReady()
 303:..\..\src/disk.c **** {
 1156              		.loc 2 303 0
 1157              		.cfi_startproc
 1158              		@ args = 0, pretend = 0, frame = 8
 1159              		@ frame_needed = 1, uses_anonymous_args = 0
 1160              		@ link register save eliminated.
 1161 0000 80B4     		push	{r7}
 1162              		.cfi_def_cfa_offset 4
 1163              		.cfi_offset 7, -4
 1164 0002 83B0     		sub	sp, sp, #12
 1165              		.cfi_def_cfa_offset 16
 1166 0004 00AF     		add	r7, sp, #0
 1167              		.cfi_def_cfa_register 7
 304:..\..\src/disk.c **** 	int ready = 1;
 1168              		.loc 2 304 0
 1169 0006 0123     		movs	r3, #1
 1170 0008 7B60     		str	r3, [r7, #4]
 305:..\..\src/disk.c **** 	if (likely(blockDev.state == (DISK_STARTED | DISK_PRESENT | DISK_INITIALISED)))
 1171              		.loc 2 305 0
 1172 000a 384B     		ldr	r3, .L62
 1173 000c 1B68     		ldr	r3, [r3]
 1174 000e 072B     		cmp	r3, #7
 1175 0010 0CBF     		ite	eq
 1176 0012 0123     		moveq	r3, #1
 1177 0014 0023     		movne	r3, #0
ARM GAS  C:\Users\r\AppData\Local\Temp\ccBAatSA.s 			page 29


 1178 0016 DBB2     		uxtb	r3, r3
 1179 0018 002B     		cmp	r3, #0
 1180 001a 61D1     		bne	.L58
 306:..\..\src/disk.c **** 	{
 307:..\..\src/disk.c **** 		// nothing to do.
 308:..\..\src/disk.c **** 	}
 309:..\..\src/disk.c **** 	else if (unlikely(!(blockDev.state & DISK_STARTED)))
 1181              		.loc 2 309 0
 1182 001c 334B     		ldr	r3, .L62
 1183 001e 1B68     		ldr	r3, [r3]
 1184 0020 03F00103 		and	r3, r3, #1
 1185 0024 002B     		cmp	r3, #0
 1186 0026 0CBF     		ite	eq
 1187 0028 0123     		moveq	r3, #1
 1188 002a 0023     		movne	r3, #0
 1189 002c DBB2     		uxtb	r3, r3
 1190 002e 002B     		cmp	r3, #0
 1191 0030 15D0     		beq	.L59
 310:..\..\src/disk.c **** 	{
 311:..\..\src/disk.c **** 		ready = 0;
 1192              		.loc 2 311 0
 1193 0032 0023     		movs	r3, #0
 1194 0034 7B60     		str	r3, [r7, #4]
 312:..\..\src/disk.c **** 		scsiDev.status = CHECK_CONDITION;
 1195              		.loc 2 312 0
 1196 0036 2E4B     		ldr	r3, .L62+4
 1197 0038 03F58343 		add	r3, r3, #16768
 1198 003c 1C33     		adds	r3, r3, #28
 1199 003e 0222     		movs	r2, #2
 1200 0040 1A70     		strb	r2, [r3]
 313:..\..\src/disk.c **** 		scsiDev.target->sense.code = NOT_READY;
 1201              		.loc 2 313 0
 1202 0042 2B4B     		ldr	r3, .L62+4
 1203 0044 1B6E     		ldr	r3, [r3, #96]
 1204 0046 0222     		movs	r2, #2
 1205 0048 9A72     		strb	r2, [r3, #10]
 314:..\..\src/disk.c **** 		scsiDev.target->sense.asc = LOGICAL_UNIT_NOT_READY_INITIALIZING_COMMAND_REQUIRED;
 1206              		.loc 2 314 0
 1207 004a 294B     		ldr	r3, .L62+4
 1208 004c 1B6E     		ldr	r3, [r3, #96]
 1209 004e 40F20242 		movw	r2, #1026
 1210 0052 9A81     		strh	r2, [r3, #12]	@ movhi
 315:..\..\src/disk.c **** 		scsiDev.phase = STATUS;
 1211              		.loc 2 315 0
 1212 0054 264B     		ldr	r3, .L62+4
 1213 0056 0622     		movs	r2, #6
 1214 0058 C3F87821 		str	r2, [r3, #376]
 1215 005c 40E0     		b	.L58
 1216              	.L59:
 316:..\..\src/disk.c **** 	}
 317:..\..\src/disk.c **** 	else if (unlikely(!(blockDev.state & DISK_PRESENT)))
 1217              		.loc 2 317 0
 1218 005e 234B     		ldr	r3, .L62
 1219 0060 1B68     		ldr	r3, [r3]
 1220 0062 03F00203 		and	r3, r3, #2
 1221 0066 002B     		cmp	r3, #0
 1222 0068 0CBF     		ite	eq
ARM GAS  C:\Users\r\AppData\Local\Temp\ccBAatSA.s 			page 30


 1223 006a 0123     		moveq	r3, #1
 1224 006c 0023     		movne	r3, #0
 1225 006e DBB2     		uxtb	r3, r3
 1226 0070 002B     		cmp	r3, #0
 1227 0072 15D0     		beq	.L60
 318:..\..\src/disk.c **** 	{
 319:..\..\src/disk.c **** 		ready = 0;
 1228              		.loc 2 319 0
 1229 0074 0023     		movs	r3, #0
 1230 0076 7B60     		str	r3, [r7, #4]
 320:..\..\src/disk.c **** 		scsiDev.status = CHECK_CONDITION;
 1231              		.loc 2 320 0
 1232 0078 1D4B     		ldr	r3, .L62+4
 1233 007a 03F58343 		add	r3, r3, #16768
 1234 007e 1C33     		adds	r3, r3, #28
 1235 0080 0222     		movs	r2, #2
 1236 0082 1A70     		strb	r2, [r3]
 321:..\..\src/disk.c **** 		scsiDev.target->sense.code = NOT_READY;
 1237              		.loc 2 321 0
 1238 0084 1A4B     		ldr	r3, .L62+4
 1239 0086 1B6E     		ldr	r3, [r3, #96]
 1240 0088 0222     		movs	r2, #2
 1241 008a 9A72     		strb	r2, [r3, #10]
 322:..\..\src/disk.c **** 		scsiDev.target->sense.asc = MEDIUM_NOT_PRESENT;
 1242              		.loc 2 322 0
 1243 008c 184B     		ldr	r3, .L62+4
 1244 008e 1B6E     		ldr	r3, [r3, #96]
 1245 0090 4FF46852 		mov	r2, #14848
 1246 0094 9A81     		strh	r2, [r3, #12]	@ movhi
 323:..\..\src/disk.c **** 		scsiDev.phase = STATUS;
 1247              		.loc 2 323 0
 1248 0096 164B     		ldr	r3, .L62+4
 1249 0098 0622     		movs	r2, #6
 1250 009a C3F87821 		str	r2, [r3, #376]
 1251 009e 1FE0     		b	.L58
 1252              	.L60:
 324:..\..\src/disk.c **** 	}
 325:..\..\src/disk.c **** 	else if (unlikely(!(blockDev.state & DISK_INITIALISED)))
 1253              		.loc 2 325 0
 1254 00a0 124B     		ldr	r3, .L62
 1255 00a2 1B68     		ldr	r3, [r3]
 1256 00a4 03F00403 		and	r3, r3, #4
 1257 00a8 002B     		cmp	r3, #0
 1258 00aa 0CBF     		ite	eq
 1259 00ac 0123     		moveq	r3, #1
 1260 00ae 0023     		movne	r3, #0
 1261 00b0 DBB2     		uxtb	r3, r3
 1262 00b2 002B     		cmp	r3, #0
 1263 00b4 14D0     		beq	.L58
 326:..\..\src/disk.c **** 	{
 327:..\..\src/disk.c **** 		ready = 0;
 1264              		.loc 2 327 0
 1265 00b6 0023     		movs	r3, #0
 1266 00b8 7B60     		str	r3, [r7, #4]
 328:..\..\src/disk.c **** 		scsiDev.status = CHECK_CONDITION;
 1267              		.loc 2 328 0
 1268 00ba 0D4B     		ldr	r3, .L62+4
ARM GAS  C:\Users\r\AppData\Local\Temp\ccBAatSA.s 			page 31


 1269 00bc 03F58343 		add	r3, r3, #16768
 1270 00c0 1C33     		adds	r3, r3, #28
 1271 00c2 0222     		movs	r2, #2
 1272 00c4 1A70     		strb	r2, [r3]
 329:..\..\src/disk.c **** 		scsiDev.target->sense.code = NOT_READY;
 1273              		.loc 2 329 0
 1274 00c6 0A4B     		ldr	r3, .L62+4
 1275 00c8 1B6E     		ldr	r3, [r3, #96]
 1276 00ca 0222     		movs	r2, #2
 1277 00cc 9A72     		strb	r2, [r3, #10]
 330:..\..\src/disk.c **** 		scsiDev.target->sense.asc = LOGICAL_UNIT_NOT_READY_CAUSE_NOT_REPORTABLE;
 1278              		.loc 2 330 0
 1279 00ce 084B     		ldr	r3, .L62+4
 1280 00d0 1B6E     		ldr	r3, [r3, #96]
 1281 00d2 4FF48062 		mov	r2, #1024
 1282 00d6 9A81     		strh	r2, [r3, #12]	@ movhi
 331:..\..\src/disk.c **** 		scsiDev.phase = STATUS;
 1283              		.loc 2 331 0
 1284 00d8 054B     		ldr	r3, .L62+4
 1285 00da 0622     		movs	r2, #6
 1286 00dc C3F87821 		str	r2, [r3, #376]
 1287              	.L58:
 332:..\..\src/disk.c **** 	}
 333:..\..\src/disk.c **** 	return ready;
 1288              		.loc 2 333 0
 1289 00e0 7B68     		ldr	r3, [r7, #4]
 334:..\..\src/disk.c **** }
 1290              		.loc 2 334 0
 1291 00e2 1846     		mov	r0, r3
 1292 00e4 0C37     		adds	r7, r7, #12
 1293              		.cfi_def_cfa_offset 4
 1294 00e6 BD46     		mov	sp, r7
 1295              		.cfi_def_cfa_register 13
 1296              		@ sp needed
 1297 00e8 80BC     		pop	{r7}
 1298              		.cfi_restore 7
 1299              		.cfi_def_cfa_offset 0
 1300 00ea 7047     		bx	lr
 1301              	.L63:
 1302              		.align	2
 1303              	.L62:
 1304 00ec 00000000 		.word	blockDev
 1305 00f0 00000000 		.word	scsiDev
 1306              		.cfi_endproc
 1307              	.LFE73:
 1308              		.size	doTestUnitReady, .-doTestUnitReady
 1309              		.section	.text.scsiDiskCommand,"ax",%progbits
 1310              		.align	2
 1311              		.global	scsiDiskCommand
 1312              		.thumb
 1313              		.thumb_func
 1314              		.type	scsiDiskCommand, %function
 1315              	scsiDiskCommand:
 1316              	.LFB74:
 335:..\..\src/disk.c **** 
 336:..\..\src/disk.c **** // Handle direct-access scsi device commands
 337:..\..\src/disk.c **** int scsiDiskCommand()
ARM GAS  C:\Users\r\AppData\Local\Temp\ccBAatSA.s 			page 32


 338:..\..\src/disk.c **** {
 1317              		.loc 2 338 0
 1318              		.cfi_startproc
 1319              		@ args = 0, pretend = 0, frame = 56
 1320              		@ frame_needed = 1, uses_anonymous_args = 0
 1321 0000 80B5     		push	{r7, lr}
 1322              		.cfi_def_cfa_offset 8
 1323              		.cfi_offset 7, -8
 1324              		.cfi_offset 14, -4
 1325 0002 8EB0     		sub	sp, sp, #56
 1326              		.cfi_def_cfa_offset 64
 1327 0004 00AF     		add	r7, sp, #0
 1328              		.cfi_def_cfa_register 7
 339:..\..\src/disk.c **** 	int commandHandled = 1;
 1329              		.loc 2 339 0
 1330 0006 0123     		movs	r3, #1
 1331 0008 7B63     		str	r3, [r7, #52]
 340:..\..\src/disk.c **** 
 341:..\..\src/disk.c **** 	uint8 command = scsiDev.cdb[0];
 1332              		.loc 2 341 0
 1333 000a A94B     		ldr	r3, .L87
 1334 000c 03F58343 		add	r3, r3, #16768
 1335 0010 0833     		adds	r3, r3, #8
 1336 0012 1B78     		ldrb	r3, [r3]
 1337 0014 87F82B30 		strb	r3, [r7, #43]
 342:..\..\src/disk.c **** 	if (unlikely(command == 0x1B))
 1338              		.loc 2 342 0
 1339 0018 97F82B30 		ldrb	r3, [r7, #43]	@ zero_extendqisi2
 1340 001c 1B2B     		cmp	r3, #27
 1341 001e 0CBF     		ite	eq
 1342 0020 0123     		moveq	r3, #1
 1343 0022 0023     		movne	r3, #0
 1344 0024 DBB2     		uxtb	r3, r3
 1345 0026 002B     		cmp	r3, #0
 1346 0028 21D0     		beq	.L65
 1347              	.LBB8:
 343:..\..\src/disk.c **** 	{
 344:..\..\src/disk.c **** 		// START STOP UNIT
 345:..\..\src/disk.c **** 		// Enable or disable media access operations.
 346:..\..\src/disk.c **** 		// Ignore load/eject requests. We can't do that.
 347:..\..\src/disk.c **** 		//int immed = scsiDev.cdb[1] & 1;
 348:..\..\src/disk.c **** 		int start = scsiDev.cdb[4] & 1;
 1348              		.loc 2 348 0
 1349 002a A14B     		ldr	r3, .L87
 1350 002c 03F58343 		add	r3, r3, #16768
 1351 0030 0C33     		adds	r3, r3, #12
 1352 0032 1B78     		ldrb	r3, [r3]	@ zero_extendqisi2
 1353 0034 03F00103 		and	r3, r3, #1
 1354 0038 7B62     		str	r3, [r7, #36]
 349:..\..\src/disk.c **** 
 350:..\..\src/disk.c **** 		if (start)
 1355              		.loc 2 350 0
 1356 003a 7B6A     		ldr	r3, [r7, #36]
 1357 003c 002B     		cmp	r3, #0
 1358 003e 0FD0     		beq	.L66
 351:..\..\src/disk.c **** 		{
 352:..\..\src/disk.c **** 			blockDev.state = blockDev.state | DISK_STARTED;
ARM GAS  C:\Users\r\AppData\Local\Temp\ccBAatSA.s 			page 33


 1359              		.loc 2 352 0
 1360 0040 9C4B     		ldr	r3, .L87+4
 1361 0042 1B68     		ldr	r3, [r3]
 1362 0044 43F00103 		orr	r3, r3, #1
 1363 0048 9A4A     		ldr	r2, .L87+4
 1364 004a 1360     		str	r3, [r2]
 353:..\..\src/disk.c **** 			if (!(blockDev.state & DISK_INITIALISED))
 1365              		.loc 2 353 0
 1366 004c 994B     		ldr	r3, .L87+4
 1367 004e 1B68     		ldr	r3, [r3]
 1368 0050 03F00403 		and	r3, r3, #4
 1369 0054 002B     		cmp	r3, #0
 1370 0056 40F0FA81 		bne	.L69
 354:..\..\src/disk.c **** 			{
 355:..\..\src/disk.c **** 				doSdInit();
 1371              		.loc 2 355 0
 1372 005a FFF7FEFF 		bl	doSdInit
 1373 005e F6E1     		b	.L69
 1374              	.L66:
 356:..\..\src/disk.c **** 			}
 357:..\..\src/disk.c **** 		}
 358:..\..\src/disk.c **** 		else
 359:..\..\src/disk.c **** 		{
 360:..\..\src/disk.c **** 			blockDev.state &= ~DISK_STARTED;
 1375              		.loc 2 360 0
 1376 0060 944B     		ldr	r3, .L87+4
 1377 0062 1B68     		ldr	r3, [r3]
 1378 0064 23F00103 		bic	r3, r3, #1
 1379 0068 924A     		ldr	r2, .L87+4
 1380 006a 1360     		str	r3, [r2]
 1381 006c EFE1     		b	.L69
 1382              	.L65:
 1383              	.LBE8:
 361:..\..\src/disk.c **** 		}
 362:..\..\src/disk.c **** 	}
 363:..\..\src/disk.c **** 	else if (unlikely(command == 0x00))
 1384              		.loc 2 363 0
 1385 006e 97F82B30 		ldrb	r3, [r7, #43]	@ zero_extendqisi2
 1386 0072 002B     		cmp	r3, #0
 1387 0074 0CBF     		ite	eq
 1388 0076 0123     		moveq	r3, #1
 1389 0078 0023     		movne	r3, #0
 1390 007a DBB2     		uxtb	r3, r3
 1391 007c 002B     		cmp	r3, #0
 1392 007e 02D0     		beq	.L70
 364:..\..\src/disk.c **** 	{
 365:..\..\src/disk.c **** 		// TEST UNIT READY
 366:..\..\src/disk.c **** 		doTestUnitReady();
 1393              		.loc 2 366 0
 1394 0080 FFF7FEFF 		bl	doTestUnitReady
 1395 0084 E3E1     		b	.L69
 1396              	.L70:
 367:..\..\src/disk.c **** 	}
 368:..\..\src/disk.c **** 	else if (unlikely(!doTestUnitReady()))
 1397              		.loc 2 368 0
 1398 0086 FFF7FEFF 		bl	doTestUnitReady
 1399 008a 0346     		mov	r3, r0
ARM GAS  C:\Users\r\AppData\Local\Temp\ccBAatSA.s 			page 34


 1400 008c 002B     		cmp	r3, #0
 1401 008e 0CBF     		ite	eq
 1402 0090 0123     		moveq	r3, #1
 1403 0092 0023     		movne	r3, #0
 1404 0094 DBB2     		uxtb	r3, r3
 1405 0096 002B     		cmp	r3, #0
 1406 0098 40F0D981 		bne	.L69
 369:..\..\src/disk.c **** 	{
 370:..\..\src/disk.c **** 		// Status and sense codes already set by doTestUnitReady
 371:..\..\src/disk.c **** 	}
 372:..\..\src/disk.c **** 	else if (likely(command == 0x08))
 1407              		.loc 2 372 0
 1408 009c 97F82B30 		ldrb	r3, [r7, #43]	@ zero_extendqisi2
 1409 00a0 082B     		cmp	r3, #8
 1410 00a2 0CBF     		ite	eq
 1411 00a4 0123     		moveq	r3, #1
 1412 00a6 0023     		movne	r3, #0
 1413 00a8 DBB2     		uxtb	r3, r3
 1414 00aa 002B     		cmp	r3, #0
 1415 00ac 2BD0     		beq	.L71
 1416              	.LBB9:
 373:..\..\src/disk.c **** 	{
 374:..\..\src/disk.c **** 		// READ(6)
 375:..\..\src/disk.c **** 		uint32 lba =
 376:..\..\src/disk.c **** 			(((uint32) scsiDev.cdb[1] & 0x1F) << 16) +
 1417              		.loc 2 376 0
 1418 00ae 804B     		ldr	r3, .L87
 1419 00b0 03F58343 		add	r3, r3, #16768
 1420 00b4 0933     		adds	r3, r3, #9
 1421 00b6 1B78     		ldrb	r3, [r3]	@ zero_extendqisi2
 1422 00b8 1B04     		lsls	r3, r3, #16
 1423 00ba 03F4F812 		and	r2, r3, #2031616
 377:..\..\src/disk.c **** 			(((uint32) scsiDev.cdb[2]) << 8) +
 1424              		.loc 2 377 0
 1425 00be 7C4B     		ldr	r3, .L87
 1426 00c0 03F58343 		add	r3, r3, #16768
 1427 00c4 0A33     		adds	r3, r3, #10
 1428 00c6 1B78     		ldrb	r3, [r3]	@ zero_extendqisi2
 1429 00c8 1B02     		lsls	r3, r3, #8
 376:..\..\src/disk.c **** 			(((uint32) scsiDev.cdb[2]) << 8) +
 1430              		.loc 2 376 0
 1431 00ca 1A44     		add	r2, r2, r3
 378:..\..\src/disk.c **** 			scsiDev.cdb[3];
 1432              		.loc 2 378 0
 1433 00cc 784B     		ldr	r3, .L87
 1434 00ce 03F58343 		add	r3, r3, #16768
 1435 00d2 0B33     		adds	r3, r3, #11
 1436 00d4 1B78     		ldrb	r3, [r3]	@ zero_extendqisi2
 375:..\..\src/disk.c **** 			(((uint32) scsiDev.cdb[1] & 0x1F) << 16) +
 1437              		.loc 2 375 0
 1438 00d6 1344     		add	r3, r3, r2
 1439 00d8 3B62     		str	r3, [r7, #32]
 379:..\..\src/disk.c **** 		uint32 blocks = scsiDev.cdb[4];
 1440              		.loc 2 379 0
 1441 00da 754B     		ldr	r3, .L87
 1442 00dc 03F58343 		add	r3, r3, #16768
 1443 00e0 0C33     		adds	r3, r3, #12
ARM GAS  C:\Users\r\AppData\Local\Temp\ccBAatSA.s 			page 35


 1444 00e2 1B78     		ldrb	r3, [r3]	@ zero_extendqisi2
 1445 00e4 3B63     		str	r3, [r7, #48]
 380:..\..\src/disk.c **** 		if (unlikely(blocks == 0)) blocks = 256;
 1446              		.loc 2 380 0
 1447 00e6 3B6B     		ldr	r3, [r7, #48]
 1448 00e8 002B     		cmp	r3, #0
 1449 00ea 0CBF     		ite	eq
 1450 00ec 0123     		moveq	r3, #1
 1451 00ee 0023     		movne	r3, #0
 1452 00f0 DBB2     		uxtb	r3, r3
 1453 00f2 002B     		cmp	r3, #0
 1454 00f4 02D0     		beq	.L72
 1455              		.loc 2 380 0 is_stmt 0 discriminator 1
 1456 00f6 4FF48073 		mov	r3, #256
 1457 00fa 3B63     		str	r3, [r7, #48]
 1458              	.L72:
 381:..\..\src/disk.c **** 		doRead(lba, blocks);
 1459              		.loc 2 381 0 is_stmt 1
 1460 00fc 396B     		ldr	r1, [r7, #48]
 1461 00fe 386A     		ldr	r0, [r7, #32]
 1462 0100 FFF7FEFF 		bl	doRead
 1463              	.LBE9:
 1464 0104 A3E1     		b	.L69
 1465              	.L71:
 382:..\..\src/disk.c **** 	}
 383:..\..\src/disk.c **** 	else if (likely(command == 0x28))
 1466              		.loc 2 383 0
 1467 0106 97F82B30 		ldrb	r3, [r7, #43]	@ zero_extendqisi2
 1468 010a 282B     		cmp	r3, #40
 1469 010c 0CBF     		ite	eq
 1470 010e 0123     		moveq	r3, #1
 1471 0110 0023     		movne	r3, #0
 1472 0112 DBB2     		uxtb	r3, r3
 1473 0114 002B     		cmp	r3, #0
 1474 0116 2CD0     		beq	.L73
 1475              	.LBB10:
 384:..\..\src/disk.c **** 	{
 385:..\..\src/disk.c **** 		// READ(10)
 386:..\..\src/disk.c **** 		// Ignore all cache control bits - we don't support a memory cache.
 387:..\..\src/disk.c **** 
 388:..\..\src/disk.c **** 		uint32 lba =
 389:..\..\src/disk.c **** 			(((uint32) scsiDev.cdb[2]) << 24) +
 1476              		.loc 2 389 0
 1477 0118 654B     		ldr	r3, .L87
 1478 011a 03F58343 		add	r3, r3, #16768
 1479 011e 0A33     		adds	r3, r3, #10
 1480 0120 1B78     		ldrb	r3, [r3]	@ zero_extendqisi2
 1481 0122 1A06     		lsls	r2, r3, #24
 390:..\..\src/disk.c **** 			(((uint32) scsiDev.cdb[3]) << 16) +
 1482              		.loc 2 390 0
 1483 0124 624B     		ldr	r3, .L87
 1484 0126 03F58343 		add	r3, r3, #16768
 1485 012a 0B33     		adds	r3, r3, #11
 1486 012c 1B78     		ldrb	r3, [r3]	@ zero_extendqisi2
 1487 012e 1B04     		lsls	r3, r3, #16
 389:..\..\src/disk.c **** 			(((uint32) scsiDev.cdb[3]) << 16) +
 1488              		.loc 2 389 0
ARM GAS  C:\Users\r\AppData\Local\Temp\ccBAatSA.s 			page 36


 1489 0130 1A44     		add	r2, r2, r3
 391:..\..\src/disk.c **** 			(((uint32) scsiDev.cdb[4]) << 8) +
 1490              		.loc 2 391 0
 1491 0132 5F4B     		ldr	r3, .L87
 1492 0134 03F58343 		add	r3, r3, #16768
 1493 0138 0C33     		adds	r3, r3, #12
 1494 013a 1B78     		ldrb	r3, [r3]	@ zero_extendqisi2
 1495 013c 1B02     		lsls	r3, r3, #8
 390:..\..\src/disk.c **** 			(((uint32) scsiDev.cdb[3]) << 16) +
 1496              		.loc 2 390 0
 1497 013e 1A44     		add	r2, r2, r3
 392:..\..\src/disk.c **** 			scsiDev.cdb[5];
 1498              		.loc 2 392 0
 1499 0140 5B4B     		ldr	r3, .L87
 1500 0142 03F58343 		add	r3, r3, #16768
 1501 0146 0D33     		adds	r3, r3, #13
 1502 0148 1B78     		ldrb	r3, [r3]	@ zero_extendqisi2
 388:..\..\src/disk.c **** 			(((uint32) scsiDev.cdb[2]) << 24) +
 1503              		.loc 2 388 0
 1504 014a 1344     		add	r3, r3, r2
 1505 014c FB61     		str	r3, [r7, #28]
 393:..\..\src/disk.c **** 		uint32 blocks =
 394:..\..\src/disk.c **** 			(((uint32) scsiDev.cdb[7]) << 8) +
 1506              		.loc 2 394 0
 1507 014e 584B     		ldr	r3, .L87
 1508 0150 03F58343 		add	r3, r3, #16768
 1509 0154 0F33     		adds	r3, r3, #15
 1510 0156 1B78     		ldrb	r3, [r3]	@ zero_extendqisi2
 1511 0158 1A02     		lsls	r2, r3, #8
 395:..\..\src/disk.c **** 			scsiDev.cdb[8];
 1512              		.loc 2 395 0
 1513 015a 554B     		ldr	r3, .L87
 1514 015c 03F58343 		add	r3, r3, #16768
 1515 0160 1033     		adds	r3, r3, #16
 1516 0162 1B78     		ldrb	r3, [r3]	@ zero_extendqisi2
 393:..\..\src/disk.c **** 		uint32 blocks =
 1517              		.loc 2 393 0
 1518 0164 1344     		add	r3, r3, r2
 1519 0166 BB61     		str	r3, [r7, #24]
 396:..\..\src/disk.c **** 
 397:..\..\src/disk.c **** 		doRead(lba, blocks);
 1520              		.loc 2 397 0
 1521 0168 B969     		ldr	r1, [r7, #24]
 1522 016a F869     		ldr	r0, [r7, #28]
 1523 016c FFF7FEFF 		bl	doRead
 1524              	.LBE10:
 1525 0170 6DE1     		b	.L69
 1526              	.L73:
 398:..\..\src/disk.c **** 	}
 399:..\..\src/disk.c **** 	else if (likely(command == 0x0A))
 1527              		.loc 2 399 0
 1528 0172 97F82B30 		ldrb	r3, [r7, #43]	@ zero_extendqisi2
 1529 0176 0A2B     		cmp	r3, #10
 1530 0178 0CBF     		ite	eq
 1531 017a 0123     		moveq	r3, #1
 1532 017c 0023     		movne	r3, #0
 1533 017e DBB2     		uxtb	r3, r3
ARM GAS  C:\Users\r\AppData\Local\Temp\ccBAatSA.s 			page 37


 1534 0180 002B     		cmp	r3, #0
 1535 0182 2BD0     		beq	.L74
 1536              	.LBB11:
 400:..\..\src/disk.c **** 	{
 401:..\..\src/disk.c **** 		// WRITE(6)
 402:..\..\src/disk.c **** 		uint32 lba =
 403:..\..\src/disk.c **** 			(((uint32) scsiDev.cdb[1] & 0x1F) << 16) +
 1537              		.loc 2 403 0
 1538 0184 4A4B     		ldr	r3, .L87
 1539 0186 03F58343 		add	r3, r3, #16768
 1540 018a 0933     		adds	r3, r3, #9
 1541 018c 1B78     		ldrb	r3, [r3]	@ zero_extendqisi2
 1542 018e 1B04     		lsls	r3, r3, #16
 1543 0190 03F4F812 		and	r2, r3, #2031616
 404:..\..\src/disk.c **** 			(((uint32) scsiDev.cdb[2]) << 8) +
 1544              		.loc 2 404 0
 1545 0194 464B     		ldr	r3, .L87
 1546 0196 03F58343 		add	r3, r3, #16768
 1547 019a 0A33     		adds	r3, r3, #10
 1548 019c 1B78     		ldrb	r3, [r3]	@ zero_extendqisi2
 1549 019e 1B02     		lsls	r3, r3, #8
 403:..\..\src/disk.c **** 			(((uint32) scsiDev.cdb[2]) << 8) +
 1550              		.loc 2 403 0
 1551 01a0 1A44     		add	r2, r2, r3
 405:..\..\src/disk.c **** 			scsiDev.cdb[3];
 1552              		.loc 2 405 0
 1553 01a2 434B     		ldr	r3, .L87
 1554 01a4 03F58343 		add	r3, r3, #16768
 1555 01a8 0B33     		adds	r3, r3, #11
 1556 01aa 1B78     		ldrb	r3, [r3]	@ zero_extendqisi2
 402:..\..\src/disk.c **** 			(((uint32) scsiDev.cdb[1] & 0x1F) << 16) +
 1557              		.loc 2 402 0
 1558 01ac 1344     		add	r3, r3, r2
 1559 01ae 7B61     		str	r3, [r7, #20]
 406:..\..\src/disk.c **** 		uint32 blocks = scsiDev.cdb[4];
 1560              		.loc 2 406 0
 1561 01b0 3F4B     		ldr	r3, .L87
 1562 01b2 03F58343 		add	r3, r3, #16768
 1563 01b6 0C33     		adds	r3, r3, #12
 1564 01b8 1B78     		ldrb	r3, [r3]	@ zero_extendqisi2
 1565 01ba FB62     		str	r3, [r7, #44]
 407:..\..\src/disk.c **** 		if (unlikely(blocks == 0)) blocks = 256;
 1566              		.loc 2 407 0
 1567 01bc FB6A     		ldr	r3, [r7, #44]
 1568 01be 002B     		cmp	r3, #0
 1569 01c0 0CBF     		ite	eq
 1570 01c2 0123     		moveq	r3, #1
 1571 01c4 0023     		movne	r3, #0
 1572 01c6 DBB2     		uxtb	r3, r3
 1573 01c8 002B     		cmp	r3, #0
 1574 01ca 02D0     		beq	.L75
 1575              		.loc 2 407 0 is_stmt 0 discriminator 1
 1576 01cc 4FF48073 		mov	r3, #256
 1577 01d0 FB62     		str	r3, [r7, #44]
 1578              	.L75:
 408:..\..\src/disk.c **** 		doWrite(lba, blocks);
 1579              		.loc 2 408 0 is_stmt 1
ARM GAS  C:\Users\r\AppData\Local\Temp\ccBAatSA.s 			page 38


 1580 01d2 F96A     		ldr	r1, [r7, #44]
 1581 01d4 7869     		ldr	r0, [r7, #20]
 1582 01d6 FFF7FEFF 		bl	doWrite
 1583              	.LBE11:
 1584 01da 38E1     		b	.L69
 1585              	.L74:
 409:..\..\src/disk.c **** 	}
 410:..\..\src/disk.c **** 	else if (likely(command == 0x2A) || // WRITE(10)
 1586              		.loc 2 410 0
 1587 01dc 97F82B30 		ldrb	r3, [r7, #43]	@ zero_extendqisi2
 1588 01e0 2A2B     		cmp	r3, #42
 1589 01e2 0CBF     		ite	eq
 1590 01e4 0123     		moveq	r3, #1
 1591 01e6 0023     		movne	r3, #0
 1592 01e8 DBB2     		uxtb	r3, r3
 1593 01ea 002B     		cmp	r3, #0
 1594 01ec 08D1     		bne	.L76
 411:..\..\src/disk.c **** 		unlikely(command == 0x2E)) // WRITE AND VERIFY
 1595              		.loc 2 411 0 discriminator 1
 1596 01ee 97F82B30 		ldrb	r3, [r7, #43]	@ zero_extendqisi2
 1597 01f2 2E2B     		cmp	r3, #46
 1598 01f4 0CBF     		ite	eq
 1599 01f6 0123     		moveq	r3, #1
 1600 01f8 0023     		movne	r3, #0
 1601 01fa DBB2     		uxtb	r3, r3
 410:..\..\src/disk.c **** 		unlikely(command == 0x2E)) // WRITE AND VERIFY
 1602              		.loc 2 410 0 discriminator 1
 1603 01fc 002B     		cmp	r3, #0
 1604 01fe 2CD0     		beq	.L77
 1605              	.L76:
 1606              	.LBB12:
 412:..\..\src/disk.c **** 	{
 413:..\..\src/disk.c **** 		// Ignore all cache control bits - we don't support a memory cache.
 414:..\..\src/disk.c **** 		// Don't bother verifying either. The SD card likely stores ECC
 415:..\..\src/disk.c **** 		// along with each flash row.
 416:..\..\src/disk.c **** 
 417:..\..\src/disk.c **** 		uint32 lba =
 418:..\..\src/disk.c **** 			(((uint32) scsiDev.cdb[2]) << 24) +
 1607              		.loc 2 418 0
 1608 0200 2B4B     		ldr	r3, .L87
 1609 0202 03F58343 		add	r3, r3, #16768
 1610 0206 0A33     		adds	r3, r3, #10
 1611 0208 1B78     		ldrb	r3, [r3]	@ zero_extendqisi2
 1612 020a 1A06     		lsls	r2, r3, #24
 419:..\..\src/disk.c **** 			(((uint32) scsiDev.cdb[3]) << 16) +
 1613              		.loc 2 419 0
 1614 020c 284B     		ldr	r3, .L87
 1615 020e 03F58343 		add	r3, r3, #16768
 1616 0212 0B33     		adds	r3, r3, #11
 1617 0214 1B78     		ldrb	r3, [r3]	@ zero_extendqisi2
 1618 0216 1B04     		lsls	r3, r3, #16
 418:..\..\src/disk.c **** 			(((uint32) scsiDev.cdb[3]) << 16) +
 1619              		.loc 2 418 0
 1620 0218 1A44     		add	r2, r2, r3
 420:..\..\src/disk.c **** 			(((uint32) scsiDev.cdb[4]) << 8) +
 1621              		.loc 2 420 0
 1622 021a 254B     		ldr	r3, .L87
ARM GAS  C:\Users\r\AppData\Local\Temp\ccBAatSA.s 			page 39


 1623 021c 03F58343 		add	r3, r3, #16768
 1624 0220 0C33     		adds	r3, r3, #12
 1625 0222 1B78     		ldrb	r3, [r3]	@ zero_extendqisi2
 1626 0224 1B02     		lsls	r3, r3, #8
 419:..\..\src/disk.c **** 			(((uint32) scsiDev.cdb[3]) << 16) +
 1627              		.loc 2 419 0
 1628 0226 1A44     		add	r2, r2, r3
 421:..\..\src/disk.c **** 			scsiDev.cdb[5];
 1629              		.loc 2 421 0
 1630 0228 214B     		ldr	r3, .L87
 1631 022a 03F58343 		add	r3, r3, #16768
 1632 022e 0D33     		adds	r3, r3, #13
 1633 0230 1B78     		ldrb	r3, [r3]	@ zero_extendqisi2
 417:..\..\src/disk.c **** 			(((uint32) scsiDev.cdb[2]) << 24) +
 1634              		.loc 2 417 0
 1635 0232 1344     		add	r3, r3, r2
 1636 0234 7B60     		str	r3, [r7, #4]
 422:..\..\src/disk.c **** 		uint32 blocks =
 423:..\..\src/disk.c **** 			(((uint32) scsiDev.cdb[7]) << 8) +
 1637              		.loc 2 423 0
 1638 0236 1E4B     		ldr	r3, .L87
 1639 0238 03F58343 		add	r3, r3, #16768
 1640 023c 0F33     		adds	r3, r3, #15
 1641 023e 1B78     		ldrb	r3, [r3]	@ zero_extendqisi2
 1642 0240 1A02     		lsls	r2, r3, #8
 424:..\..\src/disk.c **** 			scsiDev.cdb[8];
 1643              		.loc 2 424 0
 1644 0242 1B4B     		ldr	r3, .L87
 1645 0244 03F58343 		add	r3, r3, #16768
 1646 0248 1033     		adds	r3, r3, #16
 1647 024a 1B78     		ldrb	r3, [r3]	@ zero_extendqisi2
 422:..\..\src/disk.c **** 		uint32 blocks =
 1648              		.loc 2 422 0
 1649 024c 1344     		add	r3, r3, r2
 1650 024e 3B60     		str	r3, [r7]
 425:..\..\src/disk.c **** 
 426:..\..\src/disk.c **** 		doWrite(lba, blocks);
 1651              		.loc 2 426 0
 1652 0250 3968     		ldr	r1, [r7]
 1653 0252 7868     		ldr	r0, [r7, #4]
 1654 0254 FFF7FEFF 		bl	doWrite
 1655              	.LBE12:
 412:..\..\src/disk.c **** 		// Ignore all cache control bits - we don't support a memory cache.
 1656              		.loc 2 412 0
 1657 0258 F9E0     		b	.L69
 1658              	.L77:
 427:..\..\src/disk.c **** 	}
 428:..\..\src/disk.c **** 
 429:..\..\src/disk.c **** 	else if (unlikely(command == 0x04))
 1659              		.loc 2 429 0
 1660 025a 97F82B30 		ldrb	r3, [r7, #43]	@ zero_extendqisi2
 1661 025e 042B     		cmp	r3, #4
 1662 0260 0CBF     		ite	eq
 1663 0262 0123     		moveq	r3, #1
 1664 0264 0023     		movne	r3, #0
 1665 0266 DBB2     		uxtb	r3, r3
 1666 0268 002B     		cmp	r3, #0
ARM GAS  C:\Users\r\AppData\Local\Temp\ccBAatSA.s 			page 40


 1667 026a 27D0     		beq	.L78
 1668              	.LBB13:
 430:..\..\src/disk.c **** 	{
 431:..\..\src/disk.c **** 		// FORMAT UNIT
 432:..\..\src/disk.c **** 		// We don't really do any formatting, but we need to read the correct
 433:..\..\src/disk.c **** 		// number of bytes in the DATA_OUT phase to make the SCSI host happy.
 434:..\..\src/disk.c **** 
 435:..\..\src/disk.c **** 		int fmtData = (scsiDev.cdb[1] & 0x10) ? 1 : 0;
 1669              		.loc 2 435 0
 1670 026c 104B     		ldr	r3, .L87
 1671 026e 03F58343 		add	r3, r3, #16768
 1672 0272 0933     		adds	r3, r3, #9
 1673 0274 1B78     		ldrb	r3, [r3]	@ zero_extendqisi2
 1674 0276 03F01003 		and	r3, r3, #16
 1675 027a 002B     		cmp	r3, #0
 1676 027c 14BF     		ite	ne
 1677 027e 0123     		movne	r3, #1
 1678 0280 0023     		moveq	r3, #0
 1679 0282 DBB2     		uxtb	r3, r3
 1680 0284 3B61     		str	r3, [r7, #16]
 436:..\..\src/disk.c **** 		if (fmtData)
 1681              		.loc 2 436 0
 1682 0286 3B69     		ldr	r3, [r7, #16]
 1683 0288 002B     		cmp	r3, #0
 1684 028a 00F0E080 		beq	.L69
 437:..\..\src/disk.c **** 		{
 438:..\..\src/disk.c **** 			// We need to read the parameter list, but we don't know how
 439:..\..\src/disk.c **** 			// big it is yet. Start with the header.
 440:..\..\src/disk.c **** 			scsiDev.dataLen = 4;
 1685              		.loc 2 440 0
 1686 028e 084B     		ldr	r3, .L87
 1687 0290 03F58343 		add	r3, r3, #16768
 1688 0294 0433     		adds	r3, r3, #4
 1689 0296 0422     		movs	r2, #4
 1690 0298 1A60     		str	r2, [r3]
 441:..\..\src/disk.c **** 			scsiDev.phase = DATA_OUT;
 1691              		.loc 2 441 0
 1692 029a 054B     		ldr	r3, .L87
 1693 029c 0022     		movs	r2, #0
 1694 029e C3F87821 		str	r2, [r3, #376]
 442:..\..\src/disk.c **** 			scsiDev.postDataOutHook = doFormatUnitHeader;
 1695              		.loc 2 442 0
 1696 02a2 034B     		ldr	r3, .L87
 1697 02a4 03F58343 		add	r3, r3, #16768
 1698 02a8 2033     		adds	r3, r3, #32
 1699 02aa 034A     		ldr	r2, .L87+8
 1700 02ac 1A60     		str	r2, [r3]
 1701 02ae CEE0     		b	.L69
 1702              	.L88:
 1703              		.align	2
 1704              	.L87:
 1705 02b0 00000000 		.word	scsiDev
 1706 02b4 00000000 		.word	blockDev
 1707 02b8 00000000 		.word	doFormatUnitHeader
 1708              	.L78:
 1709              	.LBE13:
 443:..\..\src/disk.c **** 		}
ARM GAS  C:\Users\r\AppData\Local\Temp\ccBAatSA.s 			page 41


 444:..\..\src/disk.c **** 		else
 445:..\..\src/disk.c **** 		{
 446:..\..\src/disk.c **** 			// No data to read, we're already finished!
 447:..\..\src/disk.c **** 		}
 448:..\..\src/disk.c **** 	}
 449:..\..\src/disk.c **** 	else if (unlikely(command == 0x25))
 1710              		.loc 2 449 0
 1711 02bc 97F82B30 		ldrb	r3, [r7, #43]	@ zero_extendqisi2
 1712 02c0 252B     		cmp	r3, #37
 1713 02c2 0CBF     		ite	eq
 1714 02c4 0123     		moveq	r3, #1
 1715 02c6 0023     		movne	r3, #0
 1716 02c8 DBB2     		uxtb	r3, r3
 1717 02ca 002B     		cmp	r3, #0
 1718 02cc 02D0     		beq	.L80
 450:..\..\src/disk.c **** 	{
 451:..\..\src/disk.c **** 		// READ CAPACITY
 452:..\..\src/disk.c **** 		doReadCapacity();
 1719              		.loc 2 452 0
 1720 02ce FFF7FEFF 		bl	doReadCapacity
 1721 02d2 BCE0     		b	.L69
 1722              	.L80:
 453:..\..\src/disk.c **** 	}
 454:..\..\src/disk.c **** 	else if (unlikely(command == 0x0B))
 1723              		.loc 2 454 0
 1724 02d4 97F82B30 		ldrb	r3, [r7, #43]	@ zero_extendqisi2
 1725 02d8 0B2B     		cmp	r3, #11
 1726 02da 0CBF     		ite	eq
 1727 02dc 0123     		moveq	r3, #1
 1728 02de 0023     		movne	r3, #0
 1729 02e0 DBB2     		uxtb	r3, r3
 1730 02e2 002B     		cmp	r3, #0
 1731 02e4 19D0     		beq	.L81
 1732              	.LBB14:
 455:..\..\src/disk.c **** 	{
 456:..\..\src/disk.c **** 		// SEEK(6)
 457:..\..\src/disk.c **** 		uint32 lba =
 458:..\..\src/disk.c **** 			(((uint32) scsiDev.cdb[1] & 0x1F) << 16) +
 1733              		.loc 2 458 0
 1734 02e6 5C4B     		ldr	r3, .L89
 1735 02e8 03F58343 		add	r3, r3, #16768
 1736 02ec 0933     		adds	r3, r3, #9
 1737 02ee 1B78     		ldrb	r3, [r3]	@ zero_extendqisi2
 1738 02f0 1B04     		lsls	r3, r3, #16
 1739 02f2 03F4F812 		and	r2, r3, #2031616
 459:..\..\src/disk.c **** 			(((uint32) scsiDev.cdb[2]) << 8) +
 1740              		.loc 2 459 0
 1741 02f6 584B     		ldr	r3, .L89
 1742 02f8 03F58343 		add	r3, r3, #16768
 1743 02fc 0A33     		adds	r3, r3, #10
 1744 02fe 1B78     		ldrb	r3, [r3]	@ zero_extendqisi2
 1745 0300 1B02     		lsls	r3, r3, #8
 458:..\..\src/disk.c **** 			(((uint32) scsiDev.cdb[2]) << 8) +
 1746              		.loc 2 458 0
 1747 0302 1A44     		add	r2, r2, r3
 460:..\..\src/disk.c **** 			scsiDev.cdb[3];
 1748              		.loc 2 460 0
ARM GAS  C:\Users\r\AppData\Local\Temp\ccBAatSA.s 			page 42


 1749 0304 544B     		ldr	r3, .L89
 1750 0306 03F58343 		add	r3, r3, #16768
 1751 030a 0B33     		adds	r3, r3, #11
 1752 030c 1B78     		ldrb	r3, [r3]	@ zero_extendqisi2
 457:..\..\src/disk.c **** 			(((uint32) scsiDev.cdb[1] & 0x1F) << 16) +
 1753              		.loc 2 457 0
 1754 030e 1344     		add	r3, r3, r2
 1755 0310 FB60     		str	r3, [r7, #12]
 461:..\..\src/disk.c **** 
 462:..\..\src/disk.c **** 		doSeek(lba);
 1756              		.loc 2 462 0
 1757 0312 F868     		ldr	r0, [r7, #12]
 1758 0314 FFF7FEFF 		bl	doSeek
 1759              	.LBE14:
 1760 0318 99E0     		b	.L69
 1761              	.L81:
 463:..\..\src/disk.c **** 	}
 464:..\..\src/disk.c **** 
 465:..\..\src/disk.c **** 	else if (unlikely(command == 0x2B))
 1762              		.loc 2 465 0
 1763 031a 97F82B30 		ldrb	r3, [r7, #43]	@ zero_extendqisi2
 1764 031e 2B2B     		cmp	r3, #43
 1765 0320 0CBF     		ite	eq
 1766 0322 0123     		moveq	r3, #1
 1767 0324 0023     		movne	r3, #0
 1768 0326 DBB2     		uxtb	r3, r3
 1769 0328 002B     		cmp	r3, #0
 1770 032a 1ED0     		beq	.L82
 1771              	.LBB15:
 466:..\..\src/disk.c **** 	{
 467:..\..\src/disk.c **** 		// SEEK(10)
 468:..\..\src/disk.c **** 		uint32 lba =
 469:..\..\src/disk.c **** 			(((uint32) scsiDev.cdb[2]) << 24) +
 1772              		.loc 2 469 0
 1773 032c 4A4B     		ldr	r3, .L89
 1774 032e 03F58343 		add	r3, r3, #16768
 1775 0332 0A33     		adds	r3, r3, #10
 1776 0334 1B78     		ldrb	r3, [r3]	@ zero_extendqisi2
 1777 0336 1A06     		lsls	r2, r3, #24
 470:..\..\src/disk.c **** 			(((uint32) scsiDev.cdb[3]) << 16) +
 1778              		.loc 2 470 0
 1779 0338 474B     		ldr	r3, .L89
 1780 033a 03F58343 		add	r3, r3, #16768
 1781 033e 0B33     		adds	r3, r3, #11
 1782 0340 1B78     		ldrb	r3, [r3]	@ zero_extendqisi2
 1783 0342 1B04     		lsls	r3, r3, #16
 469:..\..\src/disk.c **** 			(((uint32) scsiDev.cdb[3]) << 16) +
 1784              		.loc 2 469 0
 1785 0344 1A44     		add	r2, r2, r3
 471:..\..\src/disk.c **** 			(((uint32) scsiDev.cdb[4]) << 8) +
 1786              		.loc 2 471 0
 1787 0346 444B     		ldr	r3, .L89
 1788 0348 03F58343 		add	r3, r3, #16768
 1789 034c 0C33     		adds	r3, r3, #12
 1790 034e 1B78     		ldrb	r3, [r3]	@ zero_extendqisi2
 1791 0350 1B02     		lsls	r3, r3, #8
 470:..\..\src/disk.c **** 			(((uint32) scsiDev.cdb[3]) << 16) +
ARM GAS  C:\Users\r\AppData\Local\Temp\ccBAatSA.s 			page 43


 1792              		.loc 2 470 0
 1793 0352 1A44     		add	r2, r2, r3
 472:..\..\src/disk.c **** 			scsiDev.cdb[5];
 1794              		.loc 2 472 0
 1795 0354 404B     		ldr	r3, .L89
 1796 0356 03F58343 		add	r3, r3, #16768
 1797 035a 0D33     		adds	r3, r3, #13
 1798 035c 1B78     		ldrb	r3, [r3]	@ zero_extendqisi2
 468:..\..\src/disk.c **** 			(((uint32) scsiDev.cdb[2]) << 24) +
 1799              		.loc 2 468 0
 1800 035e 1344     		add	r3, r3, r2
 1801 0360 BB60     		str	r3, [r7, #8]
 473:..\..\src/disk.c **** 
 474:..\..\src/disk.c **** 		doSeek(lba);
 1802              		.loc 2 474 0
 1803 0362 B868     		ldr	r0, [r7, #8]
 1804 0364 FFF7FEFF 		bl	doSeek
 1805              	.LBE15:
 1806 0368 71E0     		b	.L69
 1807              	.L82:
 475:..\..\src/disk.c **** 	}
 476:..\..\src/disk.c **** 	else if (unlikely(command == 0x36))
 1808              		.loc 2 476 0
 1809 036a 97F82B30 		ldrb	r3, [r7, #43]	@ zero_extendqisi2
 1810 036e 362B     		cmp	r3, #54
 1811 0370 0CBF     		ite	eq
 1812 0372 0123     		moveq	r3, #1
 1813 0374 0023     		movne	r3, #0
 1814 0376 DBB2     		uxtb	r3, r3
 1815 0378 002B     		cmp	r3, #0
 1816 037a 68D1     		bne	.L69
 477:..\..\src/disk.c **** 	{
 478:..\..\src/disk.c **** 		// LOCK UNLOCK CACHE
 479:..\..\src/disk.c **** 		// We don't have a cache to lock data into. do nothing.
 480:..\..\src/disk.c **** 	}
 481:..\..\src/disk.c **** 	else if (unlikely(command == 0x34))
 1817              		.loc 2 481 0
 1818 037c 97F82B30 		ldrb	r3, [r7, #43]	@ zero_extendqisi2
 1819 0380 342B     		cmp	r3, #52
 1820 0382 0CBF     		ite	eq
 1821 0384 0123     		moveq	r3, #1
 1822 0386 0023     		movne	r3, #0
 1823 0388 DBB2     		uxtb	r3, r3
 1824 038a 002B     		cmp	r3, #0
 1825 038c 5FD1     		bne	.L69
 482:..\..\src/disk.c **** 	{
 483:..\..\src/disk.c **** 		// PRE-FETCH.
 484:..\..\src/disk.c **** 		// We don't have a cache to pre-fetch into. do nothing.
 485:..\..\src/disk.c **** 	}
 486:..\..\src/disk.c **** 	else if (unlikely(command == 0x1E))
 1826              		.loc 2 486 0
 1827 038e 97F82B30 		ldrb	r3, [r7, #43]	@ zero_extendqisi2
 1828 0392 1E2B     		cmp	r3, #30
 1829 0394 0CBF     		ite	eq
 1830 0396 0123     		moveq	r3, #1
 1831 0398 0023     		movne	r3, #0
 1832 039a DBB2     		uxtb	r3, r3
ARM GAS  C:\Users\r\AppData\Local\Temp\ccBAatSA.s 			page 44


 1833 039c 002B     		cmp	r3, #0
 1834 039e 56D1     		bne	.L69
 487:..\..\src/disk.c **** 	{
 488:..\..\src/disk.c **** 		// PREVENT ALLOW MEDIUM REMOVAL
 489:..\..\src/disk.c **** 		// Not much we can do to prevent the user removing the SD card.
 490:..\..\src/disk.c **** 		// do nothing.
 491:..\..\src/disk.c **** 	}
 492:..\..\src/disk.c **** 	else if (unlikely(command == 0x01))
 1835              		.loc 2 492 0
 1836 03a0 97F82B30 		ldrb	r3, [r7, #43]	@ zero_extendqisi2
 1837 03a4 012B     		cmp	r3, #1
 1838 03a6 0CBF     		ite	eq
 1839 03a8 0123     		moveq	r3, #1
 1840 03aa 0023     		movne	r3, #0
 1841 03ac DBB2     		uxtb	r3, r3
 1842 03ae 002B     		cmp	r3, #0
 1843 03b0 4DD1     		bne	.L69
 493:..\..\src/disk.c **** 	{
 494:..\..\src/disk.c **** 		// REZERO UNIT
 495:..\..\src/disk.c **** 		// Set the lun to a vendor-specific state. Ignore.
 496:..\..\src/disk.c **** 	}
 497:..\..\src/disk.c **** 	else if (unlikely(command == 0x35))
 1844              		.loc 2 497 0
 1845 03b2 97F82B30 		ldrb	r3, [r7, #43]	@ zero_extendqisi2
 1846 03b6 352B     		cmp	r3, #53
 1847 03b8 0CBF     		ite	eq
 1848 03ba 0123     		moveq	r3, #1
 1849 03bc 0023     		movne	r3, #0
 1850 03be DBB2     		uxtb	r3, r3
 1851 03c0 002B     		cmp	r3, #0
 1852 03c2 44D1     		bne	.L69
 498:..\..\src/disk.c **** 	{
 499:..\..\src/disk.c **** 		// SYNCHRONIZE CACHE
 500:..\..\src/disk.c **** 		// We don't have a cache. do nothing.
 501:..\..\src/disk.c **** 	}
 502:..\..\src/disk.c **** 	else if (unlikely(command == 0x2F))
 1853              		.loc 2 502 0
 1854 03c4 97F82B30 		ldrb	r3, [r7, #43]	@ zero_extendqisi2
 1855 03c8 2F2B     		cmp	r3, #47
 1856 03ca 0CBF     		ite	eq
 1857 03cc 0123     		moveq	r3, #1
 1858 03ce 0023     		movne	r3, #0
 1859 03d0 DBB2     		uxtb	r3, r3
 1860 03d2 002B     		cmp	r3, #0
 1861 03d4 1CD0     		beq	.L83
 503:..\..\src/disk.c **** 	{
 504:..\..\src/disk.c **** 		// VERIFY
 505:..\..\src/disk.c **** 		// TODO: When they supply data to verify, we should read the data and
 506:..\..\src/disk.c **** 		// verify it. If they don't supply any data, just say success.
 507:..\..\src/disk.c **** 		if ((scsiDev.cdb[1] & 0x02) == 0)
 1862              		.loc 2 507 0
 1863 03d6 204B     		ldr	r3, .L89
 1864 03d8 03F58343 		add	r3, r3, #16768
 1865 03dc 0933     		adds	r3, r3, #9
 1866 03de 1B78     		ldrb	r3, [r3]	@ zero_extendqisi2
 1867 03e0 03F00203 		and	r3, r3, #2
 1868 03e4 002B     		cmp	r3, #0
ARM GAS  C:\Users\r\AppData\Local\Temp\ccBAatSA.s 			page 45


 1869 03e6 32D0     		beq	.L69
 508:..\..\src/disk.c **** 		{
 509:..\..\src/disk.c **** 			// They are asking us to do a medium verification with no data
 510:..\..\src/disk.c **** 			// comparison. Assume success, do nothing.
 511:..\..\src/disk.c **** 		}
 512:..\..\src/disk.c **** 		else
 513:..\..\src/disk.c **** 		{
 514:..\..\src/disk.c **** 			// TODO. This means they are supplying data to verify against.
 515:..\..\src/disk.c **** 			// Technically we should probably grab the data and compare it.
 516:..\..\src/disk.c **** 			scsiDev.status = CHECK_CONDITION;
 1870              		.loc 2 516 0
 1871 03e8 1B4B     		ldr	r3, .L89
 1872 03ea 03F58343 		add	r3, r3, #16768
 1873 03ee 1C33     		adds	r3, r3, #28
 1874 03f0 0222     		movs	r2, #2
 1875 03f2 1A70     		strb	r2, [r3]
 517:..\..\src/disk.c **** 			scsiDev.target->sense.code = ILLEGAL_REQUEST;
 1876              		.loc 2 517 0
 1877 03f4 184B     		ldr	r3, .L89
 1878 03f6 1B6E     		ldr	r3, [r3, #96]
 1879 03f8 0522     		movs	r2, #5
 1880 03fa 9A72     		strb	r2, [r3, #10]
 518:..\..\src/disk.c **** 			scsiDev.target->sense.asc = INVALID_FIELD_IN_CDB;
 1881              		.loc 2 518 0
 1882 03fc 164B     		ldr	r3, .L89
 1883 03fe 1B6E     		ldr	r3, [r3, #96]
 1884 0400 4FF41052 		mov	r2, #9216
 1885 0404 9A81     		strh	r2, [r3, #12]	@ movhi
 519:..\..\src/disk.c **** 			scsiDev.phase = STATUS;
 1886              		.loc 2 519 0
 1887 0406 144B     		ldr	r3, .L89
 1888 0408 0622     		movs	r2, #6
 1889 040a C3F87821 		str	r2, [r3, #376]
 1890 040e 1EE0     		b	.L69
 1891              	.L83:
 520:..\..\src/disk.c **** 		}
 521:..\..\src/disk.c **** 	}
 522:..\..\src/disk.c **** 	else if (unlikely(command == 0x37))
 1892              		.loc 2 522 0
 1893 0410 97F82B30 		ldrb	r3, [r7, #43]	@ zero_extendqisi2
 1894 0414 372B     		cmp	r3, #55
 1895 0416 0CBF     		ite	eq
 1896 0418 0123     		moveq	r3, #1
 1897 041a 0023     		movne	r3, #0
 1898 041c DBB2     		uxtb	r3, r3
 1899 041e 002B     		cmp	r3, #0
 1900 0420 13D0     		beq	.L85
 523:..\..\src/disk.c **** 	{
 524:..\..\src/disk.c **** 		// READ DEFECT DATA
 525:..\..\src/disk.c **** 		scsiDev.status = CHECK_CONDITION;
 1901              		.loc 2 525 0
 1902 0422 0D4B     		ldr	r3, .L89
 1903 0424 03F58343 		add	r3, r3, #16768
 1904 0428 1C33     		adds	r3, r3, #28
 1905 042a 0222     		movs	r2, #2
 1906 042c 1A70     		strb	r2, [r3]
 526:..\..\src/disk.c **** 		scsiDev.target->sense.code = NO_SENSE;
ARM GAS  C:\Users\r\AppData\Local\Temp\ccBAatSA.s 			page 46


 1907              		.loc 2 526 0
 1908 042e 0A4B     		ldr	r3, .L89
 1909 0430 1B6E     		ldr	r3, [r3, #96]
 1910 0432 0022     		movs	r2, #0
 1911 0434 9A72     		strb	r2, [r3, #10]
 527:..\..\src/disk.c **** 		scsiDev.target->sense.asc = DEFECT_LIST_NOT_FOUND;
 1912              		.loc 2 527 0
 1913 0436 084B     		ldr	r3, .L89
 1914 0438 1B6E     		ldr	r3, [r3, #96]
 1915 043a 4FF4E052 		mov	r2, #7168
 1916 043e 9A81     		strh	r2, [r3, #12]	@ movhi
 528:..\..\src/disk.c **** 		scsiDev.phase = STATUS;
 1917              		.loc 2 528 0
 1918 0440 054B     		ldr	r3, .L89
 1919 0442 0622     		movs	r2, #6
 1920 0444 C3F87821 		str	r2, [r3, #376]
 1921 0448 01E0     		b	.L69
 1922              	.L85:
 529:..\..\src/disk.c **** 
 530:..\..\src/disk.c **** 	}
 531:..\..\src/disk.c **** 	else
 532:..\..\src/disk.c **** 	{
 533:..\..\src/disk.c **** 		commandHandled = 0;
 1923              		.loc 2 533 0
 1924 044a 0023     		movs	r3, #0
 1925 044c 7B63     		str	r3, [r7, #52]
 1926              	.L69:
 534:..\..\src/disk.c **** 	}
 535:..\..\src/disk.c **** 
 536:..\..\src/disk.c **** 	return commandHandled;
 1927              		.loc 2 536 0
 1928 044e 7B6B     		ldr	r3, [r7, #52]
 537:..\..\src/disk.c **** }
 1929              		.loc 2 537 0
 1930 0450 1846     		mov	r0, r3
 1931 0452 3837     		adds	r7, r7, #56
 1932              		.cfi_def_cfa_offset 8
 1933 0454 BD46     		mov	sp, r7
 1934              		.cfi_def_cfa_register 13
 1935              		@ sp needed
 1936 0456 80BD     		pop	{r7, pc}
 1937              	.L90:
 1938              		.align	2
 1939              	.L89:
 1940 0458 00000000 		.word	scsiDev
 1941              		.cfi_endproc
 1942              	.LFE74:
 1943              		.size	scsiDiskCommand, .-scsiDiskCommand
 1944              		.section	.text.scsiDiskPoll,"ax",%progbits
 1945              		.align	2
 1946              		.global	scsiDiskPoll
 1947              		.thumb
 1948              		.thumb_func
 1949              		.type	scsiDiskPoll, %function
 1950              	scsiDiskPoll:
 1951              	.LFB75:
 538:..\..\src/disk.c **** 
ARM GAS  C:\Users\r\AppData\Local\Temp\ccBAatSA.s 			page 47


 539:..\..\src/disk.c **** void scsiDiskPoll()
 540:..\..\src/disk.c **** {
 1952              		.loc 2 540 0
 1953              		.cfi_startproc
 1954              		@ args = 0, pretend = 0, frame = 120
 1955              		@ frame_needed = 1, uses_anonymous_args = 0
 1956 0000 90B5     		push	{r4, r7, lr}
 1957              		.cfi_def_cfa_offset 12
 1958              		.cfi_offset 4, -12
 1959              		.cfi_offset 7, -8
 1960              		.cfi_offset 14, -4
 1961 0002 9FB0     		sub	sp, sp, #124
 1962              		.cfi_def_cfa_offset 136
 1963 0004 00AF     		add	r7, sp, #0
 1964              		.cfi_def_cfa_register 7
 541:..\..\src/disk.c **** 	uint32_t bytesPerSector = scsiDev.target->liveCfg.bytesPerSector;
 1965              		.loc 2 541 0
 1966 0006 AB4B     		ldr	r3, .L146
 1967 0008 1B6E     		ldr	r3, [r3, #96]
 1968 000a 1B89     		ldrh	r3, [r3, #8]
 1969 000c FB62     		str	r3, [r7, #44]
 542:..\..\src/disk.c **** 
 543:..\..\src/disk.c **** 	if (scsiDev.phase == DATA_IN &&
 1970              		.loc 2 543 0
 1971 000e A94B     		ldr	r3, .L146
 1972 0010 D3F87831 		ldr	r3, [r3, #376]
 1973 0014 042B     		cmp	r3, #4
 1974 0016 40F01D81 		bne	.L92
 544:..\..\src/disk.c **** 		transfer.currentBlock != transfer.blocks)
 1975              		.loc 2 544 0 discriminator 1
 1976 001a A74B     		ldr	r3, .L146+4
 1977 001c DA68     		ldr	r2, [r3, #12]
 1978 001e A64B     		ldr	r3, .L146+4
 1979 0020 9B68     		ldr	r3, [r3, #8]
 543:..\..\src/disk.c **** 		transfer.currentBlock != transfer.blocks)
 1980              		.loc 2 543 0 discriminator 1
 1981 0022 9A42     		cmp	r2, r3
 1982 0024 00F01681 		beq	.L92
 1983              	.LBB16:
 545:..\..\src/disk.c **** 	{
 546:..\..\src/disk.c **** 		scsiEnterPhase(DATA_IN);
 1984              		.loc 2 546 0
 1985 0028 0420     		movs	r0, #4
 1986 002a FFF7FEFF 		bl	scsiEnterPhase
 547:..\..\src/disk.c **** 
 548:..\..\src/disk.c **** 		int totalSDSectors =
 549:..\..\src/disk.c **** 			transfer.blocks * SDSectorsPerSCSISector(bytesPerSector);
 1987              		.loc 2 549 0
 1988 002e A24B     		ldr	r3, .L146+4
 1989 0030 9C68     		ldr	r4, [r3, #8]
 1990 0032 FB6A     		ldr	r3, [r7, #44]
 1991 0034 9BB2     		uxth	r3, r3
 1992 0036 1846     		mov	r0, r3
 1993 0038 FFF7FEFF 		bl	SDSectorsPerSCSISector
 1994 003c 0346     		mov	r3, r0
 1995 003e 03FB04F3 		mul	r3, r3, r4
 548:..\..\src/disk.c **** 			transfer.blocks * SDSectorsPerSCSISector(bytesPerSector);
ARM GAS  C:\Users\r\AppData\Local\Temp\ccBAatSA.s 			page 48


 1996              		.loc 2 548 0
 1997 0042 BB62     		str	r3, [r7, #40]
 550:..\..\src/disk.c **** 		uint32_t sdLBA =
 551:..\..\src/disk.c **** 			SCSISector2SD(
 552:..\..\src/disk.c **** 				scsiDev.target->cfg->sdSectorStart,
 1998              		.loc 2 552 0
 1999 0044 9B4B     		ldr	r3, .L146
 2000 0046 1B6E     		ldr	r3, [r3, #96]
 2001 0048 5B68     		ldr	r3, [r3, #4]
 551:..\..\src/disk.c **** 				scsiDev.target->cfg->sdSectorStart,
 2002              		.loc 2 551 0
 2003 004a 5868     		ldr	r0, [r3, #4]	@ unaligned
 2004 004c FB6A     		ldr	r3, [r7, #44]
 2005 004e 99B2     		uxth	r1, r3
 2006 0050 994B     		ldr	r3, .L146+4
 2007 0052 5B68     		ldr	r3, [r3, #4]
 550:..\..\src/disk.c **** 		uint32_t sdLBA =
 2008              		.loc 2 550 0
 2009 0054 1A46     		mov	r2, r3
 2010 0056 FFF7FEFF 		bl	SCSISector2SD
 2011 005a 7862     		str	r0, [r7, #36]
 553:..\..\src/disk.c **** 				bytesPerSector,
 554:..\..\src/disk.c **** 				transfer.lba);
 555:..\..\src/disk.c **** 
 556:..\..\src/disk.c **** 		const int sdPerScsi = SDSectorsPerSCSISector(bytesPerSector);
 2012              		.loc 2 556 0
 2013 005c FB6A     		ldr	r3, [r7, #44]
 2014 005e 9BB2     		uxth	r3, r3
 2015 0060 1846     		mov	r0, r3
 2016 0062 FFF7FEFF 		bl	SDSectorsPerSCSISector
 2017 0066 3862     		str	r0, [r7, #32]
 557:..\..\src/disk.c **** 		int buffers = sizeof(scsiDev.data) / SD_SECTOR_SIZE;
 2018              		.loc 2 557 0
 2019 0068 2023     		movs	r3, #32
 2020 006a FB61     		str	r3, [r7, #28]
 558:..\..\src/disk.c **** 		int prep = 0;
 2021              		.loc 2 558 0
 2022 006c 0023     		movs	r3, #0
 2023 006e 7B67     		str	r3, [r7, #116]
 559:..\..\src/disk.c **** 		int i = 0;
 2024              		.loc 2 559 0
 2025 0070 0023     		movs	r3, #0
 2026 0072 3B67     		str	r3, [r7, #112]
 560:..\..\src/disk.c **** 		int scsiActive = 0;
 2027              		.loc 2 560 0
 2028 0074 0023     		movs	r3, #0
 2029 0076 FB66     		str	r3, [r7, #108]
 561:..\..\src/disk.c **** 		int sdActive = 0;
 2030              		.loc 2 561 0
 2031 0078 0023     		movs	r3, #0
 2032 007a BB66     		str	r3, [r7, #104]
 562:..\..\src/disk.c **** 		while ((i < totalSDSectors) &&
 2033              		.loc 2 562 0
 2034 007c C4E0     		b	.L93
 2035              	.L111:
 2036              	.LBB17:
 563:..\..\src/disk.c **** 			likely(scsiDev.phase == DATA_IN) &&
ARM GAS  C:\Users\r\AppData\Local\Temp\ccBAatSA.s 			page 49


 564:..\..\src/disk.c **** 			likely(!scsiDev.resetFlag))
 565:..\..\src/disk.c **** 		{
 566:..\..\src/disk.c **** 			// Wait for the next DMA interrupt. It's beneficial to halt the
 567:..\..\src/disk.c **** 			// processor to give the DMA controller more memory bandwidth to
 568:..\..\src/disk.c **** 			// work with.
 569:..\..\src/disk.c **** 			int scsiBusy = 1;
 2037              		.loc 2 569 0
 2038 007e 0123     		movs	r3, #1
 2039 0080 7B66     		str	r3, [r7, #100]
 570:..\..\src/disk.c **** 			int sdBusy = 1;
 2040              		.loc 2 570 0
 2041 0082 0123     		movs	r3, #1
 2042 0084 3B66     		str	r3, [r7, #96]
 571:..\..\src/disk.c **** 			while (scsiBusy && sdBusy)
 2043              		.loc 2 571 0
 2044 0086 2AE0     		b	.L94
 2045              	.L103:
 2046              	.LBB18:
 572:..\..\src/disk.c **** 			{
 573:..\..\src/disk.c **** 				uint8_t intr = CyEnterCriticalSection();
 2047              		.loc 2 573 0
 2048 0088 FFF7FEFF 		bl	CyEnterCriticalSection
 2049 008c 0346     		mov	r3, r0
 2050 008e FB76     		strb	r3, [r7, #27]
 574:..\..\src/disk.c **** 				scsiBusy = scsiDMABusy();
 2051              		.loc 2 574 0
 2052 0090 8A4B     		ldr	r3, .L146+8
 2053 0092 1B78     		ldrb	r3, [r3]
 2054 0094 DBB2     		uxtb	r3, r3
 2055 0096 002B     		cmp	r3, #0
 2056 0098 04D0     		beq	.L95
 2057              		.loc 2 574 0 is_stmt 0 discriminator 2
 2058 009a 894B     		ldr	r3, .L146+12
 2059 009c 1B78     		ldrb	r3, [r3]
 2060 009e DBB2     		uxtb	r3, r3
 2061 00a0 002B     		cmp	r3, #0
 2062 00a2 01D1     		bne	.L96
 2063              	.L95:
 2064              		.loc 2 574 0 discriminator 3
 2065 00a4 0123     		movs	r3, #1
 2066 00a6 00E0     		b	.L97
 2067              	.L96:
 2068              		.loc 2 574 0 discriminator 4
 2069 00a8 0023     		movs	r3, #0
 2070              	.L97:
 2071              		.loc 2 574 0 discriminator 6
 2072 00aa 7B66     		str	r3, [r7, #100]
 575:..\..\src/disk.c **** 				sdBusy = sdDMABusy();
 2073              		.loc 2 575 0 is_stmt 1 discriminator 6
 2074 00ac 854B     		ldr	r3, .L146+16
 2075 00ae 1B78     		ldrb	r3, [r3]
 2076 00b0 DBB2     		uxtb	r3, r3
 2077 00b2 002B     		cmp	r3, #0
 2078 00b4 04D0     		beq	.L98
 2079              		.loc 2 575 0 is_stmt 0 discriminator 2
 2080 00b6 844B     		ldr	r3, .L146+20
 2081 00b8 1B78     		ldrb	r3, [r3]
ARM GAS  C:\Users\r\AppData\Local\Temp\ccBAatSA.s 			page 50


 2082 00ba DBB2     		uxtb	r3, r3
 2083 00bc 002B     		cmp	r3, #0
 2084 00be 01D1     		bne	.L99
 2085              	.L98:
 2086              		.loc 2 575 0 discriminator 3
 2087 00c0 0123     		movs	r3, #1
 2088 00c2 00E0     		b	.L100
 2089              	.L99:
 2090              		.loc 2 575 0 discriminator 4
 2091 00c4 0023     		movs	r3, #0
 2092              	.L100:
 2093              		.loc 2 575 0 discriminator 6
 2094 00c6 3B66     		str	r3, [r7, #96]
 576:..\..\src/disk.c **** 				if (scsiBusy && sdBusy)
 2095              		.loc 2 576 0 is_stmt 1 discriminator 6
 2096 00c8 7B6E     		ldr	r3, [r7, #100]
 2097 00ca 002B     		cmp	r3, #0
 2098 00cc 03D0     		beq	.L101
 2099              		.loc 2 576 0 is_stmt 0 discriminator 1
 2100 00ce 3B6E     		ldr	r3, [r7, #96]
 2101 00d0 002B     		cmp	r3, #0
 2102 00d2 00D0     		beq	.L101
 577:..\..\src/disk.c **** 				{
 578:..\..\src/disk.c **** 					__WFI();
 2103              		.loc 2 578 0 is_stmt 1
 2104              		.syntax unified
 2105              	@ 578 "..\..\src\disk.c" 1
 2106 00d4 30BF     		wfi
 2107              	@ 0 "" 2
 2108              		.thumb
 2109              		.syntax unified
 2110              	.L101:
 579:..\..\src/disk.c **** 				}
 580:..\..\src/disk.c **** 				CyExitCriticalSection(intr);
 2111              		.loc 2 580 0
 2112 00d6 FB7E     		ldrb	r3, [r7, #27]	@ zero_extendqisi2
 2113 00d8 1846     		mov	r0, r3
 2114 00da FFF7FEFF 		bl	CyExitCriticalSection
 2115              	.L94:
 2116              	.LBE18:
 571:..\..\src/disk.c **** 			{
 2117              		.loc 2 571 0
 2118 00de 7B6E     		ldr	r3, [r7, #100]
 2119 00e0 002B     		cmp	r3, #0
 2120 00e2 02D0     		beq	.L102
 571:..\..\src/disk.c **** 			{
 2121              		.loc 2 571 0 is_stmt 0 discriminator 1
 2122 00e4 3B6E     		ldr	r3, [r7, #96]
 2123 00e6 002B     		cmp	r3, #0
 2124 00e8 CED1     		bne	.L103
 2125              	.L102:
 581:..\..\src/disk.c **** 			}
 582:..\..\src/disk.c **** 
 583:..\..\src/disk.c **** 			if (sdActive && !sdBusy && sdReadSectorDMAPoll())
 2126              		.loc 2 583 0 is_stmt 1
 2127 00ea BB6E     		ldr	r3, [r7, #104]
 2128 00ec 002B     		cmp	r3, #0
ARM GAS  C:\Users\r\AppData\Local\Temp\ccBAatSA.s 			page 51


 2129 00ee 0CD0     		beq	.L104
 2130              		.loc 2 583 0 is_stmt 0 discriminator 1
 2131 00f0 3B6E     		ldr	r3, [r7, #96]
 2132 00f2 002B     		cmp	r3, #0
 2133 00f4 09D1     		bne	.L104
 2134              		.loc 2 583 0 discriminator 2
 2135 00f6 FFF7FEFF 		bl	sdReadSectorDMAPoll
 2136 00fa 0346     		mov	r3, r0
 2137 00fc 002B     		cmp	r3, #0
 2138 00fe 04D0     		beq	.L104
 584:..\..\src/disk.c **** 			{
 585:..\..\src/disk.c **** 				sdActive = 0;
 2139              		.loc 2 585 0 is_stmt 1
 2140 0100 0023     		movs	r3, #0
 2141 0102 BB66     		str	r3, [r7, #104]
 586:..\..\src/disk.c **** 				prep++;
 2142              		.loc 2 586 0
 2143 0104 7B6F     		ldr	r3, [r7, #116]
 2144 0106 0133     		adds	r3, r3, #1
 2145 0108 7B67     		str	r3, [r7, #116]
 2146              	.L104:
 587:..\..\src/disk.c **** 			}
 588:..\..\src/disk.c **** 
 589:..\..\src/disk.c **** 			// Usually SD is slower than the SCSI interface.
 590:..\..\src/disk.c **** 			// Prioritise starting the read of the next sector over starting a
 591:..\..\src/disk.c **** 			// SCSI transfer for the last sector
 592:..\..\src/disk.c **** 			// ie. NO "else" HERE.
 593:..\..\src/disk.c **** 			if (!sdActive &&
 2147              		.loc 2 593 0
 2148 010a BB6E     		ldr	r3, [r7, #104]
 2149 010c 002B     		cmp	r3, #0
 2150 010e 35D1     		bne	.L105
 594:..\..\src/disk.c **** 				(prep - i < buffers) &&
 2151              		.loc 2 594 0 discriminator 1
 2152 0110 7A6F     		ldr	r2, [r7, #116]
 2153 0112 3B6F     		ldr	r3, [r7, #112]
 2154 0114 D21A     		subs	r2, r2, r3
 593:..\..\src/disk.c **** 				(prep - i < buffers) &&
 2155              		.loc 2 593 0 discriminator 1
 2156 0116 FB69     		ldr	r3, [r7, #28]
 2157 0118 9A42     		cmp	r2, r3
 2158 011a 2FDA     		bge	.L105
 2159              		.loc 2 594 0
 2160 011c 7A6F     		ldr	r2, [r7, #116]
 2161 011e BB6A     		ldr	r3, [r7, #40]
 2162 0120 9A42     		cmp	r2, r3
 2163 0122 2BDA     		bge	.L105
 595:..\..\src/disk.c **** 				(prep < totalSDSectors))
 596:..\..\src/disk.c **** 			{
 597:..\..\src/disk.c **** 				// Start an SD transfer if we have space.
 598:..\..\src/disk.c **** 				if (transfer.multiBlock)
 2164              		.loc 2 598 0
 2165 0124 644B     		ldr	r3, .L146+4
 2166 0126 1B68     		ldr	r3, [r3]
 2167 0128 002B     		cmp	r3, #0
 2168 012a 11D0     		beq	.L106
 599:..\..\src/disk.c **** 				{
ARM GAS  C:\Users\r\AppData\Local\Temp\ccBAatSA.s 			page 52


 600:..\..\src/disk.c **** 					sdReadMultiSectorDMA(&scsiDev.data[SD_SECTOR_SIZE * (prep % buffers)]);
 2169              		.loc 2 600 0
 2170 012c 7B6F     		ldr	r3, [r7, #116]
 2171 012e FA69     		ldr	r2, [r7, #28]
 2172 0130 93FBF2F2 		sdiv	r2, r3, r2
 2173 0134 F969     		ldr	r1, [r7, #28]
 2174 0136 01FB02F2 		mul	r2, r1, r2
 2175 013a 9B1A     		subs	r3, r3, r2
 2176 013c 5B02     		lsls	r3, r3, #9
 2177 013e 03F5BC73 		add	r3, r3, #376
 2178 0142 5C4A     		ldr	r2, .L146
 2179 0144 1344     		add	r3, r3, r2
 2180 0146 0433     		adds	r3, r3, #4
 2181 0148 1846     		mov	r0, r3
 2182 014a FFF7FEFF 		bl	sdReadMultiSectorDMA
 2183 014e 13E0     		b	.L107
 2184              	.L106:
 601:..\..\src/disk.c **** 				}
 602:..\..\src/disk.c **** 				else
 603:..\..\src/disk.c **** 				{
 604:..\..\src/disk.c **** 					sdReadSingleSectorDMA(sdLBA + prep, &scsiDev.data[SD_SECTOR_SIZE * (prep % buffers)]);
 2185              		.loc 2 604 0
 2186 0150 7A6F     		ldr	r2, [r7, #116]
 2187 0152 7B6A     		ldr	r3, [r7, #36]
 2188 0154 D018     		adds	r0, r2, r3
 2189 0156 7B6F     		ldr	r3, [r7, #116]
 2190 0158 FA69     		ldr	r2, [r7, #28]
 2191 015a 93FBF2F2 		sdiv	r2, r3, r2
 2192 015e F969     		ldr	r1, [r7, #28]
 2193 0160 01FB02F2 		mul	r2, r1, r2
 2194 0164 9B1A     		subs	r3, r3, r2
 2195 0166 5B02     		lsls	r3, r3, #9
 2196 0168 03F5BC73 		add	r3, r3, #376
 2197 016c 514A     		ldr	r2, .L146
 2198 016e 1344     		add	r3, r3, r2
 2199 0170 0433     		adds	r3, r3, #4
 2200 0172 1946     		mov	r1, r3
 2201 0174 FFF7FEFF 		bl	sdReadSingleSectorDMA
 2202              	.L107:
 605:..\..\src/disk.c **** 				}
 606:..\..\src/disk.c **** 				sdActive = 1;
 2203              		.loc 2 606 0
 2204 0178 0123     		movs	r3, #1
 2205 017a BB66     		str	r3, [r7, #104]
 2206              	.L105:
 607:..\..\src/disk.c **** 			}
 608:..\..\src/disk.c **** 
 609:..\..\src/disk.c **** 			if (scsiActive && !scsiBusy && scsiWriteDMAPoll())
 2207              		.loc 2 609 0
 2208 017c FB6E     		ldr	r3, [r7, #108]
 2209 017e 002B     		cmp	r3, #0
 2210 0180 0CD0     		beq	.L108
 2211              		.loc 2 609 0 is_stmt 0 discriminator 1
 2212 0182 7B6E     		ldr	r3, [r7, #100]
 2213 0184 002B     		cmp	r3, #0
 2214 0186 09D1     		bne	.L108
 2215              		.loc 2 609 0 discriminator 2
ARM GAS  C:\Users\r\AppData\Local\Temp\ccBAatSA.s 			page 53


 2216 0188 FFF7FEFF 		bl	scsiWriteDMAPoll
 2217 018c 0346     		mov	r3, r0
 2218 018e 002B     		cmp	r3, #0
 2219 0190 04D0     		beq	.L108
 610:..\..\src/disk.c **** 			{
 611:..\..\src/disk.c **** 				scsiActive = 0;
 2220              		.loc 2 611 0 is_stmt 1
 2221 0192 0023     		movs	r3, #0
 2222 0194 FB66     		str	r3, [r7, #108]
 612:..\..\src/disk.c **** 				++i;
 2223              		.loc 2 612 0
 2224 0196 3B6F     		ldr	r3, [r7, #112]
 2225 0198 0133     		adds	r3, r3, #1
 2226 019a 3B67     		str	r3, [r7, #112]
 2227              	.L108:
 613:..\..\src/disk.c **** 			}
 614:..\..\src/disk.c **** 			if (!scsiActive && ((prep - i) > 0))
 2228              		.loc 2 614 0
 2229 019c FB6E     		ldr	r3, [r7, #108]
 2230 019e 002B     		cmp	r3, #0
 2231 01a0 32D1     		bne	.L93
 2232              		.loc 2 614 0 is_stmt 0 discriminator 1
 2233 01a2 7A6F     		ldr	r2, [r7, #116]
 2234 01a4 3B6F     		ldr	r3, [r7, #112]
 2235 01a6 D31A     		subs	r3, r2, r3
 2236 01a8 002B     		cmp	r3, #0
 2237 01aa 2DDD     		ble	.L93
 2238              	.LBB19:
 615:..\..\src/disk.c **** 			{
 616:..\..\src/disk.c **** 				int dmaBytes = SD_SECTOR_SIZE;
 2239              		.loc 2 616 0 is_stmt 1
 2240 01ac 4FF40073 		mov	r3, #512
 2241 01b0 FB65     		str	r3, [r7, #92]
 617:..\..\src/disk.c **** 				if ((i % sdPerScsi) == (sdPerScsi - 1))
 2242              		.loc 2 617 0
 2243 01b2 3B6F     		ldr	r3, [r7, #112]
 2244 01b4 3A6A     		ldr	r2, [r7, #32]
 2245 01b6 93FBF2F2 		sdiv	r2, r3, r2
 2246 01ba 396A     		ldr	r1, [r7, #32]
 2247 01bc 01FB02F2 		mul	r2, r1, r2
 2248 01c0 9A1A     		subs	r2, r3, r2
 2249 01c2 3B6A     		ldr	r3, [r7, #32]
 2250 01c4 013B     		subs	r3, r3, #1
 2251 01c6 9A42     		cmp	r2, r3
 2252 01c8 09D1     		bne	.L109
 618:..\..\src/disk.c **** 				{
 619:..\..\src/disk.c **** 					dmaBytes = bytesPerSector % SD_SECTOR_SIZE;
 2253              		.loc 2 619 0
 2254 01ca FB6A     		ldr	r3, [r7, #44]
 2255 01cc C3F30803 		ubfx	r3, r3, #0, #9
 2256 01d0 FB65     		str	r3, [r7, #92]
 620:..\..\src/disk.c **** 					if (dmaBytes == 0) dmaBytes = SD_SECTOR_SIZE;
 2257              		.loc 2 620 0
 2258 01d2 FB6D     		ldr	r3, [r7, #92]
 2259 01d4 002B     		cmp	r3, #0
 2260 01d6 02D1     		bne	.L109
 2261              		.loc 2 620 0 is_stmt 0 discriminator 1
ARM GAS  C:\Users\r\AppData\Local\Temp\ccBAatSA.s 			page 54


 2262 01d8 4FF40073 		mov	r3, #512
 2263 01dc FB65     		str	r3, [r7, #92]
 2264              	.L109:
 621:..\..\src/disk.c **** 				}
 622:..\..\src/disk.c **** 				scsiWriteDMA(&scsiDev.data[SD_SECTOR_SIZE * (i % buffers)], dmaBytes);
 2265              		.loc 2 622 0 is_stmt 1
 2266 01de 3B6F     		ldr	r3, [r7, #112]
 2267 01e0 FA69     		ldr	r2, [r7, #28]
 2268 01e2 93FBF2F2 		sdiv	r2, r3, r2
 2269 01e6 F969     		ldr	r1, [r7, #28]
 2270 01e8 01FB02F2 		mul	r2, r1, r2
 2271 01ec 9B1A     		subs	r3, r3, r2
 2272 01ee 5B02     		lsls	r3, r3, #9
 2273 01f0 03F5BC73 		add	r3, r3, #376
 2274 01f4 2F4A     		ldr	r2, .L146
 2275 01f6 1344     		add	r3, r3, r2
 2276 01f8 0433     		adds	r3, r3, #4
 2277 01fa FA6D     		ldr	r2, [r7, #92]
 2278 01fc 1146     		mov	r1, r2
 2279 01fe 1846     		mov	r0, r3
 2280 0200 FFF7FEFF 		bl	scsiWriteDMA
 623:..\..\src/disk.c **** 				scsiActive = 1;
 2281              		.loc 2 623 0
 2282 0204 0123     		movs	r3, #1
 2283 0206 FB66     		str	r3, [r7, #108]
 2284              	.L93:
 2285              	.LBE19:
 2286              	.LBE17:
 562:..\..\src/disk.c **** 			likely(scsiDev.phase == DATA_IN) &&
 2287              		.loc 2 562 0
 2288 0208 3A6F     		ldr	r2, [r7, #112]
 2289 020a BB6A     		ldr	r3, [r7, #40]
 2290 020c 9A42     		cmp	r2, r3
 2291 020e 14DA     		bge	.L110
 563:..\..\src/disk.c **** 			likely(!scsiDev.resetFlag))
 2292              		.loc 2 563 0 discriminator 1
 2293 0210 284B     		ldr	r3, .L146
 2294 0212 D3F87831 		ldr	r3, [r3, #376]
 2295 0216 042B     		cmp	r3, #4
 2296 0218 0CBF     		ite	eq
 2297 021a 0123     		moveq	r3, #1
 2298 021c 0023     		movne	r3, #0
 2299 021e DBB2     		uxtb	r3, r3
 562:..\..\src/disk.c **** 			likely(scsiDev.phase == DATA_IN) &&
 2300              		.loc 2 562 0 discriminator 1
 2301 0220 002B     		cmp	r3, #0
 2302 0222 0AD0     		beq	.L110
 564:..\..\src/disk.c **** 		{
 2303              		.loc 2 564 0
 2304 0224 234B     		ldr	r3, .L146
 2305 0226 D3F86831 		ldr	r3, [r3, #360]
 2306 022a 002B     		cmp	r3, #0
 2307 022c 0CBF     		ite	eq
 2308 022e 0123     		moveq	r3, #1
 2309 0230 0023     		movne	r3, #0
 2310 0232 DBB2     		uxtb	r3, r3
 563:..\..\src/disk.c **** 			likely(!scsiDev.resetFlag))
ARM GAS  C:\Users\r\AppData\Local\Temp\ccBAatSA.s 			page 55


 2311              		.loc 2 563 0
 2312 0234 002B     		cmp	r3, #0
 2313 0236 7FF422AF 		bne	.L111
 2314              	.L110:
 624:..\..\src/disk.c **** 			}
 625:..\..\src/disk.c **** 		}
 626:..\..\src/disk.c **** 		if (scsiDev.phase == DATA_IN)
 2315              		.loc 2 626 0
 2316 023a 1E4B     		ldr	r3, .L146
 2317 023c D3F87831 		ldr	r3, [r3, #376]
 2318 0240 042B     		cmp	r3, #4
 2319 0242 03D1     		bne	.L112
 627:..\..\src/disk.c **** 		{
 628:..\..\src/disk.c **** 			scsiDev.phase = STATUS;
 2320              		.loc 2 628 0
 2321 0244 1B4B     		ldr	r3, .L146
 2322 0246 0622     		movs	r2, #6
 2323 0248 C3F87821 		str	r2, [r3, #376]
 2324              	.L112:
 629:..\..\src/disk.c **** 		}
 630:..\..\src/disk.c **** 		scsiDiskReset();
 2325              		.loc 2 630 0
 2326 024c FFF7FEFF 		bl	scsiDiskReset
 2327              	.LBE16:
 545:..\..\src/disk.c **** 		scsiEnterPhase(DATA_IN);
 2328              		.loc 2 545 0
 2329 0250 00BF     		nop
 631:..\..\src/disk.c **** 	}
 632:..\..\src/disk.c **** 	else if (scsiDev.phase == DATA_OUT &&
 633:..\..\src/disk.c **** 		transfer.currentBlock != transfer.blocks)
 634:..\..\src/disk.c **** 	{
 635:..\..\src/disk.c **** 		scsiEnterPhase(DATA_OUT);
 636:..\..\src/disk.c **** 
 637:..\..\src/disk.c **** 		const int sdPerScsi = SDSectorsPerSCSISector(bytesPerSector);
 638:..\..\src/disk.c **** 		int totalSDSectors = transfer.blocks * sdPerScsi;
 639:..\..\src/disk.c **** 		int buffers = sizeof(scsiDev.data) / SD_SECTOR_SIZE;
 640:..\..\src/disk.c **** 		int prep = 0;
 641:..\..\src/disk.c **** 		int i = 0;
 642:..\..\src/disk.c **** 		int scsiDisconnected = 0;
 643:..\..\src/disk.c **** 		int scsiComplete = 0;
 644:..\..\src/disk.c **** 		int clearBSY = 0;
 645:..\..\src/disk.c **** 		uint32_t lastActivityTime = getTime_ms();
 646:..\..\src/disk.c **** 		int scsiActive = 0;
 647:..\..\src/disk.c **** 		int sdActive = 0;
 648:..\..\src/disk.c **** 
 649:..\..\src/disk.c **** 		while ((i < totalSDSectors) &&
 650:..\..\src/disk.c **** 			(likely(scsiDev.phase == DATA_OUT) || // scsiDisconnect keeps our phase.
 651:..\..\src/disk.c **** 				scsiComplete) &&
 652:..\..\src/disk.c **** 			likely(!scsiDev.resetFlag))
 653:..\..\src/disk.c **** 		{
 654:..\..\src/disk.c **** 			// Wait for the next DMA interrupt. It's beneficial to halt the
 655:..\..\src/disk.c **** 			// processor to give the DMA controller more memory bandwidth to
 656:..\..\src/disk.c **** 			// work with.
 657:..\..\src/disk.c **** 			int scsiBusy = 1;
 658:..\..\src/disk.c **** 			int sdBusy = 1;
 659:..\..\src/disk.c **** 			while (scsiBusy && sdBusy)
 660:..\..\src/disk.c **** 			{
ARM GAS  C:\Users\r\AppData\Local\Temp\ccBAatSA.s 			page 56


 661:..\..\src/disk.c **** 				uint8_t intr = CyEnterCriticalSection();
 662:..\..\src/disk.c **** 				scsiBusy = scsiDMABusy();
 663:..\..\src/disk.c **** 				sdBusy = sdDMABusy();
 664:..\..\src/disk.c **** 				if (scsiBusy && sdBusy)
 665:..\..\src/disk.c **** 				{
 666:..\..\src/disk.c **** 					__WFI();
 667:..\..\src/disk.c **** 				}
 668:..\..\src/disk.c **** 				CyExitCriticalSection(intr);
 669:..\..\src/disk.c **** 			}
 670:..\..\src/disk.c **** 
 671:..\..\src/disk.c **** 			if (sdActive && !sdBusy && sdWriteSectorDMAPoll())
 672:..\..\src/disk.c **** 			{
 673:..\..\src/disk.c **** 				sdActive = 0;
 674:..\..\src/disk.c **** 				i++;
 675:..\..\src/disk.c **** 			}
 676:..\..\src/disk.c **** 			if (!sdActive && ((prep - i) > 0))
 677:..\..\src/disk.c **** 			{
 678:..\..\src/disk.c **** 				// Start an SD transfer if we have space.
 679:..\..\src/disk.c **** 				sdWriteMultiSectorDMA(&scsiDev.data[SD_SECTOR_SIZE * (i % buffers)]);
 680:..\..\src/disk.c **** 				sdActive = 1;
 681:..\..\src/disk.c **** 			}
 682:..\..\src/disk.c **** 
 683:..\..\src/disk.c **** 			uint32_t now = getTime_ms();
 684:..\..\src/disk.c **** 
 685:..\..\src/disk.c **** 			if (scsiActive && !scsiBusy && scsiReadDMAPoll())
 686:..\..\src/disk.c **** 			{
 687:..\..\src/disk.c **** 				scsiActive = 0;
 688:..\..\src/disk.c **** 				++prep;
 689:..\..\src/disk.c **** 				lastActivityTime = now;
 690:..\..\src/disk.c **** 			}
 691:..\..\src/disk.c **** 			if (!scsiActive &&
 692:..\..\src/disk.c **** 				((prep - i) < buffers) &&
 693:..\..\src/disk.c **** 				(prep < totalSDSectors) &&
 694:..\..\src/disk.c **** 				likely(!scsiDisconnected))
 695:..\..\src/disk.c **** 			{
 696:..\..\src/disk.c **** 				int dmaBytes = SD_SECTOR_SIZE;
 697:..\..\src/disk.c **** 				if ((prep % sdPerScsi) == (sdPerScsi - 1))
 698:..\..\src/disk.c **** 				{
 699:..\..\src/disk.c **** 					dmaBytes = bytesPerSector % SD_SECTOR_SIZE;
 700:..\..\src/disk.c **** 					if (dmaBytes == 0) dmaBytes = SD_SECTOR_SIZE;
 701:..\..\src/disk.c **** 				}
 702:..\..\src/disk.c **** 				scsiReadDMA(&scsiDev.data[SD_SECTOR_SIZE * (prep % buffers)], dmaBytes);
 703:..\..\src/disk.c **** 				scsiActive = 1;
 704:..\..\src/disk.c **** 			}
 705:..\..\src/disk.c **** 			else if (
 706:..\..\src/disk.c **** 				(scsiDev.boardCfg.flags & CONFIG_ENABLE_DISCONNECT) &&
 707:..\..\src/disk.c **** 				(scsiActive == 0) &&
 708:..\..\src/disk.c **** 				likely(!scsiDisconnected) &&
 709:..\..\src/disk.c **** 				unlikely(scsiDev.discPriv) &&
 710:..\..\src/disk.c **** 				unlikely(diffTime_ms(lastActivityTime, now) >= 20) &&
 711:..\..\src/disk.c **** 				likely(scsiDev.phase == DATA_OUT))
 712:..\..\src/disk.c **** 			{
 713:..\..\src/disk.c **** 				// We're transferring over the SCSI bus faster than the SD card
 714:..\..\src/disk.c **** 				// can write.  There is no more buffer space once we've finished
 715:..\..\src/disk.c **** 				// this SCSI transfer.
 716:..\..\src/disk.c **** 				// The NCR 53C700 interface chips have a 250ms "byte-to-byte"
 717:..\..\src/disk.c **** 				// timeout buffer. SD card writes are supposed to complete
ARM GAS  C:\Users\r\AppData\Local\Temp\ccBAatSA.s 			page 57


 718:..\..\src/disk.c **** 				// within 200ms, but sometimes they don't.
 719:..\..\src/disk.c **** 				// The NCR 53C700 series is used on HP 9000 workstations.
 720:..\..\src/disk.c **** 				scsiDisconnect();
 721:..\..\src/disk.c **** 				scsiDisconnected = 1;
 722:..\..\src/disk.c **** 				lastActivityTime = getTime_ms();
 723:..\..\src/disk.c **** 			}
 724:..\..\src/disk.c **** 			else if (unlikely(scsiDisconnected) &&
 725:..\..\src/disk.c **** 				(
 726:..\..\src/disk.c **** 					(prep == i) || // Buffers empty.
 727:..\..\src/disk.c **** 					// Send some messages every 100ms so we don't timeout.
 728:..\..\src/disk.c **** 					// At a minimum, a reselection involves an IDENTIFY message.
 729:..\..\src/disk.c **** 					unlikely(diffTime_ms(lastActivityTime, now) >= 100)
 730:..\..\src/disk.c **** 				))
 731:..\..\src/disk.c **** 			{
 732:..\..\src/disk.c **** 				int reconnected = scsiReconnect();
 733:..\..\src/disk.c **** 				if (reconnected)
 734:..\..\src/disk.c **** 				{
 735:..\..\src/disk.c **** 					scsiDisconnected = 0;
 736:..\..\src/disk.c **** 					lastActivityTime = getTime_ms(); // Don't disconnect immediately.
 737:..\..\src/disk.c **** 				}
 738:..\..\src/disk.c **** 				else if (diffTime_ms(lastActivityTime, getTime_ms()) >= 10000)
 739:..\..\src/disk.c **** 				{
 740:..\..\src/disk.c **** 					// Give up after 10 seconds of trying to reconnect.
 741:..\..\src/disk.c **** 					scsiDev.resetFlag = 1;
 742:..\..\src/disk.c **** 				}
 743:..\..\src/disk.c **** 			}
 744:..\..\src/disk.c **** 			else if (
 745:..\..\src/disk.c **** 				likely(!scsiComplete) &&
 746:..\..\src/disk.c **** 				(sdActive == 1) &&
 747:..\..\src/disk.c **** 				(prep == totalSDSectors) && // All scsi data read and buffered
 748:..\..\src/disk.c **** 				likely(!scsiDev.discPriv) && // Prefer disconnect where possible.
 749:..\..\src/disk.c **** 				unlikely(diffTime_ms(lastActivityTime, now) >= 150) &&
 750:..\..\src/disk.c **** 
 751:..\..\src/disk.c **** 				likely(scsiDev.phase == DATA_OUT) &&
 752:..\..\src/disk.c **** 				!(scsiDev.cdb[scsiDev.cdbLen - 1] & 0x01) // Not linked command
 753:..\..\src/disk.c **** 				)
 754:..\..\src/disk.c **** 			{
 755:..\..\src/disk.c **** 				// We're transferring over the SCSI bus faster than the SD card
 756:..\..\src/disk.c **** 				// can write.  All data is buffered, and we're just waiting for
 757:..\..\src/disk.c **** 				// the SD card to complete. The host won't let us disconnect.
 758:..\..\src/disk.c **** 				// Some drivers set a 250ms timeout on transfers to complete.
 759:..\..\src/disk.c **** 				// SD card writes are supposed to complete
 760:..\..\src/disk.c **** 				// within 200ms, but sometimes they don'to.
 761:..\..\src/disk.c **** 				// Just pretend we're finished.
 762:..\..\src/disk.c **** 				scsiComplete = 1;
 763:..\..\src/disk.c **** 
 764:..\..\src/disk.c **** 				process_Status();
 765:..\..\src/disk.c **** 				clearBSY = process_MessageIn(0); // Will go to BUS_FREE state but keeps BSY asserted
 766:..\..\src/disk.c **** 			}
 767:..\..\src/disk.c **** 		}
 768:..\..\src/disk.c **** 
 769:..\..\src/disk.c **** 		if (clearBSY)
 770:..\..\src/disk.c **** 		{
 771:..\..\src/disk.c **** 			enter_BusFree();
 772:..\..\src/disk.c **** 		}
 773:..\..\src/disk.c **** 		while (
 774:..\..\src/disk.c **** 			!scsiDev.resetFlag &&
ARM GAS  C:\Users\r\AppData\Local\Temp\ccBAatSA.s 			page 58


 775:..\..\src/disk.c **** 			unlikely(scsiDisconnected) &&
 776:..\..\src/disk.c **** 			(elapsedTime_ms(lastActivityTime) <= 10000))
 777:..\..\src/disk.c **** 		{
 778:..\..\src/disk.c **** 			scsiDisconnected = !scsiReconnect();
 779:..\..\src/disk.c **** 		}
 780:..\..\src/disk.c **** 		if (scsiDisconnected)
 781:..\..\src/disk.c **** 		{
 782:..\..\src/disk.c **** 			// Failed to reconnect
 783:..\..\src/disk.c **** 			scsiDev.resetFlag = 1;
 784:..\..\src/disk.c **** 		}
 785:..\..\src/disk.c **** 
 786:..\..\src/disk.c **** 		if (scsiDev.phase == DATA_OUT)
 787:..\..\src/disk.c **** 		{
 788:..\..\src/disk.c **** 			if (scsiDev.parityError &&
 789:..\..\src/disk.c **** 				(scsiDev.boardCfg.flags & CONFIG_ENABLE_PARITY) &&
 790:..\..\src/disk.c **** 				(scsiDev.compatMode >= COMPAT_SCSI2))
 791:..\..\src/disk.c **** 			{
 792:..\..\src/disk.c **** 				scsiDev.target->sense.code = ABORTED_COMMAND;
 793:..\..\src/disk.c **** 				scsiDev.target->sense.asc = SCSI_PARITY_ERROR;
 794:..\..\src/disk.c **** 				scsiDev.status = CHECK_CONDITION;;
 795:..\..\src/disk.c **** 			}
 796:..\..\src/disk.c **** 			scsiDev.phase = STATUS;
 797:..\..\src/disk.c **** 		}
 798:..\..\src/disk.c **** 		scsiDiskReset();
 799:..\..\src/disk.c **** 	}
 800:..\..\src/disk.c **** }
 2330              		.loc 2 800 0
 2331 0252 2EE2     		b	.L145
 2332              	.L92:
 632:..\..\src/disk.c **** 		transfer.currentBlock != transfer.blocks)
 2333              		.loc 2 632 0
 2334 0254 174B     		ldr	r3, .L146
 2335 0256 D3F87831 		ldr	r3, [r3, #376]
 2336 025a 002B     		cmp	r3, #0
 2337 025c 40F02982 		bne	.L145
 633:..\..\src/disk.c **** 	{
 2338              		.loc 2 633 0 discriminator 1
 2339 0260 154B     		ldr	r3, .L146+4
 2340 0262 DA68     		ldr	r2, [r3, #12]
 2341 0264 144B     		ldr	r3, .L146+4
 2342 0266 9B68     		ldr	r3, [r3, #8]
 632:..\..\src/disk.c **** 		transfer.currentBlock != transfer.blocks)
 2343              		.loc 2 632 0 discriminator 1
 2344 0268 9A42     		cmp	r2, r3
 2345 026a 00F02282 		beq	.L145
 2346              	.LBB20:
 635:..\..\src/disk.c **** 
 2347              		.loc 2 635 0
 2348 026e 0020     		movs	r0, #0
 2349 0270 FFF7FEFF 		bl	scsiEnterPhase
 637:..\..\src/disk.c **** 		int totalSDSectors = transfer.blocks * sdPerScsi;
 2350              		.loc 2 637 0
 2351 0274 FB6A     		ldr	r3, [r7, #44]
 2352 0276 9BB2     		uxth	r3, r3
 2353 0278 1846     		mov	r0, r3
 2354 027a FFF7FEFF 		bl	SDSectorsPerSCSISector
 2355 027e 7861     		str	r0, [r7, #20]
ARM GAS  C:\Users\r\AppData\Local\Temp\ccBAatSA.s 			page 59


 638:..\..\src/disk.c **** 		int buffers = sizeof(scsiDev.data) / SD_SECTOR_SIZE;
 2356              		.loc 2 638 0
 2357 0280 0D4B     		ldr	r3, .L146+4
 2358 0282 9B68     		ldr	r3, [r3, #8]
 2359 0284 7A69     		ldr	r2, [r7, #20]
 2360 0286 02FB03F3 		mul	r3, r2, r3
 2361 028a 3B61     		str	r3, [r7, #16]
 639:..\..\src/disk.c **** 		int prep = 0;
 2362              		.loc 2 639 0
 2363 028c 2023     		movs	r3, #32
 2364 028e FB60     		str	r3, [r7, #12]
 640:..\..\src/disk.c **** 		int i = 0;
 2365              		.loc 2 640 0
 2366 0290 0023     		movs	r3, #0
 2367 0292 BB65     		str	r3, [r7, #88]
 641:..\..\src/disk.c **** 		int scsiDisconnected = 0;
 2368              		.loc 2 641 0
 2369 0294 0023     		movs	r3, #0
 2370 0296 7B65     		str	r3, [r7, #84]
 642:..\..\src/disk.c **** 		int scsiComplete = 0;
 2371              		.loc 2 642 0
 2372 0298 0023     		movs	r3, #0
 2373 029a 3B65     		str	r3, [r7, #80]
 643:..\..\src/disk.c **** 		int clearBSY = 0;
 2374              		.loc 2 643 0
 2375 029c 0023     		movs	r3, #0
 2376 029e FB64     		str	r3, [r7, #76]
 644:..\..\src/disk.c **** 		uint32_t lastActivityTime = getTime_ms();
 2377              		.loc 2 644 0
 2378 02a0 0023     		movs	r3, #0
 2379 02a2 BB64     		str	r3, [r7, #72]
 645:..\..\src/disk.c **** 		int scsiActive = 0;
 2380              		.loc 2 645 0
 2381 02a4 FFF7FEFF 		bl	getTime_ms
 2382 02a8 7864     		str	r0, [r7, #68]
 646:..\..\src/disk.c **** 		int sdActive = 0;
 2383              		.loc 2 646 0
 2384 02aa 0023     		movs	r3, #0
 2385 02ac 3B64     		str	r3, [r7, #64]
 647:..\..\src/disk.c **** 
 2386              		.loc 2 647 0
 2387 02ae 0023     		movs	r3, #0
 2388 02b0 FB63     		str	r3, [r7, #60]
 649:..\..\src/disk.c **** 			(likely(scsiDev.phase == DATA_OUT) || // scsiDisconnect keeps our phase.
 2389              		.loc 2 649 0
 2390 02b2 8AE1     		b	.L114
 2391              	.L147:
 2392              		.align	2
 2393              	.L146:
 2394 02b4 00000000 		.word	scsiDev
 2395 02b8 00000000 		.word	transfer
 2396 02bc 00000000 		.word	scsiRxDMAComplete
 2397 02c0 00000000 		.word	scsiTxDMAComplete
 2398 02c4 00000000 		.word	sdRxDMAComplete
 2399 02c8 00000000 		.word	sdTxDMAComplete
 2400              	.L137:
 2401              	.LBB21:
ARM GAS  C:\Users\r\AppData\Local\Temp\ccBAatSA.s 			page 60


 657:..\..\src/disk.c **** 			int sdBusy = 1;
 2402              		.loc 2 657 0
 2403 02cc 0123     		movs	r3, #1
 2404 02ce BB63     		str	r3, [r7, #56]
 658:..\..\src/disk.c **** 			while (scsiBusy && sdBusy)
 2405              		.loc 2 658 0
 2406 02d0 0123     		movs	r3, #1
 2407 02d2 7B63     		str	r3, [r7, #52]
 659:..\..\src/disk.c **** 			{
 2408              		.loc 2 659 0
 2409 02d4 2AE0     		b	.L115
 2410              	.L124:
 2411              	.LBB22:
 661:..\..\src/disk.c **** 				scsiBusy = scsiDMABusy();
 2412              		.loc 2 661 0
 2413 02d6 FFF7FEFF 		bl	CyEnterCriticalSection
 2414 02da 0346     		mov	r3, r0
 2415 02dc FB72     		strb	r3, [r7, #11]
 662:..\..\src/disk.c **** 				sdBusy = sdDMABusy();
 2416              		.loc 2 662 0
 2417 02de 914B     		ldr	r3, .L148
 2418 02e0 1B78     		ldrb	r3, [r3]
 2419 02e2 DBB2     		uxtb	r3, r3
 2420 02e4 002B     		cmp	r3, #0
 2421 02e6 04D0     		beq	.L116
 662:..\..\src/disk.c **** 				sdBusy = sdDMABusy();
 2422              		.loc 2 662 0 is_stmt 0 discriminator 2
 2423 02e8 8F4B     		ldr	r3, .L148+4
 2424 02ea 1B78     		ldrb	r3, [r3]
 2425 02ec DBB2     		uxtb	r3, r3
 2426 02ee 002B     		cmp	r3, #0
 2427 02f0 01D1     		bne	.L117
 2428              	.L116:
 662:..\..\src/disk.c **** 				sdBusy = sdDMABusy();
 2429              		.loc 2 662 0 discriminator 3
 2430 02f2 0123     		movs	r3, #1
 2431 02f4 00E0     		b	.L118
 2432              	.L117:
 662:..\..\src/disk.c **** 				sdBusy = sdDMABusy();
 2433              		.loc 2 662 0 discriminator 4
 2434 02f6 0023     		movs	r3, #0
 2435              	.L118:
 662:..\..\src/disk.c **** 				sdBusy = sdDMABusy();
 2436              		.loc 2 662 0 discriminator 6
 2437 02f8 BB63     		str	r3, [r7, #56]
 663:..\..\src/disk.c **** 				if (scsiBusy && sdBusy)
 2438              		.loc 2 663 0 is_stmt 1 discriminator 6
 2439 02fa 8C4B     		ldr	r3, .L148+8
 2440 02fc 1B78     		ldrb	r3, [r3]
 2441 02fe DBB2     		uxtb	r3, r3
 2442 0300 002B     		cmp	r3, #0
 2443 0302 04D0     		beq	.L119
 663:..\..\src/disk.c **** 				if (scsiBusy && sdBusy)
 2444              		.loc 2 663 0 is_stmt 0 discriminator 2
 2445 0304 8A4B     		ldr	r3, .L148+12
 2446 0306 1B78     		ldrb	r3, [r3]
 2447 0308 DBB2     		uxtb	r3, r3
ARM GAS  C:\Users\r\AppData\Local\Temp\ccBAatSA.s 			page 61


 2448 030a 002B     		cmp	r3, #0
 2449 030c 01D1     		bne	.L120
 2450              	.L119:
 663:..\..\src/disk.c **** 				if (scsiBusy && sdBusy)
 2451              		.loc 2 663 0 discriminator 3
 2452 030e 0123     		movs	r3, #1
 2453 0310 00E0     		b	.L121
 2454              	.L120:
 663:..\..\src/disk.c **** 				if (scsiBusy && sdBusy)
 2455              		.loc 2 663 0 discriminator 4
 2456 0312 0023     		movs	r3, #0
 2457              	.L121:
 663:..\..\src/disk.c **** 				if (scsiBusy && sdBusy)
 2458              		.loc 2 663 0 discriminator 6
 2459 0314 7B63     		str	r3, [r7, #52]
 664:..\..\src/disk.c **** 				{
 2460              		.loc 2 664 0 is_stmt 1 discriminator 6
 2461 0316 BB6B     		ldr	r3, [r7, #56]
 2462 0318 002B     		cmp	r3, #0
 2463 031a 03D0     		beq	.L122
 664:..\..\src/disk.c **** 				{
 2464              		.loc 2 664 0 is_stmt 0 discriminator 1
 2465 031c 7B6B     		ldr	r3, [r7, #52]
 2466 031e 002B     		cmp	r3, #0
 2467 0320 00D0     		beq	.L122
 666:..\..\src/disk.c **** 				}
 2468              		.loc 2 666 0 is_stmt 1
 2469              		.syntax unified
 2470              	@ 666 "..\..\src\disk.c" 1
 2471 0322 30BF     		wfi
 2472              	@ 0 "" 2
 2473              		.thumb
 2474              		.syntax unified
 2475              	.L122:
 668:..\..\src/disk.c **** 			}
 2476              		.loc 2 668 0
 2477 0324 FB7A     		ldrb	r3, [r7, #11]	@ zero_extendqisi2
 2478 0326 1846     		mov	r0, r3
 2479 0328 FFF7FEFF 		bl	CyExitCriticalSection
 2480              	.L115:
 2481              	.LBE22:
 659:..\..\src/disk.c **** 			{
 2482              		.loc 2 659 0
 2483 032c BB6B     		ldr	r3, [r7, #56]
 2484 032e 002B     		cmp	r3, #0
 2485 0330 02D0     		beq	.L123
 659:..\..\src/disk.c **** 			{
 2486              		.loc 2 659 0 is_stmt 0 discriminator 1
 2487 0332 7B6B     		ldr	r3, [r7, #52]
 2488 0334 002B     		cmp	r3, #0
 2489 0336 CED1     		bne	.L124
 2490              	.L123:
 671:..\..\src/disk.c **** 			{
 2491              		.loc 2 671 0 is_stmt 1
 2492 0338 FB6B     		ldr	r3, [r7, #60]
 2493 033a 002B     		cmp	r3, #0
 2494 033c 0CD0     		beq	.L125
ARM GAS  C:\Users\r\AppData\Local\Temp\ccBAatSA.s 			page 62


 671:..\..\src/disk.c **** 			{
 2495              		.loc 2 671 0 is_stmt 0 discriminator 1
 2496 033e 7B6B     		ldr	r3, [r7, #52]
 2497 0340 002B     		cmp	r3, #0
 2498 0342 09D1     		bne	.L125
 671:..\..\src/disk.c **** 			{
 2499              		.loc 2 671 0 discriminator 2
 2500 0344 FFF7FEFF 		bl	sdWriteSectorDMAPoll
 2501 0348 0346     		mov	r3, r0
 2502 034a 002B     		cmp	r3, #0
 2503 034c 04D0     		beq	.L125
 673:..\..\src/disk.c **** 				i++;
 2504              		.loc 2 673 0 is_stmt 1
 2505 034e 0023     		movs	r3, #0
 2506 0350 FB63     		str	r3, [r7, #60]
 674:..\..\src/disk.c **** 			}
 2507              		.loc 2 674 0
 2508 0352 7B6D     		ldr	r3, [r7, #84]
 2509 0354 0133     		adds	r3, r3, #1
 2510 0356 7B65     		str	r3, [r7, #84]
 2511              	.L125:
 676:..\..\src/disk.c **** 			{
 2512              		.loc 2 676 0
 2513 0358 FB6B     		ldr	r3, [r7, #60]
 2514 035a 002B     		cmp	r3, #0
 2515 035c 17D1     		bne	.L126
 676:..\..\src/disk.c **** 			{
 2516              		.loc 2 676 0 is_stmt 0 discriminator 1
 2517 035e BA6D     		ldr	r2, [r7, #88]
 2518 0360 7B6D     		ldr	r3, [r7, #84]
 2519 0362 D31A     		subs	r3, r2, r3
 2520 0364 002B     		cmp	r3, #0
 2521 0366 12DD     		ble	.L126
 679:..\..\src/disk.c **** 				sdActive = 1;
 2522              		.loc 2 679 0 is_stmt 1
 2523 0368 7B6D     		ldr	r3, [r7, #84]
 2524 036a FA68     		ldr	r2, [r7, #12]
 2525 036c 93FBF2F2 		sdiv	r2, r3, r2
 2526 0370 F968     		ldr	r1, [r7, #12]
 2527 0372 01FB02F2 		mul	r2, r1, r2
 2528 0376 9B1A     		subs	r3, r3, r2
 2529 0378 5B02     		lsls	r3, r3, #9
 2530 037a 03F5BC73 		add	r3, r3, #376
 2531 037e 6D4A     		ldr	r2, .L148+16
 2532 0380 1344     		add	r3, r3, r2
 2533 0382 0433     		adds	r3, r3, #4
 2534 0384 1846     		mov	r0, r3
 2535 0386 FFF7FEFF 		bl	sdWriteMultiSectorDMA
 680:..\..\src/disk.c **** 			}
 2536              		.loc 2 680 0
 2537 038a 0123     		movs	r3, #1
 2538 038c FB63     		str	r3, [r7, #60]
 2539              	.L126:
 683:..\..\src/disk.c **** 
 2540              		.loc 2 683 0
 2541 038e FFF7FEFF 		bl	getTime_ms
 2542 0392 7860     		str	r0, [r7, #4]
ARM GAS  C:\Users\r\AppData\Local\Temp\ccBAatSA.s 			page 63


 685:..\..\src/disk.c **** 			{
 2543              		.loc 2 685 0
 2544 0394 3B6C     		ldr	r3, [r7, #64]
 2545 0396 002B     		cmp	r3, #0
 2546 0398 0ED0     		beq	.L127
 685:..\..\src/disk.c **** 			{
 2547              		.loc 2 685 0 is_stmt 0 discriminator 1
 2548 039a BB6B     		ldr	r3, [r7, #56]
 2549 039c 002B     		cmp	r3, #0
 2550 039e 0BD1     		bne	.L127
 685:..\..\src/disk.c **** 			{
 2551              		.loc 2 685 0 discriminator 2
 2552 03a0 FFF7FEFF 		bl	scsiReadDMAPoll
 2553 03a4 0346     		mov	r3, r0
 2554 03a6 002B     		cmp	r3, #0
 2555 03a8 06D0     		beq	.L127
 687:..\..\src/disk.c **** 				++prep;
 2556              		.loc 2 687 0 is_stmt 1
 2557 03aa 0023     		movs	r3, #0
 2558 03ac 3B64     		str	r3, [r7, #64]
 688:..\..\src/disk.c **** 				lastActivityTime = now;
 2559              		.loc 2 688 0
 2560 03ae BB6D     		ldr	r3, [r7, #88]
 2561 03b0 0133     		adds	r3, r3, #1
 2562 03b2 BB65     		str	r3, [r7, #88]
 689:..\..\src/disk.c **** 			}
 2563              		.loc 2 689 0
 2564 03b4 7B68     		ldr	r3, [r7, #4]
 2565 03b6 7B64     		str	r3, [r7, #68]
 2566              	.L127:
 691:..\..\src/disk.c **** 				((prep - i) < buffers) &&
 2567              		.loc 2 691 0
 2568 03b8 3B6C     		ldr	r3, [r7, #64]
 2569 03ba 002B     		cmp	r3, #0
 2570 03bc 40D1     		bne	.L128
 692:..\..\src/disk.c **** 				(prep < totalSDSectors) &&
 2571              		.loc 2 692 0 discriminator 1
 2572 03be BA6D     		ldr	r2, [r7, #88]
 2573 03c0 7B6D     		ldr	r3, [r7, #84]
 2574 03c2 D21A     		subs	r2, r2, r3
 691:..\..\src/disk.c **** 				((prep - i) < buffers) &&
 2575              		.loc 2 691 0 discriminator 1
 2576 03c4 FB68     		ldr	r3, [r7, #12]
 2577 03c6 9A42     		cmp	r2, r3
 2578 03c8 3ADA     		bge	.L128
 692:..\..\src/disk.c **** 				(prep < totalSDSectors) &&
 2579              		.loc 2 692 0
 2580 03ca BA6D     		ldr	r2, [r7, #88]
 2581 03cc 3B69     		ldr	r3, [r7, #16]
 2582 03ce 9A42     		cmp	r2, r3
 2583 03d0 36DA     		bge	.L128
 694:..\..\src/disk.c **** 			{
 2584              		.loc 2 694 0
 2585 03d2 3B6D     		ldr	r3, [r7, #80]
 2586 03d4 002B     		cmp	r3, #0
 2587 03d6 0CBF     		ite	eq
 2588 03d8 0123     		moveq	r3, #1
ARM GAS  C:\Users\r\AppData\Local\Temp\ccBAatSA.s 			page 64


 2589 03da 0023     		movne	r3, #0
 2590 03dc DBB2     		uxtb	r3, r3
 693:..\..\src/disk.c **** 				likely(!scsiDisconnected))
 2591              		.loc 2 693 0
 2592 03de 002B     		cmp	r3, #0
 2593 03e0 2ED0     		beq	.L128
 2594              	.LBB23:
 696:..\..\src/disk.c **** 				if ((prep % sdPerScsi) == (sdPerScsi - 1))
 2595              		.loc 2 696 0
 2596 03e2 4FF40073 		mov	r3, #512
 2597 03e6 3B63     		str	r3, [r7, #48]
 697:..\..\src/disk.c **** 				{
 2598              		.loc 2 697 0
 2599 03e8 BB6D     		ldr	r3, [r7, #88]
 2600 03ea 7A69     		ldr	r2, [r7, #20]
 2601 03ec 93FBF2F2 		sdiv	r2, r3, r2
 2602 03f0 7969     		ldr	r1, [r7, #20]
 2603 03f2 01FB02F2 		mul	r2, r1, r2
 2604 03f6 9A1A     		subs	r2, r3, r2
 2605 03f8 7B69     		ldr	r3, [r7, #20]
 2606 03fa 013B     		subs	r3, r3, #1
 2607 03fc 9A42     		cmp	r2, r3
 2608 03fe 09D1     		bne	.L129
 699:..\..\src/disk.c **** 					if (dmaBytes == 0) dmaBytes = SD_SECTOR_SIZE;
 2609              		.loc 2 699 0
 2610 0400 FB6A     		ldr	r3, [r7, #44]
 2611 0402 C3F30803 		ubfx	r3, r3, #0, #9
 2612 0406 3B63     		str	r3, [r7, #48]
 700:..\..\src/disk.c **** 				}
 2613              		.loc 2 700 0
 2614 0408 3B6B     		ldr	r3, [r7, #48]
 2615 040a 002B     		cmp	r3, #0
 2616 040c 02D1     		bne	.L129
 700:..\..\src/disk.c **** 				}
 2617              		.loc 2 700 0 is_stmt 0 discriminator 1
 2618 040e 4FF40073 		mov	r3, #512
 2619 0412 3B63     		str	r3, [r7, #48]
 2620              	.L129:
 702:..\..\src/disk.c **** 				scsiActive = 1;
 2621              		.loc 2 702 0 is_stmt 1
 2622 0414 BB6D     		ldr	r3, [r7, #88]
 2623 0416 FA68     		ldr	r2, [r7, #12]
 2624 0418 93FBF2F2 		sdiv	r2, r3, r2
 2625 041c F968     		ldr	r1, [r7, #12]
 2626 041e 01FB02F2 		mul	r2, r1, r2
 2627 0422 9B1A     		subs	r3, r3, r2
 2628 0424 5B02     		lsls	r3, r3, #9
 2629 0426 03F5BC73 		add	r3, r3, #376
 2630 042a 424A     		ldr	r2, .L148+16
 2631 042c 1344     		add	r3, r3, r2
 2632 042e 0433     		adds	r3, r3, #4
 2633 0430 3A6B     		ldr	r2, [r7, #48]
 2634 0432 1146     		mov	r1, r2
 2635 0434 1846     		mov	r0, r3
 2636 0436 FFF7FEFF 		bl	scsiReadDMA
 703:..\..\src/disk.c **** 			}
 2637              		.loc 2 703 0
ARM GAS  C:\Users\r\AppData\Local\Temp\ccBAatSA.s 			page 65


 2638 043a 0123     		movs	r3, #1
 2639 043c 3B64     		str	r3, [r7, #64]
 2640              	.LBE23:
 695:..\..\src/disk.c **** 				int dmaBytes = SD_SECTOR_SIZE;
 2641              		.loc 2 695 0
 2642 043e C4E0     		b	.L114
 2643              	.L128:
 706:..\..\src/disk.c **** 				(scsiActive == 0) &&
 2644              		.loc 2 706 0
 2645 0440 3C4B     		ldr	r3, .L148+16
 2646 0442 93F86830 		ldrb	r3, [r3, #104]	@ zero_extendqisi2
 2647 0446 03F02003 		and	r3, r3, #32
 705:..\..\src/disk.c **** 				(scsiDev.boardCfg.flags & CONFIG_ENABLE_DISCONNECT) &&
 2648              		.loc 2 705 0
 2649 044a 002B     		cmp	r3, #0
 2650 044c 34D0     		beq	.L130
 706:..\..\src/disk.c **** 				(scsiActive == 0) &&
 2651              		.loc 2 706 0
 2652 044e 3B6C     		ldr	r3, [r7, #64]
 2653 0450 002B     		cmp	r3, #0
 2654 0452 31D1     		bne	.L130
 708:..\..\src/disk.c **** 				unlikely(scsiDev.discPriv) &&
 2655              		.loc 2 708 0
 2656 0454 3B6D     		ldr	r3, [r7, #80]
 2657 0456 002B     		cmp	r3, #0
 2658 0458 0CBF     		ite	eq
 2659 045a 0123     		moveq	r3, #1
 2660 045c 0023     		movne	r3, #0
 2661 045e DBB2     		uxtb	r3, r3
 707:..\..\src/disk.c **** 				likely(!scsiDisconnected) &&
 2662              		.loc 2 707 0
 2663 0460 002B     		cmp	r3, #0
 2664 0462 29D0     		beq	.L130
 709:..\..\src/disk.c **** 				unlikely(diffTime_ms(lastActivityTime, now) >= 20) &&
 2665              		.loc 2 709 0
 2666 0464 334B     		ldr	r3, .L148+16
 2667 0466 03F58343 		add	r3, r3, #16768
 2668 046a 1633     		adds	r3, r3, #22
 2669 046c 1B78     		ldrb	r3, [r3]	@ zero_extendqisi2
 2670 046e 002B     		cmp	r3, #0
 2671 0470 14BF     		ite	ne
 2672 0472 0123     		movne	r3, #1
 2673 0474 0023     		moveq	r3, #0
 2674 0476 DBB2     		uxtb	r3, r3
 708:..\..\src/disk.c **** 				unlikely(scsiDev.discPriv) &&
 2675              		.loc 2 708 0
 2676 0478 002B     		cmp	r3, #0
 2677 047a 1DD0     		beq	.L130
 710:..\..\src/disk.c **** 				likely(scsiDev.phase == DATA_OUT))
 2678              		.loc 2 710 0
 2679 047c 7968     		ldr	r1, [r7, #4]
 2680 047e 786C     		ldr	r0, [r7, #68]
 2681 0480 FFF7FEFF 		bl	diffTime_ms
 2682 0484 0346     		mov	r3, r0
 2683 0486 132B     		cmp	r3, #19
 2684 0488 8CBF     		ite	hi
 2685 048a 0123     		movhi	r3, #1
ARM GAS  C:\Users\r\AppData\Local\Temp\ccBAatSA.s 			page 66


 2686 048c 0023     		movls	r3, #0
 2687 048e DBB2     		uxtb	r3, r3
 709:..\..\src/disk.c **** 				unlikely(diffTime_ms(lastActivityTime, now) >= 20) &&
 2688              		.loc 2 709 0
 2689 0490 002B     		cmp	r3, #0
 2690 0492 11D0     		beq	.L130
 711:..\..\src/disk.c **** 			{
 2691              		.loc 2 711 0
 2692 0494 274B     		ldr	r3, .L148+16
 2693 0496 D3F87831 		ldr	r3, [r3, #376]
 2694 049a 002B     		cmp	r3, #0
 2695 049c 0CBF     		ite	eq
 2696 049e 0123     		moveq	r3, #1
 2697 04a0 0023     		movne	r3, #0
 2698 04a2 DBB2     		uxtb	r3, r3
 710:..\..\src/disk.c **** 				likely(scsiDev.phase == DATA_OUT))
 2699              		.loc 2 710 0
 2700 04a4 002B     		cmp	r3, #0
 2701 04a6 07D0     		beq	.L130
 720:..\..\src/disk.c **** 				scsiDisconnected = 1;
 2702              		.loc 2 720 0
 2703 04a8 FFF7FEFF 		bl	scsiDisconnect
 721:..\..\src/disk.c **** 				lastActivityTime = getTime_ms();
 2704              		.loc 2 721 0
 2705 04ac 0123     		movs	r3, #1
 2706 04ae 3B65     		str	r3, [r7, #80]
 722:..\..\src/disk.c **** 			}
 2707              		.loc 2 722 0
 2708 04b0 FFF7FEFF 		bl	getTime_ms
 2709 04b4 7864     		str	r0, [r7, #68]
 2710 04b6 88E0     		b	.L114
 2711              	.L130:
 724:..\..\src/disk.c **** 				(
 2712              		.loc 2 724 0
 2713 04b8 3B6D     		ldr	r3, [r7, #80]
 2714 04ba 002B     		cmp	r3, #0
 2715 04bc 14BF     		ite	ne
 2716 04be 0123     		movne	r3, #1
 2717 04c0 0023     		moveq	r3, #0
 2718 04c2 DBB2     		uxtb	r3, r3
 2719 04c4 002B     		cmp	r3, #0
 2720 04c6 37D0     		beq	.L131
 724:..\..\src/disk.c **** 				(
 2721              		.loc 2 724 0 is_stmt 0 discriminator 1
 2722 04c8 BA6D     		ldr	r2, [r7, #88]
 2723 04ca 7B6D     		ldr	r3, [r7, #84]
 2724 04cc 9A42     		cmp	r2, r3
 2725 04ce 0BD0     		beq	.L132
 729:..\..\src/disk.c **** 				))
 2726              		.loc 2 729 0 is_stmt 1
 2727 04d0 7968     		ldr	r1, [r7, #4]
 2728 04d2 786C     		ldr	r0, [r7, #68]
 2729 04d4 FFF7FEFF 		bl	diffTime_ms
 2730 04d8 0346     		mov	r3, r0
 2731 04da 632B     		cmp	r3, #99
 2732 04dc 8CBF     		ite	hi
 2733 04de 0123     		movhi	r3, #1
ARM GAS  C:\Users\r\AppData\Local\Temp\ccBAatSA.s 			page 67


 2734 04e0 0023     		movls	r3, #0
 2735 04e2 DBB2     		uxtb	r3, r3
 726:..\..\src/disk.c **** 					// Send some messages every 100ms so we don't timeout.
 2736              		.loc 2 726 0
 2737 04e4 002B     		cmp	r3, #0
 2738 04e6 27D0     		beq	.L131
 2739              	.L132:
 2740              	.LBB24:
 732:..\..\src/disk.c **** 				if (reconnected)
 2741              		.loc 2 732 0
 2742 04e8 FFF7FEFF 		bl	scsiReconnect
 2743 04ec 3860     		str	r0, [r7]
 733:..\..\src/disk.c **** 				{
 2744              		.loc 2 733 0
 2745 04ee 3B68     		ldr	r3, [r7]
 2746 04f0 002B     		cmp	r3, #0
 2747 04f2 05D0     		beq	.L133
 735:..\..\src/disk.c **** 					lastActivityTime = getTime_ms(); // Don't disconnect immediately.
 2748              		.loc 2 735 0
 2749 04f4 0023     		movs	r3, #0
 2750 04f6 3B65     		str	r3, [r7, #80]
 736:..\..\src/disk.c **** 				}
 2751              		.loc 2 736 0
 2752 04f8 FFF7FEFF 		bl	getTime_ms
 2753 04fc 7864     		str	r0, [r7, #68]
 2754 04fe 64E0     		b	.L114
 2755              	.L133:
 738:..\..\src/disk.c **** 				{
 2756              		.loc 2 738 0
 2757 0500 FFF7FEFF 		bl	getTime_ms
 2758 0504 0346     		mov	r3, r0
 2759 0506 1946     		mov	r1, r3
 2760 0508 786C     		ldr	r0, [r7, #68]
 2761 050a FFF7FEFF 		bl	diffTime_ms
 2762 050e 0246     		mov	r2, r0
 2763 0510 42F20F73 		movw	r3, #9999
 2764 0514 9A42     		cmp	r2, r3
 2765 0516 58D9     		bls	.L114
 741:..\..\src/disk.c **** 				}
 2766              		.loc 2 741 0
 2767 0518 064B     		ldr	r3, .L148+16
 2768 051a 0122     		movs	r2, #1
 2769 051c C3F86821 		str	r2, [r3, #360]
 2770              	.LBE24:
 731:..\..\src/disk.c **** 				int reconnected = scsiReconnect();
 2771              		.loc 2 731 0
 2772 0520 53E0     		b	.L114
 2773              	.L149:
 2774 0522 00BF     		.align	2
 2775              	.L148:
 2776 0524 00000000 		.word	scsiRxDMAComplete
 2777 0528 00000000 		.word	scsiTxDMAComplete
 2778 052c 00000000 		.word	sdRxDMAComplete
 2779 0530 00000000 		.word	sdTxDMAComplete
 2780 0534 00000000 		.word	scsiDev
 2781              	.L131:
 745:..\..\src/disk.c **** 				(sdActive == 1) &&
ARM GAS  C:\Users\r\AppData\Local\Temp\ccBAatSA.s 			page 68


 2782              		.loc 2 745 0
 2783 0538 FB6C     		ldr	r3, [r7, #76]
 2784 053a 002B     		cmp	r3, #0
 2785 053c 0CBF     		ite	eq
 2786 053e 0123     		moveq	r3, #1
 2787 0540 0023     		movne	r3, #0
 2788 0542 DBB2     		uxtb	r3, r3
 744:..\..\src/disk.c **** 				likely(!scsiComplete) &&
 2789              		.loc 2 744 0
 2790 0544 002B     		cmp	r3, #0
 2791 0546 40D0     		beq	.L114
 745:..\..\src/disk.c **** 				(sdActive == 1) &&
 2792              		.loc 2 745 0
 2793 0548 FB6B     		ldr	r3, [r7, #60]
 2794 054a 012B     		cmp	r3, #1
 2795 054c 3DD1     		bne	.L114
 746:..\..\src/disk.c **** 				(prep == totalSDSectors) && // All scsi data read and buffered
 2796              		.loc 2 746 0
 2797 054e BA6D     		ldr	r2, [r7, #88]
 2798 0550 3B69     		ldr	r3, [r7, #16]
 2799 0552 9A42     		cmp	r2, r3
 2800 0554 39D1     		bne	.L114
 748:..\..\src/disk.c **** 				unlikely(diffTime_ms(lastActivityTime, now) >= 150) &&
 2801              		.loc 2 748 0
 2802 0556 594B     		ldr	r3, .L150
 2803 0558 03F58343 		add	r3, r3, #16768
 2804 055c 1633     		adds	r3, r3, #22
 2805 055e 1B78     		ldrb	r3, [r3]	@ zero_extendqisi2
 2806 0560 002B     		cmp	r3, #0
 2807 0562 0CBF     		ite	eq
 2808 0564 0123     		moveq	r3, #1
 2809 0566 0023     		movne	r3, #0
 2810 0568 DBB2     		uxtb	r3, r3
 747:..\..\src/disk.c **** 				likely(!scsiDev.discPriv) && // Prefer disconnect where possible.
 2811              		.loc 2 747 0
 2812 056a 002B     		cmp	r3, #0
 2813 056c 2DD0     		beq	.L114
 749:..\..\src/disk.c **** 
 2814              		.loc 2 749 0
 2815 056e 7968     		ldr	r1, [r7, #4]
 2816 0570 786C     		ldr	r0, [r7, #68]
 2817 0572 FFF7FEFF 		bl	diffTime_ms
 2818 0576 0346     		mov	r3, r0
 2819 0578 952B     		cmp	r3, #149
 2820 057a 8CBF     		ite	hi
 2821 057c 0123     		movhi	r3, #1
 2822 057e 0023     		movls	r3, #0
 2823 0580 DBB2     		uxtb	r3, r3
 748:..\..\src/disk.c **** 				unlikely(diffTime_ms(lastActivityTime, now) >= 150) &&
 2824              		.loc 2 748 0
 2825 0582 002B     		cmp	r3, #0
 2826 0584 21D0     		beq	.L114
 751:..\..\src/disk.c **** 				!(scsiDev.cdb[scsiDev.cdbLen - 1] & 0x01) // Not linked command
 2827              		.loc 2 751 0
 2828 0586 4D4B     		ldr	r3, .L150
 2829 0588 D3F87831 		ldr	r3, [r3, #376]
 2830 058c 002B     		cmp	r3, #0
ARM GAS  C:\Users\r\AppData\Local\Temp\ccBAatSA.s 			page 69


 2831 058e 0CBF     		ite	eq
 2832 0590 0123     		moveq	r3, #1
 2833 0592 0023     		movne	r3, #0
 2834 0594 DBB2     		uxtb	r3, r3
 749:..\..\src/disk.c **** 
 2835              		.loc 2 749 0
 2836 0596 002B     		cmp	r3, #0
 2837 0598 17D0     		beq	.L114
 752:..\..\src/disk.c **** 				)
 2838              		.loc 2 752 0
 2839 059a 484B     		ldr	r3, .L150
 2840 059c 03F58343 		add	r3, r3, #16768
 2841 05a0 1433     		adds	r3, r3, #20
 2842 05a2 1B78     		ldrb	r3, [r3]	@ zero_extendqisi2
 2843 05a4 013B     		subs	r3, r3, #1
 2844 05a6 454A     		ldr	r2, .L150
 2845 05a8 1344     		add	r3, r3, r2
 2846 05aa 03F58343 		add	r3, r3, #16768
 2847 05ae 0833     		adds	r3, r3, #8
 2848 05b0 1B78     		ldrb	r3, [r3]	@ zero_extendqisi2
 2849 05b2 03F00103 		and	r3, r3, #1
 751:..\..\src/disk.c **** 				!(scsiDev.cdb[scsiDev.cdbLen - 1] & 0x01) // Not linked command
 2850              		.loc 2 751 0
 2851 05b6 002B     		cmp	r3, #0
 2852 05b8 07D1     		bne	.L114
 762:..\..\src/disk.c **** 
 2853              		.loc 2 762 0
 2854 05ba 0123     		movs	r3, #1
 2855 05bc FB64     		str	r3, [r7, #76]
 764:..\..\src/disk.c **** 				clearBSY = process_MessageIn(0); // Will go to BUS_FREE state but keeps BSY asserted
 2856              		.loc 2 764 0
 2857 05be FFF7FEFF 		bl	process_Status
 765:..\..\src/disk.c **** 			}
 2858              		.loc 2 765 0
 2859 05c2 0020     		movs	r0, #0
 2860 05c4 FFF7FEFF 		bl	process_MessageIn
 2861 05c8 B864     		str	r0, [r7, #72]
 2862              	.L114:
 2863              	.LBE21:
 649:..\..\src/disk.c **** 			(likely(scsiDev.phase == DATA_OUT) || // scsiDisconnect keeps our phase.
 2864              		.loc 2 649 0
 2865 05ca 7A6D     		ldr	r2, [r7, #84]
 2866 05cc 3B69     		ldr	r3, [r7, #16]
 2867 05ce 9A42     		cmp	r2, r3
 2868 05d0 17DA     		bge	.L135
 650:..\..\src/disk.c **** 				scsiComplete) &&
 2869              		.loc 2 650 0 discriminator 1
 2870 05d2 3A4B     		ldr	r3, .L150
 2871 05d4 D3F87831 		ldr	r3, [r3, #376]
 2872 05d8 002B     		cmp	r3, #0
 2873 05da 0CBF     		ite	eq
 2874 05dc 0123     		moveq	r3, #1
 2875 05de 0023     		movne	r3, #0
 2876 05e0 DBB2     		uxtb	r3, r3
 649:..\..\src/disk.c **** 			(likely(scsiDev.phase == DATA_OUT) || // scsiDisconnect keeps our phase.
 2877              		.loc 2 649 0 discriminator 1
 2878 05e2 002B     		cmp	r3, #0
ARM GAS  C:\Users\r\AppData\Local\Temp\ccBAatSA.s 			page 70


 2879 05e4 02D1     		bne	.L136
 650:..\..\src/disk.c **** 				scsiComplete) &&
 2880              		.loc 2 650 0
 2881 05e6 FB6C     		ldr	r3, [r7, #76]
 2882 05e8 002B     		cmp	r3, #0
 2883 05ea 0AD0     		beq	.L135
 2884              	.L136:
 652:..\..\src/disk.c **** 		{
 2885              		.loc 2 652 0
 2886 05ec 334B     		ldr	r3, .L150
 2887 05ee D3F86831 		ldr	r3, [r3, #360]
 2888 05f2 002B     		cmp	r3, #0
 2889 05f4 0CBF     		ite	eq
 2890 05f6 0123     		moveq	r3, #1
 2891 05f8 0023     		movne	r3, #0
 2892 05fa DBB2     		uxtb	r3, r3
 651:..\..\src/disk.c **** 			likely(!scsiDev.resetFlag))
 2893              		.loc 2 651 0
 2894 05fc 002B     		cmp	r3, #0
 2895 05fe 7FF465AE 		bne	.L137
 2896              	.L135:
 769:..\..\src/disk.c **** 		{
 2897              		.loc 2 769 0
 2898 0602 BB6C     		ldr	r3, [r7, #72]
 2899 0604 002B     		cmp	r3, #0
 2900 0606 0BD0     		beq	.L139
 771:..\..\src/disk.c **** 		}
 2901              		.loc 2 771 0
 2902 0608 FFF7FEFF 		bl	enter_BusFree
 773:..\..\src/disk.c **** 			!scsiDev.resetFlag &&
 2903              		.loc 2 773 0
 2904 060c 08E0     		b	.L139
 2905              	.L141:
 778:..\..\src/disk.c **** 		}
 2906              		.loc 2 778 0
 2907 060e FFF7FEFF 		bl	scsiReconnect
 2908 0612 0346     		mov	r3, r0
 2909 0614 002B     		cmp	r3, #0
 2910 0616 0CBF     		ite	eq
 2911 0618 0123     		moveq	r3, #1
 2912 061a 0023     		movne	r3, #0
 2913 061c DBB2     		uxtb	r3, r3
 2914 061e 3B65     		str	r3, [r7, #80]
 2915              	.L139:
 774:..\..\src/disk.c **** 			unlikely(scsiDisconnected) &&
 2916              		.loc 2 774 0
 2917 0620 264B     		ldr	r3, .L150
 2918 0622 D3F86831 		ldr	r3, [r3, #360]
 773:..\..\src/disk.c **** 			!scsiDev.resetFlag &&
 2919              		.loc 2 773 0
 2920 0626 002B     		cmp	r3, #0
 2921 0628 0FD1     		bne	.L140
 775:..\..\src/disk.c **** 			(elapsedTime_ms(lastActivityTime) <= 10000))
 2922              		.loc 2 775 0
 2923 062a 3B6D     		ldr	r3, [r7, #80]
 2924 062c 002B     		cmp	r3, #0
 2925 062e 14BF     		ite	ne
ARM GAS  C:\Users\r\AppData\Local\Temp\ccBAatSA.s 			page 71


 2926 0630 0123     		movne	r3, #1
 2927 0632 0023     		moveq	r3, #0
 2928 0634 DBB2     		uxtb	r3, r3
 774:..\..\src/disk.c **** 			unlikely(scsiDisconnected) &&
 2929              		.loc 2 774 0
 2930 0636 002B     		cmp	r3, #0
 2931 0638 07D0     		beq	.L140
 776:..\..\src/disk.c **** 		{
 2932              		.loc 2 776 0
 2933 063a 786C     		ldr	r0, [r7, #68]
 2934 063c FFF7FEFF 		bl	elapsedTime_ms
 2935 0640 0246     		mov	r2, r0
 775:..\..\src/disk.c **** 			(elapsedTime_ms(lastActivityTime) <= 10000))
 2936              		.loc 2 775 0
 2937 0642 42F21073 		movw	r3, #10000
 2938 0646 9A42     		cmp	r2, r3
 2939 0648 E1D9     		bls	.L141
 2940              	.L140:
 780:..\..\src/disk.c **** 		{
 2941              		.loc 2 780 0
 2942 064a 3B6D     		ldr	r3, [r7, #80]
 2943 064c 002B     		cmp	r3, #0
 2944 064e 03D0     		beq	.L142
 783:..\..\src/disk.c **** 		}
 2945              		.loc 2 783 0
 2946 0650 1A4B     		ldr	r3, .L150
 2947 0652 0122     		movs	r2, #1
 2948 0654 C3F86821 		str	r2, [r3, #360]
 2949              	.L142:
 786:..\..\src/disk.c **** 		{
 2950              		.loc 2 786 0
 2951 0658 184B     		ldr	r3, .L150
 2952 065a D3F87831 		ldr	r3, [r3, #376]
 2953 065e 002B     		cmp	r3, #0
 2954 0660 25D1     		bne	.L143
 788:..\..\src/disk.c **** 				(scsiDev.boardCfg.flags & CONFIG_ENABLE_PARITY) &&
 2955              		.loc 2 788 0
 2956 0662 164B     		ldr	r3, .L150
 2957 0664 D3F87031 		ldr	r3, [r3, #368]
 2958 0668 002B     		cmp	r3, #0
 2959 066a 1CD0     		beq	.L144
 789:..\..\src/disk.c **** 				(scsiDev.compatMode >= COMPAT_SCSI2))
 2960              		.loc 2 789 0 discriminator 1
 2961 066c 134B     		ldr	r3, .L150
 2962 066e 93F86830 		ldrb	r3, [r3, #104]	@ zero_extendqisi2
 2963 0672 03F00203 		and	r3, r3, #2
 788:..\..\src/disk.c **** 				(scsiDev.boardCfg.flags & CONFIG_ENABLE_PARITY) &&
 2964              		.loc 2 788 0 discriminator 1
 2965 0676 002B     		cmp	r3, #0
 2966 0678 15D0     		beq	.L144
 790:..\..\src/disk.c **** 			{
 2967              		.loc 2 790 0
 2968 067a 104B     		ldr	r3, .L150
 2969 067c 03F58343 		add	r3, r3, #16768
 2970 0680 1733     		adds	r3, r3, #23
 2971 0682 1B78     		ldrb	r3, [r3]	@ zero_extendqisi2
 789:..\..\src/disk.c **** 				(scsiDev.compatMode >= COMPAT_SCSI2))
ARM GAS  C:\Users\r\AppData\Local\Temp\ccBAatSA.s 			page 72


 2972              		.loc 2 789 0
 2973 0684 022B     		cmp	r3, #2
 2974 0686 0ED9     		bls	.L144
 792:..\..\src/disk.c **** 				scsiDev.target->sense.asc = SCSI_PARITY_ERROR;
 2975              		.loc 2 792 0
 2976 0688 0C4B     		ldr	r3, .L150
 2977 068a 1B6E     		ldr	r3, [r3, #96]
 2978 068c 0B22     		movs	r2, #11
 2979 068e 9A72     		strb	r2, [r3, #10]
 793:..\..\src/disk.c **** 				scsiDev.status = CHECK_CONDITION;;
 2980              		.loc 2 793 0
 2981 0690 0A4B     		ldr	r3, .L150
 2982 0692 1B6E     		ldr	r3, [r3, #96]
 2983 0694 4FF48E42 		mov	r2, #18176
 2984 0698 9A81     		strh	r2, [r3, #12]	@ movhi
 794:..\..\src/disk.c **** 			}
 2985              		.loc 2 794 0
 2986 069a 084B     		ldr	r3, .L150
 2987 069c 03F58343 		add	r3, r3, #16768
 2988 06a0 1C33     		adds	r3, r3, #28
 2989 06a2 0222     		movs	r2, #2
 2990 06a4 1A70     		strb	r2, [r3]
 2991              	.L144:
 796:..\..\src/disk.c **** 		}
 2992              		.loc 2 796 0
 2993 06a6 054B     		ldr	r3, .L150
 2994 06a8 0622     		movs	r2, #6
 2995 06aa C3F87821 		str	r2, [r3, #376]
 2996              	.L143:
 798:..\..\src/disk.c **** 	}
 2997              		.loc 2 798 0
 2998 06ae FFF7FEFF 		bl	scsiDiskReset
 2999              	.L145:
 3000              	.LBE20:
 3001              		.loc 2 800 0
 3002 06b2 00BF     		nop
 3003 06b4 7C37     		adds	r7, r7, #124
 3004              		.cfi_def_cfa_offset 12
 3005 06b6 BD46     		mov	sp, r7
 3006              		.cfi_def_cfa_register 13
 3007              		@ sp needed
 3008 06b8 90BD     		pop	{r4, r7, pc}
 3009              	.L151:
 3010 06ba 00BF     		.align	2
 3011              	.L150:
 3012 06bc 00000000 		.word	scsiDev
 3013              		.cfi_endproc
 3014              	.LFE75:
 3015              		.size	scsiDiskPoll, .-scsiDiskPoll
 3016              		.section	.text.scsiDiskReset,"ax",%progbits
 3017              		.align	2
 3018              		.global	scsiDiskReset
 3019              		.thumb
 3020              		.thumb_func
 3021              		.type	scsiDiskReset, %function
 3022              	scsiDiskReset:
 3023              	.LFB76:
ARM GAS  C:\Users\r\AppData\Local\Temp\ccBAatSA.s 			page 73


 801:..\..\src/disk.c **** 
 802:..\..\src/disk.c **** void scsiDiskReset()
 803:..\..\src/disk.c **** {
 3024              		.loc 2 803 0
 3025              		.cfi_startproc
 3026              		@ args = 0, pretend = 0, frame = 0
 3027              		@ frame_needed = 1, uses_anonymous_args = 0
 3028 0000 80B5     		push	{r7, lr}
 3029              		.cfi_def_cfa_offset 8
 3030              		.cfi_offset 7, -8
 3031              		.cfi_offset 14, -4
 3032 0002 00AF     		add	r7, sp, #0
 3033              		.cfi_def_cfa_register 7
 804:..\..\src/disk.c **** 	scsiDev.dataPtr = 0;
 3034              		.loc 2 804 0
 3035 0004 144B     		ldr	r3, .L155
 3036 0006 03F58243 		add	r3, r3, #16640
 3037 000a 7C33     		adds	r3, r3, #124
 3038 000c 0022     		movs	r2, #0
 3039 000e 1A60     		str	r2, [r3]
 805:..\..\src/disk.c **** 	scsiDev.savedDataPtr = 0;
 3040              		.loc 2 805 0
 3041 0010 114B     		ldr	r3, .L155
 3042 0012 03F58343 		add	r3, r3, #16768
 3043 0016 0022     		movs	r2, #0
 3044 0018 1A60     		str	r2, [r3]
 806:..\..\src/disk.c **** 	scsiDev.dataLen = 0;
 3045              		.loc 2 806 0
 3046 001a 0F4B     		ldr	r3, .L155
 3047 001c 03F58343 		add	r3, r3, #16768
 3048 0020 0433     		adds	r3, r3, #4
 3049 0022 0022     		movs	r2, #0
 3050 0024 1A60     		str	r2, [r3]
 807:..\..\src/disk.c **** 	// transfer.lba = 0; // Needed in Request Sense to determine failure
 808:..\..\src/disk.c **** 	transfer.blocks = 0;
 3051              		.loc 2 808 0
 3052 0026 0D4B     		ldr	r3, .L155+4
 3053 0028 0022     		movs	r2, #0
 3054 002a 9A60     		str	r2, [r3, #8]
 809:..\..\src/disk.c **** 	transfer.currentBlock = 0;
 3055              		.loc 2 809 0
 3056 002c 0B4B     		ldr	r3, .L155+4
 3057 002e 0022     		movs	r2, #0
 3058 0030 DA60     		str	r2, [r3, #12]
 810:..\..\src/disk.c **** 
 811:..\..\src/disk.c **** 	// Cancel long running commands!
 812:..\..\src/disk.c **** 	if (
 813:..\..\src/disk.c **** 		((scsiDev.boardCfg.flags & CONFIG_ENABLE_CACHE) == 0) ||
 3059              		.loc 2 813 0
 3060 0032 094B     		ldr	r3, .L155
 3061 0034 93F86830 		ldrb	r3, [r3, #104]	@ zero_extendqisi2
 3062 0038 03F01003 		and	r3, r3, #16
 812:..\..\src/disk.c **** 		((scsiDev.boardCfg.flags & CONFIG_ENABLE_CACHE) == 0) ||
 3063              		.loc 2 812 0
 3064 003c 002B     		cmp	r3, #0
 3065 003e 03D0     		beq	.L153
 814:..\..\src/disk.c **** 			(transfer.multiBlock == 0)
ARM GAS  C:\Users\r\AppData\Local\Temp\ccBAatSA.s 			page 74


 3066              		.loc 2 814 0
 3067 0040 064B     		ldr	r3, .L155+4
 3068 0042 1B68     		ldr	r3, [r3]
 813:..\..\src/disk.c **** 			(transfer.multiBlock == 0)
 3069              		.loc 2 813 0
 3070 0044 002B     		cmp	r3, #0
 3071 0046 01D1     		bne	.L154
 3072              	.L153:
 815:..\..\src/disk.c **** 		)
 816:..\..\src/disk.c **** 	{
 817:..\..\src/disk.c **** 		sdCompleteTransfer();
 3073              		.loc 2 817 0
 3074 0048 FFF7FEFF 		bl	sdCompleteTransfer
 3075              	.L154:
 818:..\..\src/disk.c **** 	}
 819:..\..\src/disk.c **** 
 820:..\..\src/disk.c **** 	transfer.multiBlock = 0;
 3076              		.loc 2 820 0
 3077 004c 034B     		ldr	r3, .L155+4
 3078 004e 0022     		movs	r2, #0
 3079 0050 1A60     		str	r2, [r3]
 821:..\..\src/disk.c **** }
 3080              		.loc 2 821 0
 3081 0052 00BF     		nop
 3082 0054 80BD     		pop	{r7, pc}
 3083              	.L156:
 3084 0056 00BF     		.align	2
 3085              	.L155:
 3086 0058 00000000 		.word	scsiDev
 3087 005c 00000000 		.word	transfer
 3088              		.cfi_endproc
 3089              	.LFE76:
 3090              		.size	scsiDiskReset, .-scsiDiskReset
 3091              		.section	.text.scsiDiskInit,"ax",%progbits
 3092              		.align	2
 3093              		.global	scsiDiskInit
 3094              		.thumb
 3095              		.thumb_func
 3096              		.type	scsiDiskInit, %function
 3097              	scsiDiskInit:
 3098              	.LFB77:
 822:..\..\src/disk.c **** 
 823:..\..\src/disk.c **** void scsiDiskInit()
 824:..\..\src/disk.c **** {
 3099              		.loc 2 824 0
 3100              		.cfi_startproc
 3101              		@ args = 0, pretend = 0, frame = 0
 3102              		@ frame_needed = 1, uses_anonymous_args = 0
 3103 0000 80B5     		push	{r7, lr}
 3104              		.cfi_def_cfa_offset 8
 3105              		.cfi_offset 7, -8
 3106              		.cfi_offset 14, -4
 3107 0002 00AF     		add	r7, sp, #0
 3108              		.cfi_def_cfa_register 7
 825:..\..\src/disk.c **** 	scsiDiskReset();
 3109              		.loc 2 825 0
 3110 0004 FFF7FEFF 		bl	scsiDiskReset
ARM GAS  C:\Users\r\AppData\Local\Temp\ccBAatSA.s 			page 75


 826:..\..\src/disk.c **** 
 827:..\..\src/disk.c **** 	// Don't require the host to send us a START STOP UNIT command
 828:..\..\src/disk.c **** 	blockDev.state = DISK_STARTED;
 3111              		.loc 2 828 0
 3112 0008 024B     		ldr	r3, .L158
 3113 000a 0122     		movs	r2, #1
 3114 000c 1A60     		str	r2, [r3]
 829:..\..\src/disk.c **** 	// WP pin not available for micro-sd
 830:..\..\src/disk.c **** 	// TODO read card WP register
 831:..\..\src/disk.c **** 	#if 0
 832:..\..\src/disk.c **** 	if (SD_WP_Read())
 833:..\..\src/disk.c **** 	{
 834:..\..\src/disk.c **** 		blockDev.state = blockDev.state | DISK_WP;
 835:..\..\src/disk.c **** 	}
 836:..\..\src/disk.c **** 	#endif
 837:..\..\src/disk.c **** }
 3115              		.loc 2 837 0
 3116 000e 00BF     		nop
 3117 0010 80BD     		pop	{r7, pc}
 3118              	.L159:
 3119 0012 00BF     		.align	2
 3120              	.L158:
 3121 0014 00000000 		.word	blockDev
 3122              		.cfi_endproc
 3123              	.LFE77:
 3124              		.size	scsiDiskInit, .-scsiDiskInit
 3125              		.text
 3126              	.Letext0:
 3127              		.file 3 "c:\\program files (x86)\\cypress\\psoc creator\\4.2\\psoc creator\\import\\gnu\\arm\\5.4.
 3128              		.file 4 "c:\\program files (x86)\\cypress\\psoc creator\\4.2\\psoc creator\\import\\gnu\\arm\\5.4.
 3129              		.file 5 "Generated_Source\\PSoC5/cytypes.h"
 3130              		.file 6 "../../../include/scsi2sd.h"
 3131              		.file 7 "..\\..\\src\\sense.h"
 3132              		.file 8 "..\\..\\src\\scsi.h"
 3133              		.file 9 "..\\..\\src\\disk.h"
 3134              		.file 10 "Generated_Source\\PSoC5/core_cm3.h"
 3135              		.file 11 "..\\..\\src\\sd.h"
 3136              		.file 12 "..\\..\\src\\scsiPhy.h"
 3137              		.section	.debug_info,"",%progbits
 3138              	.Ldebug_info0:
 3139 0000 F8110000 		.4byte	0x11f8
 3140 0004 0400     		.2byte	0x4
 3141 0006 00000000 		.4byte	.Ldebug_abbrev0
 3142 000a 04       		.byte	0x4
 3143 000b 01       		.uleb128 0x1
 3144 000c 140B0000 		.4byte	.LASF327
 3145 0010 0C       		.byte	0xc
 3146 0011 AB140000 		.4byte	.LASF328
 3147 0015 89110000 		.4byte	.LASF329
 3148 0019 18000000 		.4byte	.Ldebug_ranges0+0x18
 3149 001d 00000000 		.4byte	0
 3150 0021 00000000 		.4byte	.Ldebug_line0
 3151 0025 02       		.uleb128 0x2
 3152 0026 01       		.byte	0x1
 3153 0027 06       		.byte	0x6
 3154 0028 D8040000 		.4byte	.LASF0
 3155 002c 03       		.uleb128 0x3
ARM GAS  C:\Users\r\AppData\Local\Temp\ccBAatSA.s 			page 76


 3156 002d 43030000 		.4byte	.LASF3
 3157 0031 03       		.byte	0x3
 3158 0032 1D       		.byte	0x1d
 3159 0033 37000000 		.4byte	0x37
 3160 0037 02       		.uleb128 0x2
 3161 0038 01       		.byte	0x1
 3162 0039 08       		.byte	0x8
 3163 003a 5A050000 		.4byte	.LASF1
 3164 003e 02       		.uleb128 0x2
 3165 003f 02       		.byte	0x2
 3166 0040 05       		.byte	0x5
 3167 0041 A1140000 		.4byte	.LASF2
 3168 0045 03       		.uleb128 0x3
 3169 0046 A6060000 		.4byte	.LASF4
 3170 004a 03       		.byte	0x3
 3171 004b 2B       		.byte	0x2b
 3172 004c 50000000 		.4byte	0x50
 3173 0050 02       		.uleb128 0x2
 3174 0051 02       		.byte	0x2
 3175 0052 07       		.byte	0x7
 3176 0053 34170000 		.4byte	.LASF5
 3177 0057 03       		.uleb128 0x3
 3178 0058 F1170000 		.4byte	.LASF6
 3179 005c 03       		.byte	0x3
 3180 005d 3F       		.byte	0x3f
 3181 005e 62000000 		.4byte	0x62
 3182 0062 02       		.uleb128 0x2
 3183 0063 04       		.byte	0x4
 3184 0064 05       		.byte	0x5
 3185 0065 B7030000 		.4byte	.LASF7
 3186 0069 03       		.uleb128 0x3
 3187 006a 180C0000 		.4byte	.LASF8
 3188 006e 03       		.byte	0x3
 3189 006f 41       		.byte	0x41
 3190 0070 74000000 		.4byte	0x74
 3191 0074 02       		.uleb128 0x2
 3192 0075 04       		.byte	0x4
 3193 0076 07       		.byte	0x7
 3194 0077 6C090000 		.4byte	.LASF9
 3195 007b 02       		.uleb128 0x2
 3196 007c 08       		.byte	0x8
 3197 007d 05       		.byte	0x5
 3198 007e 580C0000 		.4byte	.LASF10
 3199 0082 02       		.uleb128 0x2
 3200 0083 08       		.byte	0x8
 3201 0084 07       		.byte	0x7
 3202 0085 D7110000 		.4byte	.LASF11
 3203 0089 04       		.uleb128 0x4
 3204 008a 04       		.byte	0x4
 3205 008b 05       		.byte	0x5
 3206 008c 696E7400 		.ascii	"int\000"
 3207 0090 02       		.uleb128 0x2
 3208 0091 04       		.byte	0x4
 3209 0092 07       		.byte	0x7
 3210 0093 0A0E0000 		.4byte	.LASF12
 3211 0097 03       		.uleb128 0x3
 3212 0098 E4040000 		.4byte	.LASF13
ARM GAS  C:\Users\r\AppData\Local\Temp\ccBAatSA.s 			page 77


 3213 009c 04       		.byte	0x4
 3214 009d 18       		.byte	0x18
 3215 009e 2C000000 		.4byte	0x2c
 3216 00a2 03       		.uleb128 0x3
 3217 00a3 16120000 		.4byte	.LASF14
 3218 00a7 04       		.byte	0x4
 3219 00a8 24       		.byte	0x24
 3220 00a9 45000000 		.4byte	0x45
 3221 00ad 03       		.uleb128 0x3
 3222 00ae DD000000 		.4byte	.LASF15
 3223 00b2 04       		.byte	0x4
 3224 00b3 2C       		.byte	0x2c
 3225 00b4 57000000 		.4byte	0x57
 3226 00b8 03       		.uleb128 0x3
 3227 00b9 D6160000 		.4byte	.LASF16
 3228 00bd 04       		.byte	0x4
 3229 00be 30       		.byte	0x30
 3230 00bf 69000000 		.4byte	0x69
 3231 00c3 05       		.uleb128 0x5
 3232 00c4 8A140000 		.4byte	.LASF17
 3233 00c8 05       		.byte	0x5
 3234 00c9 E401     		.2byte	0x1e4
 3235 00cb 37000000 		.4byte	0x37
 3236 00cf 05       		.uleb128 0x5
 3237 00d0 B6180000 		.4byte	.LASF18
 3238 00d4 05       		.byte	0x5
 3239 00d5 E501     		.2byte	0x1e5
 3240 00d7 50000000 		.4byte	0x50
 3241 00db 05       		.uleb128 0x5
 3242 00dc 38010000 		.4byte	.LASF19
 3243 00e0 05       		.byte	0x5
 3244 00e1 E601     		.2byte	0x1e6
 3245 00e3 74000000 		.4byte	0x74
 3246 00e7 05       		.uleb128 0x5
 3247 00e8 A4020000 		.4byte	.LASF20
 3248 00ec 05       		.byte	0x5
 3249 00ed E701     		.2byte	0x1e7
 3250 00ef 25000000 		.4byte	0x25
 3251 00f3 02       		.uleb128 0x2
 3252 00f4 04       		.byte	0x4
 3253 00f5 04       		.byte	0x4
 3254 00f6 E10D0000 		.4byte	.LASF21
 3255 00fa 02       		.uleb128 0x2
 3256 00fb 08       		.byte	0x8
 3257 00fc 04       		.byte	0x4
 3258 00fd F10C0000 		.4byte	.LASF22
 3259 0101 05       		.uleb128 0x5
 3260 0102 B0030000 		.4byte	.LASF23
 3261 0106 05       		.byte	0x5
 3262 0107 F001     		.2byte	0x1f0
 3263 0109 82000000 		.4byte	0x82
 3264 010d 02       		.uleb128 0x2
 3265 010e 01       		.byte	0x1
 3266 010f 08       		.byte	0x8
 3267 0110 F0050000 		.4byte	.LASF24
 3268 0114 06       		.uleb128 0x6
 3269 0115 04       		.byte	0x4
ARM GAS  C:\Users\r\AppData\Local\Temp\ccBAatSA.s 			page 78


 3270 0116 1A010000 		.4byte	0x11a
 3271 011a 07       		.uleb128 0x7
 3272 011b 02       		.uleb128 0x2
 3273 011c 08       		.byte	0x8
 3274 011d 04       		.byte	0x4
 3275 011e 6D100000 		.4byte	.LASF25
 3276 0122 02       		.uleb128 0x2
 3277 0123 04       		.byte	0x4
 3278 0124 07       		.byte	0x7
 3279 0125 1A000000 		.4byte	.LASF26
 3280 0129 08       		.uleb128 0x8
 3281 012a 0D010000 		.4byte	0x10d
 3282 012e 39010000 		.4byte	0x139
 3283 0132 09       		.uleb128 0x9
 3284 0133 22010000 		.4byte	0x122
 3285 0137 07       		.byte	0x7
 3286 0138 00       		.byte	0
 3287 0139 0A       		.uleb128 0xa
 3288 013a 97000000 		.4byte	0x97
 3289 013e 0B       		.uleb128 0xb
 3290 013f 01       		.byte	0x1
 3291 0140 37000000 		.4byte	0x37
 3292 0144 06       		.byte	0x6
 3293 0145 66       		.byte	0x66
 3294 0146 7B010000 		.4byte	0x17b
 3295 014a 0C       		.uleb128 0xc
 3296 014b 79070000 		.4byte	.LASF27
 3297 014f 01       		.byte	0x1
 3298 0150 0C       		.uleb128 0xc
 3299 0151 FC160000 		.4byte	.LASF28
 3300 0155 02       		.byte	0x2
 3301 0156 0C       		.uleb128 0xc
 3302 0157 14020000 		.4byte	.LASF29
 3303 015b 04       		.byte	0x4
 3304 015c 0C       		.uleb128 0xc
 3305 015d 29110000 		.4byte	.LASF30
 3306 0161 08       		.byte	0x8
 3307 0162 0C       		.uleb128 0xc
 3308 0163 F9060000 		.4byte	.LASF31
 3309 0167 10       		.byte	0x10
 3310 0168 0C       		.uleb128 0xc
 3311 0169 B1060000 		.4byte	.LASF32
 3312 016d 20       		.byte	0x20
 3313 016e 0C       		.uleb128 0xc
 3314 016f C90D0000 		.4byte	.LASF33
 3315 0173 40       		.byte	0x40
 3316 0174 0C       		.uleb128 0xc
 3317 0175 AB010000 		.4byte	.LASF34
 3318 0179 80       		.byte	0x80
 3319 017a 00       		.byte	0
 3320 017b 0B       		.uleb128 0xb
 3321 017c 01       		.byte	0x1
 3322 017d 37000000 		.4byte	0x37
 3323 0181 06       		.byte	0x6
 3324 0182 77       		.byte	0x77
 3325 0183 AC010000 		.4byte	0x1ac
 3326 0187 0C       		.uleb128 0xc
ARM GAS  C:\Users\r\AppData\Local\Temp\ccBAatSA.s 			page 79


 3327 0188 6A010000 		.4byte	.LASF35
 3328 018c 00       		.byte	0
 3329 018d 0C       		.uleb128 0xc
 3330 018e 77120000 		.4byte	.LASF36
 3331 0192 01       		.byte	0x1
 3332 0193 0C       		.uleb128 0xc
 3333 0194 F6020000 		.4byte	.LASF37
 3334 0198 02       		.byte	0x2
 3335 0199 0C       		.uleb128 0xc
 3336 019a 730F0000 		.4byte	.LASF38
 3337 019e 03       		.byte	0x3
 3338 019f 0C       		.uleb128 0xc
 3339 01a0 AF100000 		.4byte	.LASF39
 3340 01a4 04       		.byte	0x4
 3341 01a5 0C       		.uleb128 0xc
 3342 01a6 17160000 		.4byte	.LASF40
 3343 01aa 05       		.byte	0x5
 3344 01ab 00       		.byte	0
 3345 01ac 0D       		.uleb128 0xd
 3346 01ad 0010     		.2byte	0x1000
 3347 01af 06       		.byte	0x6
 3348 01b0 98       		.byte	0x98
 3349 01b1 91020000 		.4byte	0x291
 3350 01b5 0E       		.uleb128 0xe
 3351 01b6 BF0B0000 		.4byte	.LASF41
 3352 01ba 06       		.byte	0x6
 3353 01bb 9C       		.byte	0x9c
 3354 01bc 97000000 		.4byte	0x97
 3355 01c0 00       		.byte	0
 3356 01c1 0E       		.uleb128 0xe
 3357 01c2 96070000 		.4byte	.LASF42
 3358 01c6 06       		.byte	0x6
 3359 01c7 9E       		.byte	0x9e
 3360 01c8 97000000 		.4byte	0x97
 3361 01cc 01       		.byte	0x1
 3362 01cd 0E       		.uleb128 0xe
 3363 01ce 32160000 		.4byte	.LASF43
 3364 01d2 06       		.byte	0x6
 3365 01d3 9F       		.byte	0x9f
 3366 01d4 97000000 		.4byte	0x97
 3367 01d8 02       		.byte	0x2
 3368 01d9 0E       		.uleb128 0xe
 3369 01da 2D080000 		.4byte	.LASF44
 3370 01de 06       		.byte	0x6
 3371 01df A0       		.byte	0xa0
 3372 01e0 97000000 		.4byte	0x97
 3373 01e4 03       		.byte	0x3
 3374 01e5 0E       		.uleb128 0xe
 3375 01e6 3F110000 		.4byte	.LASF45
 3376 01ea 06       		.byte	0x6
 3377 01eb A2       		.byte	0xa2
 3378 01ec B8000000 		.4byte	0xb8
 3379 01f0 04       		.byte	0x4
 3380 01f1 0E       		.uleb128 0xe
 3381 01f2 80100000 		.4byte	.LASF46
 3382 01f6 06       		.byte	0x6
 3383 01f7 A3       		.byte	0xa3
ARM GAS  C:\Users\r\AppData\Local\Temp\ccBAatSA.s 			page 80


 3384 01f8 B8000000 		.4byte	0xb8
 3385 01fc 08       		.byte	0x8
 3386 01fd 0E       		.uleb128 0xe
 3387 01fe 4D110000 		.4byte	.LASF47
 3388 0202 06       		.byte	0x6
 3389 0203 A5       		.byte	0xa5
 3390 0204 A2000000 		.4byte	0xa2
 3391 0208 0C       		.byte	0xc
 3392 0209 0E       		.uleb128 0xe
 3393 020a 630F0000 		.4byte	.LASF48
 3394 020e 06       		.byte	0x6
 3395 020f A8       		.byte	0xa8
 3396 0210 A2000000 		.4byte	0xa2
 3397 0214 0E       		.byte	0xe
 3398 0215 0E       		.uleb128 0xe
 3399 0216 28020000 		.4byte	.LASF49
 3400 021a 06       		.byte	0x6
 3401 021b AB       		.byte	0xab
 3402 021c A2000000 		.4byte	0xa2
 3403 0220 10       		.byte	0x10
 3404 0221 0E       		.uleb128 0xe
 3405 0222 81010000 		.4byte	.LASF50
 3406 0226 06       		.byte	0x6
 3407 0227 AE       		.byte	0xae
 3408 0228 29010000 		.4byte	0x129
 3409 022c 12       		.byte	0x12
 3410 022d 0E       		.uleb128 0xe
 3411 022e FB170000 		.4byte	.LASF51
 3412 0232 06       		.byte	0x6
 3413 0233 AF       		.byte	0xaf
 3414 0234 91020000 		.4byte	0x291
 3415 0238 1A       		.byte	0x1a
 3416 0239 0E       		.uleb128 0xe
 3417 023a CE110000 		.4byte	.LASF52
 3418 023e 06       		.byte	0x6
 3419 023f B0       		.byte	0xb0
 3420 0240 A1020000 		.4byte	0x2a1
 3421 0244 2A       		.byte	0x2a
 3422 0245 0E       		.uleb128 0xe
 3423 0246 CD0A0000 		.4byte	.LASF53
 3424 024a 06       		.byte	0x6
 3425 024b B1       		.byte	0xb1
 3426 024c 91020000 		.4byte	0x291
 3427 0250 2E       		.byte	0x2e
 3428 0251 0E       		.uleb128 0xe
 3429 0252 A1070000 		.4byte	.LASF54
 3430 0256 06       		.byte	0x6
 3431 0257 B3       		.byte	0xb3
 3432 0258 A2000000 		.4byte	0xa2
 3433 025c 3E       		.byte	0x3e
 3434 025d 0E       		.uleb128 0xe
 3435 025e 2B170000 		.4byte	.LASF55
 3436 0262 06       		.byte	0x6
 3437 0263 B5       		.byte	0xb5
 3438 0264 B1020000 		.4byte	0x2b1
 3439 0268 40       		.byte	0x40
 3440 0269 0F       		.uleb128 0xf
ARM GAS  C:\Users\r\AppData\Local\Temp\ccBAatSA.s 			page 81


 3441 026a 97140000 		.4byte	.LASF56
 3442 026e 06       		.byte	0x6
 3443 026f B7       		.byte	0xb7
 3444 0270 C2020000 		.4byte	0x2c2
 3445 0274 0004     		.2byte	0x400
 3446 0276 10       		.uleb128 0x10
 3447 0277 76706400 		.ascii	"vpd\000"
 3448 027b 06       		.byte	0x6
 3449 027c B8       		.byte	0xb8
 3450 027d C2020000 		.4byte	0x2c2
 3451 0281 0008     		.2byte	0x800
 3452 0283 0F       		.uleb128 0xf
 3453 0284 18060000 		.4byte	.LASF57
 3454 0288 06       		.byte	0x6
 3455 0289 B9       		.byte	0xb9
 3456 028a C2020000 		.4byte	0x2c2
 3457 028e 000C     		.2byte	0xc00
 3458 0290 00       		.byte	0
 3459 0291 08       		.uleb128 0x8
 3460 0292 0D010000 		.4byte	0x10d
 3461 0296 A1020000 		.4byte	0x2a1
 3462 029a 09       		.uleb128 0x9
 3463 029b 22010000 		.4byte	0x122
 3464 029f 0F       		.byte	0xf
 3465 02a0 00       		.byte	0
 3466 02a1 08       		.uleb128 0x8
 3467 02a2 0D010000 		.4byte	0x10d
 3468 02a6 B1020000 		.4byte	0x2b1
 3469 02aa 09       		.uleb128 0x9
 3470 02ab 22010000 		.4byte	0x122
 3471 02af 03       		.byte	0x3
 3472 02b0 00       		.byte	0
 3473 02b1 08       		.uleb128 0x8
 3474 02b2 97000000 		.4byte	0x97
 3475 02b6 C2020000 		.4byte	0x2c2
 3476 02ba 11       		.uleb128 0x11
 3477 02bb 22010000 		.4byte	0x122
 3478 02bf BF03     		.2byte	0x3bf
 3479 02c1 00       		.byte	0
 3480 02c2 08       		.uleb128 0x8
 3481 02c3 97000000 		.4byte	0x97
 3482 02c7 D3020000 		.4byte	0x2d3
 3483 02cb 11       		.uleb128 0x11
 3484 02cc 22010000 		.4byte	0x122
 3485 02d0 FF03     		.2byte	0x3ff
 3486 02d2 00       		.byte	0
 3487 02d3 03       		.uleb128 0x3
 3488 02d4 3F010000 		.4byte	.LASF58
 3489 02d8 06       		.byte	0x6
 3490 02d9 BA       		.byte	0xba
 3491 02da AC010000 		.4byte	0x1ac
 3492 02de 0D       		.uleb128 0xd
 3493 02df 0001     		.2byte	0x100
 3494 02e1 06       		.byte	0x6
 3495 02e2 BC       		.byte	0xbc
 3496 02e3 3C030000 		.4byte	0x33c
 3497 02e7 0E       		.uleb128 0xe
ARM GAS  C:\Users\r\AppData\Local\Temp\ccBAatSA.s 			page 82


 3498 02e8 47170000 		.4byte	.LASF59
 3499 02ec 06       		.byte	0x6
 3500 02ed BE       		.byte	0xbe
 3501 02ee A1020000 		.4byte	0x2a1
 3502 02f2 00       		.byte	0
 3503 02f3 0E       		.uleb128 0xe
 3504 02f4 DF060000 		.4byte	.LASF60
 3505 02f8 06       		.byte	0x6
 3506 02f9 BF       		.byte	0xbf
 3507 02fa 97000000 		.4byte	0x97
 3508 02fe 04       		.byte	0x4
 3509 02ff 0E       		.uleb128 0xe
 3510 0300 E9020000 		.4byte	.LASF61
 3511 0304 06       		.byte	0x6
 3512 0305 C0       		.byte	0xc0
 3513 0306 97000000 		.4byte	0x97
 3514 030a 05       		.byte	0x5
 3515 030b 0E       		.uleb128 0xe
 3516 030c 7C050000 		.4byte	.LASF62
 3517 0310 06       		.byte	0x6
 3518 0311 C1       		.byte	0xc1
 3519 0312 97000000 		.4byte	0x97
 3520 0316 06       		.byte	0x6
 3521 0317 0E       		.uleb128 0xe
 3522 0318 79100000 		.4byte	.LASF63
 3523 031c 06       		.byte	0x6
 3524 031d C2       		.byte	0xc2
 3525 031e 97000000 		.4byte	0x97
 3526 0322 07       		.byte	0x7
 3527 0323 0E       		.uleb128 0xe
 3528 0324 AB090000 		.4byte	.LASF64
 3529 0328 06       		.byte	0x6
 3530 0329 C4       		.byte	0xc4
 3531 032a 97000000 		.4byte	0x97
 3532 032e 08       		.byte	0x8
 3533 032f 0E       		.uleb128 0xe
 3534 0330 2B170000 		.4byte	.LASF55
 3535 0334 06       		.byte	0x6
 3536 0335 C7       		.byte	0xc7
 3537 0336 3C030000 		.4byte	0x33c
 3538 033a 09       		.byte	0x9
 3539 033b 00       		.byte	0
 3540 033c 08       		.uleb128 0x8
 3541 033d 97000000 		.4byte	0x97
 3542 0341 4C030000 		.4byte	0x34c
 3543 0345 09       		.uleb128 0x9
 3544 0346 22010000 		.4byte	0x122
 3545 034a F6       		.byte	0xf6
 3546 034b 00       		.byte	0
 3547 034c 03       		.uleb128 0x3
 3548 034d 0A010000 		.4byte	.LASF65
 3549 0351 06       		.byte	0x6
 3550 0352 C8       		.byte	0xc8
 3551 0353 DE020000 		.4byte	0x2de
 3552 0357 0B       		.uleb128 0xb
 3553 0358 01       		.byte	0x1
 3554 0359 37000000 		.4byte	0x37
ARM GAS  C:\Users\r\AppData\Local\Temp\ccBAatSA.s 			page 83


 3555 035d 07       		.byte	0x7
 3556 035e 15       		.byte	0x15
 3557 035f C4030000 		.4byte	0x3c4
 3558 0363 0C       		.uleb128 0xc
 3559 0364 C4020000 		.4byte	.LASF66
 3560 0368 00       		.byte	0
 3561 0369 0C       		.uleb128 0xc
 3562 036a 6B180000 		.4byte	.LASF67
 3563 036e 01       		.byte	0x1
 3564 036f 0C       		.uleb128 0xc
 3565 0370 C50F0000 		.4byte	.LASF68
 3566 0374 02       		.byte	0x2
 3567 0375 0C       		.uleb128 0xc
 3568 0376 FA030000 		.4byte	.LASF69
 3569 037a 03       		.byte	0x3
 3570 037b 0C       		.uleb128 0xc
 3571 037c 1C170000 		.4byte	.LASF70
 3572 0380 04       		.byte	0x4
 3573 0381 0C       		.uleb128 0xc
 3574 0382 CF060000 		.4byte	.LASF71
 3575 0386 05       		.byte	0x5
 3576 0387 0C       		.uleb128 0xc
 3577 0388 BD150000 		.4byte	.LASF72
 3578 038c 06       		.byte	0x6
 3579 038d 0C       		.uleb128 0xc
 3580 038e 20080000 		.4byte	.LASF73
 3581 0392 07       		.byte	0x7
 3582 0393 0C       		.uleb128 0xc
 3583 0394 23000000 		.4byte	.LASF74
 3584 0398 08       		.byte	0x8
 3585 0399 0C       		.uleb128 0xc
 3586 039a 170E0000 		.4byte	.LASF75
 3587 039e 09       		.byte	0x9
 3588 039f 0C       		.uleb128 0xc
 3589 03a0 BC140000 		.4byte	.LASF76
 3590 03a4 0A       		.byte	0xa
 3591 03a5 0C       		.uleb128 0xc
 3592 03a6 D80B0000 		.4byte	.LASF77
 3593 03aa 0B       		.byte	0xb
 3594 03ab 0C       		.uleb128 0xc
 3595 03ac 39020000 		.4byte	.LASF78
 3596 03b0 0C       		.byte	0xc
 3597 03b1 0C       		.uleb128 0xc
 3598 03b2 270E0000 		.4byte	.LASF79
 3599 03b6 0D       		.byte	0xd
 3600 03b7 0C       		.uleb128 0xc
 3601 03b8 FF100000 		.4byte	.LASF80
 3602 03bc 0E       		.byte	0xe
 3603 03bd 0C       		.uleb128 0xc
 3604 03be 01080000 		.4byte	.LASF81
 3605 03c2 0F       		.byte	0xf
 3606 03c3 00       		.byte	0
 3607 03c4 0B       		.uleb128 0xb
 3608 03c5 02       		.byte	0x2
 3609 03c6 50000000 		.4byte	0x50
 3610 03ca 07       		.byte	0x7
 3611 03cb 2B       		.byte	0x2b
ARM GAS  C:\Users\r\AppData\Local\Temp\ccBAatSA.s 			page 84


 3612 03cc 33070000 		.4byte	0x733
 3613 03d0 12       		.uleb128 0x12
 3614 03d1 A50C0000 		.4byte	.LASF82
 3615 03d5 0013     		.2byte	0x1300
 3616 03d7 12       		.uleb128 0x12
 3617 03d8 B5130000 		.4byte	.LASF83
 3618 03dc 0012     		.2byte	0x1200
 3619 03de 12       		.uleb128 0x12
 3620 03df 5E160000 		.4byte	.LASF84
 3621 03e3 0230     		.2byte	0x3002
 3622 03e5 12       		.uleb128 0x12
 3623 03e6 16010000 		.4byte	.LASF85
 3624 03ea 0130     		.2byte	0x3001
 3625 03ec 12       		.uleb128 0x12
 3626 03ed 150A0000 		.4byte	.LASF86
 3627 03f1 023F     		.2byte	0x3f02
 3628 03f3 12       		.uleb128 0x12
 3629 03f4 010A0000 		.4byte	.LASF87
 3630 03f8 004A     		.2byte	0x4a00
 3631 03fa 12       		.uleb128 0x12
 3632 03fb 40080000 		.4byte	.LASF88
 3633 03ff 002C     		.2byte	0x2c00
 3634 0401 12       		.uleb128 0x12
 3635 0402 CB0C0000 		.4byte	.LASF89
 3636 0406 002F     		.2byte	0x2f00
 3637 0408 12       		.uleb128 0x12
 3638 0409 6F0A0000 		.4byte	.LASF90
 3639 040d 002B     		.2byte	0x2b00
 3640 040f 12       		.uleb128 0x12
 3641 0410 310D0000 		.4byte	.LASF91
 3642 0414 0041     		.2byte	0x4100
 3643 0416 12       		.uleb128 0x12
 3644 0417 85160000 		.4byte	.LASF92
 3645 041b 004B     		.2byte	0x4b00
 3646 041d 12       		.uleb128 0x12
 3647 041e 850C0000 		.4byte	.LASF93
 3648 0422 0016     		.2byte	0x1600
 3649 0424 12       		.uleb128 0x12
 3650 0425 730C0000 		.4byte	.LASF94
 3651 0429 0019     		.2byte	0x1900
 3652 042b 12       		.uleb128 0x12
 3653 042c 3A050000 		.4byte	.LASF95
 3654 0430 0319     		.2byte	0x1903
 3655 0432 12       		.uleb128 0x12
 3656 0433 49180000 		.4byte	.LASF96
 3657 0437 0219     		.2byte	0x1902
 3658 0439 12       		.uleb128 0x12
 3659 043a B5070000 		.4byte	.LASF97
 3660 043e 0119     		.2byte	0x1901
 3661 0440 12       		.uleb128 0x12
 3662 0441 C9100000 		.4byte	.LASF98
 3663 0445 001C     		.2byte	0x1c00
 3664 0447 12       		.uleb128 0x12
 3665 0448 3F000000 		.4byte	.LASF99
 3666 044c 0132     		.2byte	0x3201
 3667 044e 12       		.uleb128 0x12
 3668 044f 7D040000 		.4byte	.LASF100
ARM GAS  C:\Users\r\AppData\Local\Temp\ccBAatSA.s 			page 85


 3669 0453 000A     		.2byte	0xa00
 3670 0455 12       		.uleb128 0x12
 3671 0456 88150000 		.4byte	.LASF101
 3672 045a 0211     		.2byte	0x1102
 3673 045c 12       		.uleb128 0x12
 3674 045d E1140000 		.4byte	.LASF102
 3675 0461 0131     		.2byte	0x3101
 3676 0463 12       		.uleb128 0x12
 3677 0464 5C060000 		.4byte	.LASF103
 3678 0468 021C     		.2byte	0x1c02
 3679 046a 0C       		.uleb128 0xc
 3680 046b 63000000 		.4byte	.LASF104
 3681 046f 06       		.byte	0x6
 3682 0470 12       		.uleb128 0x12
 3683 0471 68050000 		.4byte	.LASF105
 3684 0475 0010     		.2byte	0x1000
 3685 0477 12       		.uleb128 0x12
 3686 0478 3D120000 		.4byte	.LASF106
 3687 047c 0022     		.2byte	0x2200
 3688 047e 12       		.uleb128 0x12
 3689 047f 4C010000 		.4byte	.LASF107
 3690 0483 0030     		.2byte	0x3000
 3691 0485 12       		.uleb128 0x12
 3692 0486 53040000 		.4byte	.LASF108
 3693 048a 0048     		.2byte	0x4800
 3694 048c 12       		.uleb128 0x12
 3695 048d B1170000 		.4byte	.LASF109
 3696 0491 033F     		.2byte	0x3f03
 3697 0493 12       		.uleb128 0x12
 3698 0494 52070000 		.4byte	.LASF110
 3699 0498 0044     		.2byte	0x4400
 3700 049a 12       		.uleb128 0x12
 3701 049b F7140000 		.4byte	.LASF111
 3702 049f 003D     		.2byte	0x3d00
 3703 04a1 12       		.uleb128 0x12
 3704 04a2 63130000 		.4byte	.LASF112
 3705 04a6 0020     		.2byte	0x2000
 3706 04a8 12       		.uleb128 0x12
 3707 04a9 DC0A0000 		.4byte	.LASF113
 3708 04ad 0024     		.2byte	0x2400
 3709 04af 12       		.uleb128 0x12
 3710 04b0 59140000 		.4byte	.LASF114
 3711 04b4 0026     		.2byte	0x2600
 3712 04b6 12       		.uleb128 0x12
 3713 04b7 18090000 		.4byte	.LASF115
 3714 04bb 0049     		.2byte	0x4900
 3715 04bd 12       		.uleb128 0x12
 3716 04be EB0E0000 		.4byte	.LASF116
 3717 04c2 025B     		.2byte	0x5b02
 3718 04c4 12       		.uleb128 0x12
 3719 04c5 96160000 		.4byte	.LASF117
 3720 04c9 005B     		.2byte	0x5b00
 3721 04cb 12       		.uleb128 0x12
 3722 04cc BF040000 		.4byte	.LASF118
 3723 04d0 035B     		.2byte	0x5b03
 3724 04d2 12       		.uleb128 0x12
 3725 04d3 BD180000 		.4byte	.LASF119
ARM GAS  C:\Users\r\AppData\Local\Temp\ccBAatSA.s 			page 86


 3726 04d7 022A     		.2byte	0x2a02
 3727 04d9 12       		.uleb128 0x12
 3728 04da 8C100000 		.4byte	.LASF120
 3729 04de 0021     		.2byte	0x2100
 3730 04e0 12       		.uleb128 0x12
 3731 04e1 66170000 		.4byte	.LASF121
 3732 04e5 0008     		.2byte	0x800
 3733 04e7 12       		.uleb128 0x12
 3734 04e8 3B0F0000 		.4byte	.LASF122
 3735 04ec 0208     		.2byte	0x802
 3736 04ee 12       		.uleb128 0x12
 3737 04ef F5050000 		.4byte	.LASF123
 3738 04f3 0108     		.2byte	0x801
 3739 04f5 12       		.uleb128 0x12
 3740 04f6 06140000 		.4byte	.LASF124
 3741 04fa 0005     		.2byte	0x500
 3742 04fc 12       		.uleb128 0x12
 3743 04fd 82130000 		.4byte	.LASF125
 3744 0501 004C     		.2byte	0x4c00
 3745 0503 12       		.uleb128 0x12
 3746 0504 430D0000 		.4byte	.LASF126
 3747 0508 003E     		.2byte	0x3e00
 3748 050a 12       		.uleb128 0x12
 3749 050b 0F180000 		.4byte	.LASF127
 3750 050f 0104     		.2byte	0x401
 3751 0511 12       		.uleb128 0x12
 3752 0512 050D0000 		.4byte	.LASF128
 3753 0516 0004     		.2byte	0x400
 3754 0518 12       		.uleb128 0x12
 3755 0519 DE150000 		.4byte	.LASF129
 3756 051d 0404     		.2byte	0x404
 3757 051f 12       		.uleb128 0x12
 3758 0520 A8000000 		.4byte	.LASF130
 3759 0524 0204     		.2byte	0x402
 3760 0526 12       		.uleb128 0x12
 3761 0527 8B050000 		.4byte	.LASF131
 3762 052b 0304     		.2byte	0x403
 3763 052d 12       		.uleb128 0x12
 3764 052e B20A0000 		.4byte	.LASF132
 3765 0532 0025     		.2byte	0x2500
 3766 0534 12       		.uleb128 0x12
 3767 0535 1F060000 		.4byte	.LASF133
 3768 0539 0115     		.2byte	0x1501
 3769 053b 12       		.uleb128 0x12
 3770 053c EF0D0000 		.4byte	.LASF134
 3771 0540 0053     		.2byte	0x5300
 3772 0542 12       		.uleb128 0x12
 3773 0543 C9140000 		.4byte	.LASF135
 3774 0547 0031     		.2byte	0x3100
 3775 0549 12       		.uleb128 0x12
 3776 054a 6C0D0000 		.4byte	.LASF136
 3777 054e 003A     		.2byte	0x3a00
 3778 0550 12       		.uleb128 0x12
 3779 0551 9B0F0000 		.4byte	.LASF137
 3780 0555 0253     		.2byte	0x5302
 3781 0557 12       		.uleb128 0x12
 3782 0558 9A000000 		.4byte	.LASF138
ARM GAS  C:\Users\r\AppData\Local\Temp\ccBAatSA.s 			page 87


 3783 055c 0043     		.2byte	0x4300
 3784 055e 12       		.uleb128 0x12
 3785 055f F1120000 		.4byte	.LASF139
 3786 0563 013F     		.2byte	0x3f01
 3787 0565 12       		.uleb128 0x12
 3788 0566 AE120000 		.4byte	.LASF140
 3789 056a 001D     		.2byte	0x1d00
 3790 056c 12       		.uleb128 0x12
 3791 056d 0D070000 		.4byte	.LASF141
 3792 0571 0A11     		.2byte	0x110a
 3793 0573 12       		.uleb128 0x12
 3794 0574 4E120000 		.4byte	.LASF142
 3795 0578 012A     		.2byte	0x2a01
 3796 057a 12       		.uleb128 0x12
 3797 057b EA080000 		.4byte	.LASF143
 3798 057f 0007     		.2byte	0x700
 3799 0581 12       		.uleb128 0x12
 3800 0582 860F0000 		.4byte	.LASF144
 3801 0586 0311     		.2byte	0x1103
 3802 0588 0C       		.uleb128 0xc
 3803 0589 AB160000 		.4byte	.LASF145
 3804 058d 00       		.byte	0
 3805 058e 12       		.uleb128 0x12
 3806 058f 0B100000 		.4byte	.LASF146
 3807 0593 0032     		.2byte	0x3200
 3808 0595 12       		.uleb128 0x12
 3809 0596 05030000 		.4byte	.LASF147
 3810 059a 0001     		.2byte	0x100
 3811 059c 12       		.uleb128 0x12
 3812 059d 42160000 		.4byte	.LASF148
 3813 05a1 0006     		.2byte	0x600
 3814 05a3 12       		.uleb128 0x12
 3815 05a4 79140000 		.4byte	.LASF149
 3816 05a8 0002     		.2byte	0x200
 3817 05aa 12       		.uleb128 0x12
 3818 05ab 4E0E0000 		.4byte	.LASF150
 3819 05af 0028     		.2byte	0x2800
 3820 05b1 12       		.uleb128 0x12
 3821 05b2 EE110000 		.4byte	.LASF151
 3822 05b6 015A     		.2byte	0x5a01
 3823 05b8 12       		.uleb128 0x12
 3824 05b9 ED010000 		.4byte	.LASF152
 3825 05bd 005A     		.2byte	0x5a00
 3826 05bf 12       		.uleb128 0x12
 3827 05c0 0A110000 		.4byte	.LASF153
 3828 05c4 035A     		.2byte	0x5a03
 3829 05c6 12       		.uleb128 0x12
 3830 05c7 3C060000 		.4byte	.LASF154
 3831 05cb 025A     		.2byte	0x5a02
 3832 05cd 12       		.uleb128 0x12
 3833 05ce F10A0000 		.4byte	.LASF155
 3834 05d2 004E     		.2byte	0x4e00
 3835 05d4 12       		.uleb128 0x12
 3836 05d5 1B130000 		.4byte	.LASF156
 3837 05d9 001A     		.2byte	0x1a00
 3838 05db 12       		.uleb128 0x12
 3839 05dc C70E0000 		.4byte	.LASF157
ARM GAS  C:\Users\r\AppData\Local\Temp\ccBAatSA.s 			page 88


 3840 05e0 0126     		.2byte	0x2601
 3841 05e2 12       		.uleb128 0x12
 3842 05e3 E7100000 		.4byte	.LASF158
 3843 05e7 0226     		.2byte	0x2602
 3844 05e9 12       		.uleb128 0x12
 3845 05ea 9D030000 		.4byte	.LASF159
 3846 05ee 002A     		.2byte	0x2a00
 3847 05f0 12       		.uleb128 0x12
 3848 05f1 89120000 		.4byte	.LASF160
 3849 05f5 0003     		.2byte	0x300
 3850 05f7 12       		.uleb128 0x12
 3851 05f8 7E090000 		.4byte	.LASF161
 3852 05fc 0215     		.2byte	0x1502
 3853 05fe 12       		.uleb128 0x12
 3854 05ff 9B0E0000 		.4byte	.LASF162
 3855 0603 0029     		.2byte	0x2900
 3856 0605 12       		.uleb128 0x12
 3857 0606 F2090000 		.4byte	.LASF163
 3858 060a 0129     		.2byte	0x2901
 3859 060c 12       		.uleb128 0x12
 3860 060d 1C050000 		.4byte	.LASF164
 3861 0611 0042     		.2byte	0x4200
 3862 0613 12       		.uleb128 0x12
 3863 0614 CF070000 		.4byte	.LASF165
 3864 0618 011C     		.2byte	0x1c01
 3865 061a 12       		.uleb128 0x12
 3866 061b DF0E0000 		.4byte	.LASF166
 3867 061f 0040     		.2byte	0x4000
 3868 0621 12       		.uleb128 0x12
 3869 0622 B5090000 		.4byte	.LASF167
 3870 0626 0015     		.2byte	0x1500
 3871 0628 12       		.uleb128 0x12
 3872 0629 DA120000 		.4byte	.LASF168
 3873 062d 0111     		.2byte	0x1101
 3874 062f 12       		.uleb128 0x12
 3875 0630 DF050000 		.4byte	.LASF169
 3876 0634 0114     		.2byte	0x1401
 3877 0636 12       		.uleb128 0x12
 3878 0637 CF0F0000 		.4byte	.LASF170
 3879 063b 0014     		.2byte	0x1400
 3880 063d 12       		.uleb128 0x12
 3881 063e 81060000 		.4byte	.LASF171
 3882 0642 0218     		.2byte	0x1802
 3883 0644 12       		.uleb128 0x12
 3884 0645 7E020000 		.4byte	.LASF172
 3885 0649 0518     		.2byte	0x1805
 3886 064b 12       		.uleb128 0x12
 3887 064c 79000000 		.4byte	.LASF173
 3888 0650 0618     		.2byte	0x1806
 3889 0652 12       		.uleb128 0x12
 3890 0653 F00B0000 		.4byte	.LASF174
 3891 0657 0517     		.2byte	0x1705
 3892 0659 12       		.uleb128 0x12
 3893 065a 230C0000 		.4byte	.LASF175
 3894 065e 0118     		.2byte	0x1801
 3895 0660 12       		.uleb128 0x12
 3896 0661 4D030000 		.4byte	.LASF176
ARM GAS  C:\Users\r\AppData\Local\Temp\ccBAatSA.s 			page 89


 3897 0665 0018     		.2byte	0x1800
 3898 0667 12       		.uleb128 0x12
 3899 0668 90040000 		.4byte	.LASF177
 3900 066c 0317     		.2byte	0x1703
 3901 066e 12       		.uleb128 0x12
 3902 066f 58150000 		.4byte	.LASF178
 3903 0673 0017     		.2byte	0x1700
 3904 0675 12       		.uleb128 0x12
 3905 0676 55020000 		.4byte	.LASF179
 3906 067a 0217     		.2byte	0x1702
 3907 067c 12       		.uleb128 0x12
 3908 067d CD020000 		.4byte	.LASF180
 3909 0681 0117     		.2byte	0x1701
 3910 0683 12       		.uleb128 0x12
 3911 0684 320A0000 		.4byte	.LASF181
 3912 0688 0617     		.2byte	0x1706
 3913 068a 12       		.uleb128 0x12
 3914 068b 20070000 		.4byte	.LASF182
 3915 068f 0717     		.2byte	0x1707
 3916 0691 12       		.uleb128 0x12
 3917 0692 5C110000 		.4byte	.LASF183
 3918 0696 0817     		.2byte	0x1708
 3919 0698 12       		.uleb128 0x12
 3920 0699 90170000 		.4byte	.LASF184
 3921 069d 001E     		.2byte	0x1e00
 3922 069f 12       		.uleb128 0x12
 3923 06a0 C60B0000 		.4byte	.LASF185
 3924 06a4 0037     		.2byte	0x3700
 3925 06a6 12       		.uleb128 0x12
 3926 06a7 00000000 		.4byte	.LASF186
 3927 06ab 005C     		.2byte	0x5c00
 3928 06ad 12       		.uleb128 0x12
 3929 06ae 1F040000 		.4byte	.LASF187
 3930 06b2 0039     		.2byte	0x3900
 3931 06b4 12       		.uleb128 0x12
 3932 06b5 8C0E0000 		.4byte	.LASF188
 3933 06b9 0229     		.2byte	0x2902
 3934 06bb 12       		.uleb128 0x12
 3935 06bc B70D0000 		.4byte	.LASF189
 3936 06c0 0047     		.2byte	0x4700
 3937 06c2 12       		.uleb128 0x12
 3938 06c3 A9020000 		.4byte	.LASF190
 3939 06c7 0045     		.2byte	0x4500
 3940 06c9 12       		.uleb128 0x12
 3941 06ca F0180000 		.4byte	.LASF191
 3942 06ce 025C     		.2byte	0x5c02
 3943 06d0 12       		.uleb128 0x12
 3944 06d1 28150000 		.4byte	.LASF192
 3945 06d5 015C     		.2byte	0x5c01
 3946 06d7 12       		.uleb128 0x12
 3947 06d8 970D0000 		.4byte	.LASF193
 3948 06dc 001B     		.2byte	0x1b00
 3949 06de 12       		.uleb128 0x12
 3950 06df 2E090000 		.4byte	.LASF194
 3951 06e3 003F     		.2byte	0x3f00
 3952 06e5 12       		.uleb128 0x12
 3953 06e6 07040000 		.4byte	.LASF195
ARM GAS  C:\Users\r\AppData\Local\Temp\ccBAatSA.s 			page 90


 3954 06ea 015B     		.2byte	0x5b01
 3955 06ec 12       		.uleb128 0x12
 3956 06ed 7B180000 		.4byte	.LASF196
 3957 06f1 0326     		.2byte	0x2603
 3958 06f3 12       		.uleb128 0x12
 3959 06f4 CE090000 		.4byte	.LASF197
 3960 06f8 0009     		.2byte	0x900
 3961 06fa 12       		.uleb128 0x12
 3962 06fb 0F0F0000 		.4byte	.LASF198
 3963 06ff 0011     		.2byte	0x1100
 3964 0701 12       		.uleb128 0x12
 3965 0702 0A190000 		.4byte	.LASF199
 3966 0706 0411     		.2byte	0x1104
 3967 0708 12       		.uleb128 0x12
 3968 0709 71080000 		.4byte	.LASF200
 3969 070d 0B11     		.2byte	0x110b
 3970 070f 12       		.uleb128 0x12
 3971 0710 C8030000 		.4byte	.LASF201
 3972 0714 0C11     		.2byte	0x110c
 3973 0716 12       		.uleb128 0x12
 3974 0717 3F130000 		.4byte	.LASF202
 3975 071b 0046     		.2byte	0x4600
 3976 071d 12       		.uleb128 0x12
 3977 071e E5000000 		.4byte	.LASF203
 3978 0722 020C     		.2byte	0xc02
 3979 0724 12       		.uleb128 0x12
 3980 0725 D9130000 		.4byte	.LASF204
 3981 0729 010C     		.2byte	0xc01
 3982 072b 12       		.uleb128 0x12
 3983 072c 31140000 		.4byte	.LASF205
 3984 0730 0027     		.2byte	0x2700
 3985 0732 00       		.byte	0
 3986 0733 13       		.uleb128 0x13
 3987 0734 04       		.byte	0x4
 3988 0735 07       		.byte	0x7
 3989 0736 AA       		.byte	0xaa
 3990 0737 54070000 		.4byte	0x754
 3991 073b 0E       		.uleb128 0xe
 3992 073c 5E130000 		.4byte	.LASF206
 3993 0740 07       		.byte	0x7
 3994 0741 AC       		.byte	0xac
 3995 0742 C3000000 		.4byte	0xc3
 3996 0746 00       		.byte	0
 3997 0747 14       		.uleb128 0x14
 3998 0748 61736300 		.ascii	"asc\000"
 3999 074c 07       		.byte	0x7
 4000 074d AD       		.byte	0xad
 4001 074e CF000000 		.4byte	0xcf
 4002 0752 02       		.byte	0x2
 4003 0753 00       		.byte	0
 4004 0754 03       		.uleb128 0x3
 4005 0755 77010000 		.4byte	.LASF207
 4006 0759 07       		.byte	0x7
 4007 075a AE       		.byte	0xae
 4008 075b 33070000 		.4byte	0x733
 4009 075f 0B       		.uleb128 0xb
 4010 0760 01       		.byte	0x1
ARM GAS  C:\Users\r\AppData\Local\Temp\ccBAatSA.s 			page 91


 4011 0761 25000000 		.4byte	0x25
 4012 0765 08       		.byte	0x8
 4013 0766 18       		.byte	0x18
 4014 0767 C0070000 		.4byte	0x7c0
 4015 076b 0C       		.uleb128 0xc
 4016 076c 88010000 		.4byte	.LASF208
 4017 0770 01       		.byte	0x1
 4018 0771 0C       		.uleb128 0xc
 4019 0772 0C130000 		.4byte	.LASF209
 4020 0776 02       		.byte	0x2
 4021 0777 0C       		.uleb128 0xc
 4022 0778 08160000 		.4byte	.LASF210
 4023 077c 04       		.byte	0x4
 4024 077d 15       		.uleb128 0x15
 4025 077e C2010000 		.4byte	.LASF211
 4026 0782 7F       		.sleb128 -1
 4027 0783 15       		.uleb128 0x15
 4028 0784 81030000 		.4byte	.LASF212
 4029 0788 7E       		.sleb128 -2
 4030 0789 15       		.uleb128 0x15
 4031 078a DE080000 		.4byte	.LASF213
 4032 078e 7D       		.sleb128 -3
 4033 078f 15       		.uleb128 0x15
 4034 0790 310F0000 		.4byte	.LASF214
 4035 0794 7C       		.sleb128 -4
 4036 0795 15       		.uleb128 0x15
 4037 0796 EC040000 		.4byte	.LASF215
 4038 079a 7B       		.sleb128 -5
 4039 079b 0C       		.uleb128 0xc
 4040 079c 57130000 		.4byte	.LASF216
 4041 07a0 06       		.byte	0x6
 4042 07a1 0C       		.uleb128 0xc
 4043 07a2 41140000 		.4byte	.LASF217
 4044 07a6 02       		.byte	0x2
 4045 07a7 0C       		.uleb128 0xc
 4046 07a8 DF100000 		.4byte	.LASF218
 4047 07ac 04       		.byte	0x4
 4048 07ad 0C       		.uleb128 0xc
 4049 07ae A2150000 		.4byte	.LASF219
 4050 07b2 00       		.byte	0
 4051 07b3 0C       		.uleb128 0xc
 4052 07b4 32030000 		.4byte	.LASF220
 4053 07b8 07       		.byte	0x7
 4054 07b9 0C       		.uleb128 0xc
 4055 07ba 370E0000 		.4byte	.LASF221
 4056 07be 03       		.byte	0x3
 4057 07bf 00       		.byte	0
 4058 07c0 0B       		.uleb128 0xb
 4059 07c1 01       		.byte	0x1
 4060 07c2 37000000 		.4byte	0x37
 4061 07c6 08       		.byte	0x8
 4062 07c7 2C       		.byte	0x2c
 4063 07c8 EB070000 		.4byte	0x7eb
 4064 07cc 0C       		.uleb128 0xc
 4065 07cd 0F0B0000 		.4byte	.LASF222
 4066 07d1 00       		.byte	0
 4067 07d2 0C       		.uleb128 0xc
ARM GAS  C:\Users\r\AppData\Local\Temp\ccBAatSA.s 			page 92


 4068 07d3 E1170000 		.4byte	.LASF223
 4069 07d7 02       		.byte	0x2
 4070 07d8 0C       		.uleb128 0xc
 4071 07d9 CA060000 		.4byte	.LASF224
 4072 07dd 08       		.byte	0x8
 4073 07de 0C       		.uleb128 0xc
 4074 07df 46100000 		.4byte	.LASF225
 4075 07e3 10       		.byte	0x10
 4076 07e4 0C       		.uleb128 0xc
 4077 07e5 D1120000 		.4byte	.LASF226
 4078 07e9 18       		.byte	0x18
 4079 07ea 00       		.byte	0
 4080 07eb 0B       		.uleb128 0xb
 4081 07ec 01       		.byte	0x1
 4082 07ed 37000000 		.4byte	0x37
 4083 07f1 08       		.byte	0x8
 4084 07f2 3D       		.byte	0x3d
 4085 07f3 10080000 		.4byte	0x810
 4086 07f7 0C       		.uleb128 0xc
 4087 07f8 01050000 		.4byte	.LASF227
 4088 07fc 00       		.byte	0
 4089 07fd 0C       		.uleb128 0xc
 4090 07fe 9E010000 		.4byte	.LASF228
 4091 0802 01       		.byte	0x1
 4092 0803 0C       		.uleb128 0xc
 4093 0804 1C030000 		.4byte	.LASF229
 4094 0808 02       		.byte	0x2
 4095 0809 0C       		.uleb128 0xc
 4096 080a 53100000 		.4byte	.LASF230
 4097 080e 03       		.byte	0x3
 4098 080f 00       		.byte	0
 4099 0810 13       		.uleb128 0x13
 4100 0811 02       		.byte	0x2
 4101 0812 08       		.byte	0x8
 4102 0813 4E       		.byte	0x4e
 4103 0814 25080000 		.4byte	0x825
 4104 0818 0E       		.uleb128 0xe
 4105 0819 4D110000 		.4byte	.LASF47
 4106 081d 08       		.byte	0x8
 4107 081e 50       		.byte	0x50
 4108 081f A2000000 		.4byte	0xa2
 4109 0823 00       		.byte	0
 4110 0824 00       		.byte	0
 4111 0825 03       		.uleb128 0x3
 4112 0826 95030000 		.4byte	.LASF231
 4113 082a 08       		.byte	0x8
 4114 082b 51       		.byte	0x51
 4115 082c 10080000 		.4byte	0x810
 4116 0830 13       		.uleb128 0x13
 4117 0831 18       		.byte	0x18
 4118 0832 08       		.byte	0x8
 4119 0833 53       		.byte	0x53
 4120 0834 8D080000 		.4byte	0x88d
 4121 0838 0E       		.uleb128 0xe
 4122 0839 3F040000 		.4byte	.LASF232
 4123 083d 08       		.byte	0x8
 4124 083e 55       		.byte	0x55
ARM GAS  C:\Users\r\AppData\Local\Temp\ccBAatSA.s 			page 93


 4125 083f 97000000 		.4byte	0x97
 4126 0843 00       		.byte	0
 4127 0844 14       		.uleb128 0x14
 4128 0845 63666700 		.ascii	"cfg\000"
 4129 0849 08       		.byte	0x8
 4130 084a 57       		.byte	0x57
 4131 084b 8D080000 		.4byte	0x88d
 4132 084f 04       		.byte	0x4
 4133 0850 0E       		.uleb128 0xe
 4134 0851 AE080000 		.4byte	.LASF233
 4135 0855 08       		.byte	0x8
 4136 0856 59       		.byte	0x59
 4137 0857 25080000 		.4byte	0x825
 4138 085b 08       		.byte	0x8
 4139 085c 0E       		.uleb128 0xe
 4140 085d D2010000 		.4byte	.LASF234
 4141 0861 08       		.byte	0x8
 4142 0862 5B       		.byte	0x5b
 4143 0863 54070000 		.4byte	0x754
 4144 0867 0A       		.byte	0xa
 4145 0868 0E       		.uleb128 0xe
 4146 0869 9E180000 		.4byte	.LASF235
 4147 086d 08       		.byte	0x8
 4148 086e 5D       		.byte	0x5d
 4149 086f CF000000 		.4byte	0xcf
 4150 0873 0E       		.byte	0xe
 4151 0874 0E       		.uleb128 0xe
 4152 0875 F6070000 		.4byte	.LASF236
 4153 0879 08       		.byte	0x8
 4154 087a 61       		.byte	0x61
 4155 087b 89000000 		.4byte	0x89
 4156 087f 10       		.byte	0x10
 4157 0880 0E       		.uleb128 0xe
 4158 0881 48040000 		.4byte	.LASF237
 4159 0885 08       		.byte	0x8
 4160 0886 62       		.byte	0x62
 4161 0887 89000000 		.4byte	0x89
 4162 088b 14       		.byte	0x14
 4163 088c 00       		.byte	0
 4164 088d 06       		.uleb128 0x6
 4165 088e 04       		.byte	0x4
 4166 088f 93080000 		.4byte	0x893
 4167 0893 16       		.uleb128 0x16
 4168 0894 D3020000 		.4byte	0x2d3
 4169 0898 03       		.uleb128 0x3
 4170 0899 1F120000 		.4byte	.LASF238
 4171 089d 08       		.byte	0x8
 4172 089e 63       		.byte	0x63
 4173 089f 30080000 		.4byte	0x830
 4174 08a3 0D       		.uleb128 0xd
 4175 08a4 B041     		.2byte	0x41b0
 4176 08a6 08       		.byte	0x8
 4177 08a7 65       		.byte	0x65
 4178 08a8 3D0A0000 		.4byte	0xa3d
 4179 08ac 0E       		.uleb128 0xe
 4180 08ad C0030000 		.4byte	.LASF239
 4181 08b1 08       		.byte	0x8
ARM GAS  C:\Users\r\AppData\Local\Temp\ccBAatSA.s 			page 94


 4182 08b2 67       		.byte	0x67
 4183 08b3 3D0A0000 		.4byte	0xa3d
 4184 08b7 00       		.byte	0
 4185 08b8 0E       		.uleb128 0xe
 4186 08b9 EB090000 		.4byte	.LASF240
 4187 08bd 08       		.byte	0x8
 4188 08be 68       		.byte	0x68
 4189 08bf 4D0A0000 		.4byte	0xa4d
 4190 08c3 60       		.byte	0x60
 4191 08c4 0E       		.uleb128 0xe
 4192 08c5 29160000 		.4byte	.LASF241
 4193 08c9 08       		.byte	0x8
 4194 08ca 69       		.byte	0x69
 4195 08cb 4C030000 		.4byte	0x34c
 4196 08cf 64       		.byte	0x64
 4197 08d0 0F       		.uleb128 0xf
 4198 08d1 5E170000 		.4byte	.LASF242
 4199 08d5 08       		.byte	0x8
 4200 08d6 6E       		.byte	0x6e
 4201 08d7 89000000 		.4byte	0x89
 4202 08db 6401     		.2byte	0x164
 4203 08dd 0F       		.uleb128 0xf
 4204 08de 3C100000 		.4byte	.LASF243
 4205 08e2 08       		.byte	0x8
 4206 08e3 71       		.byte	0x71
 4207 08e4 530A0000 		.4byte	0xa53
 4208 08e8 6801     		.2byte	0x168
 4209 08ea 0F       		.uleb128 0xf
 4210 08eb 56170000 		.4byte	.LASF244
 4211 08ef 08       		.byte	0x8
 4212 08f0 74       		.byte	0x74
 4213 08f1 530A0000 		.4byte	0xa53
 4214 08f5 6C01     		.2byte	0x16c
 4215 08f7 0F       		.uleb128 0xf
 4216 08f8 10050000 		.4byte	.LASF245
 4217 08fc 08       		.byte	0x8
 4218 08fd 77       		.byte	0x77
 4219 08fe 89000000 		.4byte	0x89
 4220 0902 7001     		.2byte	0x170
 4221 0904 0F       		.uleb128 0xf
 4222 0905 89170000 		.4byte	.LASF246
 4223 0909 08       		.byte	0x8
 4224 090a 79       		.byte	0x79
 4225 090b 530A0000 		.4byte	0xa53
 4226 090f 7401     		.2byte	0x174
 4227 0911 0F       		.uleb128 0xf
 4228 0912 3D030000 		.4byte	.LASF247
 4229 0916 08       		.byte	0x8
 4230 0917 7B       		.byte	0x7b
 4231 0918 89000000 		.4byte	0x89
 4232 091c 7801     		.2byte	0x178
 4233 091e 0F       		.uleb128 0xf
 4234 091f AC180000 		.4byte	.LASF248
 4235 0923 08       		.byte	0x8
 4236 0924 7D       		.byte	0x7d
 4237 0925 580A0000 		.4byte	0xa58
 4238 0929 7C01     		.2byte	0x17c
ARM GAS  C:\Users\r\AppData\Local\Temp\ccBAatSA.s 			page 95


 4239 092b 0F       		.uleb128 0xf
 4240 092c D40A0000 		.4byte	.LASF249
 4241 0930 08       		.byte	0x8
 4242 0931 7E       		.byte	0x7e
 4243 0932 89000000 		.4byte	0x89
 4244 0936 7C41     		.2byte	0x417c
 4245 0938 0F       		.uleb128 0xf
 4246 0939 E3180000 		.4byte	.LASF250
 4247 093d 08       		.byte	0x8
 4248 093e 7F       		.byte	0x7f
 4249 093f 89000000 		.4byte	0x89
 4250 0943 8041     		.2byte	0x4180
 4251 0945 0F       		.uleb128 0xf
 4252 0946 DF160000 		.4byte	.LASF251
 4253 094a 08       		.byte	0x8
 4254 094b 80       		.byte	0x80
 4255 094c 89000000 		.4byte	0x89
 4256 0950 8441     		.2byte	0x4184
 4257 0952 10       		.uleb128 0x10
 4258 0953 63646200 		.ascii	"cdb\000"
 4259 0957 08       		.byte	0x8
 4260 0958 82       		.byte	0x82
 4261 0959 690A0000 		.4byte	0xa69
 4262 095d 8841     		.2byte	0x4188
 4263 095f 0F       		.uleb128 0xf
 4264 0960 F2060000 		.4byte	.LASF252
 4265 0964 08       		.byte	0x8
 4266 0965 83       		.byte	0x83
 4267 0966 C3000000 		.4byte	0xc3
 4268 096a 9441     		.2byte	0x4194
 4269 096c 10       		.uleb128 0x10
 4270 096d 6C756E00 		.ascii	"lun\000"
 4271 0971 08       		.byte	0x8
 4272 0972 84       		.byte	0x84
 4273 0973 E7000000 		.4byte	0xe7
 4274 0977 9541     		.2byte	0x4195
 4275 0979 0F       		.uleb128 0xf
 4276 097a F90F0000 		.4byte	.LASF253
 4277 097e 08       		.byte	0x8
 4278 097f 85       		.byte	0x85
 4279 0980 C3000000 		.4byte	0xc3
 4280 0984 9641     		.2byte	0x4196
 4281 0986 0F       		.uleb128 0xf
 4282 0987 7F0D0000 		.4byte	.LASF254
 4283 098b 08       		.byte	0x8
 4284 098c 86       		.byte	0x86
 4285 098d 97000000 		.4byte	0x97
 4286 0991 9741     		.2byte	0x4197
 4287 0993 0F       		.uleb128 0xf
 4288 0994 57090000 		.4byte	.LASF255
 4289 0998 08       		.byte	0x8
 4290 0999 8A       		.byte	0x8a
 4291 099a 89000000 		.4byte	0x89
 4292 099e 9841     		.2byte	0x4198
 4293 09a0 0F       		.uleb128 0xf
 4294 09a1 E4090000 		.4byte	.LASF256
 4295 09a5 08       		.byte	0x8
ARM GAS  C:\Users\r\AppData\Local\Temp\ccBAatSA.s 			page 96


 4296 09a6 8E       		.byte	0x8e
 4297 09a7 C3000000 		.4byte	0xc3
 4298 09ab 9C41     		.2byte	0x419c
 4299 09ad 0F       		.uleb128 0xf
 4300 09ae 8F030000 		.4byte	.LASF257
 4301 09b2 08       		.byte	0x8
 4302 09b3 90       		.byte	0x90
 4303 09b4 C3000000 		.4byte	0xc3
 4304 09b8 9D41     		.2byte	0x419d
 4305 09ba 0F       		.uleb128 0xf
 4306 09bb 90140000 		.4byte	.LASF258
 4307 09bf 08       		.byte	0x8
 4308 09c0 91       		.byte	0x91
 4309 09c1 C3000000 		.4byte	0xc3
 4310 09c5 9E41     		.2byte	0x419e
 4311 09c7 0F       		.uleb128 0xf
 4312 09c8 E90F0000 		.4byte	.LASF259
 4313 09cc 08       		.byte	0x8
 4314 09cd 93       		.byte	0x93
 4315 09ce 14010000 		.4byte	0x114
 4316 09d2 A041     		.2byte	0x41a0
 4317 09d4 0F       		.uleb128 0xf
 4318 09d5 A00A0000 		.4byte	.LASF260
 4319 09d9 08       		.byte	0x8
 4320 09da 95       		.byte	0x95
 4321 09db C3000000 		.4byte	0xc3
 4322 09df A441     		.2byte	0x41a4
 4323 09e1 0F       		.uleb128 0xf
 4324 09e2 A90A0000 		.4byte	.LASF261
 4325 09e6 08       		.byte	0x8
 4326 09e7 96       		.byte	0x96
 4327 09e8 C3000000 		.4byte	0xc3
 4328 09ec A541     		.2byte	0x41a5
 4329 09ee 0F       		.uleb128 0xf
 4330 09ef 63090000 		.4byte	.LASF262
 4331 09f3 08       		.byte	0x8
 4332 09f4 97       		.byte	0x97
 4333 09f5 C3000000 		.4byte	0xc3
 4334 09f9 A641     		.2byte	0x41a6
 4335 09fb 0F       		.uleb128 0xf
 4336 09fc 4D170000 		.4byte	.LASF263
 4337 0a00 08       		.byte	0x8
 4338 0a01 98       		.byte	0x98
 4339 0a02 C3000000 		.4byte	0xc3
 4340 0a06 A741     		.2byte	0x41a7
 4341 0a08 0F       		.uleb128 0xf
 4342 0a09 020F0000 		.4byte	.LASF264
 4343 0a0d 08       		.byte	0x8
 4344 0a0e 99       		.byte	0x99
 4345 0a0f C3000000 		.4byte	0xc3
 4346 0a13 A841     		.2byte	0x41a8
 4347 0a15 0F       		.uleb128 0xf
 4348 0a16 260F0000 		.4byte	.LASF265
 4349 0a1a 08       		.byte	0x8
 4350 0a1b 9A       		.byte	0x9a
 4351 0a1c C3000000 		.4byte	0xc3
 4352 0a20 A941     		.2byte	0x41a9
ARM GAS  C:\Users\r\AppData\Local\Temp\ccBAatSA.s 			page 97


 4353 0a22 0F       		.uleb128 0xf
 4354 0a23 B6080000 		.4byte	.LASF266
 4355 0a27 08       		.byte	0x8
 4356 0a28 9B       		.byte	0x9b
 4357 0a29 C3000000 		.4byte	0xc3
 4358 0a2d AA41     		.2byte	0x41aa
 4359 0a2f 0F       		.uleb128 0xf
 4360 0a30 60100000 		.4byte	.LASF267
 4361 0a34 08       		.byte	0x8
 4362 0a35 9C       		.byte	0x9c
 4363 0a36 A2000000 		.4byte	0xa2
 4364 0a3a AC41     		.2byte	0x41ac
 4365 0a3c 00       		.byte	0
 4366 0a3d 08       		.uleb128 0x8
 4367 0a3e 98080000 		.4byte	0x898
 4368 0a42 4D0A0000 		.4byte	0xa4d
 4369 0a46 09       		.uleb128 0x9
 4370 0a47 22010000 		.4byte	0x122
 4371 0a4b 03       		.byte	0x3
 4372 0a4c 00       		.byte	0
 4373 0a4d 06       		.uleb128 0x6
 4374 0a4e 04       		.byte	0x4
 4375 0a4f 98080000 		.4byte	0x898
 4376 0a53 0A       		.uleb128 0xa
 4377 0a54 89000000 		.4byte	0x89
 4378 0a58 08       		.uleb128 0x8
 4379 0a59 C3000000 		.4byte	0xc3
 4380 0a5d 690A0000 		.4byte	0xa69
 4381 0a61 11       		.uleb128 0x11
 4382 0a62 22010000 		.4byte	0x122
 4383 0a66 FF3F     		.2byte	0x3fff
 4384 0a68 00       		.byte	0
 4385 0a69 08       		.uleb128 0x8
 4386 0a6a C3000000 		.4byte	0xc3
 4387 0a6e 790A0000 		.4byte	0xa79
 4388 0a72 09       		.uleb128 0x9
 4389 0a73 22010000 		.4byte	0x122
 4390 0a77 0B       		.byte	0xb
 4391 0a78 00       		.byte	0
 4392 0a79 03       		.uleb128 0x3
 4393 0a7a CB160000 		.4byte	.LASF268
 4394 0a7e 08       		.byte	0x8
 4395 0a7f 9D       		.byte	0x9d
 4396 0a80 A3080000 		.4byte	0x8a3
 4397 0a84 0B       		.uleb128 0xb
 4398 0a85 01       		.byte	0x1
 4399 0a86 37000000 		.4byte	0x37
 4400 0a8a 09       		.byte	0x9
 4401 0a8b 15       		.byte	0x15
 4402 0a8c A90A0000 		.4byte	0xaa9
 4403 0a90 0C       		.uleb128 0xc
 4404 0a91 660C0000 		.4byte	.LASF269
 4405 0a95 01       		.byte	0x1
 4406 0a96 0C       		.uleb128 0xc
 4407 0a97 02180000 		.4byte	.LASF270
 4408 0a9b 02       		.byte	0x2
 4409 0a9c 0C       		.uleb128 0xc
ARM GAS  C:\Users\r\AppData\Local\Temp\ccBAatSA.s 			page 98


 4410 0a9d B40F0000 		.4byte	.LASF271
 4411 0aa1 04       		.byte	0x4
 4412 0aa2 0C       		.uleb128 0xc
 4413 0aa3 E70D0000 		.4byte	.LASF272
 4414 0aa7 08       		.byte	0x8
 4415 0aa8 00       		.byte	0
 4416 0aa9 13       		.uleb128 0x13
 4417 0aaa 04       		.byte	0x4
 4418 0aab 09       		.byte	0x9
 4419 0aac 22       		.byte	0x22
 4420 0aad BE0A0000 		.4byte	0xabe
 4421 0ab1 0E       		.uleb128 0xe
 4422 0ab2 98010000 		.4byte	.LASF273
 4423 0ab6 09       		.byte	0x9
 4424 0ab7 24       		.byte	0x24
 4425 0ab8 89000000 		.4byte	0x89
 4426 0abc 00       		.byte	0
 4427 0abd 00       		.byte	0
 4428 0abe 03       		.uleb128 0x3
 4429 0abf A9130000 		.4byte	.LASF274
 4430 0ac3 09       		.byte	0x9
 4431 0ac4 25       		.byte	0x25
 4432 0ac5 A90A0000 		.4byte	0xaa9
 4433 0ac9 13       		.uleb128 0x13
 4434 0aca 10       		.byte	0x10
 4435 0acb 09       		.byte	0x9
 4436 0acc 27       		.byte	0x27
 4437 0acd 020B0000 		.4byte	0xb02
 4438 0ad1 0E       		.uleb128 0xe
 4439 0ad2 430E0000 		.4byte	.LASF275
 4440 0ad6 09       		.byte	0x9
 4441 0ad7 29       		.byte	0x29
 4442 0ad8 89000000 		.4byte	0x89
 4443 0adc 00       		.byte	0
 4444 0add 14       		.uleb128 0x14
 4445 0ade 6C626100 		.ascii	"lba\000"
 4446 0ae2 09       		.byte	0x9
 4447 0ae3 2A       		.byte	0x2a
 4448 0ae4 DB000000 		.4byte	0xdb
 4449 0ae8 04       		.byte	0x4
 4450 0ae9 0E       		.uleb128 0xe
 4451 0aea A4160000 		.4byte	.LASF276
 4452 0aee 09       		.byte	0x9
 4453 0aef 2B       		.byte	0x2b
 4454 0af0 DB000000 		.4byte	0xdb
 4455 0af4 08       		.byte	0x8
 4456 0af5 0E       		.uleb128 0xe
 4457 0af6 3E150000 		.4byte	.LASF277
 4458 0afa 09       		.byte	0x9
 4459 0afb 2D       		.byte	0x2d
 4460 0afc DB000000 		.4byte	0xdb
 4461 0b00 0C       		.byte	0xc
 4462 0b01 00       		.byte	0
 4463 0b02 03       		.uleb128 0x3
 4464 0b03 AB150000 		.4byte	.LASF278
 4465 0b07 09       		.byte	0x9
 4466 0b08 2E       		.byte	0x2e
ARM GAS  C:\Users\r\AppData\Local\Temp\ccBAatSA.s 			page 99


 4467 0b09 C90A0000 		.4byte	0xac9
 4468 0b0d 17       		.uleb128 0x17
 4469 0b0e C7080000 		.4byte	.LASF330
 4470 0b12 01       		.byte	0x1
 4471 0b13 20       		.byte	0x20
 4472 0b14 89000000 		.4byte	0x89
 4473 0b18 00000000 		.4byte	.LFB63
 4474 0b1c 24000000 		.4byte	.LFE63-.LFB63
 4475 0b20 01       		.uleb128 0x1
 4476 0b21 9C       		.byte	0x9c
 4477 0b22 350B0000 		.4byte	0xb35
 4478 0b26 18       		.uleb128 0x18
 4479 0b27 4D110000 		.4byte	.LASF47
 4480 0b2b 01       		.byte	0x1
 4481 0b2c 20       		.byte	0x20
 4482 0b2d A2000000 		.4byte	0xa2
 4483 0b31 02       		.uleb128 0x2
 4484 0b32 91       		.byte	0x91
 4485 0b33 76       		.sleb128 -10
 4486 0b34 00       		.byte	0
 4487 0b35 19       		.uleb128 0x19
 4488 0b36 F8040000 		.4byte	.LASF279
 4489 0b3a 02       		.byte	0x2
 4490 0b3b 22       		.byte	0x22
 4491 0b3c 89000000 		.4byte	0x89
 4492 0b40 00000000 		.4byte	.LFB64
 4493 0b44 3C000000 		.4byte	.LFE64-.LFB64
 4494 0b48 01       		.uleb128 0x1
 4495 0b49 9C       		.byte	0x9c
 4496 0b4a 5D0B0000 		.4byte	0xb5d
 4497 0b4e 1A       		.uleb128 0x1a
 4498 0b4f 7A030000 		.4byte	.LASF282
 4499 0b53 02       		.byte	0x2
 4500 0b54 24       		.byte	0x24
 4501 0b55 89000000 		.4byte	0x89
 4502 0b59 02       		.uleb128 0x2
 4503 0b5a 91       		.byte	0x91
 4504 0b5b 74       		.sleb128 -12
 4505 0b5c 00       		.byte	0
 4506 0b5d 1B       		.uleb128 0x1b
 4507 0b5e D8010000 		.4byte	.LASF331
 4508 0b62 02       		.byte	0x2
 4509 0b63 32       		.byte	0x32
 4510 0b64 00000000 		.4byte	.LFB65
 4511 0b68 18000000 		.4byte	.LFE65-.LFB65
 4512 0b6c 01       		.uleb128 0x1
 4513 0b6d 9C       		.byte	0x9c
 4514 0b6e 1C       		.uleb128 0x1c
 4515 0b6f E7160000 		.4byte	.LASF280
 4516 0b73 02       		.byte	0x2
 4517 0b74 39       		.byte	0x39
 4518 0b75 00000000 		.4byte	.LFB66
 4519 0b79 2E000000 		.4byte	.LFE66-.LFB66
 4520 0b7d 01       		.uleb128 0x1
 4521 0b7e 9C       		.byte	0x9c
 4522 0b7f 9E0B0000 		.4byte	0xb9e
 4523 0b83 18       		.uleb128 0x18
ARM GAS  C:\Users\r\AppData\Local\Temp\ccBAatSA.s 			page 100


 4524 0b84 D9050000 		.4byte	.LASF281
 4525 0b88 02       		.byte	0x2
 4526 0b89 39       		.byte	0x39
 4527 0b8a 89000000 		.4byte	0x89
 4528 0b8e 02       		.uleb128 0x2
 4529 0b8f 91       		.byte	0x91
 4530 0b90 6C       		.sleb128 -20
 4531 0b91 1D       		.uleb128 0x1d
 4532 0b92 6900     		.ascii	"i\000"
 4533 0b94 02       		.byte	0x2
 4534 0b95 3F       		.byte	0x3f
 4535 0b96 89000000 		.4byte	0x89
 4536 0b9a 02       		.uleb128 0x2
 4537 0b9b 91       		.byte	0x91
 4538 0b9c 74       		.sleb128 -12
 4539 0b9d 00       		.byte	0
 4540 0b9e 1C       		.uleb128 0x1c
 4541 0b9f 57080000 		.4byte	.LASF283
 4542 0ba3 02       		.byte	0x2
 4543 0ba4 47       		.byte	0x47
 4544 0ba5 00000000 		.4byte	.LFB67
 4545 0ba9 48000000 		.4byte	.LFE67-.LFB67
 4546 0bad 01       		.uleb128 0x1
 4547 0bae 9C       		.byte	0x9c
 4548 0baf D00B0000 		.4byte	0xbd0
 4549 0bb3 1A       		.uleb128 0x1a
 4550 0bb4 E5060000 		.4byte	.LASF284
 4551 0bb8 02       		.byte	0x2
 4552 0bb9 49       		.byte	0x49
 4553 0bba 89000000 		.4byte	0x89
 4554 0bbe 02       		.uleb128 0x2
 4555 0bbf 91       		.byte	0x91
 4556 0bc0 74       		.sleb128 -12
 4557 0bc1 1A       		.uleb128 0x1a
 4558 0bc2 2E100000 		.4byte	.LASF285
 4559 0bc6 02       		.byte	0x2
 4560 0bc7 4D       		.byte	0x4d
 4561 0bc8 89000000 		.4byte	0x89
 4562 0bcc 02       		.uleb128 0x2
 4563 0bcd 91       		.byte	0x91
 4564 0bce 70       		.sleb128 -16
 4565 0bcf 00       		.byte	0
 4566 0bd0 1C       		.uleb128 0x1c
 4567 0bd1 A20B0000 		.4byte	.LASF286
 4568 0bd5 02       		.byte	0x2
 4569 0bd6 56       		.byte	0x56
 4570 0bd7 00000000 		.4byte	.LFB68
 4571 0bdb AC000000 		.4byte	.LFE68-.LFB68
 4572 0bdf 01       		.uleb128 0x1
 4573 0be0 9C       		.byte	0x9c
 4574 0be1 190C0000 		.4byte	0xc19
 4575 0be5 1D       		.uleb128 0x1d
 4576 0be6 495000   		.ascii	"IP\000"
 4577 0be9 02       		.byte	0x2
 4578 0bea 58       		.byte	0x58
 4579 0beb 89000000 		.4byte	0x89
 4580 0bef 02       		.uleb128 0x2
ARM GAS  C:\Users\r\AppData\Local\Temp\ccBAatSA.s 			page 101


 4581 0bf0 91       		.byte	0x91
 4582 0bf1 74       		.sleb128 -12
 4583 0bf2 1D       		.uleb128 0x1d
 4584 0bf3 44535000 		.ascii	"DSP\000"
 4585 0bf7 02       		.byte	0x2
 4586 0bf8 59       		.byte	0x59
 4587 0bf9 89000000 		.4byte	0x89
 4588 0bfd 02       		.uleb128 0x2
 4589 0bfe 91       		.byte	0x91
 4590 0bff 70       		.sleb128 -16
 4591 0c00 1E       		.uleb128 0x1e
 4592 0c01 80000000 		.4byte	.LBB2
 4593 0c05 1C000000 		.4byte	.LBE2-.LBB2
 4594 0c09 1A       		.uleb128 0x1a
 4595 0c0a E5060000 		.4byte	.LASF284
 4596 0c0e 02       		.byte	0x2
 4597 0c0f 6D       		.byte	0x6d
 4598 0c10 89000000 		.4byte	0x89
 4599 0c14 02       		.uleb128 0x2
 4600 0c15 91       		.byte	0x91
 4601 0c16 6C       		.sleb128 -20
 4602 0c17 00       		.byte	0
 4603 0c18 00       		.byte	0
 4604 0c19 1F       		.uleb128 0x1f
 4605 0c1a 9F080000 		.4byte	.LASF332
 4606 0c1e 02       		.byte	0x2
 4607 0c1f 75       		.byte	0x75
 4608 0c20 00000000 		.4byte	.LFB69
 4609 0c24 58010000 		.4byte	.LFE69-.LFB69
 4610 0c28 01       		.uleb128 0x1
 4611 0c29 9C       		.byte	0x9c
 4612 0c2a 7F0C0000 		.4byte	0xc7f
 4613 0c2e 1D       		.uleb128 0x1d
 4614 0c2f 6C626100 		.ascii	"lba\000"
 4615 0c33 02       		.byte	0x2
 4616 0c34 77       		.byte	0x77
 4617 0c35 B8000000 		.4byte	0xb8
 4618 0c39 02       		.uleb128 0x2
 4619 0c3a 91       		.byte	0x91
 4620 0c3b 74       		.sleb128 -12
 4621 0c3c 1D       		.uleb128 0x1d
 4622 0c3d 706D6900 		.ascii	"pmi\000"
 4623 0c41 02       		.byte	0x2
 4624 0c42 7B       		.byte	0x7b
 4625 0c43 89000000 		.4byte	0x89
 4626 0c47 02       		.uleb128 0x2
 4627 0c48 91       		.byte	0x91
 4628 0c49 70       		.sleb128 -16
 4629 0c4a 1A       		.uleb128 0x1a
 4630 0c4b 78060000 		.4byte	.LASF287
 4631 0c4f 02       		.byte	0x2
 4632 0c50 7D       		.byte	0x7d
 4633 0c51 B8000000 		.4byte	0xb8
 4634 0c55 02       		.uleb128 0x2
 4635 0c56 91       		.byte	0x91
 4636 0c57 6C       		.sleb128 -20
 4637 0c58 1E       		.uleb128 0x1e
ARM GAS  C:\Users\r\AppData\Local\Temp\ccBAatSA.s 			page 102


 4638 0c59 A4000000 		.4byte	.LBB3
 4639 0c5d 7E000000 		.4byte	.LBE3-.LBB3
 4640 0c61 1A       		.uleb128 0x1a
 4641 0c62 3C180000 		.4byte	.LASF288
 4642 0c66 02       		.byte	0x2
 4643 0c67 8F       		.byte	0x8f
 4644 0c68 B8000000 		.4byte	0xb8
 4645 0c6c 02       		.uleb128 0x2
 4646 0c6d 91       		.byte	0x91
 4647 0c6e 68       		.sleb128 -24
 4648 0c6f 1A       		.uleb128 0x1a
 4649 0c70 4D110000 		.4byte	.LASF47
 4650 0c74 02       		.byte	0x2
 4651 0c75 96       		.byte	0x96
 4652 0c76 B8000000 		.4byte	0xb8
 4653 0c7a 02       		.uleb128 0x2
 4654 0c7b 91       		.byte	0x91
 4655 0c7c 64       		.sleb128 -28
 4656 0c7d 00       		.byte	0
 4657 0c7e 00       		.byte	0
 4658 0c7f 1C       		.uleb128 0x1c
 4659 0c80 E80B0000 		.4byte	.LASF289
 4660 0c84 02       		.byte	0x2
 4661 0c85 A7       		.byte	0xa7
 4662 0c86 00000000 		.4byte	.LFB70
 4663 0c8a 78010000 		.4byte	.LFE70-.LFB70
 4664 0c8e 01       		.uleb128 0x1
 4665 0c8f 9C       		.byte	0x9c
 4666 0c90 E50C0000 		.4byte	0xce5
 4667 0c94 20       		.uleb128 0x20
 4668 0c95 6C626100 		.ascii	"lba\000"
 4669 0c99 02       		.byte	0x2
 4670 0c9a A7       		.byte	0xa7
 4671 0c9b DB000000 		.4byte	0xdb
 4672 0c9f 02       		.uleb128 0x2
 4673 0ca0 91       		.byte	0x91
 4674 0ca1 54       		.sleb128 -44
 4675 0ca2 18       		.uleb128 0x18
 4676 0ca3 A4160000 		.4byte	.LASF276
 4677 0ca7 02       		.byte	0x2
 4678 0ca8 A7       		.byte	0xa7
 4679 0ca9 DB000000 		.4byte	0xdb
 4680 0cad 02       		.uleb128 0x2
 4681 0cae 91       		.byte	0x91
 4682 0caf 50       		.sleb128 -48
 4683 0cb0 1A       		.uleb128 0x1a
 4684 0cb1 4D110000 		.4byte	.LASF47
 4685 0cb5 02       		.byte	0x2
 4686 0cb6 AF       		.byte	0xaf
 4687 0cb7 B8000000 		.4byte	0xb8
 4688 0cbb 02       		.uleb128 0x2
 4689 0cbc 91       		.byte	0x91
 4690 0cbd 64       		.sleb128 -28
 4691 0cbe 1E       		.uleb128 0x1e
 4692 0cbf F6000000 		.4byte	.LBB4
 4693 0cc3 6C000000 		.4byte	.LBE4-.LBB4
 4694 0cc7 1A       		.uleb128 0x1a
ARM GAS  C:\Users\r\AppData\Local\Temp\ccBAatSA.s 			page 103


 4695 0cc8 3F020000 		.4byte	.LASF290
 4696 0ccc 02       		.byte	0x2
 4697 0ccd D5       		.byte	0xd5
 4698 0cce B8000000 		.4byte	0xb8
 4699 0cd2 02       		.uleb128 0x2
 4700 0cd3 91       		.byte	0x91
 4701 0cd4 60       		.sleb128 -32
 4702 0cd5 1A       		.uleb128 0x1a
 4703 0cd6 D0050000 		.4byte	.LASF291
 4704 0cda 02       		.byte	0x2
 4705 0cdb DA       		.byte	0xda
 4706 0cdc B8000000 		.4byte	0xb8
 4707 0ce0 02       		.uleb128 0x2
 4708 0ce1 91       		.byte	0x91
 4709 0ce2 5C       		.sleb128 -36
 4710 0ce3 00       		.byte	0
 4711 0ce4 00       		.byte	0
 4712 0ce5 1C       		.uleb128 0x1c
 4713 0ce6 CB010000 		.4byte	.LASF292
 4714 0cea 02       		.byte	0x2
 4715 0ceb E0       		.byte	0xe0
 4716 0cec 00000000 		.4byte	.LFB71
 4717 0cf0 5C010000 		.4byte	.LFE71-.LFB71
 4718 0cf4 01       		.uleb128 0x1
 4719 0cf5 9C       		.byte	0x9c
 4720 0cf6 6E0D0000 		.4byte	0xd6e
 4721 0cfa 20       		.uleb128 0x20
 4722 0cfb 6C626100 		.ascii	"lba\000"
 4723 0cff 02       		.byte	0x2
 4724 0d00 E0       		.byte	0xe0
 4725 0d01 DB000000 		.4byte	0xdb
 4726 0d05 02       		.uleb128 0x2
 4727 0d06 91       		.byte	0x91
 4728 0d07 54       		.sleb128 -44
 4729 0d08 18       		.uleb128 0x18
 4730 0d09 A4160000 		.4byte	.LASF276
 4731 0d0d 02       		.byte	0x2
 4732 0d0e E0       		.byte	0xe0
 4733 0d0f DB000000 		.4byte	0xdb
 4734 0d13 02       		.uleb128 0x2
 4735 0d14 91       		.byte	0x91
 4736 0d15 50       		.sleb128 -48
 4737 0d16 1A       		.uleb128 0x1a
 4738 0d17 78060000 		.4byte	.LASF287
 4739 0d1b 02       		.byte	0x2
 4740 0d1c E8       		.byte	0xe8
 4741 0d1d B8000000 		.4byte	0xb8
 4742 0d21 02       		.uleb128 0x2
 4743 0d22 91       		.byte	0x91
 4744 0d23 6C       		.sleb128 -20
 4745 0d24 21       		.uleb128 0x21
 4746 0d25 00000000 		.4byte	.Ldebug_ranges0+0
 4747 0d29 1A       		.uleb128 0x1a
 4748 0d2a 4D110000 		.4byte	.LASF47
 4749 0d2e 02       		.byte	0x2
 4750 0d2f FB       		.byte	0xfb
 4751 0d30 B8000000 		.4byte	0xb8
ARM GAS  C:\Users\r\AppData\Local\Temp\ccBAatSA.s 			page 104


 4752 0d34 02       		.uleb128 0x2
 4753 0d35 91       		.byte	0x91
 4754 0d36 68       		.sleb128 -24
 4755 0d37 1A       		.uleb128 0x1a
 4756 0d38 0A080000 		.4byte	.LASF293
 4757 0d3c 02       		.byte	0x2
 4758 0d3d FC       		.byte	0xfc
 4759 0d3e B8000000 		.4byte	0xb8
 4760 0d42 02       		.uleb128 0x2
 4761 0d43 91       		.byte	0x91
 4762 0d44 64       		.sleb128 -28
 4763 0d45 1A       		.uleb128 0x1a
 4764 0d46 2F000000 		.4byte	.LASF294
 4765 0d4a 02       		.byte	0x2
 4766 0d4b FD       		.byte	0xfd
 4767 0d4c B8000000 		.4byte	0xb8
 4768 0d50 02       		.uleb128 0x2
 4769 0d51 91       		.byte	0x91
 4770 0d52 60       		.sleb128 -32
 4771 0d53 1E       		.uleb128 0x1e
 4772 0d54 26010000 		.4byte	.LBB6
 4773 0d58 24000000 		.4byte	.LBE6-.LBB6
 4774 0d5c 22       		.uleb128 0x22
 4775 0d5d 3F020000 		.4byte	.LASF290
 4776 0d61 02       		.byte	0x2
 4777 0d62 0F01     		.2byte	0x10f
 4778 0d64 B8000000 		.4byte	0xb8
 4779 0d68 02       		.uleb128 0x2
 4780 0d69 91       		.byte	0x91
 4781 0d6a 5C       		.sleb128 -36
 4782 0d6b 00       		.byte	0
 4783 0d6c 00       		.byte	0
 4784 0d6d 00       		.byte	0
 4785 0d6e 23       		.uleb128 0x23
 4786 0d6f A7120000 		.4byte	.LASF295
 4787 0d73 02       		.byte	0x2
 4788 0d74 1A01     		.2byte	0x11a
 4789 0d76 00000000 		.4byte	.LFB72
 4790 0d7a 68000000 		.4byte	.LFE72-.LFB72
 4791 0d7e 01       		.uleb128 0x1
 4792 0d7f 9C       		.byte	0x9c
 4793 0d80 940D0000 		.4byte	0xd94
 4794 0d84 24       		.uleb128 0x24
 4795 0d85 6C626100 		.ascii	"lba\000"
 4796 0d89 02       		.byte	0x2
 4797 0d8a 1A01     		.2byte	0x11a
 4798 0d8c DB000000 		.4byte	0xdb
 4799 0d90 02       		.uleb128 0x2
 4800 0d91 91       		.byte	0x91
 4801 0d92 74       		.sleb128 -12
 4802 0d93 00       		.byte	0
 4803 0d94 25       		.uleb128 0x25
 4804 0d95 18150000 		.4byte	.LASF296
 4805 0d99 02       		.byte	0x2
 4806 0d9a 2E01     		.2byte	0x12e
 4807 0d9c 89000000 		.4byte	0x89
 4808 0da0 00000000 		.4byte	.LFB73
ARM GAS  C:\Users\r\AppData\Local\Temp\ccBAatSA.s 			page 105


 4809 0da4 F4000000 		.4byte	.LFE73-.LFB73
 4810 0da8 01       		.uleb128 0x1
 4811 0da9 9C       		.byte	0x9c
 4812 0daa BE0D0000 		.4byte	0xdbe
 4813 0dae 22       		.uleb128 0x22
 4814 0daf B9040000 		.4byte	.LASF297
 4815 0db3 02       		.byte	0x2
 4816 0db4 3001     		.2byte	0x130
 4817 0db6 89000000 		.4byte	0x89
 4818 0dba 02       		.uleb128 0x2
 4819 0dbb 91       		.byte	0x91
 4820 0dbc 74       		.sleb128 -12
 4821 0dbd 00       		.byte	0
 4822 0dbe 26       		.uleb128 0x26
 4823 0dbf 49140000 		.4byte	.LASF333
 4824 0dc3 02       		.byte	0x2
 4825 0dc4 5101     		.2byte	0x151
 4826 0dc6 89000000 		.4byte	0x89
 4827 0dca 00000000 		.4byte	.LFB74
 4828 0dce 5C040000 		.4byte	.LFE74-.LFB74
 4829 0dd2 01       		.uleb128 0x1
 4830 0dd3 9C       		.byte	0x9c
 4831 0dd4 170F0000 		.4byte	0xf17
 4832 0dd8 22       		.uleb128 0x22
 4833 0dd9 D4180000 		.4byte	.LASF298
 4834 0ddd 02       		.byte	0x2
 4835 0dde 5301     		.2byte	0x153
 4836 0de0 89000000 		.4byte	0x89
 4837 0de4 02       		.uleb128 0x2
 4838 0de5 91       		.byte	0x91
 4839 0de6 74       		.sleb128 -12
 4840 0de7 22       		.uleb128 0x22
 4841 0de8 0E120000 		.4byte	.LASF299
 4842 0dec 02       		.byte	0x2
 4843 0ded 5501     		.2byte	0x155
 4844 0def C3000000 		.4byte	0xc3
 4845 0df3 02       		.uleb128 0x2
 4846 0df4 91       		.byte	0x91
 4847 0df5 6B       		.sleb128 -21
 4848 0df6 27       		.uleb128 0x27
 4849 0df7 2A000000 		.4byte	.LBB8
 4850 0dfb 44000000 		.4byte	.LBE8-.LBB8
 4851 0dff 130E0000 		.4byte	0xe13
 4852 0e03 22       		.uleb128 0x22
 4853 0e04 39000000 		.4byte	.LASF300
 4854 0e08 02       		.byte	0x2
 4855 0e09 5C01     		.2byte	0x15c
 4856 0e0b 89000000 		.4byte	0x89
 4857 0e0f 02       		.uleb128 0x2
 4858 0e10 91       		.byte	0x91
 4859 0e11 64       		.sleb128 -28
 4860 0e12 00       		.byte	0
 4861 0e13 27       		.uleb128 0x27
 4862 0e14 AE000000 		.4byte	.LBB9
 4863 0e18 56000000 		.4byte	.LBE9-.LBB9
 4864 0e1c 3F0E0000 		.4byte	0xe3f
 4865 0e20 28       		.uleb128 0x28
ARM GAS  C:\Users\r\AppData\Local\Temp\ccBAatSA.s 			page 106


 4866 0e21 6C626100 		.ascii	"lba\000"
 4867 0e25 02       		.byte	0x2
 4868 0e26 7701     		.2byte	0x177
 4869 0e28 DB000000 		.4byte	0xdb
 4870 0e2c 02       		.uleb128 0x2
 4871 0e2d 91       		.byte	0x91
 4872 0e2e 60       		.sleb128 -32
 4873 0e2f 22       		.uleb128 0x22
 4874 0e30 A4160000 		.4byte	.LASF276
 4875 0e34 02       		.byte	0x2
 4876 0e35 7B01     		.2byte	0x17b
 4877 0e37 DB000000 		.4byte	0xdb
 4878 0e3b 02       		.uleb128 0x2
 4879 0e3c 91       		.byte	0x91
 4880 0e3d 70       		.sleb128 -16
 4881 0e3e 00       		.byte	0
 4882 0e3f 27       		.uleb128 0x27
 4883 0e40 18010000 		.4byte	.LBB10
 4884 0e44 58000000 		.4byte	.LBE10-.LBB10
 4885 0e48 6B0E0000 		.4byte	0xe6b
 4886 0e4c 28       		.uleb128 0x28
 4887 0e4d 6C626100 		.ascii	"lba\000"
 4888 0e51 02       		.byte	0x2
 4889 0e52 8401     		.2byte	0x184
 4890 0e54 DB000000 		.4byte	0xdb
 4891 0e58 02       		.uleb128 0x2
 4892 0e59 91       		.byte	0x91
 4893 0e5a 5C       		.sleb128 -36
 4894 0e5b 22       		.uleb128 0x22
 4895 0e5c A4160000 		.4byte	.LASF276
 4896 0e60 02       		.byte	0x2
 4897 0e61 8901     		.2byte	0x189
 4898 0e63 DB000000 		.4byte	0xdb
 4899 0e67 02       		.uleb128 0x2
 4900 0e68 91       		.byte	0x91
 4901 0e69 58       		.sleb128 -40
 4902 0e6a 00       		.byte	0
 4903 0e6b 27       		.uleb128 0x27
 4904 0e6c 84010000 		.4byte	.LBB11
 4905 0e70 56000000 		.4byte	.LBE11-.LBB11
 4906 0e74 970E0000 		.4byte	0xe97
 4907 0e78 28       		.uleb128 0x28
 4908 0e79 6C626100 		.ascii	"lba\000"
 4909 0e7d 02       		.byte	0x2
 4910 0e7e 9201     		.2byte	0x192
 4911 0e80 DB000000 		.4byte	0xdb
 4912 0e84 02       		.uleb128 0x2
 4913 0e85 91       		.byte	0x91
 4914 0e86 54       		.sleb128 -44
 4915 0e87 22       		.uleb128 0x22
 4916 0e88 A4160000 		.4byte	.LASF276
 4917 0e8c 02       		.byte	0x2
 4918 0e8d 9601     		.2byte	0x196
 4919 0e8f DB000000 		.4byte	0xdb
 4920 0e93 02       		.uleb128 0x2
 4921 0e94 91       		.byte	0x91
 4922 0e95 6C       		.sleb128 -20
ARM GAS  C:\Users\r\AppData\Local\Temp\ccBAatSA.s 			page 107


 4923 0e96 00       		.byte	0
 4924 0e97 27       		.uleb128 0x27
 4925 0e98 00020000 		.4byte	.LBB12
 4926 0e9c 58000000 		.4byte	.LBE12-.LBB12
 4927 0ea0 C30E0000 		.4byte	0xec3
 4928 0ea4 28       		.uleb128 0x28
 4929 0ea5 6C626100 		.ascii	"lba\000"
 4930 0ea9 02       		.byte	0x2
 4931 0eaa A101     		.2byte	0x1a1
 4932 0eac DB000000 		.4byte	0xdb
 4933 0eb0 02       		.uleb128 0x2
 4934 0eb1 91       		.byte	0x91
 4935 0eb2 44       		.sleb128 -60
 4936 0eb3 22       		.uleb128 0x22
 4937 0eb4 A4160000 		.4byte	.LASF276
 4938 0eb8 02       		.byte	0x2
 4939 0eb9 A601     		.2byte	0x1a6
 4940 0ebb DB000000 		.4byte	0xdb
 4941 0ebf 02       		.uleb128 0x2
 4942 0ec0 91       		.byte	0x91
 4943 0ec1 40       		.sleb128 -64
 4944 0ec2 00       		.byte	0
 4945 0ec3 27       		.uleb128 0x27
 4946 0ec4 6C020000 		.4byte	.LBB13
 4947 0ec8 50000000 		.4byte	.LBE13-.LBB13
 4948 0ecc E00E0000 		.4byte	0xee0
 4949 0ed0 22       		.uleb128 0x22
 4950 0ed1 12000000 		.4byte	.LASF301
 4951 0ed5 02       		.byte	0x2
 4952 0ed6 B301     		.2byte	0x1b3
 4953 0ed8 89000000 		.4byte	0x89
 4954 0edc 02       		.uleb128 0x2
 4955 0edd 91       		.byte	0x91
 4956 0ede 50       		.sleb128 -48
 4957 0edf 00       		.byte	0
 4958 0ee0 27       		.uleb128 0x27
 4959 0ee1 E6020000 		.4byte	.LBB14
 4960 0ee5 32000000 		.4byte	.LBE14-.LBB14
 4961 0ee9 FD0E0000 		.4byte	0xefd
 4962 0eed 28       		.uleb128 0x28
 4963 0eee 6C626100 		.ascii	"lba\000"
 4964 0ef2 02       		.byte	0x2
 4965 0ef3 C901     		.2byte	0x1c9
 4966 0ef5 DB000000 		.4byte	0xdb
 4967 0ef9 02       		.uleb128 0x2
 4968 0efa 91       		.byte	0x91
 4969 0efb 4C       		.sleb128 -52
 4970 0efc 00       		.byte	0
 4971 0efd 1E       		.uleb128 0x1e
 4972 0efe 2C030000 		.4byte	.LBB15
 4973 0f02 3C000000 		.4byte	.LBE15-.LBB15
 4974 0f06 28       		.uleb128 0x28
 4975 0f07 6C626100 		.ascii	"lba\000"
 4976 0f0b 02       		.byte	0x2
 4977 0f0c D401     		.2byte	0x1d4
 4978 0f0e DB000000 		.4byte	0xdb
 4979 0f12 02       		.uleb128 0x2
ARM GAS  C:\Users\r\AppData\Local\Temp\ccBAatSA.s 			page 108


 4980 0f13 91       		.byte	0x91
 4981 0f14 48       		.sleb128 -56
 4982 0f15 00       		.byte	0
 4983 0f16 00       		.byte	0
 4984 0f17 29       		.uleb128 0x29
 4985 0f18 4B150000 		.4byte	.LASF334
 4986 0f1c 02       		.byte	0x2
 4987 0f1d 1B02     		.2byte	0x21b
 4988 0f1f 00000000 		.4byte	.LFB75
 4989 0f23 C0060000 		.4byte	.LFE75-.LFB75
 4990 0f27 01       		.uleb128 0x1
 4991 0f28 9C       		.byte	0x9c
 4992 0f29 68110000 		.4byte	0x1168
 4993 0f2d 22       		.uleb128 0x22
 4994 0f2e 4D110000 		.4byte	.LASF47
 4995 0f32 02       		.byte	0x2
 4996 0f33 1D02     		.2byte	0x21d
 4997 0f35 B8000000 		.4byte	0xb8
 4998 0f39 03       		.uleb128 0x3
 4999 0f3a 91       		.byte	0x91
 5000 0f3b A47F     		.sleb128 -92
 5001 0f3d 27       		.uleb128 0x27
 5002 0f3e 28000000 		.4byte	.LBB16
 5003 0f42 28020000 		.4byte	.LBE16-.LBB16
 5004 0f46 24100000 		.4byte	0x1024
 5005 0f4a 22       		.uleb128 0x22
 5006 0f4b 6A070000 		.4byte	.LASF302
 5007 0f4f 02       		.byte	0x2
 5008 0f50 2402     		.2byte	0x224
 5009 0f52 89000000 		.4byte	0x89
 5010 0f56 03       		.uleb128 0x3
 5011 0f57 91       		.byte	0x91
 5012 0f58 A07F     		.sleb128 -96
 5013 0f5a 22       		.uleb128 0x22
 5014 0f5b 3F020000 		.4byte	.LASF290
 5015 0f5f 02       		.byte	0x2
 5016 0f60 2602     		.2byte	0x226
 5017 0f62 B8000000 		.4byte	0xb8
 5018 0f66 03       		.uleb128 0x3
 5019 0f67 91       		.byte	0x91
 5020 0f68 9C7F     		.sleb128 -100
 5021 0f6a 22       		.uleb128 0x22
 5022 0f6b B50B0000 		.4byte	.LASF303
 5023 0f6f 02       		.byte	0x2
 5024 0f70 2C02     		.2byte	0x22c
 5025 0f72 68110000 		.4byte	0x1168
 5026 0f76 03       		.uleb128 0x3
 5027 0f77 91       		.byte	0x91
 5028 0f78 987F     		.sleb128 -104
 5029 0f7a 22       		.uleb128 0x22
 5030 0f7b 37130000 		.4byte	.LASF304
 5031 0f7f 02       		.byte	0x2
 5032 0f80 2D02     		.2byte	0x22d
 5033 0f82 89000000 		.4byte	0x89
 5034 0f86 03       		.uleb128 0x3
 5035 0f87 91       		.byte	0x91
 5036 0f88 947F     		.sleb128 -108
ARM GAS  C:\Users\r\AppData\Local\Temp\ccBAatSA.s 			page 109


 5037 0f8a 22       		.uleb128 0x22
 5038 0f8b B1180000 		.4byte	.LASF305
 5039 0f8f 02       		.byte	0x2
 5040 0f90 2E02     		.2byte	0x22e
 5041 0f92 89000000 		.4byte	0x89
 5042 0f96 02       		.uleb128 0x2
 5043 0f97 91       		.byte	0x91
 5044 0f98 6C       		.sleb128 -20
 5045 0f99 28       		.uleb128 0x28
 5046 0f9a 6900     		.ascii	"i\000"
 5047 0f9c 02       		.byte	0x2
 5048 0f9d 2F02     		.2byte	0x22f
 5049 0f9f 89000000 		.4byte	0x89
 5050 0fa3 02       		.uleb128 0x2
 5051 0fa4 91       		.byte	0x91
 5052 0fa5 68       		.sleb128 -24
 5053 0fa6 22       		.uleb128 0x22
 5054 0fa7 11170000 		.4byte	.LASF306
 5055 0fab 02       		.byte	0x2
 5056 0fac 3002     		.2byte	0x230
 5057 0fae 89000000 		.4byte	0x89
 5058 0fb2 02       		.uleb128 0x2
 5059 0fb3 91       		.byte	0x91
 5060 0fb4 64       		.sleb128 -28
 5061 0fb5 22       		.uleb128 0x22
 5062 0fb6 CA170000 		.4byte	.LASF307
 5063 0fba 02       		.byte	0x2
 5064 0fbb 3102     		.2byte	0x231
 5065 0fbd 89000000 		.4byte	0x89
 5066 0fc1 02       		.uleb128 0x2
 5067 0fc2 91       		.byte	0x91
 5068 0fc3 60       		.sleb128 -32
 5069 0fc4 1E       		.uleb128 0x1e
 5070 0fc5 7E000000 		.4byte	.LBB17
 5071 0fc9 8A010000 		.4byte	.LBE17-.LBB17
 5072 0fcd 22       		.uleb128 0x22
 5073 0fce B4150000 		.4byte	.LASF308
 5074 0fd2 02       		.byte	0x2
 5075 0fd3 3902     		.2byte	0x239
 5076 0fd5 89000000 		.4byte	0x89
 5077 0fd9 02       		.uleb128 0x2
 5078 0fda 91       		.byte	0x91
 5079 0fdb 5C       		.sleb128 -36
 5080 0fdc 22       		.uleb128 0x22
 5081 0fdd C0080000 		.4byte	.LASF309
 5082 0fe1 02       		.byte	0x2
 5083 0fe2 3A02     		.2byte	0x23a
 5084 0fe4 89000000 		.4byte	0x89
 5085 0fe8 02       		.uleb128 0x2
 5086 0fe9 91       		.byte	0x91
 5087 0fea 58       		.sleb128 -40
 5088 0feb 27       		.uleb128 0x27
 5089 0fec 88000000 		.4byte	.LBB18
 5090 0ff0 56000000 		.4byte	.LBE18-.LBB18
 5091 0ff4 09100000 		.4byte	0x1009
 5092 0ff8 22       		.uleb128 0x22
 5093 0ff9 8A030000 		.4byte	.LASF310
ARM GAS  C:\Users\r\AppData\Local\Temp\ccBAatSA.s 			page 110


 5094 0ffd 02       		.byte	0x2
 5095 0ffe 3D02     		.2byte	0x23d
 5096 1000 97000000 		.4byte	0x97
 5097 1004 03       		.uleb128 0x3
 5098 1005 91       		.byte	0x91
 5099 1006 937F     		.sleb128 -109
 5100 1008 00       		.byte	0
 5101 1009 1E       		.uleb128 0x1e
 5102 100a AC010000 		.4byte	.LBB19
 5103 100e 5C000000 		.4byte	.LBE19-.LBB19
 5104 1012 22       		.uleb128 0x22
 5105 1013 02100000 		.4byte	.LASF311
 5106 1017 02       		.byte	0x2
 5107 1018 6802     		.2byte	0x268
 5108 101a 89000000 		.4byte	0x89
 5109 101e 02       		.uleb128 0x2
 5110 101f 91       		.byte	0x91
 5111 1020 54       		.sleb128 -44
 5112 1021 00       		.byte	0
 5113 1022 00       		.byte	0
 5114 1023 00       		.byte	0
 5115 1024 1E       		.uleb128 0x1e
 5116 1025 6E020000 		.4byte	.LBB20
 5117 1029 44040000 		.4byte	.LBE20-.LBB20
 5118 102d 22       		.uleb128 0x22
 5119 102e B50B0000 		.4byte	.LASF303
 5120 1032 02       		.byte	0x2
 5121 1033 7D02     		.2byte	0x27d
 5122 1035 68110000 		.4byte	0x1168
 5123 1039 03       		.uleb128 0x3
 5124 103a 91       		.byte	0x91
 5125 103b 8C7F     		.sleb128 -116
 5126 103d 22       		.uleb128 0x22
 5127 103e 6A070000 		.4byte	.LASF302
 5128 1042 02       		.byte	0x2
 5129 1043 7E02     		.2byte	0x27e
 5130 1045 89000000 		.4byte	0x89
 5131 1049 03       		.uleb128 0x3
 5132 104a 91       		.byte	0x91
 5133 104b 887F     		.sleb128 -120
 5134 104d 22       		.uleb128 0x22
 5135 104e 37130000 		.4byte	.LASF304
 5136 1052 02       		.byte	0x2
 5137 1053 7F02     		.2byte	0x27f
 5138 1055 89000000 		.4byte	0x89
 5139 1059 03       		.uleb128 0x3
 5140 105a 91       		.byte	0x91
 5141 105b 847F     		.sleb128 -124
 5142 105d 22       		.uleb128 0x22
 5143 105e B1180000 		.4byte	.LASF305
 5144 1062 02       		.byte	0x2
 5145 1063 8002     		.2byte	0x280
 5146 1065 89000000 		.4byte	0x89
 5147 1069 02       		.uleb128 0x2
 5148 106a 91       		.byte	0x91
 5149 106b 50       		.sleb128 -48
 5150 106c 28       		.uleb128 0x28
ARM GAS  C:\Users\r\AppData\Local\Temp\ccBAatSA.s 			page 111


 5151 106d 6900     		.ascii	"i\000"
 5152 106f 02       		.byte	0x2
 5153 1070 8102     		.2byte	0x281
 5154 1072 89000000 		.4byte	0x89
 5155 1076 02       		.uleb128 0x2
 5156 1077 91       		.byte	0x91
 5157 1078 4C       		.sleb128 -52
 5158 1079 22       		.uleb128 0x22
 5159 107a 66120000 		.4byte	.LASF312
 5160 107e 02       		.byte	0x2
 5161 107f 8202     		.2byte	0x282
 5162 1081 89000000 		.4byte	0x89
 5163 1085 02       		.uleb128 0x2
 5164 1086 91       		.byte	0x91
 5165 1087 48       		.sleb128 -56
 5166 1088 22       		.uleb128 0x22
 5167 1089 A8070000 		.4byte	.LASF313
 5168 108d 02       		.byte	0x2
 5169 108e 8302     		.2byte	0x283
 5170 1090 89000000 		.4byte	0x89
 5171 1094 02       		.uleb128 0x2
 5172 1095 91       		.byte	0x91
 5173 1096 44       		.sleb128 -60
 5174 1097 22       		.uleb128 0x22
 5175 1098 5A000000 		.4byte	.LASF314
 5176 109c 02       		.byte	0x2
 5177 109d 8402     		.2byte	0x284
 5178 109f 89000000 		.4byte	0x89
 5179 10a3 02       		.uleb128 0x2
 5180 10a4 91       		.byte	0x91
 5181 10a5 40       		.sleb128 -64
 5182 10a6 22       		.uleb128 0x22
 5183 10a7 BF050000 		.4byte	.LASF315
 5184 10ab 02       		.byte	0x2
 5185 10ac 8502     		.2byte	0x285
 5186 10ae B8000000 		.4byte	0xb8
 5187 10b2 03       		.uleb128 0x3
 5188 10b3 91       		.byte	0x91
 5189 10b4 BC7F     		.sleb128 -68
 5190 10b6 22       		.uleb128 0x22
 5191 10b7 11170000 		.4byte	.LASF306
 5192 10bb 02       		.byte	0x2
 5193 10bc 8602     		.2byte	0x286
 5194 10be 89000000 		.4byte	0x89
 5195 10c2 03       		.uleb128 0x3
 5196 10c3 91       		.byte	0x91
 5197 10c4 B87F     		.sleb128 -72
 5198 10c6 22       		.uleb128 0x22
 5199 10c7 CA170000 		.4byte	.LASF307
 5200 10cb 02       		.byte	0x2
 5201 10cc 8702     		.2byte	0x287
 5202 10ce 89000000 		.4byte	0x89
 5203 10d2 03       		.uleb128 0x3
 5204 10d3 91       		.byte	0x91
 5205 10d4 B47F     		.sleb128 -76
 5206 10d6 1E       		.uleb128 0x1e
 5207 10d7 CC020000 		.4byte	.LBB21
ARM GAS  C:\Users\r\AppData\Local\Temp\ccBAatSA.s 			page 112


 5208 10db FE020000 		.4byte	.LBE21-.LBB21
 5209 10df 22       		.uleb128 0x22
 5210 10e0 B4150000 		.4byte	.LASF308
 5211 10e4 02       		.byte	0x2
 5212 10e5 9102     		.2byte	0x291
 5213 10e7 89000000 		.4byte	0x89
 5214 10eb 03       		.uleb128 0x3
 5215 10ec 91       		.byte	0x91
 5216 10ed B07F     		.sleb128 -80
 5217 10ef 22       		.uleb128 0x22
 5218 10f0 C0080000 		.4byte	.LASF309
 5219 10f4 02       		.byte	0x2
 5220 10f5 9202     		.2byte	0x292
 5221 10f7 89000000 		.4byte	0x89
 5222 10fb 03       		.uleb128 0x3
 5223 10fc 91       		.byte	0x91
 5224 10fd AC7F     		.sleb128 -84
 5225 10ff 28       		.uleb128 0x28
 5226 1100 6E6F7700 		.ascii	"now\000"
 5227 1104 02       		.byte	0x2
 5228 1105 AB02     		.2byte	0x2ab
 5229 1107 B8000000 		.4byte	0xb8
 5230 110b 03       		.uleb128 0x3
 5231 110c 91       		.byte	0x91
 5232 110d FC7E     		.sleb128 -132
 5233 110f 27       		.uleb128 0x27
 5234 1110 D6020000 		.4byte	.LBB22
 5235 1114 56000000 		.4byte	.LBE22-.LBB22
 5236 1118 2D110000 		.4byte	0x112d
 5237 111c 22       		.uleb128 0x22
 5238 111d 8A030000 		.4byte	.LASF310
 5239 1121 02       		.byte	0x2
 5240 1122 9502     		.2byte	0x295
 5241 1124 97000000 		.4byte	0x97
 5242 1128 03       		.uleb128 0x3
 5243 1129 91       		.byte	0x91
 5244 112a 837F     		.sleb128 -125
 5245 112c 00       		.byte	0
 5246 112d 27       		.uleb128 0x27
 5247 112e E2030000 		.4byte	.LBB23
 5248 1132 5C000000 		.4byte	.LBE23-.LBB23
 5249 1136 4B110000 		.4byte	0x114b
 5250 113a 22       		.uleb128 0x22
 5251 113b 02100000 		.4byte	.LASF311
 5252 113f 02       		.byte	0x2
 5253 1140 B802     		.2byte	0x2b8
 5254 1142 89000000 		.4byte	0x89
 5255 1146 03       		.uleb128 0x3
 5256 1147 91       		.byte	0x91
 5257 1148 A87F     		.sleb128 -88
 5258 114a 00       		.byte	0
 5259 114b 1E       		.uleb128 0x1e
 5260 114c E8040000 		.4byte	.LBB24
 5261 1150 38000000 		.4byte	.LBE24-.LBB24
 5262 1154 22       		.uleb128 0x22
 5263 1155 630A0000 		.4byte	.LASF316
 5264 1159 02       		.byte	0x2
ARM GAS  C:\Users\r\AppData\Local\Temp\ccBAatSA.s 			page 113


 5265 115a DC02     		.2byte	0x2dc
 5266 115c 89000000 		.4byte	0x89
 5267 1160 03       		.uleb128 0x3
 5268 1161 91       		.byte	0x91
 5269 1162 F87E     		.sleb128 -136
 5270 1164 00       		.byte	0
 5271 1165 00       		.byte	0
 5272 1166 00       		.byte	0
 5273 1167 00       		.byte	0
 5274 1168 16       		.uleb128 0x16
 5275 1169 89000000 		.4byte	0x89
 5276 116d 2A       		.uleb128 0x2a
 5277 116e D3170000 		.4byte	.LASF317
 5278 1172 02       		.byte	0x2
 5279 1173 2203     		.2byte	0x322
 5280 1175 00000000 		.4byte	.LFB76
 5281 1179 60000000 		.4byte	.LFE76-.LFB76
 5282 117d 01       		.uleb128 0x1
 5283 117e 9C       		.byte	0x9c
 5284 117f 2A       		.uleb128 0x2a
 5285 1180 F80C0000 		.4byte	.LASF318
 5286 1184 02       		.byte	0x2
 5287 1185 3703     		.2byte	0x337
 5288 1187 00000000 		.4byte	.LFB77
 5289 118b 18000000 		.4byte	.LFE77-.LFB77
 5290 118f 01       		.uleb128 0x1
 5291 1190 9C       		.byte	0x9c
 5292 1191 2B       		.uleb128 0x2b
 5293 1192 8A0D0000 		.4byte	.LASF319
 5294 1196 0A       		.byte	0xa
 5295 1197 1207     		.2byte	0x712
 5296 1199 9D110000 		.4byte	0x119d
 5297 119d 0A       		.uleb128 0xa
 5298 119e AD000000 		.4byte	0xad
 5299 11a2 2C       		.uleb128 0x2c
 5300 11a3 B9100000 		.4byte	.LASF320
 5301 11a7 0B       		.byte	0xb
 5302 11a8 40       		.byte	0x40
 5303 11a9 39010000 		.4byte	0x139
 5304 11ad 2C       		.uleb128 0x2c
 5305 11ae 45020000 		.4byte	.LASF321
 5306 11b2 0B       		.byte	0xb
 5307 11b3 41       		.byte	0x41
 5308 11b4 39010000 		.4byte	0x139
 5309 11b8 2C       		.uleb128 0x2c
 5310 11b9 840E0000 		.4byte	.LASF322
 5311 11bd 08       		.byte	0x8
 5312 11be 9F       		.byte	0x9f
 5313 11bf 790A0000 		.4byte	0xa79
 5314 11c3 2C       		.uleb128 0x2c
 5315 11c4 CC150000 		.4byte	.LASF323
 5316 11c8 0C       		.byte	0xc
 5317 11c9 50       		.byte	0x50
 5318 11ca 39010000 		.4byte	0x139
 5319 11ce 2C       		.uleb128 0x2c
 5320 11cf 2B120000 		.4byte	.LASF324
 5321 11d3 0C       		.byte	0xc
ARM GAS  C:\Users\r\AppData\Local\Temp\ccBAatSA.s 			page 114


 5322 11d4 51       		.byte	0x51
 5323 11d5 39010000 		.4byte	0x139
 5324 11d9 2D       		.uleb128 0x2d
 5325 11da 0F090000 		.4byte	.LASF325
 5326 11de 02       		.byte	0x2
 5327 11df 1F       		.byte	0x1f
 5328 11e0 BE0A0000 		.4byte	0xabe
 5329 11e4 05       		.uleb128 0x5
 5330 11e5 03       		.byte	0x3
 5331 11e6 00000000 		.4byte	blockDev
 5332 11ea 2D       		.uleb128 0x2d
 5333 11eb ED070000 		.4byte	.LASF326
 5334 11ef 02       		.byte	0x2
 5335 11f0 20       		.byte	0x20
 5336 11f1 020B0000 		.4byte	0xb02
 5337 11f5 05       		.uleb128 0x5
 5338 11f6 03       		.byte	0x3
 5339 11f7 00000000 		.4byte	transfer
 5340 11fb 00       		.byte	0
 5341              		.section	.debug_abbrev,"",%progbits
 5342              	.Ldebug_abbrev0:
 5343 0000 01       		.uleb128 0x1
 5344 0001 11       		.uleb128 0x11
 5345 0002 01       		.byte	0x1
 5346 0003 25       		.uleb128 0x25
 5347 0004 0E       		.uleb128 0xe
 5348 0005 13       		.uleb128 0x13
 5349 0006 0B       		.uleb128 0xb
 5350 0007 03       		.uleb128 0x3
 5351 0008 0E       		.uleb128 0xe
 5352 0009 1B       		.uleb128 0x1b
 5353 000a 0E       		.uleb128 0xe
 5354 000b 55       		.uleb128 0x55
 5355 000c 17       		.uleb128 0x17
 5356 000d 11       		.uleb128 0x11
 5357 000e 01       		.uleb128 0x1
 5358 000f 10       		.uleb128 0x10
 5359 0010 17       		.uleb128 0x17
 5360 0011 00       		.byte	0
 5361 0012 00       		.byte	0
 5362 0013 02       		.uleb128 0x2
 5363 0014 24       		.uleb128 0x24
 5364 0015 00       		.byte	0
 5365 0016 0B       		.uleb128 0xb
 5366 0017 0B       		.uleb128 0xb
 5367 0018 3E       		.uleb128 0x3e
 5368 0019 0B       		.uleb128 0xb
 5369 001a 03       		.uleb128 0x3
 5370 001b 0E       		.uleb128 0xe
 5371 001c 00       		.byte	0
 5372 001d 00       		.byte	0
 5373 001e 03       		.uleb128 0x3
 5374 001f 16       		.uleb128 0x16
 5375 0020 00       		.byte	0
 5376 0021 03       		.uleb128 0x3
 5377 0022 0E       		.uleb128 0xe
 5378 0023 3A       		.uleb128 0x3a
ARM GAS  C:\Users\r\AppData\Local\Temp\ccBAatSA.s 			page 115


 5379 0024 0B       		.uleb128 0xb
 5380 0025 3B       		.uleb128 0x3b
 5381 0026 0B       		.uleb128 0xb
 5382 0027 49       		.uleb128 0x49
 5383 0028 13       		.uleb128 0x13
 5384 0029 00       		.byte	0
 5385 002a 00       		.byte	0
 5386 002b 04       		.uleb128 0x4
 5387 002c 24       		.uleb128 0x24
 5388 002d 00       		.byte	0
 5389 002e 0B       		.uleb128 0xb
 5390 002f 0B       		.uleb128 0xb
 5391 0030 3E       		.uleb128 0x3e
 5392 0031 0B       		.uleb128 0xb
 5393 0032 03       		.uleb128 0x3
 5394 0033 08       		.uleb128 0x8
 5395 0034 00       		.byte	0
 5396 0035 00       		.byte	0
 5397 0036 05       		.uleb128 0x5
 5398 0037 16       		.uleb128 0x16
 5399 0038 00       		.byte	0
 5400 0039 03       		.uleb128 0x3
 5401 003a 0E       		.uleb128 0xe
 5402 003b 3A       		.uleb128 0x3a
 5403 003c 0B       		.uleb128 0xb
 5404 003d 3B       		.uleb128 0x3b
 5405 003e 05       		.uleb128 0x5
 5406 003f 49       		.uleb128 0x49
 5407 0040 13       		.uleb128 0x13
 5408 0041 00       		.byte	0
 5409 0042 00       		.byte	0
 5410 0043 06       		.uleb128 0x6
 5411 0044 0F       		.uleb128 0xf
 5412 0045 00       		.byte	0
 5413 0046 0B       		.uleb128 0xb
 5414 0047 0B       		.uleb128 0xb
 5415 0048 49       		.uleb128 0x49
 5416 0049 13       		.uleb128 0x13
 5417 004a 00       		.byte	0
 5418 004b 00       		.byte	0
 5419 004c 07       		.uleb128 0x7
 5420 004d 15       		.uleb128 0x15
 5421 004e 00       		.byte	0
 5422 004f 27       		.uleb128 0x27
 5423 0050 19       		.uleb128 0x19
 5424 0051 00       		.byte	0
 5425 0052 00       		.byte	0
 5426 0053 08       		.uleb128 0x8
 5427 0054 01       		.uleb128 0x1
 5428 0055 01       		.byte	0x1
 5429 0056 49       		.uleb128 0x49
 5430 0057 13       		.uleb128 0x13
 5431 0058 01       		.uleb128 0x1
 5432 0059 13       		.uleb128 0x13
 5433 005a 00       		.byte	0
 5434 005b 00       		.byte	0
 5435 005c 09       		.uleb128 0x9
ARM GAS  C:\Users\r\AppData\Local\Temp\ccBAatSA.s 			page 116


 5436 005d 21       		.uleb128 0x21
 5437 005e 00       		.byte	0
 5438 005f 49       		.uleb128 0x49
 5439 0060 13       		.uleb128 0x13
 5440 0061 2F       		.uleb128 0x2f
 5441 0062 0B       		.uleb128 0xb
 5442 0063 00       		.byte	0
 5443 0064 00       		.byte	0
 5444 0065 0A       		.uleb128 0xa
 5445 0066 35       		.uleb128 0x35
 5446 0067 00       		.byte	0
 5447 0068 49       		.uleb128 0x49
 5448 0069 13       		.uleb128 0x13
 5449 006a 00       		.byte	0
 5450 006b 00       		.byte	0
 5451 006c 0B       		.uleb128 0xb
 5452 006d 04       		.uleb128 0x4
 5453 006e 01       		.byte	0x1
 5454 006f 0B       		.uleb128 0xb
 5455 0070 0B       		.uleb128 0xb
 5456 0071 49       		.uleb128 0x49
 5457 0072 13       		.uleb128 0x13
 5458 0073 3A       		.uleb128 0x3a
 5459 0074 0B       		.uleb128 0xb
 5460 0075 3B       		.uleb128 0x3b
 5461 0076 0B       		.uleb128 0xb
 5462 0077 01       		.uleb128 0x1
 5463 0078 13       		.uleb128 0x13
 5464 0079 00       		.byte	0
 5465 007a 00       		.byte	0
 5466 007b 0C       		.uleb128 0xc
 5467 007c 28       		.uleb128 0x28
 5468 007d 00       		.byte	0
 5469 007e 03       		.uleb128 0x3
 5470 007f 0E       		.uleb128 0xe
 5471 0080 1C       		.uleb128 0x1c
 5472 0081 0B       		.uleb128 0xb
 5473 0082 00       		.byte	0
 5474 0083 00       		.byte	0
 5475 0084 0D       		.uleb128 0xd
 5476 0085 13       		.uleb128 0x13
 5477 0086 01       		.byte	0x1
 5478 0087 0B       		.uleb128 0xb
 5479 0088 05       		.uleb128 0x5
 5480 0089 3A       		.uleb128 0x3a
 5481 008a 0B       		.uleb128 0xb
 5482 008b 3B       		.uleb128 0x3b
 5483 008c 0B       		.uleb128 0xb
 5484 008d 01       		.uleb128 0x1
 5485 008e 13       		.uleb128 0x13
 5486 008f 00       		.byte	0
 5487 0090 00       		.byte	0
 5488 0091 0E       		.uleb128 0xe
 5489 0092 0D       		.uleb128 0xd
 5490 0093 00       		.byte	0
 5491 0094 03       		.uleb128 0x3
 5492 0095 0E       		.uleb128 0xe
ARM GAS  C:\Users\r\AppData\Local\Temp\ccBAatSA.s 			page 117


 5493 0096 3A       		.uleb128 0x3a
 5494 0097 0B       		.uleb128 0xb
 5495 0098 3B       		.uleb128 0x3b
 5496 0099 0B       		.uleb128 0xb
 5497 009a 49       		.uleb128 0x49
 5498 009b 13       		.uleb128 0x13
 5499 009c 38       		.uleb128 0x38
 5500 009d 0B       		.uleb128 0xb
 5501 009e 00       		.byte	0
 5502 009f 00       		.byte	0
 5503 00a0 0F       		.uleb128 0xf
 5504 00a1 0D       		.uleb128 0xd
 5505 00a2 00       		.byte	0
 5506 00a3 03       		.uleb128 0x3
 5507 00a4 0E       		.uleb128 0xe
 5508 00a5 3A       		.uleb128 0x3a
 5509 00a6 0B       		.uleb128 0xb
 5510 00a7 3B       		.uleb128 0x3b
 5511 00a8 0B       		.uleb128 0xb
 5512 00a9 49       		.uleb128 0x49
 5513 00aa 13       		.uleb128 0x13
 5514 00ab 38       		.uleb128 0x38
 5515 00ac 05       		.uleb128 0x5
 5516 00ad 00       		.byte	0
 5517 00ae 00       		.byte	0
 5518 00af 10       		.uleb128 0x10
 5519 00b0 0D       		.uleb128 0xd
 5520 00b1 00       		.byte	0
 5521 00b2 03       		.uleb128 0x3
 5522 00b3 08       		.uleb128 0x8
 5523 00b4 3A       		.uleb128 0x3a
 5524 00b5 0B       		.uleb128 0xb
 5525 00b6 3B       		.uleb128 0x3b
 5526 00b7 0B       		.uleb128 0xb
 5527 00b8 49       		.uleb128 0x49
 5528 00b9 13       		.uleb128 0x13
 5529 00ba 38       		.uleb128 0x38
 5530 00bb 05       		.uleb128 0x5
 5531 00bc 00       		.byte	0
 5532 00bd 00       		.byte	0
 5533 00be 11       		.uleb128 0x11
 5534 00bf 21       		.uleb128 0x21
 5535 00c0 00       		.byte	0
 5536 00c1 49       		.uleb128 0x49
 5537 00c2 13       		.uleb128 0x13
 5538 00c3 2F       		.uleb128 0x2f
 5539 00c4 05       		.uleb128 0x5
 5540 00c5 00       		.byte	0
 5541 00c6 00       		.byte	0
 5542 00c7 12       		.uleb128 0x12
 5543 00c8 28       		.uleb128 0x28
 5544 00c9 00       		.byte	0
 5545 00ca 03       		.uleb128 0x3
 5546 00cb 0E       		.uleb128 0xe
 5547 00cc 1C       		.uleb128 0x1c
 5548 00cd 05       		.uleb128 0x5
 5549 00ce 00       		.byte	0
ARM GAS  C:\Users\r\AppData\Local\Temp\ccBAatSA.s 			page 118


 5550 00cf 00       		.byte	0
 5551 00d0 13       		.uleb128 0x13
 5552 00d1 13       		.uleb128 0x13
 5553 00d2 01       		.byte	0x1
 5554 00d3 0B       		.uleb128 0xb
 5555 00d4 0B       		.uleb128 0xb
 5556 00d5 3A       		.uleb128 0x3a
 5557 00d6 0B       		.uleb128 0xb
 5558 00d7 3B       		.uleb128 0x3b
 5559 00d8 0B       		.uleb128 0xb
 5560 00d9 01       		.uleb128 0x1
 5561 00da 13       		.uleb128 0x13
 5562 00db 00       		.byte	0
 5563 00dc 00       		.byte	0
 5564 00dd 14       		.uleb128 0x14
 5565 00de 0D       		.uleb128 0xd
 5566 00df 00       		.byte	0
 5567 00e0 03       		.uleb128 0x3
 5568 00e1 08       		.uleb128 0x8
 5569 00e2 3A       		.uleb128 0x3a
 5570 00e3 0B       		.uleb128 0xb
 5571 00e4 3B       		.uleb128 0x3b
 5572 00e5 0B       		.uleb128 0xb
 5573 00e6 49       		.uleb128 0x49
 5574 00e7 13       		.uleb128 0x13
 5575 00e8 38       		.uleb128 0x38
 5576 00e9 0B       		.uleb128 0xb
 5577 00ea 00       		.byte	0
 5578 00eb 00       		.byte	0
 5579 00ec 15       		.uleb128 0x15
 5580 00ed 28       		.uleb128 0x28
 5581 00ee 00       		.byte	0
 5582 00ef 03       		.uleb128 0x3
 5583 00f0 0E       		.uleb128 0xe
 5584 00f1 1C       		.uleb128 0x1c
 5585 00f2 0D       		.uleb128 0xd
 5586 00f3 00       		.byte	0
 5587 00f4 00       		.byte	0
 5588 00f5 16       		.uleb128 0x16
 5589 00f6 26       		.uleb128 0x26
 5590 00f7 00       		.byte	0
 5591 00f8 49       		.uleb128 0x49
 5592 00f9 13       		.uleb128 0x13
 5593 00fa 00       		.byte	0
 5594 00fb 00       		.byte	0
 5595 00fc 17       		.uleb128 0x17
 5596 00fd 2E       		.uleb128 0x2e
 5597 00fe 01       		.byte	0x1
 5598 00ff 03       		.uleb128 0x3
 5599 0100 0E       		.uleb128 0xe
 5600 0101 3A       		.uleb128 0x3a
 5601 0102 0B       		.uleb128 0xb
 5602 0103 3B       		.uleb128 0x3b
 5603 0104 0B       		.uleb128 0xb
 5604 0105 27       		.uleb128 0x27
 5605 0106 19       		.uleb128 0x19
 5606 0107 49       		.uleb128 0x49
ARM GAS  C:\Users\r\AppData\Local\Temp\ccBAatSA.s 			page 119


 5607 0108 13       		.uleb128 0x13
 5608 0109 11       		.uleb128 0x11
 5609 010a 01       		.uleb128 0x1
 5610 010b 12       		.uleb128 0x12
 5611 010c 06       		.uleb128 0x6
 5612 010d 40       		.uleb128 0x40
 5613 010e 18       		.uleb128 0x18
 5614 010f 9742     		.uleb128 0x2117
 5615 0111 19       		.uleb128 0x19
 5616 0112 01       		.uleb128 0x1
 5617 0113 13       		.uleb128 0x13
 5618 0114 00       		.byte	0
 5619 0115 00       		.byte	0
 5620 0116 18       		.uleb128 0x18
 5621 0117 05       		.uleb128 0x5
 5622 0118 00       		.byte	0
 5623 0119 03       		.uleb128 0x3
 5624 011a 0E       		.uleb128 0xe
 5625 011b 3A       		.uleb128 0x3a
 5626 011c 0B       		.uleb128 0xb
 5627 011d 3B       		.uleb128 0x3b
 5628 011e 0B       		.uleb128 0xb
 5629 011f 49       		.uleb128 0x49
 5630 0120 13       		.uleb128 0x13
 5631 0121 02       		.uleb128 0x2
 5632 0122 18       		.uleb128 0x18
 5633 0123 00       		.byte	0
 5634 0124 00       		.byte	0
 5635 0125 19       		.uleb128 0x19
 5636 0126 2E       		.uleb128 0x2e
 5637 0127 01       		.byte	0x1
 5638 0128 03       		.uleb128 0x3
 5639 0129 0E       		.uleb128 0xe
 5640 012a 3A       		.uleb128 0x3a
 5641 012b 0B       		.uleb128 0xb
 5642 012c 3B       		.uleb128 0x3b
 5643 012d 0B       		.uleb128 0xb
 5644 012e 49       		.uleb128 0x49
 5645 012f 13       		.uleb128 0x13
 5646 0130 11       		.uleb128 0x11
 5647 0131 01       		.uleb128 0x1
 5648 0132 12       		.uleb128 0x12
 5649 0133 06       		.uleb128 0x6
 5650 0134 40       		.uleb128 0x40
 5651 0135 18       		.uleb128 0x18
 5652 0136 9642     		.uleb128 0x2116
 5653 0138 19       		.uleb128 0x19
 5654 0139 01       		.uleb128 0x1
 5655 013a 13       		.uleb128 0x13
 5656 013b 00       		.byte	0
 5657 013c 00       		.byte	0
 5658 013d 1A       		.uleb128 0x1a
 5659 013e 34       		.uleb128 0x34
 5660 013f 00       		.byte	0
 5661 0140 03       		.uleb128 0x3
 5662 0141 0E       		.uleb128 0xe
 5663 0142 3A       		.uleb128 0x3a
ARM GAS  C:\Users\r\AppData\Local\Temp\ccBAatSA.s 			page 120


 5664 0143 0B       		.uleb128 0xb
 5665 0144 3B       		.uleb128 0x3b
 5666 0145 0B       		.uleb128 0xb
 5667 0146 49       		.uleb128 0x49
 5668 0147 13       		.uleb128 0x13
 5669 0148 02       		.uleb128 0x2
 5670 0149 18       		.uleb128 0x18
 5671 014a 00       		.byte	0
 5672 014b 00       		.byte	0
 5673 014c 1B       		.uleb128 0x1b
 5674 014d 2E       		.uleb128 0x2e
 5675 014e 00       		.byte	0
 5676 014f 03       		.uleb128 0x3
 5677 0150 0E       		.uleb128 0xe
 5678 0151 3A       		.uleb128 0x3a
 5679 0152 0B       		.uleb128 0xb
 5680 0153 3B       		.uleb128 0x3b
 5681 0154 0B       		.uleb128 0xb
 5682 0155 27       		.uleb128 0x27
 5683 0156 19       		.uleb128 0x19
 5684 0157 11       		.uleb128 0x11
 5685 0158 01       		.uleb128 0x1
 5686 0159 12       		.uleb128 0x12
 5687 015a 06       		.uleb128 0x6
 5688 015b 40       		.uleb128 0x40
 5689 015c 18       		.uleb128 0x18
 5690 015d 9742     		.uleb128 0x2117
 5691 015f 19       		.uleb128 0x19
 5692 0160 00       		.byte	0
 5693 0161 00       		.byte	0
 5694 0162 1C       		.uleb128 0x1c
 5695 0163 2E       		.uleb128 0x2e
 5696 0164 01       		.byte	0x1
 5697 0165 03       		.uleb128 0x3
 5698 0166 0E       		.uleb128 0xe
 5699 0167 3A       		.uleb128 0x3a
 5700 0168 0B       		.uleb128 0xb
 5701 0169 3B       		.uleb128 0x3b
 5702 016a 0B       		.uleb128 0xb
 5703 016b 27       		.uleb128 0x27
 5704 016c 19       		.uleb128 0x19
 5705 016d 11       		.uleb128 0x11
 5706 016e 01       		.uleb128 0x1
 5707 016f 12       		.uleb128 0x12
 5708 0170 06       		.uleb128 0x6
 5709 0171 40       		.uleb128 0x40
 5710 0172 18       		.uleb128 0x18
 5711 0173 9642     		.uleb128 0x2116
 5712 0175 19       		.uleb128 0x19
 5713 0176 01       		.uleb128 0x1
 5714 0177 13       		.uleb128 0x13
 5715 0178 00       		.byte	0
 5716 0179 00       		.byte	0
 5717 017a 1D       		.uleb128 0x1d
 5718 017b 34       		.uleb128 0x34
 5719 017c 00       		.byte	0
 5720 017d 03       		.uleb128 0x3
ARM GAS  C:\Users\r\AppData\Local\Temp\ccBAatSA.s 			page 121


 5721 017e 08       		.uleb128 0x8
 5722 017f 3A       		.uleb128 0x3a
 5723 0180 0B       		.uleb128 0xb
 5724 0181 3B       		.uleb128 0x3b
 5725 0182 0B       		.uleb128 0xb
 5726 0183 49       		.uleb128 0x49
 5727 0184 13       		.uleb128 0x13
 5728 0185 02       		.uleb128 0x2
 5729 0186 18       		.uleb128 0x18
 5730 0187 00       		.byte	0
 5731 0188 00       		.byte	0
 5732 0189 1E       		.uleb128 0x1e
 5733 018a 0B       		.uleb128 0xb
 5734 018b 01       		.byte	0x1
 5735 018c 11       		.uleb128 0x11
 5736 018d 01       		.uleb128 0x1
 5737 018e 12       		.uleb128 0x12
 5738 018f 06       		.uleb128 0x6
 5739 0190 00       		.byte	0
 5740 0191 00       		.byte	0
 5741 0192 1F       		.uleb128 0x1f
 5742 0193 2E       		.uleb128 0x2e
 5743 0194 01       		.byte	0x1
 5744 0195 03       		.uleb128 0x3
 5745 0196 0E       		.uleb128 0xe
 5746 0197 3A       		.uleb128 0x3a
 5747 0198 0B       		.uleb128 0xb
 5748 0199 3B       		.uleb128 0x3b
 5749 019a 0B       		.uleb128 0xb
 5750 019b 11       		.uleb128 0x11
 5751 019c 01       		.uleb128 0x1
 5752 019d 12       		.uleb128 0x12
 5753 019e 06       		.uleb128 0x6
 5754 019f 40       		.uleb128 0x40
 5755 01a0 18       		.uleb128 0x18
 5756 01a1 9642     		.uleb128 0x2116
 5757 01a3 19       		.uleb128 0x19
 5758 01a4 01       		.uleb128 0x1
 5759 01a5 13       		.uleb128 0x13
 5760 01a6 00       		.byte	0
 5761 01a7 00       		.byte	0
 5762 01a8 20       		.uleb128 0x20
 5763 01a9 05       		.uleb128 0x5
 5764 01aa 00       		.byte	0
 5765 01ab 03       		.uleb128 0x3
 5766 01ac 08       		.uleb128 0x8
 5767 01ad 3A       		.uleb128 0x3a
 5768 01ae 0B       		.uleb128 0xb
 5769 01af 3B       		.uleb128 0x3b
 5770 01b0 0B       		.uleb128 0xb
 5771 01b1 49       		.uleb128 0x49
 5772 01b2 13       		.uleb128 0x13
 5773 01b3 02       		.uleb128 0x2
 5774 01b4 18       		.uleb128 0x18
 5775 01b5 00       		.byte	0
 5776 01b6 00       		.byte	0
 5777 01b7 21       		.uleb128 0x21
ARM GAS  C:\Users\r\AppData\Local\Temp\ccBAatSA.s 			page 122


 5778 01b8 0B       		.uleb128 0xb
 5779 01b9 01       		.byte	0x1
 5780 01ba 55       		.uleb128 0x55
 5781 01bb 17       		.uleb128 0x17
 5782 01bc 00       		.byte	0
 5783 01bd 00       		.byte	0
 5784 01be 22       		.uleb128 0x22
 5785 01bf 34       		.uleb128 0x34
 5786 01c0 00       		.byte	0
 5787 01c1 03       		.uleb128 0x3
 5788 01c2 0E       		.uleb128 0xe
 5789 01c3 3A       		.uleb128 0x3a
 5790 01c4 0B       		.uleb128 0xb
 5791 01c5 3B       		.uleb128 0x3b
 5792 01c6 05       		.uleb128 0x5
 5793 01c7 49       		.uleb128 0x49
 5794 01c8 13       		.uleb128 0x13
 5795 01c9 02       		.uleb128 0x2
 5796 01ca 18       		.uleb128 0x18
 5797 01cb 00       		.byte	0
 5798 01cc 00       		.byte	0
 5799 01cd 23       		.uleb128 0x23
 5800 01ce 2E       		.uleb128 0x2e
 5801 01cf 01       		.byte	0x1
 5802 01d0 03       		.uleb128 0x3
 5803 01d1 0E       		.uleb128 0xe
 5804 01d2 3A       		.uleb128 0x3a
 5805 01d3 0B       		.uleb128 0xb
 5806 01d4 3B       		.uleb128 0x3b
 5807 01d5 05       		.uleb128 0x5
 5808 01d6 27       		.uleb128 0x27
 5809 01d7 19       		.uleb128 0x19
 5810 01d8 11       		.uleb128 0x11
 5811 01d9 01       		.uleb128 0x1
 5812 01da 12       		.uleb128 0x12
 5813 01db 06       		.uleb128 0x6
 5814 01dc 40       		.uleb128 0x40
 5815 01dd 18       		.uleb128 0x18
 5816 01de 9642     		.uleb128 0x2116
 5817 01e0 19       		.uleb128 0x19
 5818 01e1 01       		.uleb128 0x1
 5819 01e2 13       		.uleb128 0x13
 5820 01e3 00       		.byte	0
 5821 01e4 00       		.byte	0
 5822 01e5 24       		.uleb128 0x24
 5823 01e6 05       		.uleb128 0x5
 5824 01e7 00       		.byte	0
 5825 01e8 03       		.uleb128 0x3
 5826 01e9 08       		.uleb128 0x8
 5827 01ea 3A       		.uleb128 0x3a
 5828 01eb 0B       		.uleb128 0xb
 5829 01ec 3B       		.uleb128 0x3b
 5830 01ed 05       		.uleb128 0x5
 5831 01ee 49       		.uleb128 0x49
 5832 01ef 13       		.uleb128 0x13
 5833 01f0 02       		.uleb128 0x2
 5834 01f1 18       		.uleb128 0x18
ARM GAS  C:\Users\r\AppData\Local\Temp\ccBAatSA.s 			page 123


 5835 01f2 00       		.byte	0
 5836 01f3 00       		.byte	0
 5837 01f4 25       		.uleb128 0x25
 5838 01f5 2E       		.uleb128 0x2e
 5839 01f6 01       		.byte	0x1
 5840 01f7 03       		.uleb128 0x3
 5841 01f8 0E       		.uleb128 0xe
 5842 01f9 3A       		.uleb128 0x3a
 5843 01fa 0B       		.uleb128 0xb
 5844 01fb 3B       		.uleb128 0x3b
 5845 01fc 05       		.uleb128 0x5
 5846 01fd 49       		.uleb128 0x49
 5847 01fe 13       		.uleb128 0x13
 5848 01ff 11       		.uleb128 0x11
 5849 0200 01       		.uleb128 0x1
 5850 0201 12       		.uleb128 0x12
 5851 0202 06       		.uleb128 0x6
 5852 0203 40       		.uleb128 0x40
 5853 0204 18       		.uleb128 0x18
 5854 0205 9742     		.uleb128 0x2117
 5855 0207 19       		.uleb128 0x19
 5856 0208 01       		.uleb128 0x1
 5857 0209 13       		.uleb128 0x13
 5858 020a 00       		.byte	0
 5859 020b 00       		.byte	0
 5860 020c 26       		.uleb128 0x26
 5861 020d 2E       		.uleb128 0x2e
 5862 020e 01       		.byte	0x1
 5863 020f 3F       		.uleb128 0x3f
 5864 0210 19       		.uleb128 0x19
 5865 0211 03       		.uleb128 0x3
 5866 0212 0E       		.uleb128 0xe
 5867 0213 3A       		.uleb128 0x3a
 5868 0214 0B       		.uleb128 0xb
 5869 0215 3B       		.uleb128 0x3b
 5870 0216 05       		.uleb128 0x5
 5871 0217 27       		.uleb128 0x27
 5872 0218 19       		.uleb128 0x19
 5873 0219 49       		.uleb128 0x49
 5874 021a 13       		.uleb128 0x13
 5875 021b 11       		.uleb128 0x11
 5876 021c 01       		.uleb128 0x1
 5877 021d 12       		.uleb128 0x12
 5878 021e 06       		.uleb128 0x6
 5879 021f 40       		.uleb128 0x40
 5880 0220 18       		.uleb128 0x18
 5881 0221 9642     		.uleb128 0x2116
 5882 0223 19       		.uleb128 0x19
 5883 0224 01       		.uleb128 0x1
 5884 0225 13       		.uleb128 0x13
 5885 0226 00       		.byte	0
 5886 0227 00       		.byte	0
 5887 0228 27       		.uleb128 0x27
 5888 0229 0B       		.uleb128 0xb
 5889 022a 01       		.byte	0x1
 5890 022b 11       		.uleb128 0x11
 5891 022c 01       		.uleb128 0x1
ARM GAS  C:\Users\r\AppData\Local\Temp\ccBAatSA.s 			page 124


 5892 022d 12       		.uleb128 0x12
 5893 022e 06       		.uleb128 0x6
 5894 022f 01       		.uleb128 0x1
 5895 0230 13       		.uleb128 0x13
 5896 0231 00       		.byte	0
 5897 0232 00       		.byte	0
 5898 0233 28       		.uleb128 0x28
 5899 0234 34       		.uleb128 0x34
 5900 0235 00       		.byte	0
 5901 0236 03       		.uleb128 0x3
 5902 0237 08       		.uleb128 0x8
 5903 0238 3A       		.uleb128 0x3a
 5904 0239 0B       		.uleb128 0xb
 5905 023a 3B       		.uleb128 0x3b
 5906 023b 05       		.uleb128 0x5
 5907 023c 49       		.uleb128 0x49
 5908 023d 13       		.uleb128 0x13
 5909 023e 02       		.uleb128 0x2
 5910 023f 18       		.uleb128 0x18
 5911 0240 00       		.byte	0
 5912 0241 00       		.byte	0
 5913 0242 29       		.uleb128 0x29
 5914 0243 2E       		.uleb128 0x2e
 5915 0244 01       		.byte	0x1
 5916 0245 3F       		.uleb128 0x3f
 5917 0246 19       		.uleb128 0x19
 5918 0247 03       		.uleb128 0x3
 5919 0248 0E       		.uleb128 0xe
 5920 0249 3A       		.uleb128 0x3a
 5921 024a 0B       		.uleb128 0xb
 5922 024b 3B       		.uleb128 0x3b
 5923 024c 05       		.uleb128 0x5
 5924 024d 27       		.uleb128 0x27
 5925 024e 19       		.uleb128 0x19
 5926 024f 11       		.uleb128 0x11
 5927 0250 01       		.uleb128 0x1
 5928 0251 12       		.uleb128 0x12
 5929 0252 06       		.uleb128 0x6
 5930 0253 40       		.uleb128 0x40
 5931 0254 18       		.uleb128 0x18
 5932 0255 9642     		.uleb128 0x2116
 5933 0257 19       		.uleb128 0x19
 5934 0258 01       		.uleb128 0x1
 5935 0259 13       		.uleb128 0x13
 5936 025a 00       		.byte	0
 5937 025b 00       		.byte	0
 5938 025c 2A       		.uleb128 0x2a
 5939 025d 2E       		.uleb128 0x2e
 5940 025e 00       		.byte	0
 5941 025f 3F       		.uleb128 0x3f
 5942 0260 19       		.uleb128 0x19
 5943 0261 03       		.uleb128 0x3
 5944 0262 0E       		.uleb128 0xe
 5945 0263 3A       		.uleb128 0x3a
 5946 0264 0B       		.uleb128 0xb
 5947 0265 3B       		.uleb128 0x3b
 5948 0266 05       		.uleb128 0x5
ARM GAS  C:\Users\r\AppData\Local\Temp\ccBAatSA.s 			page 125


 5949 0267 27       		.uleb128 0x27
 5950 0268 19       		.uleb128 0x19
 5951 0269 11       		.uleb128 0x11
 5952 026a 01       		.uleb128 0x1
 5953 026b 12       		.uleb128 0x12
 5954 026c 06       		.uleb128 0x6
 5955 026d 40       		.uleb128 0x40
 5956 026e 18       		.uleb128 0x18
 5957 026f 9642     		.uleb128 0x2116
 5958 0271 19       		.uleb128 0x19
 5959 0272 00       		.byte	0
 5960 0273 00       		.byte	0
 5961 0274 2B       		.uleb128 0x2b
 5962 0275 34       		.uleb128 0x34
 5963 0276 00       		.byte	0
 5964 0277 03       		.uleb128 0x3
 5965 0278 0E       		.uleb128 0xe
 5966 0279 3A       		.uleb128 0x3a
 5967 027a 0B       		.uleb128 0xb
 5968 027b 3B       		.uleb128 0x3b
 5969 027c 05       		.uleb128 0x5
 5970 027d 49       		.uleb128 0x49
 5971 027e 13       		.uleb128 0x13
 5972 027f 3F       		.uleb128 0x3f
 5973 0280 19       		.uleb128 0x19
 5974 0281 3C       		.uleb128 0x3c
 5975 0282 19       		.uleb128 0x19
 5976 0283 00       		.byte	0
 5977 0284 00       		.byte	0
 5978 0285 2C       		.uleb128 0x2c
 5979 0286 34       		.uleb128 0x34
 5980 0287 00       		.byte	0
 5981 0288 03       		.uleb128 0x3
 5982 0289 0E       		.uleb128 0xe
 5983 028a 3A       		.uleb128 0x3a
 5984 028b 0B       		.uleb128 0xb
 5985 028c 3B       		.uleb128 0x3b
 5986 028d 0B       		.uleb128 0xb
 5987 028e 49       		.uleb128 0x49
 5988 028f 13       		.uleb128 0x13
 5989 0290 3F       		.uleb128 0x3f
 5990 0291 19       		.uleb128 0x19
 5991 0292 3C       		.uleb128 0x3c
 5992 0293 19       		.uleb128 0x19
 5993 0294 00       		.byte	0
 5994 0295 00       		.byte	0
 5995 0296 2D       		.uleb128 0x2d
 5996 0297 34       		.uleb128 0x34
 5997 0298 00       		.byte	0
 5998 0299 03       		.uleb128 0x3
 5999 029a 0E       		.uleb128 0xe
 6000 029b 3A       		.uleb128 0x3a
 6001 029c 0B       		.uleb128 0xb
 6002 029d 3B       		.uleb128 0x3b
 6003 029e 0B       		.uleb128 0xb
 6004 029f 49       		.uleb128 0x49
 6005 02a0 13       		.uleb128 0x13
ARM GAS  C:\Users\r\AppData\Local\Temp\ccBAatSA.s 			page 126


 6006 02a1 3F       		.uleb128 0x3f
 6007 02a2 19       		.uleb128 0x19
 6008 02a3 02       		.uleb128 0x2
 6009 02a4 18       		.uleb128 0x18
 6010 02a5 00       		.byte	0
 6011 02a6 00       		.byte	0
 6012 02a7 00       		.byte	0
 6013              		.section	.debug_aranges,"",%progbits
 6014 0000 8C000000 		.4byte	0x8c
 6015 0004 0200     		.2byte	0x2
 6016 0006 00000000 		.4byte	.Ldebug_info0
 6017 000a 04       		.byte	0x4
 6018 000b 00       		.byte	0
 6019 000c 0000     		.2byte	0
 6020 000e 0000     		.2byte	0
 6021 0010 00000000 		.4byte	.LFB63
 6022 0014 24000000 		.4byte	.LFE63-.LFB63
 6023 0018 00000000 		.4byte	.LFB64
 6024 001c 3C000000 		.4byte	.LFE64-.LFB64
 6025 0020 00000000 		.4byte	.LFB65
 6026 0024 18000000 		.4byte	.LFE65-.LFB65
 6027 0028 00000000 		.4byte	.LFB66
 6028 002c 2E000000 		.4byte	.LFE66-.LFB66
 6029 0030 00000000 		.4byte	.LFB67
 6030 0034 48000000 		.4byte	.LFE67-.LFB67
 6031 0038 00000000 		.4byte	.LFB68
 6032 003c AC000000 		.4byte	.LFE68-.LFB68
 6033 0040 00000000 		.4byte	.LFB69
 6034 0044 58010000 		.4byte	.LFE69-.LFB69
 6035 0048 00000000 		.4byte	.LFB70
 6036 004c 78010000 		.4byte	.LFE70-.LFB70
 6037 0050 00000000 		.4byte	.LFB71
 6038 0054 5C010000 		.4byte	.LFE71-.LFB71
 6039 0058 00000000 		.4byte	.LFB72
 6040 005c 68000000 		.4byte	.LFE72-.LFB72
 6041 0060 00000000 		.4byte	.LFB73
 6042 0064 F4000000 		.4byte	.LFE73-.LFB73
 6043 0068 00000000 		.4byte	.LFB74
 6044 006c 5C040000 		.4byte	.LFE74-.LFB74
 6045 0070 00000000 		.4byte	.LFB75
 6046 0074 C0060000 		.4byte	.LFE75-.LFB75
 6047 0078 00000000 		.4byte	.LFB76
 6048 007c 60000000 		.4byte	.LFE76-.LFB76
 6049 0080 00000000 		.4byte	.LFB77
 6050 0084 18000000 		.4byte	.LFE77-.LFB77
 6051 0088 00000000 		.4byte	0
 6052 008c 00000000 		.4byte	0
 6053              		.section	.debug_ranges,"",%progbits
 6054              	.Ldebug_ranges0:
 6055 0000 9A000000 		.4byte	.LBB5
 6056 0004 24010000 		.4byte	.LBE5
 6057 0008 26010000 		.4byte	.LBB7
 6058 000c 4A010000 		.4byte	.LBE7
 6059 0010 00000000 		.4byte	0
 6060 0014 00000000 		.4byte	0
 6061 0018 00000000 		.4byte	.LFB63
 6062 001c 24000000 		.4byte	.LFE63
ARM GAS  C:\Users\r\AppData\Local\Temp\ccBAatSA.s 			page 127


 6063 0020 00000000 		.4byte	.LFB64
 6064 0024 3C000000 		.4byte	.LFE64
 6065 0028 00000000 		.4byte	.LFB65
 6066 002c 18000000 		.4byte	.LFE65
 6067 0030 00000000 		.4byte	.LFB66
 6068 0034 2E000000 		.4byte	.LFE66
 6069 0038 00000000 		.4byte	.LFB67
 6070 003c 48000000 		.4byte	.LFE67
 6071 0040 00000000 		.4byte	.LFB68
 6072 0044 AC000000 		.4byte	.LFE68
 6073 0048 00000000 		.4byte	.LFB69
 6074 004c 58010000 		.4byte	.LFE69
 6075 0050 00000000 		.4byte	.LFB70
 6076 0054 78010000 		.4byte	.LFE70
 6077 0058 00000000 		.4byte	.LFB71
 6078 005c 5C010000 		.4byte	.LFE71
 6079 0060 00000000 		.4byte	.LFB72
 6080 0064 68000000 		.4byte	.LFE72
 6081 0068 00000000 		.4byte	.LFB73
 6082 006c F4000000 		.4byte	.LFE73
 6083 0070 00000000 		.4byte	.LFB74
 6084 0074 5C040000 		.4byte	.LFE74
 6085 0078 00000000 		.4byte	.LFB75
 6086 007c C0060000 		.4byte	.LFE75
 6087 0080 00000000 		.4byte	.LFB76
 6088 0084 60000000 		.4byte	.LFE76
 6089 0088 00000000 		.4byte	.LFB77
 6090 008c 18000000 		.4byte	.LFE77
 6091 0090 00000000 		.4byte	0
 6092 0094 00000000 		.4byte	0
 6093              		.section	.debug_line,"",%progbits
 6094              	.Ldebug_line0:
 6095 0000 32060000 		.section	.debug_str,"MS",%progbits,1
 6095      0200B601 
 6095      00000201 
 6095      FB0E0D00 
 6095      01010101 
 6096              	.LASF186:
 6097 0000 52504C5F 		.ascii	"RPL_STATUS_CHANGE\000"
 6097      53544154 
 6097      55535F43 
 6097      48414E47 
 6097      4500
 6098              	.LASF301:
 6099 0012 666D7444 		.ascii	"fmtData\000"
 6099      61746100 
 6100              	.LASF26:
 6101 001a 73697A65 		.ascii	"sizetype\000"
 6101      74797065 
 6101      00
 6102              	.LASF74:
 6103 0023 424C414E 		.ascii	"BLANK_CHECK\000"
 6103      4B5F4348 
 6103      45434B00 
 6104              	.LASF294:
 6105 002f 73645365 		.ascii	"sdSectors\000"
 6105      63746F72 
ARM GAS  C:\Users\r\AppData\Local\Temp\ccBAatSA.s 			page 128


 6105      7300
 6106              	.LASF300:
 6107 0039 73746172 		.ascii	"start\000"
 6107      7400
 6108              	.LASF99:
 6109 003f 44454645 		.ascii	"DEFECT_LIST_UPDATE_FAILURE\000"
 6109      43545F4C 
 6109      4953545F 
 6109      55504441 
 6109      54455F46 
 6110              	.LASF314:
 6111 005a 636C6561 		.ascii	"clearBSY\000"
 6111      72425359 
 6111      00
 6112              	.LASF104:
 6113 0063 494F5F50 		.ascii	"IO_PROCESS_TERMINATED\000"
 6113      524F4345 
 6113      53535F54 
 6113      45524D49 
 6113      4E415445 
 6114              	.LASF173:
 6115 0079 5245434F 		.ascii	"RECOVERED_DATA_RECOMMEND_REWRITE\000"
 6115      56455245 
 6115      445F4441 
 6115      54415F52 
 6115      45434F4D 
 6116              	.LASF138:
 6117 009a 4D455353 		.ascii	"MESSAGE_ERROR\000"
 6117      4147455F 
 6117      4552524F 
 6117      5200
 6118              	.LASF130:
 6119 00a8 4C4F4749 		.ascii	"LOGICAL_UNIT_NOT_READY_INITIALIZING_COMMAND_REQUIRE"
 6119      43414C5F 
 6119      554E4954 
 6119      5F4E4F54 
 6119      5F524541 
 6120 00db 4400     		.ascii	"D\000"
 6121              	.LASF15:
 6122 00dd 696E7433 		.ascii	"int32_t\000"
 6122      325F7400 
 6123              	.LASF203:
 6124 00e5 57524954 		.ascii	"WRITE_ERROR_AUTO_REALLOCATION_FAILED\000"
 6124      455F4552 
 6124      524F525F 
 6124      4155544F 
 6124      5F524541 
 6125              	.LASF65:
 6126 010a 426F6172 		.ascii	"BoardConfig\000"
 6126      64436F6E 
 6126      66696700 
 6127              	.LASF85:
 6128 0116 43414E4E 		.ascii	"CANNOT_READ_MEDIUM_UNKNOWN_FORMAT\000"
 6128      4F545F52 
 6128      4541445F 
 6128      4D454449 
 6128      554D5F55 
ARM GAS  C:\Users\r\AppData\Local\Temp\ccBAatSA.s 			page 129


 6129              	.LASF19:
 6130 0138 75696E74 		.ascii	"uint32\000"
 6130      333200
 6131              	.LASF58:
 6132 013f 54617267 		.ascii	"TargetConfig\000"
 6132      6574436F 
 6132      6E666967 
 6132      00
 6133              	.LASF107:
 6134 014c 494E434F 		.ascii	"INCOMPATIBLE_MEDIUM_INSTALLED\000"
 6134      4D504154 
 6134      49424C45 
 6134      5F4D4544 
 6134      49554D5F 
 6135              	.LASF35:
 6136 016a 434F4E46 		.ascii	"CONFIG_FIXED\000"
 6136      49475F46 
 6136      49584544 
 6136      00
 6137              	.LASF207:
 6138 0177 53637369 		.ascii	"ScsiSense\000"
 6138      53656E73 
 6138      6500
 6139              	.LASF50:
 6140 0181 76656E64 		.ascii	"vendor\000"
 6140      6F7200
 6141              	.LASF208:
 6142 0188 5F5F7363 		.ascii	"__scsiphase_msg\000"
 6142      73697068 
 6142      6173655F 
 6142      6D736700 
 6143              	.LASF273:
 6144 0198 73746174 		.ascii	"state\000"
 6144      6500
 6145              	.LASF228:
 6146 019e 434F4D50 		.ascii	"COMPAT_SCSI1\000"
 6146      41545F53 
 6146      43534931 
 6146      00
 6147              	.LASF34:
 6148 01ab 434F4E46 		.ascii	"CONFIG_MAP_LUNS_TO_IDS\000"
 6148      49475F4D 
 6148      41505F4C 
 6148      554E535F 
 6148      544F5F49 
 6149              	.LASF211:
 6150 01c2 4255535F 		.ascii	"BUS_FREE\000"
 6150      46524545 
 6150      00
 6151              	.LASF292:
 6152 01cb 646F5265 		.ascii	"doRead\000"
 6152      616400
 6153              	.LASF234:
 6154 01d2 73656E73 		.ascii	"sense\000"
 6154      6500
 6155              	.LASF331:
 6156 01d8 646F466F 		.ascii	"doFormatUnitComplete\000"
ARM GAS  C:\Users\r\AppData\Local\Temp\ccBAatSA.s 			page 130


 6156      726D6174 
 6156      556E6974 
 6156      436F6D70 
 6156      6C657465 
 6157              	.LASF152:
 6158 01ed 4F504552 		.ascii	"OPERATOR_REQUEST_OR_STATE_CHANGE_INPUT\000"
 6158      41544F52 
 6158      5F524551 
 6158      55455354 
 6158      5F4F525F 
 6159              	.LASF29:
 6160 0214 434F4E46 		.ascii	"CONFIG_ENABLE_SCSI2\000"
 6160      49475F45 
 6160      4E41424C 
 6160      455F5343 
 6160      53493200 
 6161              	.LASF49:
 6162 0228 68656164 		.ascii	"headsPerCylinder\000"
 6162      73506572 
 6162      43796C69 
 6162      6E646572 
 6162      00
 6163              	.LASF78:
 6164 0239 45515541 		.ascii	"EQUAL\000"
 6164      4C00
 6165              	.LASF290:
 6166 023f 73644C42 		.ascii	"sdLBA\000"
 6166      4100
 6167              	.LASF321:
 6168 0245 73645478 		.ascii	"sdTxDMAComplete\000"
 6168      444D4143 
 6168      6F6D706C 
 6168      65746500 
 6169              	.LASF179:
 6170 0255 5245434F 		.ascii	"RECOVERED_DATA_WITH_POSITIVE_HEAD_OFFSET\000"
 6170      56455245 
 6170      445F4441 
 6170      54415F57 
 6170      4954485F 
 6171              	.LASF172:
 6172 027e 5245434F 		.ascii	"RECOVERED_DATA_RECOMMEND_REASSIGNMENT\000"
 6172      56455245 
 6172      445F4441 
 6172      54415F52 
 6172      45434F4D 
 6173              	.LASF20:
 6174 02a4 696E7438 		.ascii	"int8\000"
 6174      00
 6175              	.LASF190:
 6176 02a9 53454C45 		.ascii	"SELECT_OR_RESELECT_FAILURE\000"
 6176      43545F4F 
 6176      525F5245 
 6176      53454C45 
 6176      43545F46 
 6177              	.LASF66:
 6178 02c4 4E4F5F53 		.ascii	"NO_SENSE\000"
 6178      454E5345 
ARM GAS  C:\Users\r\AppData\Local\Temp\ccBAatSA.s 			page 131


 6178      00
 6179              	.LASF180:
 6180 02cd 5245434F 		.ascii	"RECOVERED_DATA_WITH_RETRIES\000"
 6180      56455245 
 6180      445F4441 
 6180      54415F57 
 6180      4954485F 
 6181              	.LASF61:
 6182 02e9 73746172 		.ascii	"startupDelay\000"
 6182      74757044 
 6182      656C6179 
 6182      00
 6183              	.LASF37:
 6184 02f6 434F4E46 		.ascii	"CONFIG_OPTICAL\000"
 6184      49475F4F 
 6184      50544943 
 6184      414C00
 6185              	.LASF147:
 6186 0305 4E4F5F49 		.ascii	"NO_INDEX_SECTOR_SIGNAL\000"
 6186      4E444558 
 6186      5F534543 
 6186      544F525F 
 6186      5349474E 
 6187              	.LASF229:
 6188 031c 434F4D50 		.ascii	"COMPAT_SCSI2_DISABLED\000"
 6188      41545F53 
 6188      43534932 
 6188      5F444953 
 6188      41424C45 
 6189              	.LASF220:
 6190 0332 4D455353 		.ascii	"MESSAGE_IN\000"
 6190      4147455F 
 6190      494E00
 6191              	.LASF247:
 6192 033d 70686173 		.ascii	"phase\000"
 6192      6500
 6193              	.LASF3:
 6194 0343 5F5F7569 		.ascii	"__uint8_t\000"
 6194      6E74385F 
 6194      7400
 6195              	.LASF176:
 6196 034d 5245434F 		.ascii	"RECOVERED_DATA_WITH_ERROR_CORRECTION_APPLIED\000"
 6196      56455245 
 6196      445F4441 
 6196      54415F57 
 6196      4954485F 
 6197              	.LASF282:
 6198 037a 72657375 		.ascii	"result\000"
 6198      6C7400
 6199              	.LASF212:
 6200 0381 4255535F 		.ascii	"BUS_BUSY\000"
 6200      42555359 
 6200      00
 6201              	.LASF310:
 6202 038a 696E7472 		.ascii	"intr\000"
 6202      00
 6203              	.LASF257:
ARM GAS  C:\Users\r\AppData\Local\Temp\ccBAatSA.s 			page 132


 6204 038f 6D736749 		.ascii	"msgIn\000"
 6204      6E00
 6205              	.LASF231:
 6206 0395 4C697665 		.ascii	"LiveCfg\000"
 6206      43666700 
 6207              	.LASF159:
 6208 039d 50415241 		.ascii	"PARAMETERS_CHANGED\000"
 6208      4D455445 
 6208      52535F43 
 6208      48414E47 
 6208      454400
 6209              	.LASF23:
 6210 03b0 75696E74 		.ascii	"uint64\000"
 6210      363400
 6211              	.LASF7:
 6212 03b7 6C6F6E67 		.ascii	"long int\000"
 6212      20696E74 
 6212      00
 6213              	.LASF239:
 6214 03c0 74617267 		.ascii	"targets\000"
 6214      65747300 
 6215              	.LASF201:
 6216 03c8 554E5245 		.ascii	"UNRECOVERED_READ_ERROR_RECOMMEND_REWRITE_THE_DATA\000"
 6216      434F5645 
 6216      5245445F 
 6216      52454144 
 6216      5F455252 
 6217              	.LASF69:
 6218 03fa 4D454449 		.ascii	"MEDIUM_ERROR\000"
 6218      554D5F45 
 6218      52524F52 
 6218      00
 6219              	.LASF195:
 6220 0407 54485245 		.ascii	"THRESHOLD_CONDITION_MET\000"
 6220      53484F4C 
 6220      445F434F 
 6220      4E444954 
 6220      494F4E5F 
 6221              	.LASF187:
 6222 041f 53415649 		.ascii	"SAVING_PARAMETERS_NOT_SUPPORTED\000"
 6222      4E475F50 
 6222      4152414D 
 6222      45544552 
 6222      535F4E4F 
 6223              	.LASF232:
 6224 043f 74617267 		.ascii	"targetId\000"
 6224      65744964 
 6224      00
 6225              	.LASF237:
 6226 0448 72657365 		.ascii	"reserverId\000"
 6226      72766572 
 6226      496400
 6227              	.LASF108:
 6228 0453 494E4954 		.ascii	"INITIATOR_DETECTED_ERROR_MESSAGE_RECEIVED\000"
 6228      4941544F 
 6228      525F4445 
 6228      54454354 
ARM GAS  C:\Users\r\AppData\Local\Temp\ccBAatSA.s 			page 133


 6228      45445F45 
 6229              	.LASF100:
 6230 047d 4552524F 		.ascii	"ERROR_LOG_OVERFLOW\000"
 6230      525F4C4F 
 6230      475F4F56 
 6230      4552464C 
 6230      4F5700
 6231              	.LASF177:
 6232 0490 5245434F 		.ascii	"RECOVERED_DATA_WITH_NEGATIVE_HEAD_OFFSET\000"
 6232      56455245 
 6232      445F4441 
 6232      54415F57 
 6232      4954485F 
 6233              	.LASF297:
 6234 04b9 72656164 		.ascii	"ready\000"
 6234      7900
 6235              	.LASF118:
 6236 04bf 4C4F475F 		.ascii	"LOG_LIST_CODES_EXHAUSTED\000"
 6236      4C495354 
 6236      5F434F44 
 6236      45535F45 
 6236      58484155 
 6237              	.LASF0:
 6238 04d8 7369676E 		.ascii	"signed char\000"
 6238      65642063 
 6238      68617200 
 6239              	.LASF13:
 6240 04e4 75696E74 		.ascii	"uint8_t\000"
 6240      385F7400 
 6241              	.LASF215:
 6242 04ec 52455345 		.ascii	"RESELECTION\000"
 6242      4C454354 
 6242      494F4E00 
 6243              	.LASF279:
 6244 04f8 646F5364 		.ascii	"doSdInit\000"
 6244      496E6974 
 6244      00
 6245              	.LASF227:
 6246 0501 434F4D50 		.ascii	"COMPAT_UNKNOWN\000"
 6246      41545F55 
 6246      4E4B4E4F 
 6246      574E00
 6247              	.LASF245:
 6248 0510 70617269 		.ascii	"parityError\000"
 6248      74794572 
 6248      726F7200 
 6249              	.LASF164:
 6250 051c 504F5745 		.ascii	"POWER_ON_OR_SELF_TEST_FAILURE\000"
 6250      525F4F4E 
 6250      5F4F525F 
 6250      53454C46 
 6250      5F544553 
 6251              	.LASF95:
 6252 053a 44454645 		.ascii	"DEFECT_LIST_ERROR_IN_GROWN_LIST\000"
 6252      43545F4C 
 6252      4953545F 
 6252      4552524F 
ARM GAS  C:\Users\r\AppData\Local\Temp\ccBAatSA.s 			page 134


 6252      525F494E 
 6253              	.LASF1:
 6254 055a 756E7369 		.ascii	"unsigned char\000"
 6254      676E6564 
 6254      20636861 
 6254      7200
 6255              	.LASF105:
 6256 0568 49445F43 		.ascii	"ID_CRC_OR_ECC_ERROR\000"
 6256      52435F4F 
 6256      525F4543 
 6256      435F4552 
 6256      524F5200 
 6257              	.LASF62:
 6258 057c 73656C65 		.ascii	"selectionDelay\000"
 6258      6374696F 
 6258      6E44656C 
 6258      617900
 6259              	.LASF131:
 6260 058b 4C4F4749 		.ascii	"LOGICAL_UNIT_NOT_READY_MANUAL_INTERVENTION_REQUIRED"
 6260      43414C5F 
 6260      554E4954 
 6260      5F4E4F54 
 6260      5F524541 
 6261 05be 00       		.ascii	"\000"
 6262              	.LASF315:
 6263 05bf 6C617374 		.ascii	"lastActivityTime\000"
 6263      41637469 
 6263      76697479 
 6263      54696D65 
 6263      00
 6264              	.LASF291:
 6265 05d0 7364426C 		.ascii	"sdBlocks\000"
 6265      6F636B73 
 6265      00
 6266              	.LASF281:
 6267 05d9 62797465 		.ascii	"bytes\000"
 6267      7300
 6268              	.LASF169:
 6269 05df 5245434F 		.ascii	"RECORD_NOT_FOUND\000"
 6269      52445F4E 
 6269      4F545F46 
 6269      4F554E44 
 6269      00
 6270              	.LASF24:
 6271 05f0 63686172 		.ascii	"char\000"
 6271      00
 6272              	.LASF123:
 6273 05f5 4C4F4749 		.ascii	"LOGICAL_UNIT_COMMUNICATION_TIMEOUT\000"
 6273      43414C5F 
 6273      554E4954 
 6273      5F434F4D 
 6273      4D554E49 
 6274              	.LASF57:
 6275 0618 756E7573 		.ascii	"unused\000"
 6275      656400
 6276              	.LASF133:
 6277 061f 4D454348 		.ascii	"MECHANICAL_POSITIONING_ERROR\000"
ARM GAS  C:\Users\r\AppData\Local\Temp\ccBAatSA.s 			page 135


 6277      414E4943 
 6277      414C5F50 
 6277      4F534954 
 6277      494F4E49 
 6278              	.LASF154:
 6279 063c 4F504552 		.ascii	"OPERATOR_SELECTED_WRITE_PROTECT\000"
 6279      41544F52 
 6279      5F53454C 
 6279      45435445 
 6279      445F5752 
 6280              	.LASF103:
 6281 065c 47524F57 		.ascii	"GROWN_DEFECT_LIST_NOT_FOUND\000"
 6281      4E5F4445 
 6281      46454354 
 6281      5F4C4953 
 6281      545F4E4F 
 6282              	.LASF287:
 6283 0678 63617061 		.ascii	"capacity\000"
 6283      63697479 
 6283      00
 6284              	.LASF171:
 6285 0681 5245434F 		.ascii	"RECOVERED_DATA_DATA_AUTO_REALLOCATED\000"
 6285      56455245 
 6285      445F4441 
 6285      54415F44 
 6285      4154415F 
 6286              	.LASF4:
 6287 06a6 5F5F7569 		.ascii	"__uint16_t\000"
 6287      6E743136 
 6287      5F7400
 6288              	.LASF32:
 6289 06b1 434F4E46 		.ascii	"CONFIG_ENABLE_DISCONNECT\000"
 6289      49475F45 
 6289      4E41424C 
 6289      455F4449 
 6289      53434F4E 
 6290              	.LASF224:
 6291 06ca 42555359 		.ascii	"BUSY\000"
 6291      00
 6292              	.LASF71:
 6293 06cf 494C4C45 		.ascii	"ILLEGAL_REQUEST\000"
 6293      47414C5F 
 6293      52455155 
 6293      45535400 
 6294              	.LASF60:
 6295 06df 666C6167 		.ascii	"flags\000"
 6295      7300
 6296              	.LASF284:
 6297 06e5 64656665 		.ascii	"defectLength\000"
 6297      63744C65 
 6297      6E677468 
 6297      00
 6298              	.LASF252:
 6299 06f2 6364624C 		.ascii	"cdbLen\000"
 6299      656E00
 6300              	.LASF31:
 6301 06f9 434F4E46 		.ascii	"CONFIG_ENABLE_CACHE\000"
ARM GAS  C:\Users\r\AppData\Local\Temp\ccBAatSA.s 			page 136


 6301      49475F45 
 6301      4E41424C 
 6301      455F4341 
 6301      43484500 
 6302              	.LASF141:
 6303 070d 4D495343 		.ascii	"MISCORRECTED_ERROR\000"
 6303      4F525245 
 6303      43544544 
 6303      5F455252 
 6303      4F5200
 6304              	.LASF182:
 6305 0720 5245434F 		.ascii	"RECOVERED_DATA_WITHOUT_ECC_RECOMMEND_REASSIGNMENT\000"
 6305      56455245 
 6305      445F4441 
 6305      54415F57 
 6305      4954484F 
 6306              	.LASF110:
 6307 0752 494E5445 		.ascii	"INTERNAL_TARGET_FAILURE\000"
 6307      524E414C 
 6307      5F544152 
 6307      4745545F 
 6307      4641494C 
 6308              	.LASF302:
 6309 076a 746F7461 		.ascii	"totalSDSectors\000"
 6309      6C534453 
 6309      6563746F 
 6309      727300
 6310              	.LASF27:
 6311 0779 434F4E46 		.ascii	"CONFIG_ENABLE_UNIT_ATTENTION\000"
 6311      49475F45 
 6311      4E41424C 
 6311      455F554E 
 6311      49545F41 
 6312              	.LASF42:
 6313 0796 64657669 		.ascii	"deviceType\000"
 6313      63655479 
 6313      706500
 6314              	.LASF54:
 6315 07a1 71756972 		.ascii	"quirks\000"
 6315      6B7300
 6316              	.LASF313:
 6317 07a8 73637369 		.ascii	"scsiComplete\000"
 6317      436F6D70 
 6317      6C657465 
 6317      00
 6318              	.LASF97:
 6319 07b5 44454645 		.ascii	"DEFECT_LIST_NOT_AVAILABLE\000"
 6319      43545F4C 
 6319      4953545F 
 6319      4E4F545F 
 6319      41564149 
 6320              	.LASF165:
 6321 07cf 5052494D 		.ascii	"PRIMARY_DEFECT_LIST_NOT_FOUND\000"
 6321      4152595F 
 6321      44454645 
 6321      43545F4C 
 6321      4953545F 
ARM GAS  C:\Users\r\AppData\Local\Temp\ccBAatSA.s 			page 137


 6322              	.LASF326:
 6323 07ed 7472616E 		.ascii	"transfer\000"
 6323      73666572 
 6323      00
 6324              	.LASF236:
 6325 07f6 72657365 		.ascii	"reservedId\000"
 6325      72766564 
 6325      496400
 6326              	.LASF81:
 6327 0801 52455345 		.ascii	"RESERVED\000"
 6327      52564544 
 6327      00
 6328              	.LASF293:
 6329 080a 73645365 		.ascii	"sdSectorPerSCSISector\000"
 6329      63746F72 
 6329      50657253 
 6329      43534953 
 6329      6563746F 
 6330              	.LASF73:
 6331 0820 44415441 		.ascii	"DATA_PROTECT\000"
 6331      5F50524F 
 6331      54454354 
 6331      00
 6332              	.LASF44:
 6333 082d 64657669 		.ascii	"deviceTypeModifier\000"
 6333      63655479 
 6333      70654D6F 
 6333      64696669 
 6333      657200
 6334              	.LASF88:
 6335 0840 434F4D4D 		.ascii	"COMMAND_SEQUENCE_ERROR\000"
 6335      414E445F 
 6335      53455155 
 6335      454E4345 
 6335      5F455252 
 6336              	.LASF283:
 6337 0857 646F466F 		.ascii	"doFormatUnitPatternHeader\000"
 6337      726D6174 
 6337      556E6974 
 6337      50617474 
 6337      65726E48 
 6338              	.LASF200:
 6339 0871 554E5245 		.ascii	"UNRECOVERED_READ_ERROR_RECOMMEND_REASSIGNMENT\000"
 6339      434F5645 
 6339      5245445F 
 6339      52454144 
 6339      5F455252 
 6340              	.LASF332:
 6341 089f 646F5265 		.ascii	"doReadCapacity\000"
 6341      61644361 
 6341      70616369 
 6341      747900
 6342              	.LASF233:
 6343 08ae 6C697665 		.ascii	"liveCfg\000"
 6343      43666700 
 6344              	.LASF266:
 6345 08b6 6C617374 		.ascii	"lastSense\000"
ARM GAS  C:\Users\r\AppData\Local\Temp\ccBAatSA.s 			page 138


 6345      53656E73 
 6345      6500
 6346              	.LASF309:
 6347 08c0 73644275 		.ascii	"sdBusy\000"
 6347      737900
 6348              	.LASF330:
 6349 08c7 53445365 		.ascii	"SDSectorsPerSCSISector\000"
 6349      63746F72 
 6349      73506572 
 6349      53435349 
 6349      53656374 
 6350              	.LASF213:
 6351 08de 41524249 		.ascii	"ARBITRATION\000"
 6351      54524154 
 6351      494F4E00 
 6352              	.LASF143:
 6353 08ea 4D554C54 		.ascii	"MULTIPLE_PERIPHERAL_DEVICES_SELECTED\000"
 6353      49504C45 
 6353      5F504552 
 6353      49504845 
 6353      52414C5F 
 6354              	.LASF325:
 6355 090f 626C6F63 		.ascii	"blockDev\000"
 6355      6B446576 
 6355      00
 6356              	.LASF115:
 6357 0918 494E5641 		.ascii	"INVALID_MESSAGE_ERROR\000"
 6357      4C49445F 
 6357      4D455353 
 6357      4147455F 
 6357      4552524F 
 6358              	.LASF194:
 6359 092e 54415247 		.ascii	"TARGET_OPERATING_CONDITIONS_HAVE_CHANGED\000"
 6359      45545F4F 
 6359      50455241 
 6359      54494E47 
 6359      5F434F4E 
 6360              	.LASF255:
 6361 0957 696E6974 		.ascii	"initiatorId\000"
 6361      6961746F 
 6361      72496400 
 6362              	.LASF262:
 6363 0963 72737443 		.ascii	"rstCount\000"
 6363      6F756E74 
 6363      00
 6364              	.LASF9:
 6365 096c 6C6F6E67 		.ascii	"long unsigned int\000"
 6365      20756E73 
 6365      69676E65 
 6365      6420696E 
 6365      7400
 6366              	.LASF161:
 6367 097e 504F5349 		.ascii	"POSITIONING_ERROR_DETECTED_BY_READ_OF_MEDIUM\000"
 6367      54494F4E 
 6367      494E475F 
 6367      4552524F 
 6367      525F4445 
ARM GAS  C:\Users\r\AppData\Local\Temp\ccBAatSA.s 			page 139


 6368              	.LASF64:
 6369 09ab 73637369 		.ascii	"scsiSpeed\000"
 6369      53706565 
 6369      6400
 6370              	.LASF167:
 6371 09b5 52414E44 		.ascii	"RANDOM_POSITIONING_ERROR\000"
 6371      4F4D5F50 
 6371      4F534954 
 6371      494F4E49 
 6371      4E475F45 
 6372              	.LASF197:
 6373 09ce 54524143 		.ascii	"TRACK_FOLLOWING_ERROR\000"
 6373      4B5F464F 
 6373      4C4C4F57 
 6373      494E475F 
 6373      4552524F 
 6374              	.LASF256:
 6375 09e4 73746174 		.ascii	"status\000"
 6375      757300
 6376              	.LASF240:
 6377 09eb 74617267 		.ascii	"target\000"
 6377      657400
 6378              	.LASF163:
 6379 09f2 504F5745 		.ascii	"POWER_ON_RESET\000"
 6379      525F4F4E 
 6379      5F524553 
 6379      455400
 6380              	.LASF87:
 6381 0a01 434F4D4D 		.ascii	"COMMAND_PHASE_ERROR\000"
 6381      414E445F 
 6381      50484153 
 6381      455F4552 
 6381      524F5200 
 6382              	.LASF86:
 6383 0a15 4348414E 		.ascii	"CHANGED_OPERATING_DEFINITION\000"
 6383      4745445F 
 6383      4F504552 
 6383      4154494E 
 6383      475F4445 
 6384              	.LASF181:
 6385 0a32 5245434F 		.ascii	"RECOVERED_DATA_WITHOUT_ECC_DATA_AUTO_REALLOCATED\000"
 6385      56455245 
 6385      445F4441 
 6385      54415F57 
 6385      4954484F 
 6386              	.LASF316:
 6387 0a63 7265636F 		.ascii	"reconnected\000"
 6387      6E6E6563 
 6387      74656400 
 6388              	.LASF90:
 6389 0a6f 434F5059 		.ascii	"COPY_CANNOT_EXECUTE_SINCE_HOST_CANNOT_DISCONNECT\000"
 6389      5F43414E 
 6389      4E4F545F 
 6389      45584543 
 6389      5554455F 
 6390              	.LASF260:
 6391 0aa0 636D6443 		.ascii	"cmdCount\000"
ARM GAS  C:\Users\r\AppData\Local\Temp\ccBAatSA.s 			page 140


 6391      6F756E74 
 6391      00
 6392              	.LASF261:
 6393 0aa9 73656C43 		.ascii	"selCount\000"
 6393      6F756E74 
 6393      00
 6394              	.LASF132:
 6395 0ab2 4C4F4749 		.ascii	"LOGICAL_UNIT_NOT_SUPPORTED\000"
 6395      43414C5F 
 6395      554E4954 
 6395      5F4E4F54 
 6395      5F535550 
 6396              	.LASF53:
 6397 0acd 73657269 		.ascii	"serial\000"
 6397      616C00
 6398              	.LASF249:
 6399 0ad4 64617461 		.ascii	"dataPtr\000"
 6399      50747200 
 6400              	.LASF113:
 6401 0adc 494E5641 		.ascii	"INVALID_FIELD_IN_CDB\000"
 6401      4C49445F 
 6401      4649454C 
 6401      445F494E 
 6401      5F434442 
 6402              	.LASF155:
 6403 0af1 4F564552 		.ascii	"OVERLAPPED_COMMANDS_ATTEMPTED\000"
 6403      4C415050 
 6403      45445F43 
 6403      4F4D4D41 
 6403      4E44535F 
 6404              	.LASF222:
 6405 0b0f 474F4F44 		.ascii	"GOOD\000"
 6405      00
 6406              	.LASF327:
 6407 0b14 474E5520 		.ascii	"GNU C11 5.4.1 20160609 (release) [ARM/embedded-5-br"
 6407      43313120 
 6407      352E342E 
 6407      31203230 
 6407      31363036 
 6408 0b47 616E6368 		.ascii	"anch revision 237715] -mcpu=cortex-m3 -mthumb -g -O"
 6408      20726576 
 6408      6973696F 
 6408      6E203233 
 6408      37373135 
 6409 0b7a 30202D66 		.ascii	"0 -ffunction-sections -ffat-lto-objects\000"
 6409      66756E63 
 6409      74696F6E 
 6409      2D736563 
 6409      74696F6E 
 6410              	.LASF286:
 6411 0ba2 646F466F 		.ascii	"doFormatUnitHeader\000"
 6411      726D6174 
 6411      556E6974 
 6411      48656164 
 6411      657200
 6412              	.LASF303:
 6413 0bb5 73645065 		.ascii	"sdPerScsi\000"
ARM GAS  C:\Users\r\AppData\Local\Temp\ccBAatSA.s 			page 141


 6413      72536373 
 6413      6900
 6414              	.LASF41:
 6415 0bbf 73637369 		.ascii	"scsiId\000"
 6415      496400
 6416              	.LASF185:
 6417 0bc6 524F554E 		.ascii	"ROUNDED_PARAMETER\000"
 6417      4445445F 
 6417      50415241 
 6417      4D455445 
 6417      5200
 6418              	.LASF77:
 6419 0bd8 41424F52 		.ascii	"ABORTED_COMMAND\000"
 6419      5445445F 
 6419      434F4D4D 
 6419      414E4400 
 6420              	.LASF289:
 6421 0be8 646F5772 		.ascii	"doWrite\000"
 6421      69746500 
 6422              	.LASF174:
 6423 0bf0 5245434F 		.ascii	"RECOVERED_DATA_USING_PREVIOUS_SECTOR_ID\000"
 6423      56455245 
 6423      445F4441 
 6423      54415F55 
 6423      53494E47 
 6424              	.LASF8:
 6425 0c18 5F5F7569 		.ascii	"__uint32_t\000"
 6425      6E743332 
 6425      5F7400
 6426              	.LASF175:
 6427 0c23 5245434F 		.ascii	"RECOVERED_DATA_WITH_ERROR_CORRECTION_RETRIES_APPLIE"
 6427      56455245 
 6427      445F4441 
 6427      54415F57 
 6427      4954485F 
 6428 0c56 4400     		.ascii	"D\000"
 6429              	.LASF10:
 6430 0c58 6C6F6E67 		.ascii	"long long int\000"
 6430      206C6F6E 
 6430      6720696E 
 6430      7400
 6431              	.LASF269:
 6432 0c66 4449534B 		.ascii	"DISK_STARTED\000"
 6432      5F535441 
 6432      52544544 
 6432      00
 6433              	.LASF94:
 6434 0c73 44454645 		.ascii	"DEFECT_LIST_ERROR\000"
 6434      43545F4C 
 6434      4953545F 
 6434      4552524F 
 6434      5200
 6435              	.LASF93:
 6436 0c85 44415441 		.ascii	"DATA_SYNCHRONIZATION_MARK_ERROR\000"
 6436      5F53594E 
 6436      4348524F 
 6436      4E495A41 
ARM GAS  C:\Users\r\AppData\Local\Temp\ccBAatSA.s 			page 142


 6436      54494F4E 
 6437              	.LASF82:
 6438 0ca5 41444452 		.ascii	"ADDRESS_MARK_NOT_FOUND_FOR_DATA_FIELD\000"
 6438      4553535F 
 6438      4D41524B 
 6438      5F4E4F54 
 6438      5F464F55 
 6439              	.LASF89:
 6440 0ccb 434F4D4D 		.ascii	"COMMANDS_CLEARED_BY_ANOTHER_INITIATOR\000"
 6440      414E4453 
 6440      5F434C45 
 6440      41524544 
 6440      5F42595F 
 6441              	.LASF22:
 6442 0cf1 646F7562 		.ascii	"double\000"
 6442      6C6500
 6443              	.LASF318:
 6444 0cf8 73637369 		.ascii	"scsiDiskInit\000"
 6444      4469736B 
 6444      496E6974 
 6444      00
 6445              	.LASF128:
 6446 0d05 4C4F4749 		.ascii	"LOGICAL_UNIT_NOT_READY_CAUSE_NOT_REPORTABLE\000"
 6446      43414C5F 
 6446      554E4954 
 6446      5F4E4F54 
 6446      5F524541 
 6447              	.LASF91:
 6448 0d31 44415441 		.ascii	"DATA_PATH_FAILURE\000"
 6448      5F504154 
 6448      485F4641 
 6448      494C5552 
 6448      4500
 6449              	.LASF126:
 6450 0d43 4C4F4749 		.ascii	"LOGICAL_UNIT_HAS_NOT_SELF_CONFIGURED_YET\000"
 6450      43414C5F 
 6450      554E4954 
 6450      5F484153 
 6450      5F4E4F54 
 6451              	.LASF136:
 6452 0d6c 4D454449 		.ascii	"MEDIUM_NOT_PRESENT\000"
 6452      554D5F4E 
 6452      4F545F50 
 6452      52455345 
 6452      4E5400
 6453              	.LASF254:
 6454 0d7f 636F6D70 		.ascii	"compatMode\000"
 6454      61744D6F 
 6454      646500
 6455              	.LASF319:
 6456 0d8a 49544D5F 		.ascii	"ITM_RxBuffer\000"
 6456      52784275 
 6456      66666572 
 6456      00
 6457              	.LASF193:
 6458 0d97 53594E43 		.ascii	"SYNCHRONOUS_DATA_TRANSFER_ERROR\000"
 6458      48524F4E 
ARM GAS  C:\Users\r\AppData\Local\Temp\ccBAatSA.s 			page 143


 6458      4F55535F 
 6458      44415441 
 6458      5F545241 
 6459              	.LASF189:
 6460 0db7 53435349 		.ascii	"SCSI_PARITY_ERROR\000"
 6460      5F504152 
 6460      4954595F 
 6460      4552524F 
 6460      5200
 6461              	.LASF33:
 6462 0dc9 434F4E46 		.ascii	"CONFIG_ENABLE_SEL_LATCH\000"
 6462      49475F45 
 6462      4E41424C 
 6462      455F5345 
 6462      4C5F4C41 
 6463              	.LASF21:
 6464 0de1 666C6F61 		.ascii	"float\000"
 6464      7400
 6465              	.LASF272:
 6466 0de7 4449534B 		.ascii	"DISK_WP\000"
 6466      5F575000 
 6467              	.LASF134:
 6468 0def 4D454449 		.ascii	"MEDIA_LOAD_OR_EJECT_FAILED\000"
 6468      415F4C4F 
 6468      41445F4F 
 6468      525F454A 
 6468      4543545F 
 6469              	.LASF12:
 6470 0e0a 756E7369 		.ascii	"unsigned int\000"
 6470      676E6564 
 6470      20696E74 
 6470      00
 6471              	.LASF75:
 6472 0e17 56454E44 		.ascii	"VENDOR_SPECIFIC\000"
 6472      4F525F53 
 6472      50454349 
 6472      46494300 
 6473              	.LASF79:
 6474 0e27 564F4C55 		.ascii	"VOLUME_OVERFLOW\000"
 6474      4D455F4F 
 6474      56455246 
 6474      4C4F5700 
 6475              	.LASF221:
 6476 0e37 4D455353 		.ascii	"MESSAGE_OUT\000"
 6476      4147455F 
 6476      4F555400 
 6477              	.LASF275:
 6478 0e43 6D756C74 		.ascii	"multiBlock\000"
 6478      69426C6F 
 6478      636B00
 6479              	.LASF150:
 6480 0e4e 4E4F545F 		.ascii	"NOT_READY_TO_READY_TRANSITION_MEDIUM_MAY_HAVE_CHANG"
 6480      52454144 
 6480      595F544F 
 6480      5F524541 
 6480      44595F54 
 6481 0e81 454400   		.ascii	"ED\000"
ARM GAS  C:\Users\r\AppData\Local\Temp\ccBAatSA.s 			page 144


 6482              	.LASF322:
 6483 0e84 73637369 		.ascii	"scsiDev\000"
 6483      44657600 
 6484              	.LASF188:
 6485 0e8c 53435349 		.ascii	"SCSI_BUS_RESET\000"
 6485      5F425553 
 6485      5F524553 
 6485      455400
 6486              	.LASF162:
 6487 0e9b 504F5745 		.ascii	"POWER_ON_RESET_OR_BUS_DEVICE_RESET_OCCURRED\000"
 6487      525F4F4E 
 6487      5F524553 
 6487      45545F4F 
 6487      525F4255 
 6488              	.LASF157:
 6489 0ec7 50415241 		.ascii	"PARAMETER_NOT_SUPPORTED\000"
 6489      4D455445 
 6489      525F4E4F 
 6489      545F5355 
 6489      50504F52 
 6490              	.LASF166:
 6491 0edf 52414D5F 		.ascii	"RAM_FAILURE\000"
 6491      4641494C 
 6491      55524500 
 6492              	.LASF116:
 6493 0eeb 4C4F475F 		.ascii	"LOG_COUNTER_AT_MAXIMUM\000"
 6493      434F554E 
 6493      5445525F 
 6493      41545F4D 
 6493      4158494D 
 6494              	.LASF264:
 6495 0f02 77617463 		.ascii	"watchdogTick\000"
 6495      68646F67 
 6495      5469636B 
 6495      00
 6496              	.LASF198:
 6497 0f0f 554E5245 		.ascii	"UNRECOVERED_READ_ERROR\000"
 6497      434F5645 
 6497      5245445F 
 6497      52454144 
 6497      5F455252 
 6498              	.LASF265:
 6499 0f26 6C617374 		.ascii	"lastStatus\000"
 6499      53746174 
 6499      757300
 6500              	.LASF214:
 6501 0f31 53454C45 		.ascii	"SELECTION\000"
 6501      4354494F 
 6501      4E00
 6502              	.LASF122:
 6503 0f3b 4C4F4749 		.ascii	"LOGICAL_UNIT_COMMUNICATION_PARITY_ERROR\000"
 6503      43414C5F 
 6503      554E4954 
 6503      5F434F4D 
 6503      4D554E49 
 6504              	.LASF48:
 6505 0f63 73656374 		.ascii	"sectorsPerTrack\000"
ARM GAS  C:\Users\r\AppData\Local\Temp\ccBAatSA.s 			page 145


 6505      6F727350 
 6505      65725472 
 6505      61636B00 
 6506              	.LASF38:
 6507 0f73 434F4E46 		.ascii	"CONFIG_FLOPPY_14MB\000"
 6507      49475F46 
 6507      4C4F5050 
 6507      595F3134 
 6507      4D4200
 6508              	.LASF144:
 6509 0f86 4D554C54 		.ascii	"MULTIPLE_READ_ERRORS\000"
 6509      49504C45 
 6509      5F524541 
 6509      445F4552 
 6509      524F5253 
 6510              	.LASF137:
 6511 0f9b 4D454449 		.ascii	"MEDIUM_REMOVAL_PREVENTED\000"
 6511      554D5F52 
 6511      454D4F56 
 6511      414C5F50 
 6511      52455645 
 6512              	.LASF271:
 6513 0fb4 4449534B 		.ascii	"DISK_INITIALISED\000"
 6513      5F494E49 
 6513      5449414C 
 6513      49534544 
 6513      00
 6514              	.LASF68:
 6515 0fc5 4E4F545F 		.ascii	"NOT_READY\000"
 6515      52454144 
 6515      5900
 6516              	.LASF170:
 6517 0fcf 5245434F 		.ascii	"RECORDED_ENTITY_NOT_FOUND\000"
 6517      52444544 
 6517      5F454E54 
 6517      4954595F 
 6517      4E4F545F 
 6518              	.LASF259:
 6519 0fe9 706F7374 		.ascii	"postDataOutHook\000"
 6519      44617461 
 6519      4F757448 
 6519      6F6F6B00 
 6520              	.LASF253:
 6521 0ff9 64697363 		.ascii	"discPriv\000"
 6521      50726976 
 6521      00
 6522              	.LASF311:
 6523 1002 646D6142 		.ascii	"dmaBytes\000"
 6523      79746573 
 6523      00
 6524              	.LASF146:
 6525 100b 4E4F5F44 		.ascii	"NO_DEFECT_SPARE_LOCATION_AVAILABLE\000"
 6525      45464543 
 6525      545F5350 
 6525      4152455F 
 6525      4C4F4341 
 6526              	.LASF285:
ARM GAS  C:\Users\r\AppData\Local\Temp\ccBAatSA.s 			page 146


 6527 102e 70617474 		.ascii	"patternLength\000"
 6527      65726E4C 
 6527      656E6774 
 6527      6800
 6528              	.LASF243:
 6529 103c 72657365 		.ascii	"resetFlag\000"
 6529      74466C61 
 6529      6700
 6530              	.LASF225:
 6531 1046 494E5445 		.ascii	"INTERMEDIATE\000"
 6531      524D4544 
 6531      49415445 
 6531      00
 6532              	.LASF230:
 6533 1053 434F4D50 		.ascii	"COMPAT_SCSI2\000"
 6533      41545F53 
 6533      43534932 
 6533      00
 6534              	.LASF267:
 6535 1060 6C617374 		.ascii	"lastSenseASC\000"
 6535      53656E73 
 6535      65415343 
 6535      00
 6536              	.LASF25:
 6537 106d 6C6F6E67 		.ascii	"long double\000"
 6537      20646F75 
 6537      626C6500 
 6538              	.LASF63:
 6539 1079 666C6167 		.ascii	"flags6\000"
 6539      733600
 6540              	.LASF46:
 6541 1080 73637369 		.ascii	"scsiSectors\000"
 6541      53656374 
 6541      6F727300 
 6542              	.LASF120:
 6543 108c 4C4F4749 		.ascii	"LOGICAL_BLOCK_ADDRESS_OUT_OF_RANGE\000"
 6543      43414C5F 
 6543      424C4F43 
 6543      4B5F4144 
 6543      44524553 
 6544              	.LASF39:
 6545 10af 434F4E46 		.ascii	"CONFIG_MO\000"
 6545      49475F4D 
 6545      4F00
 6546              	.LASF320:
 6547 10b9 73645278 		.ascii	"sdRxDMAComplete\000"
 6547      444D4143 
 6547      6F6D706C 
 6547      65746500 
 6548              	.LASF98:
 6549 10c9 44454645 		.ascii	"DEFECT_LIST_NOT_FOUND\000"
 6549      43545F4C 
 6549      4953545F 
 6549      4E4F545F 
 6549      464F554E 
 6550              	.LASF218:
 6551 10df 44415441 		.ascii	"DATA_IN\000"
ARM GAS  C:\Users\r\AppData\Local\Temp\ccBAatSA.s 			page 147


 6551      5F494E00 
 6552              	.LASF158:
 6553 10e7 50415241 		.ascii	"PARAMETER_VALUE_INVALID\000"
 6553      4D455445 
 6553      525F5641 
 6553      4C55455F 
 6553      494E5641 
 6554              	.LASF80:
 6555 10ff 4D495343 		.ascii	"MISCOMPARE\000"
 6555      4F4D5041 
 6555      524500
 6556              	.LASF153:
 6557 110a 4F504552 		.ascii	"OPERATOR_SELECTED_WRITE_PERMIT\000"
 6557      41544F52 
 6557      5F53454C 
 6557      45435445 
 6557      445F5752 
 6558              	.LASF30:
 6559 1129 434F4E46 		.ascii	"CONFIG_DISABLE_GLITCH\000"
 6559      49475F44 
 6559      49534142 
 6559      4C455F47 
 6559      4C495443 
 6560              	.LASF45:
 6561 113f 73645365 		.ascii	"sdSectorStart\000"
 6561      63746F72 
 6561      53746172 
 6561      7400
 6562              	.LASF47:
 6563 114d 62797465 		.ascii	"bytesPerSector\000"
 6563      73506572 
 6563      53656374 
 6563      6F7200
 6564              	.LASF183:
 6565 115c 5245434F 		.ascii	"RECOVERED_DATA_WITHOUT_ECC_RECOMMEND_REWRITE\000"
 6565      56455245 
 6565      445F4441 
 6565      54415F57 
 6565      4954484F 
 6566              	.LASF329:
 6567 1189 433A5C55 		.ascii	"C:\\Users\\r\\Documents\\Data Sheets\\apple\\SCSI2S"
 6567      73657273 
 6567      5C725C44 
 6567      6F63756D 
 6567      656E7473 
 6568 11b6 445C5343 		.ascii	"D\\SCSI2SD_Copy_01.cydsn\000"
 6568      53493253 
 6568      445F436F 
 6568      70795F30 
 6568      312E6379 
 6569              	.LASF52:
 6570 11ce 72657669 		.ascii	"revision\000"
 6570      73696F6E 
 6570      00
 6571              	.LASF11:
 6572 11d7 6C6F6E67 		.ascii	"long long unsigned int\000"
 6572      206C6F6E 
ARM GAS  C:\Users\r\AppData\Local\Temp\ccBAatSA.s 			page 148


 6572      6720756E 
 6572      7369676E 
 6572      65642069 
 6573              	.LASF151:
 6574 11ee 4F504552 		.ascii	"OPERATOR_MEDIUM_REMOVAL_REQUEST\000"
 6574      41544F52 
 6574      5F4D4544 
 6574      49554D5F 
 6574      52454D4F 
 6575              	.LASF299:
 6576 120e 636F6D6D 		.ascii	"command\000"
 6576      616E6400 
 6577              	.LASF14:
 6578 1216 75696E74 		.ascii	"uint16_t\000"
 6578      31365F74 
 6578      00
 6579              	.LASF238:
 6580 121f 54617267 		.ascii	"TargetState\000"
 6580      65745374 
 6580      61746500 
 6581              	.LASF324:
 6582 122b 73637369 		.ascii	"scsiTxDMAComplete\000"
 6582      5478444D 
 6582      41436F6D 
 6582      706C6574 
 6582      6500
 6583              	.LASF106:
 6584 123d 494C4C45 		.ascii	"ILLEGAL_FUNCTION\000"
 6584      47414C5F 
 6584      46554E43 
 6584      54494F4E 
 6584      00
 6585              	.LASF142:
 6586 124e 4D4F4445 		.ascii	"MODE_PARAMETERS_CHANGED\000"
 6586      5F504152 
 6586      414D4554 
 6586      4552535F 
 6586      4348414E 
 6587              	.LASF312:
 6588 1266 73637369 		.ascii	"scsiDisconnected\000"
 6588      44697363 
 6588      6F6E6E65 
 6588      63746564 
 6588      00
 6589              	.LASF36:
 6590 1277 434F4E46 		.ascii	"CONFIG_REMOVEABLE\000"
 6590      49475F52 
 6590      454D4F56 
 6590      4541424C 
 6590      4500
 6591              	.LASF160:
 6592 1289 50455249 		.ascii	"PERIPHERAL_DEVICE_WRITE_FAULT\000"
 6592      50484552 
 6592      414C5F44 
 6592      45564943 
 6592      455F5752 
 6593              	.LASF295:
ARM GAS  C:\Users\r\AppData\Local\Temp\ccBAatSA.s 			page 149


 6594 12a7 646F5365 		.ascii	"doSeek\000"
 6594      656B00
 6595              	.LASF140:
 6596 12ae 4D495343 		.ascii	"MISCOMPARE_DURING_VERIFY_OPERATION\000"
 6596      4F4D5041 
 6596      52455F44 
 6596      5552494E 
 6596      475F5645 
 6597              	.LASF226:
 6598 12d1 434F4E46 		.ascii	"CONFLICT\000"
 6598      4C494354 
 6598      00
 6599              	.LASF168:
 6600 12da 52454144 		.ascii	"READ_RETRIES_EXHAUSTED\000"
 6600      5F524554 
 6600      52494553 
 6600      5F455848 
 6600      41555354 
 6601              	.LASF139:
 6602 12f1 4D494352 		.ascii	"MICROCODE_HAS_BEEN_CHANGED\000"
 6602      4F434F44 
 6602      455F4841 
 6602      535F4245 
 6602      454E5F43 
 6603              	.LASF209:
 6604 130c 5F5F7363 		.ascii	"__scsiphase_cd\000"
 6604      73697068 
 6604      6173655F 
 6604      636400
 6605              	.LASF156:
 6606 131b 50415241 		.ascii	"PARAMETER_LIST_LENGTH_ERROR\000"
 6606      4D455445 
 6606      525F4C49 
 6606      53545F4C 
 6606      454E4754 
 6607              	.LASF304:
 6608 1337 62756666 		.ascii	"buffers\000"
 6608      65727300 
 6609              	.LASF202:
 6610 133f 554E5355 		.ascii	"UNSUCCESSFUL_SOFT_RESET\000"
 6610      43434553 
 6610      5346554C 
 6610      5F534F46 
 6610      545F5245 
 6611              	.LASF216:
 6612 1357 53544154 		.ascii	"STATUS\000"
 6612      555300
 6613              	.LASF206:
 6614 135e 636F6465 		.ascii	"code\000"
 6614      00
 6615              	.LASF112:
 6616 1363 494E5641 		.ascii	"INVALID_COMMAND_OPERATION_CODE\000"
 6616      4C49445F 
 6616      434F4D4D 
 6616      414E445F 
 6616      4F504552 
 6617              	.LASF125:
ARM GAS  C:\Users\r\AppData\Local\Temp\ccBAatSA.s 			page 150


 6618 1382 4C4F4749 		.ascii	"LOGICAL_UNIT_FAILED_SELF_CONFIGURATION\000"
 6618      43414C5F 
 6618      554E4954 
 6618      5F464149 
 6618      4C45445F 
 6619              	.LASF274:
 6620 13a9 426C6F63 		.ascii	"BlockDevice\000"
 6620      6B446576 
 6620      69636500 
 6621              	.LASF83:
 6622 13b5 41444452 		.ascii	"ADDRESS_MARK_NOT_FOUND_FOR_ID_FIELD\000"
 6622      4553535F 
 6622      4D41524B 
 6622      5F4E4F54 
 6622      5F464F55 
 6623              	.LASF204:
 6624 13d9 57524954 		.ascii	"WRITE_ERROR_RECOVERED_WITH_AUTO_REALLOCATION\000"
 6624      455F4552 
 6624      524F525F 
 6624      5245434F 
 6624      56455245 
 6625              	.LASF124:
 6626 1406 4C4F4749 		.ascii	"LOGICAL_UNIT_DOES_NOT_RESPOND_TO_SELECTION\000"
 6626      43414C5F 
 6626      554E4954 
 6626      5F444F45 
 6626      535F4E4F 
 6627              	.LASF205:
 6628 1431 57524954 		.ascii	"WRITE_PROTECTED\000"
 6628      455F5052 
 6628      4F544543 
 6628      54454400 
 6629              	.LASF217:
 6630 1441 434F4D4D 		.ascii	"COMMAND\000"
 6630      414E4400 
 6631              	.LASF333:
 6632 1449 73637369 		.ascii	"scsiDiskCommand\000"
 6632      4469736B 
 6632      436F6D6D 
 6632      616E6400 
 6633              	.LASF114:
 6634 1459 494E5641 		.ascii	"INVALID_FIELD_IN_PARAMETER_LIST\000"
 6634      4C49445F 
 6634      4649454C 
 6634      445F494E 
 6634      5F504152 
 6635              	.LASF149:
 6636 1479 4E4F5F53 		.ascii	"NO_SEEK_COMPLETE\000"
 6636      45454B5F 
 6636      434F4D50 
 6636      4C455445 
 6636      00
 6637              	.LASF17:
 6638 148a 75696E74 		.ascii	"uint8\000"
 6638      3800
 6639              	.LASF258:
 6640 1490 6D73674F 		.ascii	"msgOut\000"
ARM GAS  C:\Users\r\AppData\Local\Temp\ccBAatSA.s 			page 151


 6640      757400
 6641              	.LASF56:
 6642 1497 6D6F6465 		.ascii	"modePages\000"
 6642      50616765 
 6642      7300
 6643              	.LASF2:
 6644 14a1 73686F72 		.ascii	"short int\000"
 6644      7420696E 
 6644      7400
 6645              	.LASF328:
 6646 14ab 2E2E5C2E 		.ascii	"..\\..\\src\\disk.c\000"
 6646      2E5C7372 
 6646      635C6469 
 6646      736B2E63 
 6646      00
 6647              	.LASF76:
 6648 14bc 434F5059 		.ascii	"COPY_ABORTED\000"
 6648      5F41424F 
 6648      52544544 
 6648      00
 6649              	.LASF135:
 6650 14c9 4D454449 		.ascii	"MEDIUM_FORMAT_CORRUPTED\000"
 6650      554D5F46 
 6650      4F524D41 
 6650      545F434F 
 6650      52525550 
 6651              	.LASF102:
 6652 14e1 464F524D 		.ascii	"FORMAT_COMMAND_FAILED\000"
 6652      41545F43 
 6652      4F4D4D41 
 6652      4E445F46 
 6652      41494C45 
 6653              	.LASF111:
 6654 14f7 494E5641 		.ascii	"INVALID_BITS_IN_IDENTIFY_MESSAGE\000"
 6654      4C49445F 
 6654      42495453 
 6654      5F494E5F 
 6654      4944454E 
 6655              	.LASF296:
 6656 1518 646F5465 		.ascii	"doTestUnitReady\000"
 6656      7374556E 
 6656      69745265 
 6656      61647900 
 6657              	.LASF192:
 6658 1528 5350494E 		.ascii	"SPINDLES_SYNCHRONIZED\000"
 6658      444C4553 
 6658      5F53594E 
 6658      4348524F 
 6658      4E495A45 
 6659              	.LASF277:
 6660 153e 63757272 		.ascii	"currentBlock\000"
 6660      656E7442 
 6660      6C6F636B 
 6660      00
 6661              	.LASF334:
 6662 154b 73637369 		.ascii	"scsiDiskPoll\000"
 6662      4469736B 
ARM GAS  C:\Users\r\AppData\Local\Temp\ccBAatSA.s 			page 152


 6662      506F6C6C 
 6662      00
 6663              	.LASF178:
 6664 1558 5245434F 		.ascii	"RECOVERED_DATA_WITH_NO_ERROR_CORRECTION_APPLIED\000"
 6664      56455245 
 6664      445F4441 
 6664      54415F57 
 6664      4954485F 
 6665              	.LASF101:
 6666 1588 4552524F 		.ascii	"ERROR_TOO_LONG_TO_CORRECT\000"
 6666      525F544F 
 6666      4F5F4C4F 
 6666      4E475F54 
 6666      4F5F434F 
 6667              	.LASF219:
 6668 15a2 44415441 		.ascii	"DATA_OUT\000"
 6668      5F4F5554 
 6668      00
 6669              	.LASF278:
 6670 15ab 5472616E 		.ascii	"Transfer\000"
 6670      73666572 
 6670      00
 6671              	.LASF308:
 6672 15b4 73637369 		.ascii	"scsiBusy\000"
 6672      42757379 
 6672      00
 6673              	.LASF72:
 6674 15bd 554E4954 		.ascii	"UNIT_ATTENTION\000"
 6674      5F415454 
 6674      454E5449 
 6674      4F4E00
 6675              	.LASF323:
 6676 15cc 73637369 		.ascii	"scsiRxDMAComplete\000"
 6676      5278444D 
 6676      41436F6D 
 6676      706C6574 
 6676      6500
 6677              	.LASF129:
 6678 15de 4C4F4749 		.ascii	"LOGICAL_UNIT_NOT_READY_FORMAT_IN_PROGRESS\000"
 6678      43414C5F 
 6678      554E4954 
 6678      5F4E4F54 
 6678      5F524541 
 6679              	.LASF210:
 6680 1608 5F5F7363 		.ascii	"__scsiphase_io\000"
 6680      73697068 
 6680      6173655F 
 6680      696F00
 6681              	.LASF40:
 6682 1617 434F4E46 		.ascii	"CONFIG_SEQUENTIAL\000"
 6682      49475F53 
 6682      45515545 
 6682      4E544941 
 6682      4C00
 6683              	.LASF241:
 6684 1629 626F6172 		.ascii	"boardCfg\000"
 6684      64436667 
ARM GAS  C:\Users\r\AppData\Local\Temp\ccBAatSA.s 			page 153


 6684      00
 6685              	.LASF43:
 6686 1632 666C6167 		.ascii	"flagsDEPRECATED\000"
 6686      73444550 
 6686      52454341 
 6686      54454400 
 6687              	.LASF148:
 6688 1642 4E4F5F52 		.ascii	"NO_REFERENCE_POSITION_FOUND\000"
 6688      45464552 
 6688      454E4345 
 6688      5F504F53 
 6688      4954494F 
 6689              	.LASF84:
 6690 165e 43414E4E 		.ascii	"CANNOT_READ_MEDIUM_INCOMPATIBLE_FORMAT\000"
 6690      4F545F52 
 6690      4541445F 
 6690      4D454449 
 6690      554D5F49 
 6691              	.LASF92:
 6692 1685 44415441 		.ascii	"DATA_PHASE_ERROR\000"
 6692      5F504841 
 6692      53455F45 
 6692      52524F52 
 6692      00
 6693              	.LASF117:
 6694 1696 4C4F475F 		.ascii	"LOG_EXCEPTION\000"
 6694      45584345 
 6694      5054494F 
 6694      4E00
 6695              	.LASF276:
 6696 16a4 626C6F63 		.ascii	"blocks\000"
 6696      6B7300
 6697              	.LASF145:
 6698 16ab 4E4F5F41 		.ascii	"NO_ADDITIONAL_SENSE_INFORMATION\000"
 6698      44444954 
 6698      494F4E41 
 6698      4C5F5345 
 6698      4E53455F 
 6699              	.LASF268:
 6700 16cb 53637369 		.ascii	"ScsiDevice\000"
 6700      44657669 
 6700      636500
 6701              	.LASF16:
 6702 16d6 75696E74 		.ascii	"uint32_t\000"
 6702      33325F74 
 6702      00
 6703              	.LASF251:
 6704 16df 64617461 		.ascii	"dataLen\000"
 6704      4C656E00 
 6705              	.LASF280:
 6706 16e7 646F466F 		.ascii	"doFormatUnitSkipData\000"
 6706      726D6174 
 6706      556E6974 
 6706      536B6970 
 6706      44617461 
 6707              	.LASF28:
 6708 16fc 434F4E46 		.ascii	"CONFIG_ENABLE_PARITY\000"
ARM GAS  C:\Users\r\AppData\Local\Temp\ccBAatSA.s 			page 154


 6708      49475F45 
 6708      4E41424C 
 6708      455F5041 
 6708      52495459 
 6709              	.LASF306:
 6710 1711 73637369 		.ascii	"scsiActive\000"
 6710      41637469 
 6710      766500
 6711              	.LASF70:
 6712 171c 48415244 		.ascii	"HARDWARE_ERROR\000"
 6712      57415245 
 6712      5F455252 
 6712      4F5200
 6713              	.LASF55:
 6714 172b 72657365 		.ascii	"reserved\000"
 6714      72766564 
 6714      00
 6715              	.LASF5:
 6716 1734 73686F72 		.ascii	"short unsigned int\000"
 6716      7420756E 
 6716      7369676E 
 6716      65642069 
 6716      6E7400
 6717              	.LASF59:
 6718 1747 6D616769 		.ascii	"magic\000"
 6718      6300
 6719              	.LASF263:
 6720 174d 6D736743 		.ascii	"msgCount\000"
 6720      6F756E74 
 6720      00
 6721              	.LASF244:
 6722 1756 73656C46 		.ascii	"selFlag\000"
 6722      6C616700 
 6723              	.LASF242:
 6724 175e 61746E46 		.ascii	"atnFlag\000"
 6724      6C616700 
 6725              	.LASF121:
 6726 1766 4C4F4749 		.ascii	"LOGICAL_UNIT_COMMUNICATION_FAILURE\000"
 6726      43414C5F 
 6726      554E4954 
 6726      5F434F4D 
 6726      4D554E49 
 6727              	.LASF246:
 6728 1789 73656C44 		.ascii	"selDBX\000"
 6728      425800
 6729              	.LASF184:
 6730 1790 5245434F 		.ascii	"RECOVERED_ID_WITH_ECC_CORRECTION\000"
 6730      56455245 
 6730      445F4944 
 6730      5F574954 
 6730      485F4543 
 6731              	.LASF109:
 6732 17b1 494E5155 		.ascii	"INQUIRY_DATA_HAS_CHANGED\000"
 6732      4952595F 
 6732      44415441 
 6732      5F484153 
 6732      5F434841 
ARM GAS  C:\Users\r\AppData\Local\Temp\ccBAatSA.s 			page 155


 6733              	.LASF307:
 6734 17ca 73644163 		.ascii	"sdActive\000"
 6734      74697665 
 6734      00
 6735              	.LASF317:
 6736 17d3 73637369 		.ascii	"scsiDiskReset\000"
 6736      4469736B 
 6736      52657365 
 6736      7400
 6737              	.LASF223:
 6738 17e1 43484543 		.ascii	"CHECK_CONDITION\000"
 6738      4B5F434F 
 6738      4E444954 
 6738      494F4E00 
 6739              	.LASF6:
 6740 17f1 5F5F696E 		.ascii	"__int32_t\000"
 6740      7433325F 
 6740      7400
 6741              	.LASF51:
 6742 17fb 70726F64 		.ascii	"prodId\000"
 6742      496400
 6743              	.LASF270:
 6744 1802 4449534B 		.ascii	"DISK_PRESENT\000"
 6744      5F505245 
 6744      53454E54 
 6744      00
 6745              	.LASF127:
 6746 180f 4C4F4749 		.ascii	"LOGICAL_UNIT_IS_IN_PROCESS_OF_BECOMING_READY\000"
 6746      43414C5F 
 6746      554E4954 
 6746      5F49535F 
 6746      494E5F50 
 6747              	.LASF288:
 6748 183c 68696768 		.ascii	"highestBlock\000"
 6748      65737442 
 6748      6C6F636B 
 6748      00
 6749              	.LASF96:
 6750 1849 44454645 		.ascii	"DEFECT_LIST_ERROR_IN_PRIMARY_LIST\000"
 6750      43545F4C 
 6750      4953545F 
 6750      4552524F 
 6750      525F494E 
 6751              	.LASF67:
 6752 186b 5245434F 		.ascii	"RECOVERED_ERROR\000"
 6752      56455245 
 6752      445F4552 
 6752      524F5200 
 6753              	.LASF196:
 6754 187b 54485245 		.ascii	"THRESHOLD_PARAMETERS_NOT_SUPPORTED\000"
 6754      53484F4C 
 6754      445F5041 
 6754      52414D45 
 6754      54455253 
 6755              	.LASF235:
 6756 189e 756E6974 		.ascii	"unitAttention\000"
 6756      41747465 
ARM GAS  C:\Users\r\AppData\Local\Temp\ccBAatSA.s 			page 156


 6756      6E74696F 
 6756      6E00
 6757              	.LASF248:
 6758 18ac 64617461 		.ascii	"data\000"
 6758      00
 6759              	.LASF305:
 6760 18b1 70726570 		.ascii	"prep\000"
 6760      00
 6761              	.LASF18:
 6762 18b6 75696E74 		.ascii	"uint16\000"
 6762      313600
 6763              	.LASF119:
 6764 18bd 4C4F475F 		.ascii	"LOG_PARAMETERS_CHANGED\000"
 6764      50415241 
 6764      4D455445 
 6764      52535F43 
 6764      48414E47 
 6765              	.LASF298:
 6766 18d4 636F6D6D 		.ascii	"commandHandled\000"
 6766      616E6448 
 6766      616E646C 
 6766      656400
 6767              	.LASF250:
 6768 18e3 73617665 		.ascii	"savedDataPtr\000"
 6768      64446174 
 6768      61507472 
 6768      00
 6769              	.LASF191:
 6770 18f0 5350494E 		.ascii	"SPINDLES_NOT_SYNCHRONIZED\000"
 6770      444C4553 
 6770      5F4E4F54 
 6770      5F53594E 
 6770      4348524F 
 6771              	.LASF199:
 6772 190a 554E5245 		.ascii	"UNRECOVERED_READ_ERROR_AUTO_REALLOCATE_FAILED\000"
 6772      434F5645 
 6772      5245445F 
 6772      52454144 
 6772      5F455252 
 6773              		.ident	"GCC: (GNU Tools for ARM Embedded Processors) 5.4.1 20160609 (release) [ARM/embedded-5-bran
