ARM GAS  C:\Users\r\AppData\Local\Temp\ccwaXKEm.s 			page 1


   1              		.syntax unified
   2              		.cpu cortex-m3
   3              		.fpu softvfp
   4              		.eabi_attribute 20, 1
   5              		.eabi_attribute 21, 1
   6              		.eabi_attribute 23, 3
   7              		.eabi_attribute 24, 1
   8              		.eabi_attribute 25, 1
   9              		.eabi_attribute 26, 1
  10              		.eabi_attribute 30, 6
  11              		.eabi_attribute 34, 1
  12              		.eabi_attribute 18, 4
  13              		.thumb
  14              		.syntax unified
  15              		.file	"hidpacket.c"
  16              		.text
  17              	.Ltext0:
  18              		.cfi_sections	.debug_frame
  19              		.bss
  20              		.align	2
  21              	rx:
  22 0000 00000000 		.space	269
  22      00000000 
  22      00000000 
  22      00000000 
  22      00000000 
  23 010d 000000   		.align	2
  24              	tx:
  25 0110 00000000 		.space	269
  25      00000000 
  25      00000000 
  25      00000000 
  25      00000000 
  26              		.section	.text.rxReset,"ax",%progbits
  27              		.align	2
  28              		.thumb
  29              		.thumb_func
  30              		.type	rxReset, %function
  31              	rxReset:
  32              	.LFB0:
  33              		.file 1 "..\\..\\src\\hidpacket.c"
   1:..\..\src/hidpacket.c **** //	Copyright (C) 2014 Michael McMaster <michael@codesrc.com>
   2:..\..\src/hidpacket.c **** //
   3:..\..\src/hidpacket.c **** //	This file is part of SCSI2SD.
   4:..\..\src/hidpacket.c **** //
   5:..\..\src/hidpacket.c **** //	SCSI2SD is free software: you can redistribute it and/or modify
   6:..\..\src/hidpacket.c **** //	it under the terms of the GNU General Public License as published by
   7:..\..\src/hidpacket.c **** //	the Free Software Foundation, either version 3 of the License, or
   8:..\..\src/hidpacket.c **** //	(at your option) any later version.
   9:..\..\src/hidpacket.c **** //
  10:..\..\src/hidpacket.c **** //	SCSI2SD is distributed in the hope that it will be useful,
  11:..\..\src/hidpacket.c **** //	but WITHOUT ANY WARRANTY; without even the implied warranty of
  12:..\..\src/hidpacket.c **** //	MERCHANTABILITY or FITNESS FOR A PARTICULAR PURPOSE.  See the
  13:..\..\src/hidpacket.c **** //	GNU General Public License for more details.
  14:..\..\src/hidpacket.c **** //
  15:..\..\src/hidpacket.c **** //	You should have received a copy of the GNU General Public License
  16:..\..\src/hidpacket.c **** //	along with SCSI2SD.  If not, see <http://www.gnu.org/licenses/>.
ARM GAS  C:\Users\r\AppData\Local\Temp\ccwaXKEm.s 			page 2


  17:..\..\src/hidpacket.c **** 
  18:..\..\src/hidpacket.c **** #include "hidpacket.h"
  19:..\..\src/hidpacket.c **** #include <string.h>
  20:..\..\src/hidpacket.c **** 
  21:..\..\src/hidpacket.c **** enum STATE { IDLE, PARTIAL, COMPLETE };
  22:..\..\src/hidpacket.c **** typedef struct __attribute__((packed))
  23:..\..\src/hidpacket.c **** {
  24:..\..\src/hidpacket.c **** 	int state;
  25:..\..\src/hidpacket.c **** 	uint8_t chunk;
  26:..\..\src/hidpacket.c **** 	size_t offset; // Current offset into buffer.
  27:..\..\src/hidpacket.c **** 	uint8_t buffer[HIDPACKET_MAX_LEN];
  28:..\..\src/hidpacket.c **** } HIDPacketState;
  29:..\..\src/hidpacket.c **** static HIDPacketState rx = {IDLE, 0, 0};
  30:..\..\src/hidpacket.c **** static HIDPacketState tx = {IDLE, 0, 0};
  31:..\..\src/hidpacket.c **** 
  32:..\..\src/hidpacket.c **** static void
  33:..\..\src/hidpacket.c **** rxReset()
  34:..\..\src/hidpacket.c **** {
  34              		.loc 1 34 0
  35              		.cfi_startproc
  36              		@ args = 0, pretend = 0, frame = 0
  37              		@ frame_needed = 1, uses_anonymous_args = 0
  38              		@ link register save eliminated.
  39 0000 80B4     		push	{r7}
  40              		.cfi_def_cfa_offset 4
  41              		.cfi_offset 7, -4
  42 0002 00AF     		add	r7, sp, #0
  43              		.cfi_def_cfa_register 7
  35:..\..\src/hidpacket.c **** 	rx.state = IDLE;
  44              		.loc 1 35 0
  45 0004 094B     		ldr	r3, .L2
  46 0006 0022     		movs	r2, #0
  47 0008 1A60     		str	r2, [r3]
  36:..\..\src/hidpacket.c **** 	rx.chunk = 0;
  48              		.loc 1 36 0
  49 000a 084B     		ldr	r3, .L2
  50 000c 0022     		movs	r2, #0
  51 000e 1A71     		strb	r2, [r3, #4]
  37:..\..\src/hidpacket.c **** 	rx.offset = 0;
  52              		.loc 1 37 0
  53 0010 064B     		ldr	r3, .L2
  54 0012 0022     		movs	r2, #0
  55 0014 5A71     		strb	r2, [r3, #5]
  56 0016 0022     		movs	r2, #0
  57 0018 9A71     		strb	r2, [r3, #6]
  58 001a 0022     		movs	r2, #0
  59 001c DA71     		strb	r2, [r3, #7]
  60 001e 0022     		movs	r2, #0
  61 0020 1A72     		strb	r2, [r3, #8]
  38:..\..\src/hidpacket.c **** }
  62              		.loc 1 38 0
  63 0022 00BF     		nop
  64 0024 BD46     		mov	sp, r7
  65              		.cfi_def_cfa_register 13
  66              		@ sp needed
  67 0026 80BC     		pop	{r7}
  68              		.cfi_restore 7
ARM GAS  C:\Users\r\AppData\Local\Temp\ccwaXKEm.s 			page 3


  69              		.cfi_def_cfa_offset 0
  70 0028 7047     		bx	lr
  71              	.L3:
  72 002a 00BF     		.align	2
  73              	.L2:
  74 002c 00000000 		.word	rx
  75              		.cfi_endproc
  76              	.LFE0:
  77              		.size	rxReset, .-rxReset
  78              		.section	.text.txReset,"ax",%progbits
  79              		.align	2
  80              		.thumb
  81              		.thumb_func
  82              		.type	txReset, %function
  83              	txReset:
  84              	.LFB1:
  39:..\..\src/hidpacket.c **** 
  40:..\..\src/hidpacket.c **** static void
  41:..\..\src/hidpacket.c **** txReset()
  42:..\..\src/hidpacket.c **** {
  85              		.loc 1 42 0
  86              		.cfi_startproc
  87              		@ args = 0, pretend = 0, frame = 0
  88              		@ frame_needed = 1, uses_anonymous_args = 0
  89              		@ link register save eliminated.
  90 0000 80B4     		push	{r7}
  91              		.cfi_def_cfa_offset 4
  92              		.cfi_offset 7, -4
  93 0002 00AF     		add	r7, sp, #0
  94              		.cfi_def_cfa_register 7
  43:..\..\src/hidpacket.c **** 	tx.state = IDLE;
  95              		.loc 1 43 0
  96 0004 094B     		ldr	r3, .L5
  97 0006 0022     		movs	r2, #0
  98 0008 1A60     		str	r2, [r3]
  44:..\..\src/hidpacket.c **** 	tx.chunk = 0;
  99              		.loc 1 44 0
 100 000a 084B     		ldr	r3, .L5
 101 000c 0022     		movs	r2, #0
 102 000e 1A71     		strb	r2, [r3, #4]
  45:..\..\src/hidpacket.c **** 	tx.offset = 0;
 103              		.loc 1 45 0
 104 0010 064B     		ldr	r3, .L5
 105 0012 0022     		movs	r2, #0
 106 0014 5A71     		strb	r2, [r3, #5]
 107 0016 0022     		movs	r2, #0
 108 0018 9A71     		strb	r2, [r3, #6]
 109 001a 0022     		movs	r2, #0
 110 001c DA71     		strb	r2, [r3, #7]
 111 001e 0022     		movs	r2, #0
 112 0020 1A72     		strb	r2, [r3, #8]
  46:..\..\src/hidpacket.c **** }
 113              		.loc 1 46 0
 114 0022 00BF     		nop
 115 0024 BD46     		mov	sp, r7
 116              		.cfi_def_cfa_register 13
 117              		@ sp needed
ARM GAS  C:\Users\r\AppData\Local\Temp\ccwaXKEm.s 			page 4


 118 0026 80BC     		pop	{r7}
 119              		.cfi_restore 7
 120              		.cfi_def_cfa_offset 0
 121 0028 7047     		bx	lr
 122              	.L6:
 123 002a 00BF     		.align	2
 124              	.L5:
 125 002c 10010000 		.word	tx
 126              		.cfi_endproc
 127              	.LFE1:
 128              		.size	txReset, .-txReset
 129              		.section	.text.hidPacket_recv,"ax",%progbits
 130              		.align	2
 131              		.global	hidPacket_recv
 132              		.thumb
 133              		.thumb_func
 134              		.type	hidPacket_recv, %function
 135              	hidPacket_recv:
 136              	.LFB2:
  47:..\..\src/hidpacket.c **** 
  48:..\..\src/hidpacket.c **** void hidPacket_recv(const uint8_t* bytes, size_t len)
  49:..\..\src/hidpacket.c **** {
 137              		.loc 1 49 0
 138              		.cfi_startproc
 139              		@ args = 0, pretend = 0, frame = 24
 140              		@ frame_needed = 1, uses_anonymous_args = 0
 141 0000 80B5     		push	{r7, lr}
 142              		.cfi_def_cfa_offset 8
 143              		.cfi_offset 7, -8
 144              		.cfi_offset 14, -4
 145 0002 86B0     		sub	sp, sp, #24
 146              		.cfi_def_cfa_offset 32
 147 0004 00AF     		add	r7, sp, #0
 148              		.cfi_def_cfa_register 7
 149 0006 7860     		str	r0, [r7, #4]
 150 0008 3960     		str	r1, [r7]
  50:..\..\src/hidpacket.c **** 	if (len < 2)
 151              		.loc 1 50 0
 152 000a 3B68     		ldr	r3, [r7]
 153 000c 012B     		cmp	r3, #1
 154 000e 02D8     		bhi	.L8
  51:..\..\src/hidpacket.c **** 	{
  52:..\..\src/hidpacket.c **** 		// Invalid. We need at least a chunk number and payload length.
  53:..\..\src/hidpacket.c **** 		rxReset();
 155              		.loc 1 53 0
 156 0010 FFF7FEFF 		bl	rxReset
  54:..\..\src/hidpacket.c **** 		return;
 157              		.loc 1 54 0
 158 0014 65E0     		b	.L7
 159              	.L8:
  55:..\..\src/hidpacket.c **** 	}
  56:..\..\src/hidpacket.c **** 
  57:..\..\src/hidpacket.c **** 	uint8_t chunk = bytes[0] & 0x7F;
 160              		.loc 1 57 0
 161 0016 7B68     		ldr	r3, [r7, #4]
 162 0018 1B78     		ldrb	r3, [r3]	@ zero_extendqisi2
 163 001a 03F07F03 		and	r3, r3, #127
ARM GAS  C:\Users\r\AppData\Local\Temp\ccwaXKEm.s 			page 5


 164 001e FB75     		strb	r3, [r7, #23]
  58:..\..\src/hidpacket.c **** 	int final = bytes[0] & 0x80;
 165              		.loc 1 58 0
 166 0020 7B68     		ldr	r3, [r7, #4]
 167 0022 1B78     		ldrb	r3, [r3]	@ zero_extendqisi2
 168 0024 03F08003 		and	r3, r3, #128
 169 0028 3B61     		str	r3, [r7, #16]
  59:..\..\src/hidpacket.c **** 	uint8_t payloadLen = bytes[1];
 170              		.loc 1 59 0
 171 002a 7B68     		ldr	r3, [r7, #4]
 172 002c 5B78     		ldrb	r3, [r3, #1]
 173 002e FB73     		strb	r3, [r7, #15]
  60:..\..\src/hidpacket.c **** 	if ((payloadLen > (len - 2)) || // short packet
 174              		.loc 1 60 0
 175 0030 FA7B     		ldrb	r2, [r7, #15]	@ zero_extendqisi2
 176 0032 3B68     		ldr	r3, [r7]
 177 0034 023B     		subs	r3, r3, #2
 178 0036 9A42     		cmp	r2, r3
 179 0038 07D8     		bhi	.L10
  61:..\..\src/hidpacket.c **** 		(payloadLen + rx.offset > sizeof(rx.buffer))) // buffer overflow
 180              		.loc 1 61 0 discriminator 1
 181 003a FA7B     		ldrb	r2, [r7, #15]	@ zero_extendqisi2
 182 003c 2A4B     		ldr	r3, .L15
 183 003e D3F80530 		ldr	r3, [r3, #5]	@ unaligned
 184 0042 1344     		add	r3, r3, r2
  60:..\..\src/hidpacket.c **** 	if ((payloadLen > (len - 2)) || // short packet
 185              		.loc 1 60 0 discriminator 1
 186 0044 B3F5827F 		cmp	r3, #260
 187 0048 02D9     		bls	.L11
 188              	.L10:
  62:..\..\src/hidpacket.c **** 	{
  63:..\..\src/hidpacket.c **** 		rxReset();
 189              		.loc 1 63 0
 190 004a FFF7FEFF 		bl	rxReset
  64:..\..\src/hidpacket.c **** 		return;
 191              		.loc 1 64 0
 192 004e 48E0     		b	.L7
 193              	.L11:
  65:..\..\src/hidpacket.c **** 	}
  66:..\..\src/hidpacket.c **** 
  67:..\..\src/hidpacket.c **** 	if (chunk == 0)
 194              		.loc 1 67 0
 195 0050 FB7D     		ldrb	r3, [r7, #23]	@ zero_extendqisi2
 196 0052 002B     		cmp	r3, #0
 197 0054 10D1     		bne	.L12
  68:..\..\src/hidpacket.c **** 	{
  69:..\..\src/hidpacket.c **** 		// Initial chunk
  70:..\..\src/hidpacket.c **** 		rxReset();
 198              		.loc 1 70 0
 199 0056 FFF7FEFF 		bl	rxReset
  71:..\..\src/hidpacket.c **** 		memcpy(rx.buffer, bytes + 2, payloadLen);
 200              		.loc 1 71 0
 201 005a 7B68     		ldr	r3, [r7, #4]
 202 005c 0233     		adds	r3, r3, #2
 203 005e FA7B     		ldrb	r2, [r7, #15]	@ zero_extendqisi2
 204 0060 1946     		mov	r1, r3
 205 0062 2248     		ldr	r0, .L15+4
ARM GAS  C:\Users\r\AppData\Local\Temp\ccwaXKEm.s 			page 6


 206 0064 FFF7FEFF 		bl	memcpy
  72:..\..\src/hidpacket.c **** 		rx.offset = payloadLen;
 207              		.loc 1 72 0
 208 0068 FB7B     		ldrb	r3, [r7, #15]	@ zero_extendqisi2
 209 006a 1F4A     		ldr	r2, .L15
 210 006c C2F80530 		str	r3, [r2, #5]	@ unaligned
  73:..\..\src/hidpacket.c **** 		rx.state = PARTIAL;
 211              		.loc 1 73 0
 212 0070 1D4B     		ldr	r3, .L15
 213 0072 0122     		movs	r2, #1
 214 0074 1A60     		str	r2, [r3]
 215 0076 2AE0     		b	.L13
 216              	.L12:
  74:..\..\src/hidpacket.c **** 	}
  75:..\..\src/hidpacket.c **** 	else if ((rx.state == PARTIAL) && (chunk == rx.chunk + 1))
 217              		.loc 1 75 0
 218 0078 1B4B     		ldr	r3, .L15
 219 007a 1B68     		ldr	r3, [r3]
 220 007c 012B     		cmp	r3, #1
 221 007e 1FD1     		bne	.L14
 222              		.loc 1 75 0 is_stmt 0 discriminator 1
 223 0080 FA7D     		ldrb	r2, [r7, #23]	@ zero_extendqisi2
 224 0082 194B     		ldr	r3, .L15
 225 0084 1B79     		ldrb	r3, [r3, #4]	@ zero_extendqisi2
 226 0086 0133     		adds	r3, r3, #1
 227 0088 9A42     		cmp	r2, r3
 228 008a 19D1     		bne	.L14
  76:..\..\src/hidpacket.c **** 	{
  77:..\..\src/hidpacket.c **** 		memcpy(rx.buffer + rx.offset, bytes + 2, payloadLen);
 229              		.loc 1 77 0 is_stmt 1
 230 008c 164B     		ldr	r3, .L15
 231 008e D3F80530 		ldr	r3, [r3, #5]	@ unaligned
 232 0092 164A     		ldr	r2, .L15+4
 233 0094 9818     		adds	r0, r3, r2
 234 0096 7B68     		ldr	r3, [r7, #4]
 235 0098 0233     		adds	r3, r3, #2
 236 009a FA7B     		ldrb	r2, [r7, #15]	@ zero_extendqisi2
 237 009c 1946     		mov	r1, r3
 238 009e FFF7FEFF 		bl	memcpy
  78:..\..\src/hidpacket.c **** 		rx.offset += payloadLen;
 239              		.loc 1 78 0
 240 00a2 114B     		ldr	r3, .L15
 241 00a4 D3F80520 		ldr	r2, [r3, #5]	@ unaligned
 242 00a8 FB7B     		ldrb	r3, [r7, #15]	@ zero_extendqisi2
 243 00aa 1344     		add	r3, r3, r2
 244 00ac 0E4A     		ldr	r2, .L15
 245 00ae C2F80530 		str	r3, [r2, #5]	@ unaligned
  79:..\..\src/hidpacket.c **** 		rx.chunk++;
 246              		.loc 1 79 0
 247 00b2 0D4B     		ldr	r3, .L15
 248 00b4 1B79     		ldrb	r3, [r3, #4]	@ zero_extendqisi2
 249 00b6 0133     		adds	r3, r3, #1
 250 00b8 DAB2     		uxtb	r2, r3
 251 00ba 0B4B     		ldr	r3, .L15
 252 00bc 1A71     		strb	r2, [r3, #4]
 253 00be 06E0     		b	.L13
 254              	.L14:
ARM GAS  C:\Users\r\AppData\Local\Temp\ccwaXKEm.s 			page 7


  80:..\..\src/hidpacket.c **** 	}
  81:..\..\src/hidpacket.c **** 	else if (chunk == rx.chunk)
 255              		.loc 1 81 0
 256 00c0 094B     		ldr	r3, .L15
 257 00c2 1B79     		ldrb	r3, [r3, #4]	@ zero_extendqisi2
 258 00c4 FA7D     		ldrb	r2, [r7, #23]	@ zero_extendqisi2
 259 00c6 9A42     		cmp	r2, r3
 260 00c8 01D0     		beq	.L13
  82:..\..\src/hidpacket.c **** 	{
  83:..\..\src/hidpacket.c **** 		// duplicated packet. ignore.
  84:..\..\src/hidpacket.c **** 	}
  85:..\..\src/hidpacket.c **** 	else
  86:..\..\src/hidpacket.c **** 	{
  87:..\..\src/hidpacket.c **** 		// invalid. Maybe we missed some data.
  88:..\..\src/hidpacket.c **** 		rxReset();
 261              		.loc 1 88 0
 262 00ca FFF7FEFF 		bl	rxReset
 263              	.L13:
  89:..\..\src/hidpacket.c **** 	}
  90:..\..\src/hidpacket.c **** 
  91:..\..\src/hidpacket.c **** 	if ((rx.state == PARTIAL) && final)
 264              		.loc 1 91 0
 265 00ce 064B     		ldr	r3, .L15
 266 00d0 1B68     		ldr	r3, [r3]
 267 00d2 012B     		cmp	r3, #1
 268 00d4 05D1     		bne	.L7
 269              		.loc 1 91 0 is_stmt 0 discriminator 1
 270 00d6 3B69     		ldr	r3, [r7, #16]
 271 00d8 002B     		cmp	r3, #0
 272 00da 02D0     		beq	.L7
  92:..\..\src/hidpacket.c **** 	{
  93:..\..\src/hidpacket.c **** 		rx.state = COMPLETE;
 273              		.loc 1 93 0 is_stmt 1
 274 00dc 024B     		ldr	r3, .L15
 275 00de 0222     		movs	r2, #2
 276 00e0 1A60     		str	r2, [r3]
 277              	.L7:
  94:..\..\src/hidpacket.c **** 	}
  95:..\..\src/hidpacket.c **** }
 278              		.loc 1 95 0
 279 00e2 1837     		adds	r7, r7, #24
 280              		.cfi_def_cfa_offset 8
 281 00e4 BD46     		mov	sp, r7
 282              		.cfi_def_cfa_register 13
 283              		@ sp needed
 284 00e6 80BD     		pop	{r7, pc}
 285              	.L16:
 286              		.align	2
 287              	.L15:
 288 00e8 00000000 		.word	rx
 289 00ec 09000000 		.word	rx+9
 290              		.cfi_endproc
 291              	.LFE2:
 292              		.size	hidPacket_recv, .-hidPacket_recv
 293              		.section	.text.hidPacket_getPacket,"ax",%progbits
 294              		.align	2
 295              		.global	hidPacket_getPacket
ARM GAS  C:\Users\r\AppData\Local\Temp\ccwaXKEm.s 			page 8


 296              		.thumb
 297              		.thumb_func
 298              		.type	hidPacket_getPacket, %function
 299              	hidPacket_getPacket:
 300              	.LFB3:
  96:..\..\src/hidpacket.c **** 
  97:..\..\src/hidpacket.c **** const uint8_t*
  98:..\..\src/hidpacket.c **** hidPacket_getPacket(size_t* len)
  99:..\..\src/hidpacket.c **** {
 301              		.loc 1 99 0
 302              		.cfi_startproc
 303              		@ args = 0, pretend = 0, frame = 8
 304              		@ frame_needed = 1, uses_anonymous_args = 0
 305 0000 80B5     		push	{r7, lr}
 306              		.cfi_def_cfa_offset 8
 307              		.cfi_offset 7, -8
 308              		.cfi_offset 14, -4
 309 0002 82B0     		sub	sp, sp, #8
 310              		.cfi_def_cfa_offset 16
 311 0004 00AF     		add	r7, sp, #0
 312              		.cfi_def_cfa_register 7
 313 0006 7860     		str	r0, [r7, #4]
 100:..\..\src/hidpacket.c **** 	if (rx.state == COMPLETE)
 314              		.loc 1 100 0
 315 0008 0A4B     		ldr	r3, .L20
 316 000a 1B68     		ldr	r3, [r3]
 317 000c 022B     		cmp	r3, #2
 318 000e 08D1     		bne	.L18
 101:..\..\src/hidpacket.c **** 	{
 102:..\..\src/hidpacket.c **** 		*len = rx.offset;
 319              		.loc 1 102 0
 320 0010 084B     		ldr	r3, .L20
 321 0012 D3F80520 		ldr	r2, [r3, #5]	@ unaligned
 322 0016 7B68     		ldr	r3, [r7, #4]
 323 0018 1A60     		str	r2, [r3]
 103:..\..\src/hidpacket.c **** 		rxReset();
 324              		.loc 1 103 0
 325 001a FFF7FEFF 		bl	rxReset
 104:..\..\src/hidpacket.c **** 		return rx.buffer;
 326              		.loc 1 104 0
 327 001e 064B     		ldr	r3, .L20+4
 328 0020 03E0     		b	.L19
 329              	.L18:
 105:..\..\src/hidpacket.c **** 	}
 106:..\..\src/hidpacket.c **** 	else
 107:..\..\src/hidpacket.c **** 	{
 108:..\..\src/hidpacket.c **** 		*len = 0;
 330              		.loc 1 108 0
 331 0022 7B68     		ldr	r3, [r7, #4]
 332 0024 0022     		movs	r2, #0
 333 0026 1A60     		str	r2, [r3]
 109:..\..\src/hidpacket.c **** 		return NULL;
 334              		.loc 1 109 0
 335 0028 0023     		movs	r3, #0
 336              	.L19:
 110:..\..\src/hidpacket.c **** 	}
 111:..\..\src/hidpacket.c **** }
ARM GAS  C:\Users\r\AppData\Local\Temp\ccwaXKEm.s 			page 9


 337              		.loc 1 111 0
 338 002a 1846     		mov	r0, r3
 339 002c 0837     		adds	r7, r7, #8
 340              		.cfi_def_cfa_offset 8
 341 002e BD46     		mov	sp, r7
 342              		.cfi_def_cfa_register 13
 343              		@ sp needed
 344 0030 80BD     		pop	{r7, pc}
 345              	.L21:
 346 0032 00BF     		.align	2
 347              	.L20:
 348 0034 00000000 		.word	rx
 349 0038 09000000 		.word	rx+9
 350              		.cfi_endproc
 351              	.LFE3:
 352              		.size	hidPacket_getPacket, .-hidPacket_getPacket
 353              		.section	.text.hidPacket_send,"ax",%progbits
 354              		.align	2
 355              		.global	hidPacket_send
 356              		.thumb
 357              		.thumb_func
 358              		.type	hidPacket_send, %function
 359              	hidPacket_send:
 360              	.LFB4:
 112:..\..\src/hidpacket.c **** 
 113:..\..\src/hidpacket.c **** void hidPacket_send(const uint8_t* bytes, size_t len)
 114:..\..\src/hidpacket.c **** {
 361              		.loc 1 114 0
 362              		.cfi_startproc
 363              		@ args = 0, pretend = 0, frame = 8
 364              		@ frame_needed = 1, uses_anonymous_args = 0
 365 0000 80B5     		push	{r7, lr}
 366              		.cfi_def_cfa_offset 8
 367              		.cfi_offset 7, -8
 368              		.cfi_offset 14, -4
 369 0002 82B0     		sub	sp, sp, #8
 370              		.cfi_def_cfa_offset 16
 371 0004 00AF     		add	r7, sp, #0
 372              		.cfi_def_cfa_register 7
 373 0006 7860     		str	r0, [r7, #4]
 374 0008 3960     		str	r1, [r7]
 115:..\..\src/hidpacket.c **** 	if (len <= sizeof(tx.buffer))
 375              		.loc 1 115 0
 376 000a 3B68     		ldr	r3, [r7]
 377 000c B3F5827F 		cmp	r3, #260
 378 0010 0FD8     		bhi	.L23
 116:..\..\src/hidpacket.c **** 	{
 117:..\..\src/hidpacket.c **** 		tx.state = PARTIAL;
 379              		.loc 1 117 0
 380 0012 0B4B     		ldr	r3, .L26
 381 0014 0122     		movs	r2, #1
 382 0016 1A60     		str	r2, [r3]
 118:..\..\src/hidpacket.c **** 		tx.chunk = 0;
 383              		.loc 1 118 0
 384 0018 094B     		ldr	r3, .L26
 385 001a 0022     		movs	r2, #0
 386 001c 1A71     		strb	r2, [r3, #4]
ARM GAS  C:\Users\r\AppData\Local\Temp\ccwaXKEm.s 			page 10


 119:..\..\src/hidpacket.c **** 		tx.offset = len;
 387              		.loc 1 119 0
 388 001e 084A     		ldr	r2, .L26
 389 0020 3B68     		ldr	r3, [r7]
 390 0022 C2F80530 		str	r3, [r2, #5]	@ unaligned
 120:..\..\src/hidpacket.c **** 		memcpy(tx.buffer, bytes, len);
 391              		.loc 1 120 0
 392 0026 3A68     		ldr	r2, [r7]
 393 0028 7968     		ldr	r1, [r7, #4]
 394 002a 0648     		ldr	r0, .L26+4
 395 002c FFF7FEFF 		bl	memcpy
 121:..\..\src/hidpacket.c **** 	}
 122:..\..\src/hidpacket.c **** 	else
 123:..\..\src/hidpacket.c **** 	{
 124:..\..\src/hidpacket.c **** 		txReset();
 125:..\..\src/hidpacket.c **** 	}
 126:..\..\src/hidpacket.c **** }
 396              		.loc 1 126 0
 397 0030 01E0     		b	.L25
 398              	.L23:
 124:..\..\src/hidpacket.c **** 	}
 399              		.loc 1 124 0
 400 0032 FFF7FEFF 		bl	txReset
 401              	.L25:
 402              		.loc 1 126 0
 403 0036 00BF     		nop
 404 0038 0837     		adds	r7, r7, #8
 405              		.cfi_def_cfa_offset 8
 406 003a BD46     		mov	sp, r7
 407              		.cfi_def_cfa_register 13
 408              		@ sp needed
 409 003c 80BD     		pop	{r7, pc}
 410              	.L27:
 411 003e 00BF     		.align	2
 412              	.L26:
 413 0040 10010000 		.word	tx
 414 0044 19010000 		.word	tx+9
 415              		.cfi_endproc
 416              	.LFE4:
 417              		.size	hidPacket_send, .-hidPacket_send
 418              		.section	.text.hidPacket_getHIDBytes,"ax",%progbits
 419              		.align	2
 420              		.global	hidPacket_getHIDBytes
 421              		.thumb
 422              		.thumb_func
 423              		.type	hidPacket_getHIDBytes, %function
 424              	hidPacket_getHIDBytes:
 425              	.LFB5:
 127:..\..\src/hidpacket.c **** 
 128:..\..\src/hidpacket.c **** const uint8_t*
 129:..\..\src/hidpacket.c **** hidPacket_getHIDBytes(uint8_t* hidBuffer)
 130:..\..\src/hidpacket.c **** {
 426              		.loc 1 130 0
 427              		.cfi_startproc
 428              		@ args = 0, pretend = 0, frame = 16
 429              		@ frame_needed = 1, uses_anonymous_args = 0
 430 0000 80B5     		push	{r7, lr}
ARM GAS  C:\Users\r\AppData\Local\Temp\ccwaXKEm.s 			page 11


 431              		.cfi_def_cfa_offset 8
 432              		.cfi_offset 7, -8
 433              		.cfi_offset 14, -4
 434 0002 84B0     		sub	sp, sp, #16
 435              		.cfi_def_cfa_offset 24
 436 0004 00AF     		add	r7, sp, #0
 437              		.cfi_def_cfa_register 7
 438 0006 7860     		str	r0, [r7, #4]
 131:..\..\src/hidpacket.c **** 	if ((tx.state != PARTIAL) || (tx.offset <= 0))
 439              		.loc 1 131 0
 440 0008 294B     		ldr	r3, .L34
 441 000a 1B68     		ldr	r3, [r3]
 442 000c 012B     		cmp	r3, #1
 443 000e 04D1     		bne	.L29
 444              		.loc 1 131 0 is_stmt 0 discriminator 1
 445 0010 274B     		ldr	r3, .L34
 446 0012 D3F80530 		ldr	r3, [r3, #5]	@ unaligned
 447 0016 002B     		cmp	r3, #0
 448 0018 01D1     		bne	.L30
 449              	.L29:
 132:..\..\src/hidpacket.c **** 	{
 133:..\..\src/hidpacket.c **** 		return NULL;
 450              		.loc 1 133 0 is_stmt 1
 451 001a 0023     		movs	r3, #0
 452 001c 44E0     		b	.L31
 453              	.L30:
 134:..\..\src/hidpacket.c **** 	}
 135:..\..\src/hidpacket.c **** 
 136:..\..\src/hidpacket.c **** 	hidBuffer[0] = tx.chunk;
 454              		.loc 1 136 0
 455 001e 244B     		ldr	r3, .L34
 456 0020 1A79     		ldrb	r2, [r3, #4]	@ zero_extendqisi2
 457 0022 7B68     		ldr	r3, [r7, #4]
 458 0024 1A70     		strb	r2, [r3]
 137:..\..\src/hidpacket.c **** 	tx.chunk++;
 459              		.loc 1 137 0
 460 0026 224B     		ldr	r3, .L34
 461 0028 1B79     		ldrb	r3, [r3, #4]	@ zero_extendqisi2
 462 002a 0133     		adds	r3, r3, #1
 463 002c DAB2     		uxtb	r2, r3
 464 002e 204B     		ldr	r3, .L34
 465 0030 1A71     		strb	r2, [r3, #4]
 138:..\..\src/hidpacket.c **** 	uint8_t payload;
 139:..\..\src/hidpacket.c **** 	if (tx.offset <= USBHID_LEN - 2)
 466              		.loc 1 139 0
 467 0032 1F4B     		ldr	r3, .L34
 468 0034 D3F80530 		ldr	r3, [r3, #5]	@ unaligned
 469 0038 3E2B     		cmp	r3, #62
 470 003a 15D8     		bhi	.L32
 140:..\..\src/hidpacket.c **** 	{
 141:..\..\src/hidpacket.c **** 		hidBuffer[0] = hidBuffer[0] | 0x80;
 471              		.loc 1 141 0
 472 003c 7B68     		ldr	r3, [r7, #4]
 473 003e 1B78     		ldrb	r3, [r3]	@ zero_extendqisi2
 474 0040 63F07F03 		orn	r3, r3, #127
 475 0044 DAB2     		uxtb	r2, r3
 476 0046 7B68     		ldr	r3, [r7, #4]
ARM GAS  C:\Users\r\AppData\Local\Temp\ccwaXKEm.s 			page 12


 477 0048 1A70     		strb	r2, [r3]
 142:..\..\src/hidpacket.c **** 		payload = tx.offset;
 478              		.loc 1 142 0
 479 004a 194B     		ldr	r3, .L34
 480 004c D3F80530 		ldr	r3, [r3, #5]	@ unaligned
 481 0050 FB73     		strb	r3, [r7, #15]
 143:..\..\src/hidpacket.c **** 		tx.state = IDLE;
 482              		.loc 1 143 0
 483 0052 174B     		ldr	r3, .L34
 484 0054 0022     		movs	r2, #0
 485 0056 1A60     		str	r2, [r3]
 144:..\..\src/hidpacket.c **** 		memset(hidBuffer + 2, 0, USBHID_LEN - 2);
 486              		.loc 1 144 0
 487 0058 7B68     		ldr	r3, [r7, #4]
 488 005a 0233     		adds	r3, r3, #2
 489 005c 3E22     		movs	r2, #62
 490 005e 0021     		movs	r1, #0
 491 0060 1846     		mov	r0, r3
 492 0062 FFF7FEFF 		bl	memset
 493 0066 01E0     		b	.L33
 494              	.L32:
 145:..\..\src/hidpacket.c **** 	}
 146:..\..\src/hidpacket.c **** 	else
 147:..\..\src/hidpacket.c **** 	{
 148:..\..\src/hidpacket.c **** 		payload = USBHID_LEN - 2;
 495              		.loc 1 148 0
 496 0068 3E23     		movs	r3, #62
 497 006a FB73     		strb	r3, [r7, #15]
 498              	.L33:
 149:..\..\src/hidpacket.c **** 	}
 150:..\..\src/hidpacket.c **** 
 151:..\..\src/hidpacket.c **** 	tx.offset -= payload;
 499              		.loc 1 151 0
 500 006c 104B     		ldr	r3, .L34
 501 006e D3F80520 		ldr	r2, [r3, #5]	@ unaligned
 502 0072 FB7B     		ldrb	r3, [r7, #15]	@ zero_extendqisi2
 503 0074 D31A     		subs	r3, r2, r3
 504 0076 0E4A     		ldr	r2, .L34
 505 0078 C2F80530 		str	r3, [r2, #5]	@ unaligned
 152:..\..\src/hidpacket.c **** 	hidBuffer[1] = payload;
 506              		.loc 1 152 0
 507 007c 7B68     		ldr	r3, [r7, #4]
 508 007e 0133     		adds	r3, r3, #1
 509 0080 FA7B     		ldrb	r2, [r7, #15]
 510 0082 1A70     		strb	r2, [r3]
 153:..\..\src/hidpacket.c **** 	memcpy(hidBuffer + 2, tx.buffer, payload);
 511              		.loc 1 153 0
 512 0084 7B68     		ldr	r3, [r7, #4]
 513 0086 0233     		adds	r3, r3, #2
 514 0088 FA7B     		ldrb	r2, [r7, #15]	@ zero_extendqisi2
 515 008a 0A49     		ldr	r1, .L34+4
 516 008c 1846     		mov	r0, r3
 517 008e FFF7FEFF 		bl	memcpy
 154:..\..\src/hidpacket.c **** 	memmove(tx.buffer, tx.buffer + payload, sizeof(tx.buffer) - payload);
 518              		.loc 1 154 0
 519 0092 FB7B     		ldrb	r3, [r7, #15]	@ zero_extendqisi2
 520 0094 074A     		ldr	r2, .L34+4
ARM GAS  C:\Users\r\AppData\Local\Temp\ccwaXKEm.s 			page 13


 521 0096 9918     		adds	r1, r3, r2
 522 0098 FB7B     		ldrb	r3, [r7, #15]	@ zero_extendqisi2
 523 009a C3F58273 		rsb	r3, r3, #260
 524 009e 1A46     		mov	r2, r3
 525 00a0 0448     		ldr	r0, .L34+4
 526 00a2 FFF7FEFF 		bl	memmove
 155:..\..\src/hidpacket.c **** 
 156:..\..\src/hidpacket.c **** 	return hidBuffer;
 527              		.loc 1 156 0
 528 00a6 7B68     		ldr	r3, [r7, #4]
 529              	.L31:
 157:..\..\src/hidpacket.c **** }
 530              		.loc 1 157 0
 531 00a8 1846     		mov	r0, r3
 532 00aa 1037     		adds	r7, r7, #16
 533              		.cfi_def_cfa_offset 8
 534 00ac BD46     		mov	sp, r7
 535              		.cfi_def_cfa_register 13
 536              		@ sp needed
 537 00ae 80BD     		pop	{r7, pc}
 538              	.L35:
 539              		.align	2
 540              	.L34:
 541 00b0 10010000 		.word	tx
 542 00b4 19010000 		.word	tx+9
 543              		.cfi_endproc
 544              	.LFE5:
 545              		.size	hidPacket_getHIDBytes, .-hidPacket_getHIDBytes
 546              		.text
 547              	.Letext0:
 548              		.file 2 "c:\\program files (x86)\\cypress\\psoc creator\\4.2\\psoc creator\\import\\gnu\\arm\\5.4.
 549              		.file 3 "c:\\program files (x86)\\cypress\\psoc creator\\4.2\\psoc creator\\import\\gnu\\arm\\5.4.
 550              		.file 4 "c:\\program files (x86)\\cypress\\psoc creator\\4.2\\psoc creator\\import\\gnu\\arm\\5.4.
 551              		.section	.debug_info,"",%progbits
 552              	.Ldebug_info0:
 553 0000 5C020000 		.4byte	0x25c
 554 0004 0400     		.2byte	0x4
 555 0006 00000000 		.4byte	.Ldebug_abbrev0
 556 000a 04       		.byte	0x4
 557 000b 01       		.uleb128 0x1
 558 000c 0A000000 		.4byte	.LASF34
 559 0010 0C       		.byte	0xc
 560 0011 50010000 		.4byte	.LASF35
 561 0015 9E000000 		.4byte	.LASF36
 562 0019 00000000 		.4byte	.Ldebug_ranges0+0
 563 001d 00000000 		.4byte	0
 564 0021 00000000 		.4byte	.Ldebug_line0
 565 0025 02       		.uleb128 0x2
 566 0026 04       		.byte	0x4
 567 0027 05       		.byte	0x5
 568 0028 696E7400 		.ascii	"int\000"
 569 002c 03       		.uleb128 0x3
 570 002d 66010000 		.4byte	.LASF4
 571 0031 02       		.byte	0x2
 572 0032 D8       		.byte	0xd8
 573 0033 37000000 		.4byte	0x37
 574 0037 04       		.uleb128 0x4
ARM GAS  C:\Users\r\AppData\Local\Temp\ccwaXKEm.s 			page 14


 575 0038 04       		.byte	0x4
 576 0039 07       		.byte	0x7
 577 003a 73010000 		.4byte	.LASF0
 578 003e 04       		.uleb128 0x4
 579 003f 08       		.byte	0x8
 580 0040 05       		.byte	0x5
 581 0041 D3010000 		.4byte	.LASF1
 582 0045 04       		.uleb128 0x4
 583 0046 08       		.byte	0x8
 584 0047 04       		.byte	0x4
 585 0048 37020000 		.4byte	.LASF2
 586 004c 04       		.uleb128 0x4
 587 004d 01       		.byte	0x1
 588 004e 06       		.byte	0x6
 589 004f 43020000 		.4byte	.LASF3
 590 0053 03       		.uleb128 0x3
 591 0054 00000000 		.4byte	.LASF5
 592 0058 03       		.byte	0x3
 593 0059 1D       		.byte	0x1d
 594 005a 5E000000 		.4byte	0x5e
 595 005e 04       		.uleb128 0x4
 596 005f 01       		.byte	0x1
 597 0060 08       		.byte	0x8
 598 0061 2A010000 		.4byte	.LASF6
 599 0065 04       		.uleb128 0x4
 600 0066 02       		.byte	0x2
 601 0067 05       		.byte	0x5
 602 0068 17020000 		.4byte	.LASF7
 603 006c 04       		.uleb128 0x4
 604 006d 02       		.byte	0x2
 605 006e 07       		.byte	0x7
 606 006f E3000000 		.4byte	.LASF8
 607 0073 04       		.uleb128 0x4
 608 0074 04       		.byte	0x4
 609 0075 05       		.byte	0x5
 610 0076 28020000 		.4byte	.LASF9
 611 007a 04       		.uleb128 0x4
 612 007b 04       		.byte	0x4
 613 007c 07       		.byte	0x7
 614 007d 38010000 		.4byte	.LASF10
 615 0081 04       		.uleb128 0x4
 616 0082 08       		.byte	0x8
 617 0083 07       		.byte	0x7
 618 0084 88010000 		.4byte	.LASF11
 619 0088 03       		.uleb128 0x3
 620 0089 9F010000 		.4byte	.LASF12
 621 008d 04       		.byte	0x4
 622 008e 18       		.byte	0x18
 623 008f 53000000 		.4byte	0x53
 624 0093 04       		.uleb128 0x4
 625 0094 04       		.byte	0x4
 626 0095 07       		.byte	0x7
 627 0096 C1010000 		.4byte	.LASF13
 628 009a 04       		.uleb128 0x4
 629 009b 01       		.byte	0x1
 630 009c 08       		.byte	0x8
 631 009d 0B020000 		.4byte	.LASF14
ARM GAS  C:\Users\r\AppData\Local\Temp\ccwaXKEm.s 			page 15


 632 00a1 05       		.uleb128 0x5
 633 00a2 4A010000 		.4byte	.LASF37
 634 00a6 01       		.byte	0x1
 635 00a7 5E000000 		.4byte	0x5e
 636 00ab 01       		.byte	0x1
 637 00ac 15       		.byte	0x15
 638 00ad C4000000 		.4byte	0xc4
 639 00b1 06       		.uleb128 0x6
 640 00b2 F6000000 		.4byte	.LASF15
 641 00b6 00       		.byte	0
 642 00b7 06       		.uleb128 0x6
 643 00b8 4F020000 		.4byte	.LASF16
 644 00bc 01       		.byte	0x1
 645 00bd 06       		.uleb128 0x6
 646 00be CA010000 		.4byte	.LASF17
 647 00c2 02       		.byte	0x2
 648 00c3 00       		.byte	0
 649 00c4 07       		.uleb128 0x7
 650 00c5 0D01     		.2byte	0x10d
 651 00c7 01       		.byte	0x1
 652 00c8 16       		.byte	0x16
 653 00c9 FE000000 		.4byte	0xfe
 654 00cd 08       		.uleb128 0x8
 655 00ce 98000000 		.4byte	.LASF18
 656 00d2 01       		.byte	0x1
 657 00d3 18       		.byte	0x18
 658 00d4 25000000 		.4byte	0x25
 659 00d8 00       		.byte	0
 660 00d9 08       		.uleb128 0x8
 661 00da 6D010000 		.4byte	.LASF19
 662 00de 01       		.byte	0x1
 663 00df 19       		.byte	0x19
 664 00e0 88000000 		.4byte	0x88
 665 00e4 04       		.byte	0x4
 666 00e5 08       		.uleb128 0x8
 667 00e6 10020000 		.4byte	.LASF20
 668 00ea 01       		.byte	0x1
 669 00eb 1A       		.byte	0x1a
 670 00ec 2C000000 		.4byte	0x2c
 671 00f0 05       		.byte	0x5
 672 00f1 08       		.uleb128 0x8
 673 00f2 21020000 		.4byte	.LASF21
 674 00f6 01       		.byte	0x1
 675 00f7 1B       		.byte	0x1b
 676 00f8 FE000000 		.4byte	0xfe
 677 00fc 09       		.byte	0x9
 678 00fd 00       		.byte	0
 679 00fe 09       		.uleb128 0x9
 680 00ff 88000000 		.4byte	0x88
 681 0103 0F010000 		.4byte	0x10f
 682 0107 0A       		.uleb128 0xa
 683 0108 93000000 		.4byte	0x93
 684 010c 0301     		.2byte	0x103
 685 010e 00       		.byte	0
 686 010f 03       		.uleb128 0x3
 687 0110 FB000000 		.4byte	.LASF22
 688 0114 01       		.byte	0x1
ARM GAS  C:\Users\r\AppData\Local\Temp\ccwaXKEm.s 			page 16


 689 0115 1C       		.byte	0x1c
 690 0116 C4000000 		.4byte	0xc4
 691 011a 0B       		.uleb128 0xb
 692 011b 80010000 		.4byte	.LASF23
 693 011f 01       		.byte	0x1
 694 0120 21       		.byte	0x21
 695 0121 00000000 		.4byte	.LFB0
 696 0125 30000000 		.4byte	.LFE0-.LFB0
 697 0129 01       		.uleb128 0x1
 698 012a 9C       		.byte	0x9c
 699 012b 0B       		.uleb128 0xb
 700 012c AF010000 		.4byte	.LASF24
 701 0130 01       		.byte	0x1
 702 0131 29       		.byte	0x29
 703 0132 00000000 		.4byte	.LFB1
 704 0136 30000000 		.4byte	.LFE1-.LFB1
 705 013a 01       		.uleb128 0x1
 706 013b 9C       		.byte	0x9c
 707 013c 0C       		.uleb128 0xc
 708 013d 1B010000 		.4byte	.LASF28
 709 0141 01       		.byte	0x1
 710 0142 30       		.byte	0x30
 711 0143 00000000 		.4byte	.LFB2
 712 0147 F0000000 		.4byte	.LFE2-.LFB2
 713 014b 01       		.uleb128 0x1
 714 014c 9C       		.byte	0x9c
 715 014d 98010000 		.4byte	0x198
 716 0151 0D       		.uleb128 0xd
 717 0152 31020000 		.4byte	.LASF25
 718 0156 01       		.byte	0x1
 719 0157 30       		.byte	0x30
 720 0158 98010000 		.4byte	0x198
 721 015c 02       		.uleb128 0x2
 722 015d 91       		.byte	0x91
 723 015e 64       		.sleb128 -28
 724 015f 0E       		.uleb128 0xe
 725 0160 6C656E00 		.ascii	"len\000"
 726 0164 01       		.byte	0x1
 727 0165 30       		.byte	0x30
 728 0166 2C000000 		.4byte	0x2c
 729 016a 02       		.uleb128 0x2
 730 016b 91       		.byte	0x91
 731 016c 60       		.sleb128 -32
 732 016d 0F       		.uleb128 0xf
 733 016e 6D010000 		.4byte	.LASF19
 734 0172 01       		.byte	0x1
 735 0173 39       		.byte	0x39
 736 0174 88000000 		.4byte	0x88
 737 0178 02       		.uleb128 0x2
 738 0179 91       		.byte	0x91
 739 017a 77       		.sleb128 -9
 740 017b 0F       		.uleb128 0xf
 741 017c 0A010000 		.4byte	.LASF26
 742 0180 01       		.byte	0x1
 743 0181 3A       		.byte	0x3a
 744 0182 25000000 		.4byte	0x25
 745 0186 02       		.uleb128 0x2
ARM GAS  C:\Users\r\AppData\Local\Temp\ccwaXKEm.s 			page 17


 746 0187 91       		.byte	0x91
 747 0188 70       		.sleb128 -16
 748 0189 0F       		.uleb128 0xf
 749 018a 10010000 		.4byte	.LASF27
 750 018e 01       		.byte	0x1
 751 018f 3B       		.byte	0x3b
 752 0190 88000000 		.4byte	0x88
 753 0194 02       		.uleb128 0x2
 754 0195 91       		.byte	0x91
 755 0196 6F       		.sleb128 -17
 756 0197 00       		.byte	0
 757 0198 10       		.uleb128 0x10
 758 0199 04       		.byte	0x4
 759 019a 9E010000 		.4byte	0x19e
 760 019e 11       		.uleb128 0x11
 761 019f 88000000 		.4byte	0x88
 762 01a3 12       		.uleb128 0x12
 763 01a4 E1010000 		.4byte	.LASF30
 764 01a8 01       		.byte	0x1
 765 01a9 62       		.byte	0x62
 766 01aa 98010000 		.4byte	0x198
 767 01ae 00000000 		.4byte	.LFB3
 768 01b2 3C000000 		.4byte	.LFE3-.LFB3
 769 01b6 01       		.uleb128 0x1
 770 01b7 9C       		.byte	0x9c
 771 01b8 CB010000 		.4byte	0x1cb
 772 01bc 0E       		.uleb128 0xe
 773 01bd 6C656E00 		.ascii	"len\000"
 774 01c1 01       		.byte	0x1
 775 01c2 62       		.byte	0x62
 776 01c3 CB010000 		.4byte	0x1cb
 777 01c7 02       		.uleb128 0x2
 778 01c8 91       		.byte	0x91
 779 01c9 74       		.sleb128 -12
 780 01ca 00       		.byte	0
 781 01cb 10       		.uleb128 0x10
 782 01cc 04       		.byte	0x4
 783 01cd 2C000000 		.4byte	0x2c
 784 01d1 0C       		.uleb128 0xc
 785 01d2 57020000 		.4byte	.LASF29
 786 01d6 01       		.byte	0x1
 787 01d7 71       		.byte	0x71
 788 01d8 00000000 		.4byte	.LFB4
 789 01dc 48000000 		.4byte	.LFE4-.LFB4
 790 01e0 01       		.uleb128 0x1
 791 01e1 9C       		.byte	0x9c
 792 01e2 03020000 		.4byte	0x203
 793 01e6 0D       		.uleb128 0xd
 794 01e7 31020000 		.4byte	.LASF25
 795 01eb 01       		.byte	0x1
 796 01ec 71       		.byte	0x71
 797 01ed 98010000 		.4byte	0x198
 798 01f1 02       		.uleb128 0x2
 799 01f2 91       		.byte	0x91
 800 01f3 74       		.sleb128 -12
 801 01f4 0E       		.uleb128 0xe
 802 01f5 6C656E00 		.ascii	"len\000"
ARM GAS  C:\Users\r\AppData\Local\Temp\ccwaXKEm.s 			page 18


 803 01f9 01       		.byte	0x1
 804 01fa 71       		.byte	0x71
 805 01fb 2C000000 		.4byte	0x2c
 806 01ff 02       		.uleb128 0x2
 807 0200 91       		.byte	0x91
 808 0201 70       		.sleb128 -16
 809 0202 00       		.byte	0
 810 0203 12       		.uleb128 0x12
 811 0204 F5010000 		.4byte	.LASF31
 812 0208 01       		.byte	0x1
 813 0209 81       		.byte	0x81
 814 020a 98010000 		.4byte	0x198
 815 020e 00000000 		.4byte	.LFB5
 816 0212 B8000000 		.4byte	.LFE5-.LFB5
 817 0216 01       		.uleb128 0x1
 818 0217 9C       		.byte	0x9c
 819 0218 39020000 		.4byte	0x239
 820 021c 0D       		.uleb128 0xd
 821 021d B7010000 		.4byte	.LASF32
 822 0221 01       		.byte	0x1
 823 0222 81       		.byte	0x81
 824 0223 39020000 		.4byte	0x239
 825 0227 02       		.uleb128 0x2
 826 0228 91       		.byte	0x91
 827 0229 6C       		.sleb128 -20
 828 022a 0F       		.uleb128 0xf
 829 022b A7010000 		.4byte	.LASF33
 830 022f 01       		.byte	0x1
 831 0230 8A       		.byte	0x8a
 832 0231 88000000 		.4byte	0x88
 833 0235 02       		.uleb128 0x2
 834 0236 91       		.byte	0x91
 835 0237 77       		.sleb128 -9
 836 0238 00       		.byte	0
 837 0239 10       		.uleb128 0x10
 838 023a 04       		.byte	0x4
 839 023b 88000000 		.4byte	0x88
 840 023f 13       		.uleb128 0x13
 841 0240 727800   		.ascii	"rx\000"
 842 0243 01       		.byte	0x1
 843 0244 1D       		.byte	0x1d
 844 0245 0F010000 		.4byte	0x10f
 845 0249 05       		.uleb128 0x5
 846 024a 03       		.byte	0x3
 847 024b 00000000 		.4byte	rx
 848 024f 13       		.uleb128 0x13
 849 0250 747800   		.ascii	"tx\000"
 850 0253 01       		.byte	0x1
 851 0254 1E       		.byte	0x1e
 852 0255 0F010000 		.4byte	0x10f
 853 0259 05       		.uleb128 0x5
 854 025a 03       		.byte	0x3
 855 025b 10010000 		.4byte	tx
 856 025f 00       		.byte	0
 857              		.section	.debug_abbrev,"",%progbits
 858              	.Ldebug_abbrev0:
 859 0000 01       		.uleb128 0x1
ARM GAS  C:\Users\r\AppData\Local\Temp\ccwaXKEm.s 			page 19


 860 0001 11       		.uleb128 0x11
 861 0002 01       		.byte	0x1
 862 0003 25       		.uleb128 0x25
 863 0004 0E       		.uleb128 0xe
 864 0005 13       		.uleb128 0x13
 865 0006 0B       		.uleb128 0xb
 866 0007 03       		.uleb128 0x3
 867 0008 0E       		.uleb128 0xe
 868 0009 1B       		.uleb128 0x1b
 869 000a 0E       		.uleb128 0xe
 870 000b 55       		.uleb128 0x55
 871 000c 17       		.uleb128 0x17
 872 000d 11       		.uleb128 0x11
 873 000e 01       		.uleb128 0x1
 874 000f 10       		.uleb128 0x10
 875 0010 17       		.uleb128 0x17
 876 0011 00       		.byte	0
 877 0012 00       		.byte	0
 878 0013 02       		.uleb128 0x2
 879 0014 24       		.uleb128 0x24
 880 0015 00       		.byte	0
 881 0016 0B       		.uleb128 0xb
 882 0017 0B       		.uleb128 0xb
 883 0018 3E       		.uleb128 0x3e
 884 0019 0B       		.uleb128 0xb
 885 001a 03       		.uleb128 0x3
 886 001b 08       		.uleb128 0x8
 887 001c 00       		.byte	0
 888 001d 00       		.byte	0
 889 001e 03       		.uleb128 0x3
 890 001f 16       		.uleb128 0x16
 891 0020 00       		.byte	0
 892 0021 03       		.uleb128 0x3
 893 0022 0E       		.uleb128 0xe
 894 0023 3A       		.uleb128 0x3a
 895 0024 0B       		.uleb128 0xb
 896 0025 3B       		.uleb128 0x3b
 897 0026 0B       		.uleb128 0xb
 898 0027 49       		.uleb128 0x49
 899 0028 13       		.uleb128 0x13
 900 0029 00       		.byte	0
 901 002a 00       		.byte	0
 902 002b 04       		.uleb128 0x4
 903 002c 24       		.uleb128 0x24
 904 002d 00       		.byte	0
 905 002e 0B       		.uleb128 0xb
 906 002f 0B       		.uleb128 0xb
 907 0030 3E       		.uleb128 0x3e
 908 0031 0B       		.uleb128 0xb
 909 0032 03       		.uleb128 0x3
 910 0033 0E       		.uleb128 0xe
 911 0034 00       		.byte	0
 912 0035 00       		.byte	0
 913 0036 05       		.uleb128 0x5
 914 0037 04       		.uleb128 0x4
 915 0038 01       		.byte	0x1
 916 0039 03       		.uleb128 0x3
ARM GAS  C:\Users\r\AppData\Local\Temp\ccwaXKEm.s 			page 20


 917 003a 0E       		.uleb128 0xe
 918 003b 0B       		.uleb128 0xb
 919 003c 0B       		.uleb128 0xb
 920 003d 49       		.uleb128 0x49
 921 003e 13       		.uleb128 0x13
 922 003f 3A       		.uleb128 0x3a
 923 0040 0B       		.uleb128 0xb
 924 0041 3B       		.uleb128 0x3b
 925 0042 0B       		.uleb128 0xb
 926 0043 01       		.uleb128 0x1
 927 0044 13       		.uleb128 0x13
 928 0045 00       		.byte	0
 929 0046 00       		.byte	0
 930 0047 06       		.uleb128 0x6
 931 0048 28       		.uleb128 0x28
 932 0049 00       		.byte	0
 933 004a 03       		.uleb128 0x3
 934 004b 0E       		.uleb128 0xe
 935 004c 1C       		.uleb128 0x1c
 936 004d 0B       		.uleb128 0xb
 937 004e 00       		.byte	0
 938 004f 00       		.byte	0
 939 0050 07       		.uleb128 0x7
 940 0051 13       		.uleb128 0x13
 941 0052 01       		.byte	0x1
 942 0053 0B       		.uleb128 0xb
 943 0054 05       		.uleb128 0x5
 944 0055 3A       		.uleb128 0x3a
 945 0056 0B       		.uleb128 0xb
 946 0057 3B       		.uleb128 0x3b
 947 0058 0B       		.uleb128 0xb
 948 0059 01       		.uleb128 0x1
 949 005a 13       		.uleb128 0x13
 950 005b 00       		.byte	0
 951 005c 00       		.byte	0
 952 005d 08       		.uleb128 0x8
 953 005e 0D       		.uleb128 0xd
 954 005f 00       		.byte	0
 955 0060 03       		.uleb128 0x3
 956 0061 0E       		.uleb128 0xe
 957 0062 3A       		.uleb128 0x3a
 958 0063 0B       		.uleb128 0xb
 959 0064 3B       		.uleb128 0x3b
 960 0065 0B       		.uleb128 0xb
 961 0066 49       		.uleb128 0x49
 962 0067 13       		.uleb128 0x13
 963 0068 38       		.uleb128 0x38
 964 0069 0B       		.uleb128 0xb
 965 006a 00       		.byte	0
 966 006b 00       		.byte	0
 967 006c 09       		.uleb128 0x9
 968 006d 01       		.uleb128 0x1
 969 006e 01       		.byte	0x1
 970 006f 49       		.uleb128 0x49
 971 0070 13       		.uleb128 0x13
 972 0071 01       		.uleb128 0x1
 973 0072 13       		.uleb128 0x13
ARM GAS  C:\Users\r\AppData\Local\Temp\ccwaXKEm.s 			page 21


 974 0073 00       		.byte	0
 975 0074 00       		.byte	0
 976 0075 0A       		.uleb128 0xa
 977 0076 21       		.uleb128 0x21
 978 0077 00       		.byte	0
 979 0078 49       		.uleb128 0x49
 980 0079 13       		.uleb128 0x13
 981 007a 2F       		.uleb128 0x2f
 982 007b 05       		.uleb128 0x5
 983 007c 00       		.byte	0
 984 007d 00       		.byte	0
 985 007e 0B       		.uleb128 0xb
 986 007f 2E       		.uleb128 0x2e
 987 0080 00       		.byte	0
 988 0081 03       		.uleb128 0x3
 989 0082 0E       		.uleb128 0xe
 990 0083 3A       		.uleb128 0x3a
 991 0084 0B       		.uleb128 0xb
 992 0085 3B       		.uleb128 0x3b
 993 0086 0B       		.uleb128 0xb
 994 0087 11       		.uleb128 0x11
 995 0088 01       		.uleb128 0x1
 996 0089 12       		.uleb128 0x12
 997 008a 06       		.uleb128 0x6
 998 008b 40       		.uleb128 0x40
 999 008c 18       		.uleb128 0x18
 1000 008d 9742     		.uleb128 0x2117
 1001 008f 19       		.uleb128 0x19
 1002 0090 00       		.byte	0
 1003 0091 00       		.byte	0
 1004 0092 0C       		.uleb128 0xc
 1005 0093 2E       		.uleb128 0x2e
 1006 0094 01       		.byte	0x1
 1007 0095 3F       		.uleb128 0x3f
 1008 0096 19       		.uleb128 0x19
 1009 0097 03       		.uleb128 0x3
 1010 0098 0E       		.uleb128 0xe
 1011 0099 3A       		.uleb128 0x3a
 1012 009a 0B       		.uleb128 0xb
 1013 009b 3B       		.uleb128 0x3b
 1014 009c 0B       		.uleb128 0xb
 1015 009d 27       		.uleb128 0x27
 1016 009e 19       		.uleb128 0x19
 1017 009f 11       		.uleb128 0x11
 1018 00a0 01       		.uleb128 0x1
 1019 00a1 12       		.uleb128 0x12
 1020 00a2 06       		.uleb128 0x6
 1021 00a3 40       		.uleb128 0x40
 1022 00a4 18       		.uleb128 0x18
 1023 00a5 9642     		.uleb128 0x2116
 1024 00a7 19       		.uleb128 0x19
 1025 00a8 01       		.uleb128 0x1
 1026 00a9 13       		.uleb128 0x13
 1027 00aa 00       		.byte	0
 1028 00ab 00       		.byte	0
 1029 00ac 0D       		.uleb128 0xd
 1030 00ad 05       		.uleb128 0x5
ARM GAS  C:\Users\r\AppData\Local\Temp\ccwaXKEm.s 			page 22


 1031 00ae 00       		.byte	0
 1032 00af 03       		.uleb128 0x3
 1033 00b0 0E       		.uleb128 0xe
 1034 00b1 3A       		.uleb128 0x3a
 1035 00b2 0B       		.uleb128 0xb
 1036 00b3 3B       		.uleb128 0x3b
 1037 00b4 0B       		.uleb128 0xb
 1038 00b5 49       		.uleb128 0x49
 1039 00b6 13       		.uleb128 0x13
 1040 00b7 02       		.uleb128 0x2
 1041 00b8 18       		.uleb128 0x18
 1042 00b9 00       		.byte	0
 1043 00ba 00       		.byte	0
 1044 00bb 0E       		.uleb128 0xe
 1045 00bc 05       		.uleb128 0x5
 1046 00bd 00       		.byte	0
 1047 00be 03       		.uleb128 0x3
 1048 00bf 08       		.uleb128 0x8
 1049 00c0 3A       		.uleb128 0x3a
 1050 00c1 0B       		.uleb128 0xb
 1051 00c2 3B       		.uleb128 0x3b
 1052 00c3 0B       		.uleb128 0xb
 1053 00c4 49       		.uleb128 0x49
 1054 00c5 13       		.uleb128 0x13
 1055 00c6 02       		.uleb128 0x2
 1056 00c7 18       		.uleb128 0x18
 1057 00c8 00       		.byte	0
 1058 00c9 00       		.byte	0
 1059 00ca 0F       		.uleb128 0xf
 1060 00cb 34       		.uleb128 0x34
 1061 00cc 00       		.byte	0
 1062 00cd 03       		.uleb128 0x3
 1063 00ce 0E       		.uleb128 0xe
 1064 00cf 3A       		.uleb128 0x3a
 1065 00d0 0B       		.uleb128 0xb
 1066 00d1 3B       		.uleb128 0x3b
 1067 00d2 0B       		.uleb128 0xb
 1068 00d3 49       		.uleb128 0x49
 1069 00d4 13       		.uleb128 0x13
 1070 00d5 02       		.uleb128 0x2
 1071 00d6 18       		.uleb128 0x18
 1072 00d7 00       		.byte	0
 1073 00d8 00       		.byte	0
 1074 00d9 10       		.uleb128 0x10
 1075 00da 0F       		.uleb128 0xf
 1076 00db 00       		.byte	0
 1077 00dc 0B       		.uleb128 0xb
 1078 00dd 0B       		.uleb128 0xb
 1079 00de 49       		.uleb128 0x49
 1080 00df 13       		.uleb128 0x13
 1081 00e0 00       		.byte	0
 1082 00e1 00       		.byte	0
 1083 00e2 11       		.uleb128 0x11
 1084 00e3 26       		.uleb128 0x26
 1085 00e4 00       		.byte	0
 1086 00e5 49       		.uleb128 0x49
 1087 00e6 13       		.uleb128 0x13
ARM GAS  C:\Users\r\AppData\Local\Temp\ccwaXKEm.s 			page 23


 1088 00e7 00       		.byte	0
 1089 00e8 00       		.byte	0
 1090 00e9 12       		.uleb128 0x12
 1091 00ea 2E       		.uleb128 0x2e
 1092 00eb 01       		.byte	0x1
 1093 00ec 3F       		.uleb128 0x3f
 1094 00ed 19       		.uleb128 0x19
 1095 00ee 03       		.uleb128 0x3
 1096 00ef 0E       		.uleb128 0xe
 1097 00f0 3A       		.uleb128 0x3a
 1098 00f1 0B       		.uleb128 0xb
 1099 00f2 3B       		.uleb128 0x3b
 1100 00f3 0B       		.uleb128 0xb
 1101 00f4 27       		.uleb128 0x27
 1102 00f5 19       		.uleb128 0x19
 1103 00f6 49       		.uleb128 0x49
 1104 00f7 13       		.uleb128 0x13
 1105 00f8 11       		.uleb128 0x11
 1106 00f9 01       		.uleb128 0x1
 1107 00fa 12       		.uleb128 0x12
 1108 00fb 06       		.uleb128 0x6
 1109 00fc 40       		.uleb128 0x40
 1110 00fd 18       		.uleb128 0x18
 1111 00fe 9642     		.uleb128 0x2116
 1112 0100 19       		.uleb128 0x19
 1113 0101 01       		.uleb128 0x1
 1114 0102 13       		.uleb128 0x13
 1115 0103 00       		.byte	0
 1116 0104 00       		.byte	0
 1117 0105 13       		.uleb128 0x13
 1118 0106 34       		.uleb128 0x34
 1119 0107 00       		.byte	0
 1120 0108 03       		.uleb128 0x3
 1121 0109 08       		.uleb128 0x8
 1122 010a 3A       		.uleb128 0x3a
 1123 010b 0B       		.uleb128 0xb
 1124 010c 3B       		.uleb128 0x3b
 1125 010d 0B       		.uleb128 0xb
 1126 010e 49       		.uleb128 0x49
 1127 010f 13       		.uleb128 0x13
 1128 0110 02       		.uleb128 0x2
 1129 0111 18       		.uleb128 0x18
 1130 0112 00       		.byte	0
 1131 0113 00       		.byte	0
 1132 0114 00       		.byte	0
 1133              		.section	.debug_aranges,"",%progbits
 1134 0000 44000000 		.4byte	0x44
 1135 0004 0200     		.2byte	0x2
 1136 0006 00000000 		.4byte	.Ldebug_info0
 1137 000a 04       		.byte	0x4
 1138 000b 00       		.byte	0
 1139 000c 0000     		.2byte	0
 1140 000e 0000     		.2byte	0
 1141 0010 00000000 		.4byte	.LFB0
 1142 0014 30000000 		.4byte	.LFE0-.LFB0
 1143 0018 00000000 		.4byte	.LFB1
 1144 001c 30000000 		.4byte	.LFE1-.LFB1
ARM GAS  C:\Users\r\AppData\Local\Temp\ccwaXKEm.s 			page 24


 1145 0020 00000000 		.4byte	.LFB2
 1146 0024 F0000000 		.4byte	.LFE2-.LFB2
 1147 0028 00000000 		.4byte	.LFB3
 1148 002c 3C000000 		.4byte	.LFE3-.LFB3
 1149 0030 00000000 		.4byte	.LFB4
 1150 0034 48000000 		.4byte	.LFE4-.LFB4
 1151 0038 00000000 		.4byte	.LFB5
 1152 003c B8000000 		.4byte	.LFE5-.LFB5
 1153 0040 00000000 		.4byte	0
 1154 0044 00000000 		.4byte	0
 1155              		.section	.debug_ranges,"",%progbits
 1156              	.Ldebug_ranges0:
 1157 0000 00000000 		.4byte	.LFB0
 1158 0004 30000000 		.4byte	.LFE0
 1159 0008 00000000 		.4byte	.LFB1
 1160 000c 30000000 		.4byte	.LFE1
 1161 0010 00000000 		.4byte	.LFB2
 1162 0014 F0000000 		.4byte	.LFE2
 1163 0018 00000000 		.4byte	.LFB3
 1164 001c 3C000000 		.4byte	.LFE3
 1165 0020 00000000 		.4byte	.LFB4
 1166 0024 48000000 		.4byte	.LFE4
 1167 0028 00000000 		.4byte	.LFB5
 1168 002c B8000000 		.4byte	.LFE5
 1169 0030 00000000 		.4byte	0
 1170 0034 00000000 		.4byte	0
 1171              		.section	.debug_line,"",%progbits
 1172              	.Ldebug_line0:
 1173 0000 6B020000 		.section	.debug_str,"MS",%progbits,1
 1173      0200AB01 
 1173      00000201 
 1173      FB0E0D00 
 1173      01010101 
 1174              	.LASF5:
 1175 0000 5F5F7569 		.ascii	"__uint8_t\000"
 1175      6E74385F 
 1175      7400
 1176              	.LASF34:
 1177 000a 474E5520 		.ascii	"GNU C11 5.4.1 20160609 (release) [ARM/embedded-5-br"
 1177      43313120 
 1177      352E342E 
 1177      31203230 
 1177      31363036 
 1178 003d 616E6368 		.ascii	"anch revision 237715] -mcpu=cortex-m3 -mthumb -g -O"
 1178      20726576 
 1178      6973696F 
 1178      6E203233 
 1178      37373135 
 1179 0070 30202D66 		.ascii	"0 -ffunction-sections -ffat-lto-objects\000"
 1179      66756E63 
 1179      74696F6E 
 1179      2D736563 
 1179      74696F6E 
 1180              	.LASF18:
 1181 0098 73746174 		.ascii	"state\000"
 1181      6500
 1182              	.LASF36:
ARM GAS  C:\Users\r\AppData\Local\Temp\ccwaXKEm.s 			page 25


 1183 009e 433A5C55 		.ascii	"C:\\Users\\r\\Documents\\Data Sheets\\apple\\SCSI2S"
 1183      73657273 
 1183      5C725C44 
 1183      6F63756D 
 1183      656E7473 
 1184 00cb 445C5343 		.ascii	"D\\SCSI2SD_Copy_01.cydsn\000"
 1184      53493253 
 1184      445F436F 
 1184      70795F30 
 1184      312E6379 
 1185              	.LASF8:
 1186 00e3 73686F72 		.ascii	"short unsigned int\000"
 1186      7420756E 
 1186      7369676E 
 1186      65642069 
 1186      6E7400
 1187              	.LASF15:
 1188 00f6 49444C45 		.ascii	"IDLE\000"
 1188      00
 1189              	.LASF22:
 1190 00fb 48494450 		.ascii	"HIDPacketState\000"
 1190      61636B65 
 1190      74537461 
 1190      746500
 1191              	.LASF26:
 1192 010a 66696E61 		.ascii	"final\000"
 1192      6C00
 1193              	.LASF27:
 1194 0110 7061796C 		.ascii	"payloadLen\000"
 1194      6F61644C 
 1194      656E00
 1195              	.LASF28:
 1196 011b 68696450 		.ascii	"hidPacket_recv\000"
 1196      61636B65 
 1196      745F7265 
 1196      637600
 1197              	.LASF6:
 1198 012a 756E7369 		.ascii	"unsigned char\000"
 1198      676E6564 
 1198      20636861 
 1198      7200
 1199              	.LASF10:
 1200 0138 6C6F6E67 		.ascii	"long unsigned int\000"
 1200      20756E73 
 1200      69676E65 
 1200      6420696E 
 1200      7400
 1201              	.LASF37:
 1202 014a 53544154 		.ascii	"STATE\000"
 1202      4500
 1203              	.LASF35:
 1204 0150 2E2E5C2E 		.ascii	"..\\..\\src\\hidpacket.c\000"
 1204      2E5C7372 
 1204      635C6869 
 1204      64706163 
 1204      6B65742E 
 1205              	.LASF4:
ARM GAS  C:\Users\r\AppData\Local\Temp\ccwaXKEm.s 			page 26


 1206 0166 73697A65 		.ascii	"size_t\000"
 1206      5F7400
 1207              	.LASF19:
 1208 016d 6368756E 		.ascii	"chunk\000"
 1208      6B00
 1209              	.LASF0:
 1210 0173 756E7369 		.ascii	"unsigned int\000"
 1210      676E6564 
 1210      20696E74 
 1210      00
 1211              	.LASF23:
 1212 0180 72785265 		.ascii	"rxReset\000"
 1212      73657400 
 1213              	.LASF11:
 1214 0188 6C6F6E67 		.ascii	"long long unsigned int\000"
 1214      206C6F6E 
 1214      6720756E 
 1214      7369676E 
 1214      65642069 
 1215              	.LASF12:
 1216 019f 75696E74 		.ascii	"uint8_t\000"
 1216      385F7400 
 1217              	.LASF33:
 1218 01a7 7061796C 		.ascii	"payload\000"
 1218      6F616400 
 1219              	.LASF24:
 1220 01af 74785265 		.ascii	"txReset\000"
 1220      73657400 
 1221              	.LASF32:
 1222 01b7 68696442 		.ascii	"hidBuffer\000"
 1222      75666665 
 1222      7200
 1223              	.LASF13:
 1224 01c1 73697A65 		.ascii	"sizetype\000"
 1224      74797065 
 1224      00
 1225              	.LASF17:
 1226 01ca 434F4D50 		.ascii	"COMPLETE\000"
 1226      4C455445 
 1226      00
 1227              	.LASF1:
 1228 01d3 6C6F6E67 		.ascii	"long long int\000"
 1228      206C6F6E 
 1228      6720696E 
 1228      7400
 1229              	.LASF30:
 1230 01e1 68696450 		.ascii	"hidPacket_getPacket\000"
 1230      61636B65 
 1230      745F6765 
 1230      74506163 
 1230      6B657400 
 1231              	.LASF31:
 1232 01f5 68696450 		.ascii	"hidPacket_getHIDBytes\000"
 1232      61636B65 
 1232      745F6765 
 1232      74484944 
 1232      42797465 
ARM GAS  C:\Users\r\AppData\Local\Temp\ccwaXKEm.s 			page 27


 1233              	.LASF14:
 1234 020b 63686172 		.ascii	"char\000"
 1234      00
 1235              	.LASF20:
 1236 0210 6F666673 		.ascii	"offset\000"
 1236      657400
 1237              	.LASF7:
 1238 0217 73686F72 		.ascii	"short int\000"
 1238      7420696E 
 1238      7400
 1239              	.LASF21:
 1240 0221 62756666 		.ascii	"buffer\000"
 1240      657200
 1241              	.LASF9:
 1242 0228 6C6F6E67 		.ascii	"long int\000"
 1242      20696E74 
 1242      00
 1243              	.LASF25:
 1244 0231 62797465 		.ascii	"bytes\000"
 1244      7300
 1245              	.LASF2:
 1246 0237 6C6F6E67 		.ascii	"long double\000"
 1246      20646F75 
 1246      626C6500 
 1247              	.LASF3:
 1248 0243 7369676E 		.ascii	"signed char\000"
 1248      65642063 
 1248      68617200 
 1249              	.LASF16:
 1250 024f 50415254 		.ascii	"PARTIAL\000"
 1250      49414C00 
 1251              	.LASF29:
 1252 0257 68696450 		.ascii	"hidPacket_send\000"
 1252      61636B65 
 1252      745F7365 
 1252      6E6400
 1253              		.ident	"GCC: (GNU Tools for ARM Embedded Processors) 5.4.1 20160609 (release) [ARM/embedded-5-bran
