ARM GAS  C:\Users\r\AppData\Local\Temp\ccwaXKEm.s 			page 1


   1              		.syntax unified
   2              		.cpu cortex-m3
   3              		.fpu softvfp
   4              		.eabi_attribute 20, 1
   5              		.eabi_attribute 21, 1
   6              		.eabi_attribute 23, 3
   7              		.eabi_attribute 24, 1
   8              		.eabi_attribute 25, 1
   9              		.eabi_attribute 26, 1
  10              		.eabi_attribute 30, 6
  11              		.eabi_attribute 34, 1
  12              		.eabi_attribute 18, 4
  13              		.thumb
  14              		.syntax unified
  15              		.file	"hidpacket.c"
  16              		.text
  17              	.Ltext0:
  18              		.cfi_sections	.debug_frame
  19              		.bss
  20              		.align	2
  21              	rx:
  22 0000 00000000 		.space	269
  22      00000000 
  22      00000000 
  22      00000000 
  22      00000000 
  23 010d 000000   		.align	2
  24              	tx:
  25 0110 00000000 		.space	269
  25      00000000 
  25      00000000 
  25      00000000 
  25      00000000 
  26              		.section	.text.rxReset,"ax",%progbits
  27              		.align	2
  28              		.thumb
  29              		.thumb_func
  30              		.type	rxReset, %function
  31              	rxReset:
  32              	.LFB0:
  33              		.file 1 "..\\..\\src\\hidpacket.c"
   1:..\..\src/hidpacket.c **** //	Copyright (C) 2014 Michael McMaster <michael@codesrc.com>
   2:..\..\src/hidpacket.c **** //
   3:..\..\src/hidpacket.c **** //	This file is part of SCSI2SD.
   4:..\..\src/hidpacket.c **** //
   5:..\..\src/hidpacket.c **** //	SCSI2SD is free software: you can redistribute it and/or modify
   6:..\..\src/hidpacket.c **** //	it under the terms of the GNU General Public License as published by
   7:..\..\src/hidpacket.c **** //	the Free Software Foundation, either version 3 of the License, or
   8:..\..\src/hidpacket.c **** //	(at your option) any later version.
   9:..\..\src/hidpacket.c **** //
  10:..\..\src/hidpacket.c **** //	SCSI2SD is distributed in the hope that it will be useful,
  11:..\..\src/hidpacket.c **** //	but WITHOUT ANY WARRANTY; without even the implied warranty of
  12:..\..\src/hidpacket.c **** //	MERCHANTABILITY or FITNESS FOR A PARTICULAR PURPOSE.  See the
  13:..\..\src/hidpacket.c **** //	GNU General Public License for more details.
  14:..\..\src/hidpacket.c **** //
  15:..\..\src/hidpacket.c **** //	You should have received a copy of the GNU General Public License
  16:..\..\src/hidpacket.c **** //	along with SCSI2SD.  If not, see <http://www.gnu.org/licenses/>.
ARM GAS  C:\Users\r\AppData\Local\Temp\ccwaXKEm.s 			page 2


  17:..\..\src/hidpacket.c **** 
  18:..\..\src/hidpacket.c **** #include "hidpacket.h"
  19:..\..\src/hidpacket.c **** #include <string.h>
  20:..\..\src/hidpacket.c **** 
  21:..\..\src/hidpacket.c **** enum STATE { IDLE, PARTIAL, COMPLETE };
  22:..\..\src/hidpacket.c **** typedef struct __attribute__((packed))
  23:..\..\src/hidpacket.c **** {
  24:..\..\src/hidpacket.c **** 	int state;
  25:..\..\src/hidpacket.c **** 	uint8_t chunk;
  26:..\..\src/hidpacket.c **** 	size_t offset; // Current offset into buffer.
  27:..\..\src/hidpacket.c **** 	uint8_t buffer[HIDPACKET_MAX_LEN];
  28:..\..\src/hidpacket.c **** } HIDPacketState;
  29:..\..\src/hidpacket.c **** static HIDPacketState rx = {IDLE, 0, 0};
  30:..\..\src/hidpacket.c **** static HIDPacketState tx = {IDLE, 0, 0};
  31:..\..\src/hidpacket.c **** 
  32:..\..\src/hidpacket.c **** static void
  33:..\..\src/hidpacket.c **** rxReset()
  34:..\..\src/hidpacket.c **** {
  34              		.loc 1 34 0
  35              		.cfi_startproc
  36              		@ args = 0, pretend = 0, frame = 0
  37              		@ frame_needed = 1, uses_anonymous_args = 0
  38              		@ link register save eliminated.
  39 0000 80B4     		push	{r7}
  40              		.cfi_def_cfa_offset 4
  41              		.cfi_offset 7, -4
  42 0002 00AF     		add	r7, sp, #0
  43              		.cfi_def_cfa_register 7
  35:..\..\src/hidpacket.c **** 	rx.state = IDLE;
  44              		.loc 1 35 0
  45 0004 094B     		ldr	r3, .L2
  46 0006 0022     		movs	r2, #0
  47 0008 1A60     		str	r2, [r3]
  36:..\..\src/hidpacket.c **** 	rx.chunk = 0;
  48              		.loc 1 36 0
  49 000a 084B     		ldr	r3, .L2
  50 000c 0022     		movs	r2, #0
  51 000e 1A71     		strb	r2, [r3, #4]
  37:..\..\src/hidpacket.c **** 	rx.offset = 0;
  52              		.loc 1 37 0
  53 0010 064B     		ldr	r3, .L2
  54 0012 0022     		movs	r2, #0
  55 0014 5A71     		strb	r2, [r3, #5]
  56 0016 0022     		movs	r2, #0
  57 0018 9A71     		strb	r2, [r3, #6]
  58 001a 0022     		movs	r2, #0
  59 001c DA71     		strb	r2, [r3, #7]
  60 001e 0022     		movs	r2, #0
  61 0020 1A72     		strb	r2, [r3, #8]
  38:..\..\src/hidpacket.c **** }
  62              		.loc 1 38 0
  63 0022 00BF     		nop
  64 0024 BD46     		mov	sp, r7
  65              		.cfi_def_cfa_register 13
  66              		@ sp needed
  67 0026 80BC     		pop	{r7}
  68              		.cfi_restore 7
ARM GAS  C:\Users\r\AppData\Local\Temp\ccwaXKEm.s 			page 3


  69              		.cfi_def_cfa_offset 0
  70 0028 7047     		bx	lr
  71              	.L3:
  72 002a 00BF     		.align	2
  73              	.L2:
  74 002c 00000000 		.word	rx
  75              		.cfi_endproc
  76              	.LFE0:
  77              		.size	rxReset, .-rxReset
  78              		.section	.text.txReset,"ax",%progbits
  79              		.align	2
  80              		.thumb
  81              		.thumb_func
  82              		.type	txReset, %function
  83              	txReset:
  84              	.LFB1:
  39:..\..\src/hidpacket.c **** 
  40:..\..\src/hidpacket.c **** static void
  41:..\..\src/hidpacket.c **** txReset()
  42:..\..\src/hidpacket.c **** {
  85              		.loc 1 42 0
  86              		.cfi_startproc
  87              		@ args = 0, pretend = 0, frame = 0
  88              		@ frame_needed = 1, uses_anonymous_args = 0
  89              		@ link register save eliminated.
  90 0000 80B4     		push	{r7}
  91              		.cfi_def_cfa_offset 4
  92              		.cfi_offset 7, -4
  93 0002 00AF     		add	r7, sp, #0
  94              		.cfi_def_cfa_register 7
  43:..\..\src/hidpacket.c **** 	tx.state = IDLE;
  95              		.loc 1 43 0
  96 0004 094B     		ldr	r3, .L5
  97 0006 0022     		movs	r2, #0
  98 0008 1A60     		str	r2, [r3]
  44:..\..\src/hidpacket.c **** 	tx.chunk = 0;
  99              		.loc 1 44 0
 100 000a 084B     		ldr	r3, .L5
 101 000c 0022     		movs	r2, #0
 102 000e 1A71     		strb	r2, [r3, #4]
  45:..\..\src/hidpacket.c **** 	tx.offset = 0;
 103              		.loc 1 45 0
 104 0010 064B     		ldr	r3, .L5
 105 0012 0022     		movs	r2, #0
 106 0014 5A71     		strb	r2, [r3, #5]
 107 0016 0022     		movs	r2, #0
 108 0018 9A71     		strb	r2, [r3, #6]
 109 001a 0022     		movs	r2, #0
 110 001c DA71     		strb	r2, [r3, #7]
 111 001e 0022     		movs	r2, #0
 112 0020 1A72     		strb	r2, [r3, #8]
  46:..\..\src/hidpacket.c **** }
 113              		.loc 1 46 0
 114 0022 00BF     		nop
 115 0024 BD46     		mov	sp, r7
 116              		.cfi_def_cfa_register 13
 117              		@ sp needed
ARM GAS  C:\Users\r\AppData\Local\Temp\ccwaXKEm.s 			page 4


 118 0026 80BC     		pop	{r7}
 119              		.cfi_restore 7
 120              		.cfi_def_cfa_offset 0
 121 0028 7047     		bx	lr
 122              	.L6:
 123 002a 00BF     		.align	2
 124              	.L5:
 125 002c 10010000 		.word	tx
 126              		.cfi_endproc
 127              	.LFE1:
 128              		.size	txReset, .-txReset
 129              		.section	.text.hidPacket_recv,"ax",%progbits
 130              		.align	2
 131              		.global	hidPacket_recv
 132              		.thumb
 133              		.thumb_func
 134              		.type	hidPacket_recv, %function
 135              	hidPacket_recv:
 136              	.LFB2:
  47:..\..\src/hidpacket.c **** 
  48:..\..\src/hidpacket.c **** void hidPacket_recv(const uint8_t* bytes, size_t len)
  49:..\..\src/hidpacket.c **** {
 137              		.loc 1 49 0
 138              		.cfi_startproc
 139              		@ args = 0, pretend = 0, frame = 24
 140              		@ frame_needed = 1, uses_anonymous_args = 0
 141 0000 80B5     		push	{r7, lr}
 142              		.cfi_def_cfa_offset 8
 143              		.cfi_offset 7, -8
 144              		.cfi_offset 14, -4
 145 0002 86B0     		sub	sp, sp, #24
 146              		.cfi_def_cfa_offset 32
 147 0004 00AF     		add	r7, sp, #0
 148              		.cfi_def_cfa_register 7
 149 0006 7860     		str	r0, [r7, #4]
 150 0008 3960     		str	r1, [r7]
  50:..\..\src/hidpacket.c **** 	if (len < 2)
 151              		.loc 1 50 0
 152 000a 3B68     		ldr	r3, [r7]
 153 000c 012B     		cmp	r3, #1
 154 000e 02D8     		bhi	.L8
  51:..\..\src/hidpacket.c **** 	{
  52:..\..\src/hidpacket.c **** 		// Invalid. We need at least a chunk number and payload length.
  53:..\..\src/hidpacket.c **** 		rxReset();
 155              		.loc 1 53 0
 156 0010 FFF7FEFF 		bl	rxReset
  54:..\..\src/hidpacket.c **** 		return;
 157              		.loc 1 54 0
 158 0014 65E0     		b	.L7
 159              	.L8:
  55:..\..\src/hidpacket.c **** 	}
  56:..\..\src/hidpacket.c **** 
  57:..\..\src/hidpacket.c **** 	uint8_t chunk = bytes[0] & 0x7F;
 160              		.loc 1 57 0
 161 0016 7B68     		ldr	r3, [r7, #4]
 162 0018 1B78     		ldrb	r3, [r3]	@ zero_extendqisi2
 163 001a 03F07F03 		and	r3, r3, #127
ARM GAS  C:\Users\r\AppData\Local\Temp\ccwaXKEm.s 			page 5


 164 001e FB75     		strb	r3, [r7, #23]
  58:..\..\src/hidpacket.c **** 	int final = bytes[0] & 0x80;
 165              		.loc 1 58 0
 166 0020 7B68     		ldr	r3, [r7, #4]
 167 0022 1B78     		ldrb	r3, [r3]	@ zero_extendqisi2
 168 0024 03F08003 		and	r3, r3, #128
 169 0028 3B61     		str	r3, [r7, #16]
  59:..\..\src/hidpacket.c **** 	uint8_t payloadLen = bytes[1];
 170              		.loc 1 59 0
 171 002a 7B68     		ldr	r3, [r7, #4]
 172 002c 5B78     		ldrb	r3, [r3, #1]
 173 002e FB73     		strb	r3, [r7, #15]
  60:..\..\src/hidpacket.c **** 	if ((payloadLen > (len - 2)) || // short packet
 174              		.loc 1 60 0
 175 0030 FA7B     		ldrb	r2, [r7, #15]	@ zero_extendqisi2
 176 0032 3B68     		ldr	r3, [r7]
 177 0034 023B     		subs	r3, r3, #2
 178 0036 9A42     		cmp	r2, r3
 179 0038 07D8     		bhi	.L10
  61:..\..\src/hidpacket.c **** 		(payloadLen + rx.offset > sizeof(rx.buffer))) // buffer overflow
 180              		.loc 1 61 0 discriminator 1
 181 003a FA7B     		ldrb	r2, [r7, #15]	@ zero_extendqisi2
 182 003c 2A4B     		ldr	r3, .L15
 183 003e D3F80530 		ldr	r3, [r3, #5]	@ unaligned
 184 0042 1344     		add	r3, r3, r2
  60:..\..\src/hidpacket.c **** 	if ((payloadLen > (len - 2)) || // short packet
 185              		.loc 1 60 0 discriminator 1
 186 0044 B3F5827F 		cmp	r3, #260
 187 0048 02D9     		bls	.L11
 188              	.L10:
  62:..\..\src/hidpacket.c **** 	{
  63:..\..\src/hidpacket.c **** 		rxReset();
 189              		.loc 1 63 0
 190 004a FFF7FEFF 		bl	rxReset
  64:..\..\src/hidpacket.c **** 		return;
 191              		.loc 1 64 0
 192 004e 48E0     		b	.L7
 193              	.L11:
  65:..\..\src/hidpacket.c **** 	}
  66:..\..\src/hidpacket.c **** 
  67:..\..\src/hidpacket.c **** 	if (chunk == 0)
 194              		.loc 1 67 0
 195 0050 FB7D     		ldrb	r3, [r7, #23]	@ zero_extendqisi2
 196 0052 002B     		cmp	r3, #0
 197 0054 10D1     		bne	.L12
  68:..\..\src/hidpacket.c **** 	{
  69:..\..\src/hidpacket.c **** 		// Initial chunk
  70:..\..\src/hidpacket.c **** 		rxReset();
 198              		.loc 1 70 0
 199 0056 FFF7FEFF 		bl	rxReset
  71:..\..\src/hidpacket.c **** 		memcpy(rx.buffer, bytes + 2, payloadLen);
 200              		.loc 1 71 0
 201 005a 7B68     		ldr	r3, [r7, #4]
 202 005c 0233     		adds	r3, r3, #2
 203 005e FA7B     		ldrb	r2, [r7, #15]	@ zero_extendqisi2
 204 0060 1946     		mov	r1, r3
 205 0062 2248     		ldr	r0, .L15+4
ARM GAS  C:\Users\r\AppData\Local\Temp\ccwaXKEm.s 			page 6


 206 0064 FFF7FEFF 		bl	memcpy
  72:..\..\src/hidpacket.c **** 		rx.offset = payloadLen;
 207              		.loc 1 72 0
 208 0068 FB7B     		ldrb	r3, [r7, #15]	@ zero_extendqisi2
 209 006a 1F4A     		ldr	r2, .L15
 210 006c C2F80530 		str	r3, [r2, #5]	@ unaligned
  73:..\..\src/hidpacket.c **** 		rx.state = PARTIAL;
 211              		.loc 1 73 0
 212 0070 1D4B     		ldr	r3, .L15
 213 0072 0122     		movs	r2, #1
 214 0074 1A60     		str	r2, [r3]
 215 0076 2AE0     		b	.L13
 216              	.L12:
  74:..\..\src/hidpacket.c **** 	}
  75:..\..\src/hidpacket.c **** 	else if ((rx.state == PARTIAL) && (chunk == rx.chunk + 1))
 217              		.loc 1 75 0
 218 0078 1B4B     		ldr	r3, .L15
 219 007a 1B68     		ldr	r3, [r3]
 220 007c 012B     		cmp	r3, #1
 221 007e 1FD1     		bne	.L14
 222              		.loc 1 75 0 is_stmt 0 discriminator 1
 223 0080 FA7D     		ldrb	r2, [r7, #23]	@ zero_extendqisi2
 224 0082 194B     		ldr	r3, .L15
 225 0084 1B79     		ldrb	r3, [r3, #4]	@ zero_extendqisi2
 226 0086 0133     		adds	r3, r3, #1
 227 0088 9A42     		cmp	r2, r3
 228 008a 19D1     		bne	.L14
  76:..\..\src/hidpacket.c **** 	{
  77:..\..\src/hidpacket.c **** 		memcpy(rx.buffer + rx.offset, bytes + 2, payloadLen);
 229              		.loc 1 77 0 is_stmt 1
 230 008c 164B     		ldr	r3, .L15
 231 008e D3F80530 		ldr	r3, [r3, #5]	@ unaligned
 232 0092 164A     		ldr	r2, .L15+4
 233 0094 9818     		adds	r0, r3, r2
 234 0096 7B68     		ldr	r3, [r7, #4]
 235 0098 0233     		adds	r3, r3, #2
 236 009a FA7B     		ldrb	r2, [r7, #15]	@ zero_extendqisi2
 237 009c 1946     		mov	r1, r3
 238 009e FFF7FEFF 		bl	memcpy
  78:..\..\src/hidpacket.c **** 		rx.offset += payloadLen;
 239              		.loc 1 78 0
 240 00a2 114B     		ldr	r3, .L15
 241 00a4 D3F80520 		ldr	r2, [r3, #5]	@ unaligned
 242 00a8 FB7B     		ldrb	r3, [r7, #15]	@ zero_extendqisi2
 243 00aa 1344     		add	r3, r3, r2
 244 00ac 0E4A     		ldr	r2, .L15
 245 00ae C2F80530 		str	r3, [r2, #5]	@ unaligned
  79:..\..\src/hidpacket.c **** 		rx.chunk++;
 246              		.loc 1 79 0
 247 00b2 0D4B     		ldr	r3, .L15
 248 00b4 1B79     		ldrb	r3, [r3, #4]	@ zero_extendqisi2
 249 00b6 0133     		adds	r3, r3, #1
 250 00b8 DAB2     		uxtb	r2, r3
 251 00ba 0B4B     		ldr	r3, .L15
 252 00bc 1A71     		strb	r2, [r3, #4]
 253 00be 06E0     		b	.L13
 254              	.L14:
ARM GAS  C:\Users\r\AppData\Local\Temp\ccwaXKEm.s 			page 7


  80:..\..\src/hidpacket.c **** 	}
  81:..\..\src/hidpacket.c **** 	else if (chunk == rx.chunk)
 255              		.loc 1 81 0
 256 00c0 094B     		ldr	r3, .L15
 257 00c2 1B79     		ldrb	r3, [r3, #4]	@ zero_extendqisi2
 258 00c4 FA7D     		ldrb	r2, [r7, #23]	@ zero_extendqisi2
 259 00c6 9A42     		cmp	r2, r3
 260 00c8 01D0     		beq	.L13
  82:..\..\src/hidpacket.c **** 	{
  83:..\..\src/hidpacket.c **** 		// duplicated packet. ignore.
  84:..\..\src/hidpacket.c **** 	}
  85:..\..\src/hidpacket.c **** 	else
  86:..\..\src/hidpacket.c **** 	{
  87:..\..\src/hidpacket.c **** 		// invalid. Maybe we missed some data.
  88:..\..\src/hidpacket.c **** 		rxReset();
 261              		.loc 1 88 0
 262 00ca FFF7FEFF 		bl	rxReset
 263              	.L13:
  89:..\..\src/hidpacket.c **** 	}
  90:..\..\src/hidpacket.c **** 
  91:..\..\src/hidpacket.c **** 	if ((rx.state == PARTIAL) && final)
 264              		.loc 1 91 0
 265 00ce 064B     		ldr	r3, .L15
 266 00d0 1B68     		ldr	r3, [r3]
 267 00d2 012B     		cmp	r3, #1
 268 00d4 05D1     		bne	.L7
 269              		.loc 1 91 0 is_stmt 0 discriminator 1
 270 00d6 3B69     		ldr	r3, [r7, #16]
 271 00d8 002B     		cmp	r3, #0
 272 00da 02D0     		beq	.L7
  92:..\..\src/hidpacket.c **** 	{
  93:..\..\src/hidpacket.c **** 		rx.state = COMPLETE;
 273              		.loc 1 93 0 is_stmt 1
 274 00dc 024B     		ldr	r3, .L15
 275 00de 0222     		movs	r2, #2
 276 00e0 1A60     		str	r2, [r3]
 277              	.L7:
  94:..\..\src/hidpacket.c **** 	}
  95:..\..\src/hidpacket.c **** }
 278              		.loc 1 95 0
 279 00e2 1837     		adds	r7, r7, #24
 280              		.cfi_def_cfa_offset 8
 281 00e4 BD46     		mov	sp, r7
 282              		.cfi_def_cfa_register 13
 283              		@ sp needed
 284 00e6 80BD     		pop	{r7, pc}
 285              	.L16:
 286              		.align	2
 287              	.L15:
 288 00e8 00000000 		.word	rx
 289 00ec 09000000 		.word	rx+9
 290              		.cfi_endproc
 291              	.LFE2:
 292              		.size	hidPacket_recv, .-hidPacket_recv
 293              		.section	.text.hidPacket_getPacket,"ax",%progbits
 294              		.align	2
 295              		.global	hidPacket_getPacket
ARM GAS  C:\Users\r\AppData\Local\Temp\ccwaXKEm.s 			page 8


 296              		.thumb
 297              		.thumb_func
 298              		.type	hidPacket_getPacket, %function
 299              	hidPacket_getPacket:
 300              	.LFB3:
  96:..\..\src/hidpacket.c **** 
  97:..\..\src/hidpacket.c **** const uint8_t*
  98:..\..\src/hidpacket.c **** hidPacket_getPacket(size_t* len)
  99:..\..\src/hidpacket.c **** {
 301              		.loc 1 99 0
 302              		.cfi_startproc
 303              		@ args = 0, pretend = 0, frame = 8
 304              		@ frame_needed = 1, uses_anonymous_args = 0
 305 0000 80B5     		push	{r7, lr}
 306              		.cfi_def_cfa_offset 8
 307              		.cfi_offset 7, -8
 308              		.cfi_offset 14, -4
 309 0002 82B0     		sub	sp, sp, #8
 310              		.cfi_def_cfa_offset 16
 311 0004 00AF     		add	r7, sp, #0
 312              		.cfi_def_cfa_register 7
 313 0006 7860     		str	r0, [r7, #4]
 100:..\..\src/hidpacket.c **** 	if (rx.state == COMPLETE)
 314              		.loc 1 100 0
 315 0008 0A4B     		ldr	r3, .L20
 316 000a 1B68     		ldr	r3, [r3]
 317 000c 022B     		cmp	r3, #2
 318 000e 08D1     		bne	.L18
 101:..\..\src/hidpacket.c **** 	{
 102:..\..\src/hidpacket.c **** 		*len = rx.offset;
 319              		.loc 1 102 0
 320 0010 084B     		ldr	r3, .L20
 321 0012 D3F80520 		ldr	r2, [r3, #5]	@ unaligned
 322 0016 7B68     		ldr	r3, [r7, #4]
 323 0018 1A60     		str	r2, [r3]
 103:..\..\src/hidpacket.c **** 		rxReset();
 324              		.loc 1 103 0
 325 001a FFF7FEFF 		bl	rxReset
 104:..\..\src/hidpacket.c **** 		return rx.buffer;
 326              		.loc 1 104 0
 327 001e 064B     		ldr	r3, .L20+4
 328 0020 03E0     		b	.L19
 329              	.L18:
 105:..\..\src/hidpacket.c **** 	}
 106:..\..\src/hidpacket.c **** 	else
 107:..\..\src/hidpacket.c **** 	{
 108:..\..\src/hidpacket.c **** 		*len = 0;
 330              		.loc 1 108 0
 331 0022 7B68     		ldr	r3, [r7, #4]
 332 0024 0022     		movs	r2, #0
 333 0026 1A60     		str	r2, [r3]
 109:..\..\src/hidpacket.c **** 		return NULL;
 334              		.loc 1 109 0
 335 0028 0023     		movs	r3, #0
 336              	.L19:
 110:..\..\src/hidpacket.c **** 	}
 111:..\..\src/hidpacket.c **** }
ARM GAS  C:\Users\r\AppData\Local\Temp\ccwaXKEm.s 			page 9


 337              		.loc 1 111 0
 338 002a 1846     		mov	r0, r3
 339 002c 0837     		adds	r7, r7, #8
 340              		.cfi_def_cfa_offset 8
 341 002e BD46     		mov	sp, r7
 342              		.cfi_def_cfa_register 13
 343              		@ sp needed
 344 0030 80BD     		pop	{r7, pc}
 345              	.L21:
 346 0032 00BF     		.align	2
 347              	.L20:
 348 0034 00000000 		.word	rx
 349 0038 09000000 		.word	rx+9
 350              		.cfi_endproc
 351              	.LFE3:
 352              		.size	hidPacket_getPacket, .-hidPacket_getPacket
 353              		.section	.text.hidPacket_send,"ax",%progbits
 354              		.align	2
 355              		.global	hidPacket_send
 356              		.thumb
 357              		.thumb_func
 358              		.type	hidPacket_send, %function
 359              	hidPacket_send:
 360              	.LFB4:
 112:..\..\src/hidpacket.c **** 
 113:..\..\src/hidpacket.c **** void hidPacket_send(const uint8_t* bytes, size_t len)
 114:..\..\src/hidpacket.c **** {
 361              		.loc 1 114 0
 362              		.cfi_startproc
 363              		@ args = 0, pretend = 0, frame = 8
 364              		@ frame_needed = 1, uses_anonymous_args = 0
 365 0000 80B5     		push	{r7, lr}
 366              		.cfi_def_cfa_offset 8
 367              		.cfi_offset 7, -8
 368              		.cfi_offset 14, -4
 369 0002 82B0     		sub	sp, sp, #8
 370              		.cfi_def_cfa_offset 16
 371 0004 00AF     		add	r7, sp, #0
 372              		.cfi_def_cfa_register 7
 373 0006 7860     		str	r0, [r7, #4]
 374 0008 3960     		str	r1, [r7]
 115:..\..\src/hidpacket.c **** 	if (len <= sizeof(tx.buffer))
 375              		.loc 1 115 0
 376 000a 3B68     		ldr	r3, [r7]
 377 000c B3F5827F 		cmp	r3, #260
 378 0010 0FD8     		bhi	.L23
 116:..\..\src/hidpacket.c **** 	{
 117:..\..\src/hidpacket.c **** 		tx.state = PARTIAL;
 379              		.loc 1 117 0
 380 0012 0B4B     		ldr	r3, .L26
 381 0014 0122     		movs	r2, #1
 382 0016 1A60     		str	r2, [r3]
 118:..\..\src/hidpacket.c **** 		tx.chunk = 0;
 383              		.loc 1 118 0
 384 0018 094B     		ldr	r3, .L26
 385 001a 0022     		movs	r2, #0
 386 001c 1A71     		strb	r2, [r3, #4]
ARM GAS  C:\Users\r\AppData\Local\Temp\ccwaXKEm.s 			page 10


 119:..\..\src/hidpacket.c **** 		tx.offset = len;
 387              		.loc 1 119 0
 388 001e 084A     		ldr	r2, .L26
 389 0020 3B68     		ldr	r3, [r7]
 390 0022 C2F80530 		str	r3, [r2, #5]	@ unaligned
 120:..\..\src/hidpacket.c **** 		memcpy(tx.buffer, bytes, len);
 391              		.loc 1 120 0
 392 0026 3A68     		ldr	r2, [r7]
 393 0028 7968     		ldr	r1, [r7, #4]
 394 002a 0648     		ldr	r0, .L26+4
 395 002c FFF7FEFF 		bl	memcpy
 121:..\..\src/hidpacket.c **** 	}
 122:..\..\src/hidpacket.c **** 	else
 123:..\..\src/hidpacket.c **** 	{
 124:..\..\src/hidpacket.c **** 		txReset();
 125:..\..\src/hidpacket.c **** 	}
 126:..\..\src/hidpacket.c **** }
 396              		.loc 1 126 0
 397 0030 01E0     		b	.L25
 398              	.L23:
 124:..\..\src/hidpacket.c **** 	}
 399              		.loc 1 124 0
 400 0032 FFF7FEFF 		bl	txReset
 401              	.L25:
 402              		.loc 1 126 0
 403 0036 00BF     		nop
 404 0038 0837     		adds	r7, r7, #8
 405              		.cfi_def_cfa_offset 8
 406 003a BD46     		mov	sp, r7
 407              		.cfi_def_cfa_register 13
 408              		@ sp needed
 409 003c 80BD     		pop	{r7, pc}
 410              	.L27:
 411 003e 00BF     		.align	2
 412              	.L26:
 413 0040 10010000 		.word	tx
 414 0044 19010000 		.word	tx+9
 415              		.cfi_endproc
 416              	.LFE4:
 417              		.size	hidPacket_send, .-hidPacket_send
 418              		.section	.text.hidPacket_getHIDBytes,"ax",%progbits
 419              		.align	2
 420              		.global	hidPacket_getHIDBytes
 421              		.thumb
 422              		.thumb_func
 423              		.type	hidPacket_getHIDBytes, %function
 424              	hidPacket_getHIDBytes:
 425              	.LFB5:
 127:..\..\src/hidpacket.c **** 
 128:..\..\src/hidpacket.c **** const uint8_t*
 129:..\..\src/hidpacket.c **** hidPacket_getHIDBytes(uint8_t* hidBuffer)
 130:..\..\src/hidpacket.c **** {
 426              		.loc 1 130 0
 427              		.cfi_startproc
 428              		@ args = 0, pretend = 0, frame = 16
 429              		@ frame_needed = 1, uses_anonymous_args = 0
 430 0000 80B5     		push	{r7, lr}
ARM GAS  C:\Users\r\AppData\Local\Temp\ccwaXKEm.s 			page 11


 431              		.cfi_def_cfa_offset 8
 432              		.cfi_offset 7, -8
 433              		.cfi_offset 14, -4
 434 0002 84B0     		sub	sp, sp, #16
 435              		.cfi_def_cfa_offset 24
 436 0004 00AF     		add	r7, sp, #0
 437              		.cfi_def_cfa_register 7
 438 0006 7860     		str	r0, [r7, #4]
 131:..\..\src/hidpacket.c **** 	if ((tx.state != PARTIAL) || (tx.offset <= 0))
 439              		.loc 1 131 0
 440 0008 294B     		ldr	r3, .L34
 441 000a 1B68     		ldr	r3, [r3]
 442 000c 012B     		cmp	r3, #1
 443 000e 04D1     		bne	.L29
 444              		.loc 1 131 0 is_stmt 0 discriminator 1
 445 0010 274B     		ldr	r3, .L34
 446 0012 D3F80530 		ldr	r3, [r3, #5]	@ unaligned
 447 0016 002B     		cmp	r3, #0
 448 0018 01D1     		bne	.L30
 449              	.L29:
 132:..\..\src/hidpacket.c **** 	{
 133:..\..\src/hidpacket.c **** 		return NULL;
 450              		.loc 1 133 0 is_stmt 1
 451 001a 0023     		movs	r3, #0
 452 001c 44E0     		b	.L31
 453              	.L30:
 134:..\..\src/hidpacket.c **** 	}
 135:..\..\src/hidpacket.c **** 
 136:..\..\src/hidpacket.c **** 	hidBuffer[0] = tx.chunk;
 454              		.loc 1 136 0
 455 001e 244B     		ldr	r3, .L34
 456 0020 1A79     		ldrb	r2, [r3, #4]	@ zero_extendqisi2
 457 0022 7B68     		ldr	r3, [r7, #4]
 458 0024 1A70     		strb	r2, [r3]
 137:..\..\src/hidpacket.c **** 	tx.chunk++;
 459              		.loc 1 137 0
 460 0026 224B     		ldr	r3, .L34
 461 0028 1B79     		ldrb	r3, [r3, #4]	@ zero_extendqisi2
 462 002a 0133     		adds	r3, r3, #1
 463 002c DAB2     		uxtb	r2, r3
 464 002e 204B     		ldr	r3, .L34
 465 0030 1A71     		strb	r2, [r3, #4]
 138:..\..\src/hidpacket.c **** 	uint8_t payload;
 139:..\..\src/hidpacket.c **** 	if (tx.offset <= USBHID_LEN - 2)
 466              		.loc 1 139 0
 467 0032 1F4B     		ldr	r3, .L34
 468 0034 D3F80530 		ldr	r3, [r3, #5]	@ unaligned
 469 0038 3E2B     		cmp	r3, #62
 470 003a 15D8     		bhi	.L32
 140:..\..\src/hidpacket.c **** 	{
 141:..\..\src/hidpacket.c **** 		hidBuffer[0] = hidBuffer[0] | 0x80;
 471              		.loc 1 141 0
 472 003c 7B68     		ldr	r3, [r7, #4]
 473 003e 1B78     		ldrb	r3, [r3]	@ zero_extendqisi2
 474 0040 63F07F03 		orn	r3, r3, #127
 475 0044 DAB2     		uxtb	r2, r3
 476 0046 7B68     		ldr	r3, [r7, #4]
ARM GAS  C:\Users\r\AppData\Local\Temp\ccwaXKEm.s 			page 12


 477 0048 1A70     		strb	r2, [r3]
 142:..\..\src/hidpacket.c **** 		payload = tx.offset;
 478              		.loc 1 142 0
 479 004a 194B     		ldr	r3, .L34
 480 004c D3F80530 		ldr	r3, [r3, #5]	@ unaligned
 481 0050 FB73     		strb	r3, [r7, #15]
 143:..\..\src/hidpacket.c **** 		tx.state = IDLE;
 482              		.loc 1 143 0
 483 0052 174B     		ldr	r3, .L34
 484 0054 0022     		movs	r2, #0
 485 0056 1A60     		str	r2, [r3]
 144:..\..\src/hidpacket.c **** 		memset(hidBuffer + 2, 0, USBHID_LEN - 2);
 486              		.loc 1 144 0
 487 0058 7B68     		ldr	r3, [r7, #4]
 488 005a 0233     		adds	r3, r3, #2
 489 005c 3E22     		movs	r2, #62
 490 005e 0021     		movs	r1, #0
 491 0060 1846     		mov	r0, r3
 492 0062 FFF7FEFF 		bl	memset
 493 0066 01E0     		b	.L33
 494              	.L32:
 145:..\..\src/hidpacket.c **** 	}
 146:..\..\src/hidpacket.c **** 	else
 147:..\..\src/hidpacket.c **** 	{
 148:..\..\src/hidpacket.c **** 		payload = USBHID_LEN - 2;
 495              		.loc 1 148 0
 496 0068 3E23     		movs	r3, #62
 497 006a FB73     		strb	r3, [r7, #15]
 498              	.L33:
 149:..\..\src/hidpacket.c **** 	}
 150:..\..\src/hidpacket.c **** 
 151:..\..\src/hidpacket.c **** 	tx.offset -= payload;
 499              		.loc 1 151 0
 500 006c 104B     		ldr	r3, .L34
 501 006e D3F80520 		ldr	r2, [r3, #5]	@ unaligned
 502 0072 FB7B     		ldrb	r3, [r7, #15]	@ zero_extendqisi2
 503 0074 D31A     		subs	r3, r2, r3
 504 0076 0E4A     		ldr	r2, .L34
 505 0078 C2F80530 		str	r3, [r2, #5]	@ unaligned
 152:..\..\src/hidpacket.c **** 	hidBuffer[1] = payload;
 506              		.loc 1 152 0
 507 007c 7B68     		ldr	r3, [r7, #4]
 508 007e 0133     		adds	r3, r3, #1
 509 0080 FA7B     		ldrb	r2, [r7, #15]
 510 0082 1A70     		strb	r2, [r3]
 153:..\..\src/hidpacket.c **** 	memcpy(hidBuffer + 2, tx.buffer, payload);
 511              		.loc 1 153 0
 512 0084 7B68     		ldr	r3, [r7, #4]
 513 0086 0233     		adds	r3, r3, #2
 514 0088 FA7B     		ldrb	r2, [r7, #15]	@ zero_extendqisi2
 515 008a 0A49     		ldr	r1, .L34+4
 516 008c 1846     		mov	r0, r3
 517 008e FFF7FEFF 		bl	memcpy
 154:..\..\src/hidpacket.c **** 	memmove(tx.buffer, tx.buffer + payload, sizeof(tx.buffer) - payload);
 518              		.loc 1 154 0
 519 0092 FB7B     		ldrb	r3, [r7, #15]	@ zero_extendqisi2
 520 0094 074A     		ldr	r2, .L34+4
ARM GAS  C:\Users\r\AppData\Local\Temp\ccwaXKEm.s 			page 13


 521 0096 9918     		adds	r1, r3, r2
 522 0098 FB7B     		ldrb	r3, [r7, #15]	@ zero_extendqisi2
 523 009a C3F58273 		rsb	r3, r3, #260
 524 009e 1A46     		mov	r2, r3
 525 00a0 0448     		ldr	r0, .L34+4
 526 00a2 FFF7FEFF 		bl	memmove
 155:..\..\src/hidpacket.c **** 
 156:..\..\src/hidpacket.c **** 	return hidBuffer;
 527              		.loc 1 156 0
 528 00a6 7B68     		ldr	r3, [r7, #4]
 529              	.L31:
 157:..\..\src/hidpacket.c **** }
 530              		.loc 1 157 0
 531 00a8 1846     		mov	r0, r3
 532 00aa 1037     		adds	r7, r7, #16
 533              		.cfi_def_cfa_offset 8
 534 00ac BD46     		mov	sp, r7
 535              		.cfi_def_cfa_register 13
 536              		@ sp needed
 537 00ae 80BD     		pop	{r7, pc}
 538              	.L35:
 539              		.align	2
 540              	.L34:
 541 00b0 10010000 		.word	tx
 542 00b4 19010000 		.word	tx+9
 543              		.cfi_endproc
 544              	.LFE5:
 545              		.size	hidPacket_getHIDBytes, .-hidPacket_getHIDBytes
 546              		.text
 547              	.Letext0:
 548              		.file 2 "c:\\program files (x86)\\cypress\\psoc creator\\4.2\\psoc creator\\import\\gnu\\arm\\5.4.
 549              		.file 3 "c:\\program files (x86)\\cypress\\psoc creator\\4.2\\psoc creator\\import\\gnu\\arm\\5.4.
 550              		.file 4 "c:\\program files (x86)\\cypress\\psoc creator\\4.2\\psoc creator\\import\\gnu\\arm\\5.4.