ARM GAS  C:\Users\r\AppData\Local\Temp\ccgiUic1.s 			page 1


   1              		.syntax unified
   2              		.cpu cortex-m3
   3              		.fpu softvfp
   4              		.eabi_attribute 20, 1
   5              		.eabi_attribute 21, 1
   6              		.eabi_attribute 23, 3
   7              		.eabi_attribute 24, 1
   8              		.eabi_attribute 25, 1
   9              		.eabi_attribute 26, 1
  10              		.eabi_attribute 30, 6
  11              		.eabi_attribute 34, 1
  12              		.eabi_attribute 18, 4
  13              		.thumb
  14              		.syntax unified
  15              		.file	"led_cy8c52.c"
  16              		.text
  17              	.Ltext0:
  18              		.cfi_sections	.debug_frame
  19              		.section	.text.ledInit,"ax",%progbits
  20              		.align	2
  21              		.global	ledInit
  22              		.thumb
  23              		.thumb_func
  24              		.type	ledInit, %function
  25              	ledInit:
  26              	.LFB63:
  27              		.file 1 "..\\..\\src\\led_cy8c52.c"
   1:..\..\src/led_cy8c52.c **** //	Copyright (C) 2014 Michael McMaster <michael@codesrc.com>
   2:..\..\src/led_cy8c52.c **** //
   3:..\..\src/led_cy8c52.c **** //	This file is part of SCSI2SD.
   4:..\..\src/led_cy8c52.c **** //
   5:..\..\src/led_cy8c52.c **** //	SCSI2SD is free software: you can redistribute it and/or modify
   6:..\..\src/led_cy8c52.c **** //	it under the terms of the GNU General Public License as published by
   7:..\..\src/led_cy8c52.c **** //	the Free Software Foundation, either version 3 of the License, or
   8:..\..\src/led_cy8c52.c **** //	(at your option) any later version.
   9:..\..\src/led_cy8c52.c **** //
  10:..\..\src/led_cy8c52.c **** //	SCSI2SD is distributed in the hope that it will be useful,
  11:..\..\src/led_cy8c52.c **** //	but WITHOUT ANY WARRANTY; without even the implied warranty of
  12:..\..\src/led_cy8c52.c **** //	MERCHANTABILITY or FITNESS FOR A PARTICULAR PURPOSE.  See the
  13:..\..\src/led_cy8c52.c **** //	GNU General Public License for more details.
  14:..\..\src/led_cy8c52.c **** //
  15:..\..\src/led_cy8c52.c **** //	You should have received a copy of the GNU General Public License
  16:..\..\src/led_cy8c52.c **** //	along with SCSI2SD.  If not, see <http://www.gnu.org/licenses/>.
  17:..\..\src/led_cy8c52.c **** 
  18:..\..\src/led_cy8c52.c **** #include "led.h"
  19:..\..\src/led_cy8c52.c **** 
  20:..\..\src/led_cy8c52.c **** // External LED support only exists on the 3.5" v4 board.
  21:..\..\src/led_cy8c52.c **** // The powerbook v4 board ties the pin to ground.
  22:..\..\src/led_cy8c52.c **** // The v3 boards do not have any such pin.
  23:..\..\src/led_cy8c52.c **** // #ifdef EXTLED_CTL
  24:..\..\src/led_cy8c52.c **** // #define HAVE_EXTLED 1
  25:..\..\src/led_cy8c52.c **** // #endif
  26:..\..\src/led_cy8c52.c **** 
  27:..\..\src/led_cy8c52.c **** // #ifdef HAVE_EXTLED
  28:..\..\src/led_cy8c52.c **** // static int enable_EXTLED = 0;
  29:..\..\src/led_cy8c52.c **** // #endif
  30:..\..\src/led_cy8c52.c **** 
ARM GAS  C:\Users\r\AppData\Local\Temp\ccgiUic1.s 			page 2


  31:..\..\src/led_cy8c52.c **** void ledInit()
  32:..\..\src/led_cy8c52.c **** {
  28              		.loc 1 32 0
  29              		.cfi_startproc
  30              		@ args = 0, pretend = 0, frame = 0
  31              		@ frame_needed = 1, uses_anonymous_args = 0
  32 0000 80B5     		push	{r7, lr}
  33              		.cfi_def_cfa_offset 8
  34              		.cfi_offset 7, -8
  35              		.cfi_offset 14, -4
  36 0002 00AF     		add	r7, sp, #0
  37              		.cfi_def_cfa_register 7
  33:..\..\src/led_cy8c52.c ****     LED1_SetDriveMode(LED1_DM_STRONG);
  38              		.loc 1 33 0
  39 0004 0C20     		movs	r0, #12
  40 0006 FFF7FEFF 		bl	LED1_SetDriveMode
  34:..\..\src/led_cy8c52.c ****     // RM LED1 strong drive, never change
  35:..\..\src/led_cy8c52.c **** // #ifdef HAVE_EXTLED
  36:..\..\src/led_cy8c52.c **** //	EXTLED_SetDriveMode(EXTLED_DM_RES_UP);
  37:..\..\src/led_cy8c52.c **** //	EXTLED_Write(1); // Will pull-up through resistor.
  38:..\..\src/led_cy8c52.c **** 
  39:..\..\src/led_cy8c52.c **** //	CyDelayUs(1);
  40:..\..\src/led_cy8c52.c **** //	int val = EXTLED_Read();
  41:..\..\src/led_cy8c52.c **** //	if (val)
  42:..\..\src/led_cy8c52.c **** //	{
  43:..\..\src/led_cy8c52.c **** 		// Pin is not tied to ground, so it's safe to use.
  44:..\..\src/led_cy8c52.c **** //		enable_EXTLED = 1;
  45:..\..\src/led_cy8c52.c **** //    		EXTLED_SetDriveMode(EXTLED_DM_STRONG);
  46:..\..\src/led_cy8c52.c **** //	}
  47:..\..\src/led_cy8c52.c **** //	else
  48:..\..\src/led_cy8c52.c **** //	{
  49:..\..\src/led_cy8c52.c **** 		// Pin is tied to ground. Using it would damage hardware
  50:..\..\src/led_cy8c52.c **** 		// This is the case for the powerbook boards.
  51:..\..\src/led_cy8c52.c **** //		enable_EXTLED = 0;
  52:..\..\src/led_cy8c52.c **** //		EXTLED_SetDriveMode(EXTLED_DM_DIG_HIZ);
  53:..\..\src/led_cy8c52.c **** 
  54:..\..\src/led_cy8c52.c **** //	}
  55:..\..\src/led_cy8c52.c **** // #endif
  56:..\..\src/led_cy8c52.c **** 	ledOff();
  41              		.loc 1 56 0
  42 000a FFF7FEFF 		bl	ledOff
  57:..\..\src/led_cy8c52.c **** }
  43              		.loc 1 57 0
  44 000e 00BF     		nop
  45 0010 80BD     		pop	{r7, pc}
  46              		.cfi_endproc
  47              	.LFE63:
  48              		.size	ledInit, .-ledInit
  49 0012 00BF     		.section	.text.ledOn,"ax",%progbits
  50              		.align	2
  51              		.global	ledOn
  52              		.thumb
  53              		.thumb_func
  54              		.type	ledOn, %function
  55              	ledOn:
  56              	.LFB64:
  58:..\..\src/led_cy8c52.c **** 
ARM GAS  C:\Users\r\AppData\Local\Temp\ccgiUic1.s 			page 3


  59:..\..\src/led_cy8c52.c **** void ledOn()
  60:..\..\src/led_cy8c52.c **** {
  57              		.loc 1 60 0
  58              		.cfi_startproc
  59              		@ args = 0, pretend = 0, frame = 0
  60              		@ frame_needed = 1, uses_anonymous_args = 0
  61 0000 80B5     		push	{r7, lr}
  62              		.cfi_def_cfa_offset 8
  63              		.cfi_offset 7, -8
  64              		.cfi_offset 14, -4
  65 0002 00AF     		add	r7, sp, #0
  66              		.cfi_def_cfa_register 7
  61:..\..\src/led_cy8c52.c **** 	LED1_Write(0);
  67              		.loc 1 61 0
  68 0004 0020     		movs	r0, #0
  69 0006 FFF7FEFF 		bl	LED1_Write
  62:..\..\src/led_cy8c52.c ****     // RM SCSI2SD LED is tied to VCC
  63:..\..\src/led_cy8c52.c **** 
  64:..\..\src/led_cy8c52.c **** // #ifdef HAVE_EXTLED
  65:..\..\src/led_cy8c52.c **** //	if (enable_EXTLED)
  66:..\..\src/led_cy8c52.c **** //	{
  67:..\..\src/led_cy8c52.c **** //		EXTLED_Write(1);
  68:..\..\src/led_cy8c52.c **** //	}
  69:..\..\src/led_cy8c52.c **** // #endif
  70:..\..\src/led_cy8c52.c **** }
  70              		.loc 1 70 0
  71 000a 00BF     		nop
  72 000c 80BD     		pop	{r7, pc}
  73              		.cfi_endproc
  74              	.LFE64:
  75              		.size	ledOn, .-ledOn
  76 000e 00BF     		.section	.text.ledOff,"ax",%progbits
  77              		.align	2
  78              		.global	ledOff
  79              		.thumb
  80              		.thumb_func
  81              		.type	ledOff, %function
  82              	ledOff:
  83              	.LFB65:
  71:..\..\src/led_cy8c52.c **** 
  72:..\..\src/led_cy8c52.c **** void ledOff()
  73:..\..\src/led_cy8c52.c **** {
  84              		.loc 1 73 0
  85              		.cfi_startproc
  86              		@ args = 0, pretend = 0, frame = 0
  87              		@ frame_needed = 1, uses_anonymous_args = 0
  88 0000 80B5     		push	{r7, lr}
  89              		.cfi_def_cfa_offset 8
  90              		.cfi_offset 7, -8
  91              		.cfi_offset 14, -4
  92 0002 00AF     		add	r7, sp, #0
  93              		.cfi_def_cfa_register 7
  74:..\..\src/led_cy8c52.c **** 	LED1_Write(1);
  94              		.loc 1 74 0
  95 0004 0120     		movs	r0, #1
  96 0006 FFF7FEFF 		bl	LED1_Write
  75:..\..\src/led_cy8c52.c ****     // RM SCSI2SD LED is tied to VCC
ARM GAS  C:\Users\r\AppData\Local\Temp\ccgiUic1.s 			page 4


  76:..\..\src/led_cy8c52.c **** 
  77:..\..\src/led_cy8c52.c **** // #ifdef HAVE_EXTLED
  78:..\..\src/led_cy8c52.c **** //	EXTLED_Write(0);
  79:..\..\src/led_cy8c52.c **** // #endif
  80:..\..\src/led_cy8c52.c **** }...
  97              		.loc 1 80 0
  98 000a 00BF     		nop
  99 000c 80BD     		pop	{r7, pc}
 100              		.cfi_endproc
 101              	.LFE65:
 102              		.size	ledOff, .-ledOff
 103 000e 00BF     		.text
 104              	.Letext0:
 105              		.file 2 "c:\\program files (x86)\\cypress\\psoc creator\\4.2\\psoc creator\\import\\gnu\\arm\\5.4.
 106              		.file 3 "c:\\program files (x86)\\cypress\\psoc creator\\4.2\\psoc creator\\import\\gnu\\arm\\5.4.
 107              		.file 4 "Generated_Source\\PSoC5/cytypes.h"
 108              		.file 5 "Generated_Source\\PSoC5/core_cm3.h"