ARM GAS  C:\Users\r\AppData\Local\Temp\ccpI9fuv.s 			page 1


   1              		.syntax unified
   2              		.cpu cortex-m3
   3              		.fpu softvfp
   4              		.eabi_attribute 20, 1
   5              		.eabi_attribute 21, 1
   6              		.eabi_attribute 23, 3
   7              		.eabi_attribute 24, 1
   8              		.eabi_attribute 25, 1
   9              		.eabi_attribute 26, 1
  10              		.eabi_attribute 30, 6
  11              		.eabi_attribute 34, 1
  12              		.eabi_attribute 18, 4
  13              		.thumb
  14              		.syntax unified
  15              		.file	"main_cy8c52sound.c"
  16              		.text
  17              	.Ltext0:
  18              		.cfi_sections	.debug_frame
  19              		.global	Notice
  20              		.section	.rodata
  21              		.align	2
  22              	.LC0:
  23 0000 436F7079 		.ascii	"Copyright (C) 2015-2018 Michael McMaster <michael@c"
  23      72696768 
  23      74202843 
  23      29203230 
  23      31352D32 
  24 0033 6F646573 		.ascii	"odesrc.com>\000"
  24      72632E63 
  24      6F6D3E00 
  25              		.data
  26              		.align	2
  27              		.type	Notice, %object
  28              		.size	Notice, 4
  29              	Notice:
  30 0000 00000000 		.word	.LC0
  31              		.section	.text.soundInit,"ax",%progbits
  32              		.align	2
  33              		.global	soundInit
  34              		.thumb
  35              		.thumb_func
  36              		.type	soundInit, %function
  37              	soundInit:
  38              	.LFB64:
  39              		.file 1 "..\\..\\src\\main_cy8c52sound.c"
   1:..\..\src/main_cy8c52sound.c **** //	Copyright (C) 2014 Michael McMaster <michael@codesrc.com>
   2:..\..\src/main_cy8c52sound.c **** //
   3:..\..\src/main_cy8c52sound.c **** //	This file is part of SCSI2SD.
   4:..\..\src/main_cy8c52sound.c **** //
   5:..\..\src/main_cy8c52sound.c **** //	SCSI2SD is free software: you can redistribute it and/or modify
   6:..\..\src/main_cy8c52sound.c **** //	it under the terms of the GNU General Public License as published by
   7:..\..\src/main_cy8c52sound.c **** //	the Free Software Foundation, either version 3 of the License, or
   8:..\..\src/main_cy8c52sound.c **** //	(at your option) any later version.
   9:..\..\src/main_cy8c52sound.c **** //
  10:..\..\src/main_cy8c52sound.c **** //	SCSI2SD is distributed in the hope that it will be useful,
  11:..\..\src/main_cy8c52sound.c **** //	but WITHOUT ANY WARRANTY; without even the implied warranty of
  12:..\..\src/main_cy8c52sound.c **** //	MERCHANTABILITY or FITNESS FOR A PARTICULAR PURPOSE.  See the
ARM GAS  C:\Users\r\AppData\Local\Temp\ccpI9fuv.s 			page 2


  13:..\..\src/main_cy8c52sound.c **** //	GNU General Public License for more details.
  14:..\..\src/main_cy8c52sound.c **** //
  15:..\..\src/main_cy8c52sound.c **** //	You should have received a copy of the GNU General Public License
  16:..\..\src/main_cy8c52sound.c **** //	along with SCSI2SD.  If not, see <http://www.gnu.org/licenses/>.
  17:..\..\src/main_cy8c52sound.c **** 
  18:..\..\src/main_cy8c52sound.c **** #include "device.h"
  19:..\..\src/main_cy8c52sound.c **** #include "scsi.h"
  20:..\..\src/main_cy8c52sound.c **** #include "scsiPhy.h"
  21:..\..\src/main_cy8c52sound.c **** #include "config.h"
  22:..\..\src/main_cy8c52sound.c **** #include "disk.h"
  23:..\..\src/main_cy8c52sound.c **** #include "led.h"
  24:..\..\src/main_cy8c52sound.c **** #include "SOUND_ISR.h"
  25:..\..\src/main_cy8c52sound.c **** #include "time.h"
  26:..\..\src/main_cy8c52sound.c **** #include "trace.h"
  27:..\..\src/main_cy8c52sound.c **** #include "VDAC8_1.h"
  28:..\..\src/main_cy8c52sound.c **** 
  29:..\..\src/main_cy8c52sound.c **** const char* Notice = "Copyright (C) 2015-2018 Michael McMaster <michael@codesrc.com>";
  30:..\..\src/main_cy8c52sound.c ****     
  31:..\..\src/main_cy8c52sound.c ****  void soundInit()
  32:..\..\src/main_cy8c52sound.c ****  {  
  40              		.loc 1 32 0
  41              		.cfi_startproc
  42              		@ args = 0, pretend = 0, frame = 0
  43              		@ frame_needed = 1, uses_anonymous_args = 0
  44 0000 80B5     		push	{r7, lr}
  45              		.cfi_def_cfa_offset 8
  46              		.cfi_offset 7, -8
  47              		.cfi_offset 14, -4
  48 0002 00AF     		add	r7, sp, #0
  49              		.cfi_def_cfa_register 7
  33:..\..\src/main_cy8c52sound.c ****   // Opamp_1_Start(); // RM Opamp not present in CY8C52
  34:..\..\src/main_cy8c52sound.c ****     VDAC8_1_Start(); // RM start VDAC
  50              		.loc 1 34 0
  51 0004 FFF7FEFF 		bl	VDAC8_1_Start
  35:..\..\src/main_cy8c52sound.c ****     LPF_1_Start(); // RM start LPF
  52              		.loc 1 35 0
  53 0008 FFF7FEFF 		bl	LPF_1_Start
  36:..\..\src/main_cy8c52sound.c ****   //    PGA_1_Start(); // RM PGA not present in CY8C52
  37:..\..\src/main_cy8c52sound.c ****     SOUND_ISR_Start(); // RM start sound
  54              		.loc 1 37 0
  55 000c FFF7FEFF 		bl	SOUND_ISR_Start
  38:..\..\src/main_cy8c52sound.c ****  }
  56              		.loc 1 38 0
  57 0010 00BF     		nop
  58 0012 80BD     		pop	{r7, pc}
  59              		.cfi_endproc
  60              	.LFE64:
  61              		.size	soundInit, .-soundInit
  62              		.section	.text.main,"ax",%progbits
  63              		.align	2
  64              		.global	main
  65              		.thumb
  66              		.thumb_func
  67              		.type	main, %function
  68              	main:
  69              	.LFB65:
  39:..\..\src/main_cy8c52sound.c **** 
ARM GAS  C:\Users\r\AppData\Local\Temp\ccpI9fuv.s 			page 3


  40:..\..\src/main_cy8c52sound.c **** int main()
  41:..\..\src/main_cy8c52sound.c **** {
  70              		.loc 1 41 0
  71              		.cfi_startproc
  72              		@ args = 0, pretend = 0, frame = 16
  73              		@ frame_needed = 1, uses_anonymous_args = 0
  74 0000 80B5     		push	{r7, lr}
  75              		.cfi_def_cfa_offset 8
  76              		.cfi_offset 7, -8
  77              		.cfi_offset 14, -4
  78 0002 84B0     		sub	sp, sp, #16
  79              		.cfi_def_cfa_offset 24
  80 0004 00AF     		add	r7, sp, #0
  81              		.cfi_def_cfa_register 7
  42:..\..\src/main_cy8c52sound.c **** 	timeInit();
  82              		.loc 1 42 0
  83 0006 FFF7FEFF 		bl	timeInit
  43:..\..\src/main_cy8c52sound.c **** 	ledInit();
  84              		.loc 1 43 0
  85 000a FFF7FEFF 		bl	ledInit
  44:..\..\src/main_cy8c52sound.c ****     soundInit(); // RM
  86              		.loc 1 44 0
  87 000e FFF7FEFF 		bl	soundInit
  45:..\..\src/main_cy8c52sound.c **** 	traceInit();
  88              		.loc 1 45 0
  89 0012 FFF7FEFF 		bl	traceInit
  46:..\..\src/main_cy8c52sound.c **** 
  47:..\..\src/main_cy8c52sound.c **** 	// Enable global interrupts.
  48:..\..\src/main_cy8c52sound.c **** 	// Needed for RST and ATN interrupt handlers.
  49:..\..\src/main_cy8c52sound.c **** 	CyGlobalIntEnable;
  90              		.loc 1 49 0
  91              		.syntax unified
  92              	@ 49 "..\..\src\main_cy8c52sound.c" 1
  93 0016 62B6     		CPSIE   i
  94              	@ 0 "" 2
  50:..\..\src/main_cy8c52sound.c **** 
  51:..\..\src/main_cy8c52sound.c **** 	// Set interrupt handlers.
  52:..\..\src/main_cy8c52sound.c **** 	scsiPhyInit();
  95              		.loc 1 52 0
  96              		.thumb
  97              		.syntax unified
  98 0018 FFF7FEFF 		bl	scsiPhyInit
  53:..\..\src/main_cy8c52sound.c **** 
  54:..\..\src/main_cy8c52sound.c **** 	configInit(&scsiDev.boardCfg);
  99              		.loc 1 54 0
 100 001c 4348     		ldr	r0, .L13
 101 001e FFF7FEFF 		bl	configInit
  55:..\..\src/main_cy8c52sound.c **** 	debugInit();
 102              		.loc 1 55 0
 103 0022 FFF7FEFF 		bl	debugInit
  56:..\..\src/main_cy8c52sound.c ****     scsiPhyConfig();
 104              		.loc 1 56 0
 105 0026 FFF7FEFF 		bl	scsiPhyConfig
  57:..\..\src/main_cy8c52sound.c **** 	scsiInit();
 106              		.loc 1 57 0
 107 002a FFF7FEFF 		bl	scsiInit
  58:..\..\src/main_cy8c52sound.c **** 	scsiDiskInit();
ARM GAS  C:\Users\r\AppData\Local\Temp\ccpI9fuv.s 			page 4


 108              		.loc 1 58 0
 109 002e FFF7FEFF 		bl	scsiDiskInit
  59:..\..\src/main_cy8c52sound.c **** 
  60:..\..\src/main_cy8c52sound.c **** 	// Optional bootup delay
  61:..\..\src/main_cy8c52sound.c **** 	int delaySeconds = 0;
 110              		.loc 1 61 0
 111 0032 0023     		movs	r3, #0
 112 0034 FB60     		str	r3, [r7, #12]
  62:..\..\src/main_cy8c52sound.c **** 	while (delaySeconds < scsiDev.boardCfg.startupDelay) {
 113              		.loc 1 62 0
 114 0036 1CE0     		b	.L3
 115              	.L6:
 116              	.LBB2:
  63:..\..\src/main_cy8c52sound.c **** 		// Keep the USB connection working, otherwise it's very hard to revert
  64:..\..\src/main_cy8c52sound.c **** 		// silly extra-long startup delay settings.
  65:..\..\src/main_cy8c52sound.c **** 		int i;
  66:..\..\src/main_cy8c52sound.c **** 		for (i = 0; i < 200; i++) {
 117              		.loc 1 66 0
 118 0038 0023     		movs	r3, #0
 119 003a BB60     		str	r3, [r7, #8]
 120 003c 13E0     		b	.L4
 121              	.L5:
  67:..\..\src/main_cy8c52sound.c **** 			CyDelay(5);
 122              		.loc 1 67 0 discriminator 3
 123 003e 0520     		movs	r0, #5
 124 0040 FFF7FEFF 		bl	CyDelay
  68:..\..\src/main_cy8c52sound.c **** 			scsiDev.watchdogTick++;
 125              		.loc 1 68 0 discriminator 3
 126 0044 3A4B     		ldr	r3, .L13+4
 127 0046 03F58343 		add	r3, r3, #16768
 128 004a 2833     		adds	r3, r3, #40
 129 004c 1B78     		ldrb	r3, [r3]	@ zero_extendqisi2
 130 004e 0133     		adds	r3, r3, #1
 131 0050 DAB2     		uxtb	r2, r3
 132 0052 374B     		ldr	r3, .L13+4
 133 0054 03F58343 		add	r3, r3, #16768
 134 0058 2833     		adds	r3, r3, #40
 135 005a 1A70     		strb	r2, [r3]
  69:..\..\src/main_cy8c52sound.c **** 			configPoll();
 136              		.loc 1 69 0 discriminator 3
 137 005c FFF7FEFF 		bl	configPoll
  66:..\..\src/main_cy8c52sound.c **** 			CyDelay(5);
 138              		.loc 1 66 0 discriminator 3
 139 0060 BB68     		ldr	r3, [r7, #8]
 140 0062 0133     		adds	r3, r3, #1
 141 0064 BB60     		str	r3, [r7, #8]
 142              	.L4:
  66:..\..\src/main_cy8c52sound.c **** 			CyDelay(5);
 143              		.loc 1 66 0 is_stmt 0 discriminator 1
 144 0066 BB68     		ldr	r3, [r7, #8]
 145 0068 C72B     		cmp	r3, #199
 146 006a E8DD     		ble	.L5
  70:..\..\src/main_cy8c52sound.c **** 		}
  71:..\..\src/main_cy8c52sound.c **** 		++delaySeconds;
 147              		.loc 1 71 0 is_stmt 1
 148 006c FB68     		ldr	r3, [r7, #12]
 149 006e 0133     		adds	r3, r3, #1
ARM GAS  C:\Users\r\AppData\Local\Temp\ccpI9fuv.s 			page 5


 150 0070 FB60     		str	r3, [r7, #12]
 151              	.L3:
 152              	.LBE2:
  62:..\..\src/main_cy8c52sound.c **** 		// Keep the USB connection working, otherwise it's very hard to revert
 153              		.loc 1 62 0
 154 0072 2F4B     		ldr	r3, .L13+4
 155 0074 93F86930 		ldrb	r3, [r3, #105]	@ zero_extendqisi2
 156 0078 1A46     		mov	r2, r3
 157 007a FB68     		ldr	r3, [r7, #12]
 158 007c 9A42     		cmp	r2, r3
 159 007e DBDC     		bgt	.L6
  72:..\..\src/main_cy8c52sound.c **** 	}
  73:..\..\src/main_cy8c52sound.c **** 
  74:..\..\src/main_cy8c52sound.c **** 	uint32_t lastSDPoll = getTime_ms();
 160              		.loc 1 74 0
 161 0080 FFF7FEFF 		bl	getTime_ms
 162 0084 7860     		str	r0, [r7, #4]
  75:..\..\src/main_cy8c52sound.c **** 	sdCheckPresent();
 163              		.loc 1 75 0
 164 0086 FFF7FEFF 		bl	sdCheckPresent
 165              	.L12:
  76:..\..\src/main_cy8c52sound.c **** 
  77:..\..\src/main_cy8c52sound.c **** 	while (1)
  78:..\..\src/main_cy8c52sound.c **** 	{
  79:..\..\src/main_cy8c52sound.c **** 		scsiDev.watchdogTick++;
 166              		.loc 1 79 0
 167 008a 294B     		ldr	r3, .L13+4
 168 008c 03F58343 		add	r3, r3, #16768
 169 0090 2833     		adds	r3, r3, #40
 170 0092 1B78     		ldrb	r3, [r3]	@ zero_extendqisi2
 171 0094 0133     		adds	r3, r3, #1
 172 0096 DAB2     		uxtb	r2, r3
 173 0098 254B     		ldr	r3, .L13+4
 174 009a 03F58343 		add	r3, r3, #16768
 175 009e 2833     		adds	r3, r3, #40
 176 00a0 1A70     		strb	r2, [r3]
  80:..\..\src/main_cy8c52sound.c **** 
  81:..\..\src/main_cy8c52sound.c **** 		scsiPoll();
 177              		.loc 1 81 0
 178 00a2 FFF7FEFF 		bl	scsiPoll
  82:..\..\src/main_cy8c52sound.c **** 		scsiDiskPoll();
 179              		.loc 1 82 0
 180 00a6 FFF7FEFF 		bl	scsiDiskPoll
  83:..\..\src/main_cy8c52sound.c **** 		configPoll();
 181              		.loc 1 83 0
 182 00aa FFF7FEFF 		bl	configPoll
  84:..\..\src/main_cy8c52sound.c **** 		sdPoll();
 183              		.loc 1 84 0
 184 00ae FFF7FEFF 		bl	sdPoll
  85:..\..\src/main_cy8c52sound.c **** 
  86:..\..\src/main_cy8c52sound.c **** 		if (unlikely(scsiDev.phase == BUS_FREE))
 185              		.loc 1 86 0
 186 00b2 1F4B     		ldr	r3, .L13+4
 187 00b4 D3F87831 		ldr	r3, [r3, #376]
 188 00b8 B3F1FF3F 		cmp	r3, #-1
 189 00bc 0CBF     		ite	eq
 190 00be 0123     		moveq	r3, #1
ARM GAS  C:\Users\r\AppData\Local\Temp\ccpI9fuv.s 			page 6


 191 00c0 0023     		movne	r3, #0
 192 00c2 DBB2     		uxtb	r3, r3
 193 00c4 002B     		cmp	r3, #0
 194 00c6 21D0     		beq	.L7
  87:..\..\src/main_cy8c52sound.c **** 		{
  88:..\..\src/main_cy8c52sound.c **** 			if (unlikely(elapsedTime_ms(lastSDPoll) > 200))
 195              		.loc 1 88 0
 196 00c8 7868     		ldr	r0, [r7, #4]
 197 00ca FFF7FEFF 		bl	elapsedTime_ms
 198 00ce 0346     		mov	r3, r0
 199 00d0 C82B     		cmp	r3, #200
 200 00d2 8CBF     		ite	hi
 201 00d4 0123     		movhi	r3, #1
 202 00d6 0023     		movls	r3, #0
 203 00d8 DBB2     		uxtb	r3, r3
 204 00da 002B     		cmp	r3, #0
 205 00dc 05D0     		beq	.L8
  89:..\..\src/main_cy8c52sound.c **** 			{
  90:..\..\src/main_cy8c52sound.c **** 				lastSDPoll = getTime_ms();
 206              		.loc 1 90 0
 207 00de FFF7FEFF 		bl	getTime_ms
 208 00e2 7860     		str	r0, [r7, #4]
  91:..\..\src/main_cy8c52sound.c **** 				sdCheckPresent();
 209              		.loc 1 91 0
 210 00e4 FFF7FEFF 		bl	sdCheckPresent
 211 00e8 CFE7     		b	.L12
 212              	.L8:
 213              	.LBB3:
  92:..\..\src/main_cy8c52sound.c **** 			}
  93:..\..\src/main_cy8c52sound.c **** 			else
  94:..\..\src/main_cy8c52sound.c **** 			{
  95:..\..\src/main_cy8c52sound.c **** 				// Wait for our 1ms timer to save some power.
  96:..\..\src/main_cy8c52sound.c **** 				// There's an interrupt on the SEL signal to ensure we respond
  97:..\..\src/main_cy8c52sound.c **** 				// quickly to any SCSI commands. The selection abort time is
  98:..\..\src/main_cy8c52sound.c **** 				// only 250us, and new SCSI-3 controllers time-out very
  99:..\..\src/main_cy8c52sound.c **** 				// not long after that, so we need to ensure we wake up quickly.
 100:..\..\src/main_cy8c52sound.c **** 				uint8_t interruptState = CyEnterCriticalSection();
 214              		.loc 1 100 0
 215 00ea FFF7FEFF 		bl	CyEnterCriticalSection
 216 00ee 0346     		mov	r3, r0
 217 00f0 FB70     		strb	r3, [r7, #3]
 101:..\..\src/main_cy8c52sound.c **** 				if (!SCSI_ReadFilt(SCSI_Filt_SEL))
 218              		.loc 1 101 0
 219 00f2 FFF7FEFF 		bl	SCSI_Filtered_Read
 220 00f6 0346     		mov	r3, r0
 221 00f8 03F00403 		and	r3, r3, #4
 222 00fc 002B     		cmp	r3, #0
 223 00fe 00D0     		beq	.L10
 102:..\..\src/main_cy8c52sound.c **** 				{
 103:..\..\src/main_cy8c52sound.c **** 					__WFI(); // Will wake on interrupt, regardless of mask
 224              		.loc 1 103 0
 225              		.syntax unified
 226              	@ 103 "..\..\src\main_cy8c52sound.c" 1
 227 0100 30BF     		wfi
 228              	@ 0 "" 2
 229              		.thumb
 230              		.syntax unified
ARM GAS  C:\Users\r\AppData\Local\Temp\ccpI9fuv.s 			page 7


 231              	.L10:
 104:..\..\src/main_cy8c52sound.c **** 				}
 105:..\..\src/main_cy8c52sound.c **** 				CyExitCriticalSection(interruptState);
 232              		.loc 1 105 0
 233 0102 FB78     		ldrb	r3, [r7, #3]	@ zero_extendqisi2
 234 0104 1846     		mov	r0, r3
 235 0106 FFF7FEFF 		bl	CyExitCriticalSection
 236 010a BEE7     		b	.L12
 237              	.L7:
 238              	.LBE3:
 106:..\..\src/main_cy8c52sound.c **** 			}
 107:..\..\src/main_cy8c52sound.c **** 		}
 108:..\..\src/main_cy8c52sound.c **** 		else if ((scsiDev.phase >= 0) && (blockDev.state & DISK_PRESENT))
 239              		.loc 1 108 0
 240 010c 084B     		ldr	r3, .L13+4
 241 010e D3F87831 		ldr	r3, [r3, #376]
 242 0112 002B     		cmp	r3, #0
 243 0114 B9DB     		blt	.L12
 244              		.loc 1 108 0 is_stmt 0 discriminator 1
 245 0116 074B     		ldr	r3, .L13+8
 246 0118 1B68     		ldr	r3, [r3]
 247 011a 03F00203 		and	r3, r3, #2
 248 011e 002B     		cmp	r3, #0
 249 0120 B3D0     		beq	.L12
 109:..\..\src/main_cy8c52sound.c **** 		{
 110:..\..\src/main_cy8c52sound.c **** 			// don't waste time scanning SD cards while we're doing disk IO
 111:..\..\src/main_cy8c52sound.c **** 			lastSDPoll = getTime_ms();
 250              		.loc 1 111 0 is_stmt 1
 251 0122 FFF7FEFF 		bl	getTime_ms
 252 0126 7860     		str	r0, [r7, #4]
 112:..\..\src/main_cy8c52sound.c **** 		}
 113:..\..\src/main_cy8c52sound.c **** 	}
 253              		.loc 1 113 0
 254 0128 AFE7     		b	.L12
 255              	.L14:
 256 012a 00BF     		.align	2
 257              	.L13:
 258 012c 64000000 		.word	scsiDev+100
 259 0130 00000000 		.word	scsiDev
 260 0134 00000000 		.word	blockDev
 261              		.cfi_endproc
 262              	.LFE65:
 263              		.size	main, .-main
 264              		.text
 265              	.Letext0:
 266              		.file 2 "c:\\program files (x86)\\cypress\\psoc creator\\4.2\\psoc creator\\import\\gnu\\arm\\5.4.
 267              		.file 3 "c:\\program files (x86)\\cypress\\psoc creator\\4.2\\psoc creator\\import\\gnu\\arm\\5.4.
 268              		.file 4 "Generated_Source\\PSoC5/cytypes.h"
 269              		.file 5 "../../../include/scsi2sd.h"
 270              		.file 6 "..\\..\\src\\sense.h"
 271              		.file 7 "..\\..\\src\\scsi.h"
 272              		.file 8 "..\\..\\src\\disk.h"
 273              		.file 9 "Generated_Source\\PSoC5/core_cm3.h"
 274              		.file 10 "..\\..\\src\\scsiPhy.h"