ARM GAS  C:\Users\r\AppData\Local\Temp\cc0NugVx.s 			page 1


   1              		.syntax unified
   2              		.cpu cortex-m3
   3              		.fpu softvfp
   4              		.eabi_attribute 20, 1
   5              		.eabi_attribute 21, 1
   6              		.eabi_attribute 23, 3
   7              		.eabi_attribute 24, 1
   8              		.eabi_attribute 25, 1
   9              		.eabi_attribute 26, 1
  10              		.eabi_attribute 30, 6
  11              		.eabi_attribute 34, 1
  12              		.eabi_attribute 18, 4
  13              		.thumb
  14              		.syntax unified
  15              		.file	"mode.c"
  16              		.text
  17              	.Ltext0:
  18              		.cfi_sections	.debug_frame
  19              		.section	.rodata
  20              		.align	2
  21              		.type	OperatingPage, %object
  22              		.size	OperatingPage, 4
  23              	OperatingPage:
  24 0000 00       		.byte	0
  25 0001 02       		.byte	2
  26 0002 80       		.byte	-128
  27 0003 00       		.byte	0
  28              		.align	2
  29              		.type	ReadWriteErrorRecoveryPage, %object
  30              		.size	ReadWriteErrorRecoveryPage, 12
  31              	ReadWriteErrorRecoveryPage:
  32 0004 01       		.byte	1
  33 0005 0A       		.byte	10
  34 0006 26       		.byte	38
  35 0007 00       		.byte	0
  36 0008 00       		.byte	0
  37 0009 00       		.byte	0
  38 000a 00       		.byte	0
  39 000b 00       		.byte	0
  40 000c 00       		.byte	0
  41 000d 00       		.byte	0
  42 000e 00       		.byte	0
  43 000f 00       		.byte	0
  44              		.align	2
  45              		.type	ReadWriteErrorRecoveryPage_SCSI1, %object
  46              		.size	ReadWriteErrorRecoveryPage_SCSI1, 8
  47              	ReadWriteErrorRecoveryPage_SCSI1:
  48 0010 01       		.byte	1
  49 0011 06       		.byte	6
  50 0012 26       		.byte	38
  51 0013 00       		.byte	0
  52 0014 00       		.byte	0
  53 0015 00       		.byte	0
  54 0016 00       		.byte	0
  55 0017 FF       		.byte	-1
  56              		.align	2
  57              		.type	DisconnectReconnectPage, %object
ARM GAS  C:\Users\r\AppData\Local\Temp\cc0NugVx.s 			page 2


  58              		.size	DisconnectReconnectPage, 16
  59              	DisconnectReconnectPage:
  60 0018 02       		.byte	2
  61 0019 0E       		.byte	14
  62 001a 00       		.byte	0
  63 001b 00       		.byte	0
  64 001c 00       		.byte	0
  65 001d 0A       		.byte	10
  66 001e 00       		.byte	0
  67 001f 00       		.byte	0
  68 0020 00       		.byte	0
  69 0021 00       		.byte	0
  70 0022 00       		.byte	0
  71 0023 00       		.byte	0
  72 0024 00       		.byte	0
  73 0025 00       		.byte	0
  74 0026 00       		.byte	0
  75 0027 00       		.byte	0
  76              		.align	2
  77              		.type	DisconnectReconnectPage_SCSI1, %object
  78              		.size	DisconnectReconnectPage_SCSI1, 12
  79              	DisconnectReconnectPage_SCSI1:
  80 0028 02       		.byte	2
  81 0029 0A       		.byte	10
  82 002a 00       		.byte	0
  83 002b 00       		.byte	0
  84 002c 00       		.byte	0
  85 002d 0A       		.byte	10
  86 002e 00       		.byte	0
  87 002f 00       		.byte	0
  88 0030 00       		.byte	0
  89 0031 00       		.byte	0
  90 0032 00       		.byte	0
  91 0033 00       		.byte	0
  92              		.align	2
  93              		.type	FormatDevicePage, %object
  94              		.size	FormatDevicePage, 24
  95              	FormatDevicePage:
  96 0034 83       		.byte	-125
  97 0035 16       		.byte	22
  98 0036 00       		.byte	0
  99 0037 00       		.byte	0
 100 0038 00       		.byte	0
 101 0039 00       		.byte	0
 102 003a 00       		.byte	0
 103 003b 00       		.byte	0
 104 003c 00       		.byte	0
 105 003d 00       		.byte	0
 106 003e 00       		.byte	0
 107 003f 00       		.byte	0
 108 0040 FF       		.byte	-1
 109 0041 FF       		.byte	-1
 110 0042 00       		.byte	0
 111 0043 01       		.byte	1
 112 0044 00       		.byte	0
 113 0045 00       		.byte	0
 114 0046 00       		.byte	0
ARM GAS  C:\Users\r\AppData\Local\Temp\cc0NugVx.s 			page 3


 115 0047 00       		.byte	0
 116 0048 C0       		.byte	-64
 117 0049 00       		.byte	0
 118 004a 00       		.byte	0
 119 004b 00       		.byte	0
 120              		.align	2
 121              		.type	RigidDiskDriveGeometry, %object
 122              		.size	RigidDiskDriveGeometry, 24
 123              	RigidDiskDriveGeometry:
 124 004c 04       		.byte	4
 125 004d 16       		.byte	22
 126 004e FF       		.byte	-1
 127 004f FF       		.byte	-1
 128 0050 FF       		.byte	-1
 129 0051 00       		.byte	0
 130 0052 FF       		.byte	-1
 131 0053 FF       		.byte	-1
 132 0054 FF       		.byte	-1
 133 0055 FF       		.byte	-1
 134 0056 FF       		.byte	-1
 135 0057 FF       		.byte	-1
 136 0058 00       		.byte	0
 137 0059 01       		.byte	1
 138 005a 00       		.byte	0
 139 005b 00       		.byte	0
 140 005c 00       		.byte	0
 141 005d 00       		.byte	0
 142 005e 00       		.byte	0
 143 005f 00       		.byte	0
 144 0060 15       		.byte	21
 145 0061 18       		.byte	24
 146 0062 00       		.byte	0
 147 0063 00       		.byte	0
 148              		.align	2
 149              		.type	FlexibleDiskDriveGeometry, %object
 150              		.size	FlexibleDiskDriveGeometry, 32
 151              	FlexibleDiskDriveGeometry:
 152 0064 05       		.byte	5
 153 0065 1E       		.byte	30
 154 0066 01       		.byte	1
 155 0067 F4       		.byte	-12
 156 0068 01       		.byte	1
 157 0069 12       		.byte	18
 158 006a 20       		.byte	32
 159 006b 00       		.byte	0
 160 006c 00       		.byte	0
 161 006d 50       		.byte	80
 162 006e 00       		.byte	0
 163 006f 80       		.byte	-128
 164 0070 00       		.byte	0
 165 0071 80       		.byte	-128
 166 0072 00       		.byte	0
 167 0073 00       		.byte	0
 168 0074 00       		.byte	0
 169 0075 00       		.byte	0
 170 0076 00       		.byte	0
 171 0077 00       		.byte	0
ARM GAS  C:\Users\r\AppData\Local\Temp\cc0NugVx.s 			page 4


 172 0078 00       		.byte	0
 173 0079 00       		.byte	0
 174 007a 00       		.byte	0
 175 007b 00       		.byte	0
 176 007c 00       		.byte	0
 177 007d 00       		.byte	0
 178 007e 00       		.byte	0
 179 007f 00       		.byte	0
 180 0080 00       		.byte	0
 181 0081 00       		.byte	0
 182 0082 00       		.byte	0
 183 0083 00       		.byte	0
 184              		.align	2
 185              		.type	RigidDiskDriveGeometry_SCSI1, %object
 186              		.size	RigidDiskDriveGeometry_SCSI1, 20
 187              	RigidDiskDriveGeometry_SCSI1:
 188 0084 04       		.byte	4
 189 0085 12       		.byte	18
 190 0086 FF       		.byte	-1
 191 0087 FF       		.byte	-1
 192 0088 FF       		.byte	-1
 193 0089 00       		.byte	0
 194 008a FF       		.byte	-1
 195 008b FF       		.byte	-1
 196 008c FF       		.byte	-1
 197 008d FF       		.byte	-1
 198 008e FF       		.byte	-1
 199 008f FF       		.byte	-1
 200 0090 00       		.byte	0
 201 0091 01       		.byte	1
 202 0092 00       		.byte	0
 203 0093 00       		.byte	0
 204 0094 00       		.byte	0
 205 0095 00       		.byte	0
 206 0096 00       		.byte	0
 207 0097 00       		.byte	0
 208              		.align	2
 209              		.type	CachingPage, %object
 210              		.size	CachingPage, 12
 211              	CachingPage:
 212 0098 08       		.byte	8
 213 0099 0A       		.byte	10
 214 009a 01       		.byte	1
 215 009b 00       		.byte	0
 216 009c 00       		.byte	0
 217 009d 00       		.byte	0
 218 009e 00       		.byte	0
 219 009f 00       		.byte	0
 220 00a0 00       		.byte	0
 221 00a1 00       		.byte	0
 222 00a2 00       		.byte	0
 223 00a3 00       		.byte	0
 224              		.align	2
 225              		.type	ControlModePage, %object
 226              		.size	ControlModePage, 8
 227              	ControlModePage:
 228 00a4 0A       		.byte	10
ARM GAS  C:\Users\r\AppData\Local\Temp\cc0NugVx.s 			page 5


 229 00a5 06       		.byte	6
 230 00a6 00       		.byte	0
 231 00a7 01       		.byte	1
 232 00a8 00       		.byte	0
 233 00a9 00       		.byte	0
 234 00aa 00       		.byte	0
 235 00ab 00       		.byte	0
 236              		.align	2
 237              		.type	SequentialDeviceConfigPage, %object
 238              		.size	SequentialDeviceConfigPage, 15
 239              	SequentialDeviceConfigPage:
 240 00ac 10       		.byte	16
 241 00ad 0E       		.byte	14
 242 00ae 00       		.byte	0
 243 00af 00       		.byte	0
 244 00b0 00       		.byte	0
 245 00b1 00       		.byte	0
 246 00b2 00       		.byte	0
 247 00b3 01       		.byte	1
 248 00b4 00       		.byte	0
 249 00b5 10       		.byte	16
 250 00b6 00       		.byte	0
 251 00b7 00       		.byte	0
 252 00b8 00       		.byte	0
 253 00b9 00       		.byte	0
 254 00ba 00       		.byte	0
 255 00bb 00       		.align	2
 256              		.type	AppleVendorPage, %object
 257              		.size	AppleVendorPage, 30
 258              	AppleVendorPage:
 259 00bc 30       		.byte	48
 260 00bd 1C       		.byte	28
 261 00be 00       		.byte	0
 262 00bf 00       		.byte	0
 263 00c0 00       		.byte	0
 264 00c1 00       		.byte	0
 265 00c2 00       		.byte	0
 266 00c3 00       		.byte	0
 267 00c4 00       		.byte	0
 268 00c5 00       		.byte	0
 269 00c6 41       		.byte	65
 270 00c7 50       		.byte	80
 271 00c8 50       		.byte	80
 272 00c9 4C       		.byte	76
 273 00ca 45       		.byte	69
 274 00cb 20       		.byte	32
 275 00cc 43       		.byte	67
 276 00cd 4F       		.byte	79
 277 00ce 4D       		.byte	77
 278 00cf 50       		.byte	80
 279 00d0 55       		.byte	85
 280 00d1 54       		.byte	84
 281 00d2 45       		.byte	69
 282 00d3 52       		.byte	82
 283 00d4 2C       		.byte	44
 284 00d5 20       		.byte	32
 285 00d6 49       		.byte	73
ARM GAS  C:\Users\r\AppData\Local\Temp\cc0NugVx.s 			page 6


 286 00d7 4E       		.byte	78
 287 00d8 43       		.byte	67
 288 00d9 2E       		.byte	46
 289              		.section	.text.pageIn,"ax",%progbits
 290              		.align	2
 291              		.thumb
 292              		.thumb_func
 293              		.type	pageIn, %function
 294              	pageIn:
 295              	.LFB64:
 296              		.file 1 "..\\..\\src\\mode.c"
   1:..\..\src/mode.c **** //	Copyright (C) 2013 Michael McMaster <michael@codesrc.com>
   2:..\..\src/mode.c **** //  Copyright (C) 2014 Doug Brown <doug@downtowndougbrown.com>
   3:..\..\src/mode.c **** //
   4:..\..\src/mode.c **** //	This file is part of SCSI2SD.
   5:..\..\src/mode.c **** //
   6:..\..\src/mode.c **** //	SCSI2SD is free software: you can redistribute it and/or modify
   7:..\..\src/mode.c **** //	it under the terms of the GNU General Public License as published by
   8:..\..\src/mode.c **** //	the Free Software Foundation, either version 3 of the License, or
   9:..\..\src/mode.c **** //	(at your option) any later version.
  10:..\..\src/mode.c **** //
  11:..\..\src/mode.c **** //	SCSI2SD is distributed in the hope that it will be useful,
  12:..\..\src/mode.c **** //	but WITHOUT ANY WARRANTY; without even the implied warranty of
  13:..\..\src/mode.c **** //	MERCHANTABILITY or FITNESS FOR A PARTICULAR PURPOSE.  See the
  14:..\..\src/mode.c **** //	GNU General Public License for more details.
  15:..\..\src/mode.c **** //
  16:..\..\src/mode.c **** //	You should have received a copy of the GNU General Public License
  17:..\..\src/mode.c **** //	along with SCSI2SD.  If not, see <http://www.gnu.org/licenses/>.
  18:..\..\src/mode.c **** 
  19:..\..\src/mode.c **** #include "device.h"
  20:..\..\src/mode.c **** #include "scsi.h"
  21:..\..\src/mode.c **** #include "mode.h"
  22:..\..\src/mode.c **** #include "disk.h"
  23:..\..\src/mode.c **** #include "inquiry.h"
  24:..\..\src/mode.c **** 
  25:..\..\src/mode.c **** #include <string.h>
  26:..\..\src/mode.c **** 
  27:..\..\src/mode.c **** // "Vendor" defined page which was included by Seagate, and required for
  28:..\..\src/mode.c **** // Amiga 500 using DKB SpitFire controller.
  29:..\..\src/mode.c **** static const uint8 OperatingPage[] =
  30:..\..\src/mode.c **** {
  31:..\..\src/mode.c **** 0x00, // Page code
  32:..\..\src/mode.c **** 0x02, // Page length
  33:..\..\src/mode.c **** 
  34:..\..\src/mode.c **** // Bit 4 = unit attension (0 = on, 1 = off).
  35:..\..\src/mode.c **** // Bit 7 = usage bit, EEPROM life exceeded warning = 1.
  36:..\..\src/mode.c **** 0x80, 
  37:..\..\src/mode.c **** 
  38:..\..\src/mode.c **** // Bit 7 = reserved.
  39:..\..\src/mode.c **** // Bits 0:6: Device type qualifier, as per Inquiry data
  40:..\..\src/mode.c **** 0x00
  41:..\..\src/mode.c **** };
  42:..\..\src/mode.c **** 
  43:..\..\src/mode.c **** static const uint8 ReadWriteErrorRecoveryPage[] =
  44:..\..\src/mode.c **** {
  45:..\..\src/mode.c **** 0x01, // Page code
  46:..\..\src/mode.c **** 0x0A, // Page length
ARM GAS  C:\Users\r\AppData\Local\Temp\cc0NugVx.s 			page 7


  47:..\..\src/mode.c **** 
  48:..\..\src/mode.c **** // VMS 5.5-2 is very particular regarding the mode page values.
  49:..\..\src/mode.c **** // The required values for a SCSI2/NoTCQ device are:
  50:..\..\src/mode.c **** // AWRE=0 ARRE=0 TB=1 RC=0 EER=? PER=1 DTE=1 DCR=?
  51:..\..\src/mode.c **** // See ftp://www.digiater.nl/openvms/decus/vms94b/net94b/scsi_params_dkdriver.txt
  52:..\..\src/mode.c **** // X-Newsgroups: comp.os.vms
  53:..\..\src/mode.c **** // Subject: Re: VMS 6.1 vs. Seagate Disk Drives
  54:..\..\src/mode.c **** // Message-Id: <32g87h$8q@nntpd.lkg.dec.com>
  55:..\..\src/mode.c **** // From: weber@evms.enet.dec.com (Ralph O. Weber -- OpenVMS AXP)
  56:..\..\src/mode.c **** // Date: 12 Aug 1994 16:32:49 GMT
  57:..\..\src/mode.c **** 0x26,
  58:..\..\src/mode.c **** 
  59:..\..\src/mode.c **** 0x00, // Don't try recovery algorithm during reads
  60:..\..\src/mode.c **** 0x00, // Correction span 0
  61:..\..\src/mode.c **** 0x00, // Head offset count 0,
  62:..\..\src/mode.c **** 0x00, // Data strobe offset count 0,
  63:..\..\src/mode.c **** 0x00, // Reserved
  64:..\..\src/mode.c **** 0x00, // Don't try recovery algorithm during writes
  65:..\..\src/mode.c **** 0x00, // Reserved
  66:..\..\src/mode.c **** 0x00, 0x00 // Recovery time limit 0 (use default)*/
  67:..\..\src/mode.c **** };
  68:..\..\src/mode.c **** 
  69:..\..\src/mode.c **** static const uint8 ReadWriteErrorRecoveryPage_SCSI1[] =
  70:..\..\src/mode.c **** {
  71:..\..\src/mode.c **** 0x01, // Page code
  72:..\..\src/mode.c **** 0x06, // Page length
  73:..\..\src/mode.c **** 0x26,
  74:..\..\src/mode.c **** 0x00, // Don't try recovery algorithm during reads
  75:..\..\src/mode.c **** 0x00, // Correction span 0
  76:..\..\src/mode.c **** 0x00, // Head offset count 0,
  77:..\..\src/mode.c **** 0x00, // Data strobe offset count 0,
  78:..\..\src/mode.c **** 0xFF // Reserved
  79:..\..\src/mode.c **** };
  80:..\..\src/mode.c **** 
  81:..\..\src/mode.c **** static const uint8 DisconnectReconnectPage[] =
  82:..\..\src/mode.c **** {
  83:..\..\src/mode.c **** 0x02, // Page code
  84:..\..\src/mode.c **** 0x0E, // Page length
  85:..\..\src/mode.c **** 0, // Buffer full ratio
  86:..\..\src/mode.c **** 0, // Buffer empty ratio
  87:..\..\src/mode.c **** 0x00, 10, // Bus inactivity limit, 100us increments. Allow 1ms.
  88:..\..\src/mode.c **** 0x00, 0x00, // Disconnect time limit
  89:..\..\src/mode.c **** 0x00, 0x00, // Connect time limit
  90:..\..\src/mode.c **** 0x00, 0x00, // Maximum burst size
  91:..\..\src/mode.c **** 0x00 ,// DTDC. Not used.
  92:..\..\src/mode.c **** 0x00, 0x00, 0x00 // Reserved
  93:..\..\src/mode.c **** };
  94:..\..\src/mode.c **** 
  95:..\..\src/mode.c **** static const uint8 DisconnectReconnectPage_SCSI1[] =
  96:..\..\src/mode.c **** {
  97:..\..\src/mode.c **** 0x02, // Page code
  98:..\..\src/mode.c **** 0x0A, // Page length
  99:..\..\src/mode.c **** 0, // Buffer full ratio
 100:..\..\src/mode.c **** 0, // Buffer empty ratio
 101:..\..\src/mode.c **** 0x00, 10, // Bus inactivity limit, 100us increments. Allow 1ms.
 102:..\..\src/mode.c **** 0x00, 0x00, // Disconnect time limit
 103:..\..\src/mode.c **** 0x00, 0x00, // Connect time limit
ARM GAS  C:\Users\r\AppData\Local\Temp\cc0NugVx.s 			page 8


 104:..\..\src/mode.c **** 0x00, 0x00 // Maximum burst size
 105:..\..\src/mode.c **** };
 106:..\..\src/mode.c **** 
 107:..\..\src/mode.c **** static const uint8 FormatDevicePage[] =
 108:..\..\src/mode.c **** {
 109:..\..\src/mode.c **** 0x03 | 0x80, // Page code | PS (persist) bit.
 110:..\..\src/mode.c **** 0x16, // Page length
 111:..\..\src/mode.c **** 0x00, 0x00, // Single zone
 112:..\..\src/mode.c **** 0x00, 0x00, // No alternate sectors
 113:..\..\src/mode.c **** 0x00, 0x00, // No alternate tracks
 114:..\..\src/mode.c **** 0x00, 0x00, // No alternate tracks per lun
 115:..\..\src/mode.c **** 0x00, 0x00, // Sectors per track, configurable
 116:..\..\src/mode.c **** 0xFF, 0xFF, // Data bytes per physical sector. Configurable.
 117:..\..\src/mode.c **** 0x00, 0x01, // Interleave
 118:..\..\src/mode.c **** 0x00, 0x00, // Track skew factor
 119:..\..\src/mode.c **** 0x00, 0x00, // Cylinder skew factor
 120:..\..\src/mode.c **** 0xC0, // SSEC(set) HSEC(set) RMB SURF
 121:..\..\src/mode.c **** 0x00, 0x00, 0x00 // Reserved
 122:..\..\src/mode.c **** };
 123:..\..\src/mode.c **** 
 124:..\..\src/mode.c **** static const uint8 RigidDiskDriveGeometry[] =
 125:..\..\src/mode.c **** {
 126:..\..\src/mode.c **** 0x04, // Page code
 127:..\..\src/mode.c **** 0x16, // Page length
 128:..\..\src/mode.c **** 0xFF, 0xFF, 0xFF, // Number of cylinders
 129:..\..\src/mode.c **** 0x00, // Number of heads (replaced by configured value)
 130:..\..\src/mode.c **** 0xFF, 0xFF, 0xFF, // Starting cylinder-write precompensation
 131:..\..\src/mode.c **** 0xFF, 0xFF, 0xFF, // Starting cylinder-reduced write current
 132:..\..\src/mode.c **** 0x00, 0x1, // Drive step rate (units of 100ns)
 133:..\..\src/mode.c **** 0x00, 0x00, 0x00, // Landing zone cylinder
 134:..\..\src/mode.c **** 0x00, // RPL
 135:..\..\src/mode.c **** 0x00, // Rotational offset
 136:..\..\src/mode.c **** 0x00, // Reserved
 137:..\..\src/mode.c **** 5400 >> 8, 5400 & 0xFF, // Medium rotation rate (RPM)
 138:..\..\src/mode.c **** 0x00, 0x00 // Reserved
 139:..\..\src/mode.c **** };
 140:..\..\src/mode.c **** 
 141:..\..\src/mode.c **** static const uint8 FlexibleDiskDriveGeometry[] =
 142:..\..\src/mode.c **** {
 143:..\..\src/mode.c **** 0x05, // Page code
 144:..\..\src/mode.c **** 0x1E, // Page length
 145:..\..\src/mode.c **** 0x01, 0xF4, // Transfer Rate (500kbits)
 146:..\..\src/mode.c **** 0x01, // heads
 147:..\..\src/mode.c **** 18, // sectors per track
 148:..\..\src/mode.c **** 0x20,0x00, // bytes per sector
 149:..\..\src/mode.c **** 0x00, 80, // Cylinders
 150:..\..\src/mode.c **** 0x00, 0x80, // Write-precomp
 151:..\..\src/mode.c **** 0x00, 0x80, // reduced current,
 152:..\..\src/mode.c **** 0x00, 0x00, // Drive step rate
 153:..\..\src/mode.c **** 0x00, // pulse width
 154:..\..\src/mode.c **** 0x00, 0x00, // Head settle delay
 155:..\..\src/mode.c **** 0x00, // motor on delay
 156:..\..\src/mode.c **** 0x00,  // motor off delay
 157:..\..\src/mode.c **** 0x00,
 158:..\..\src/mode.c **** 0x00,
 159:..\..\src/mode.c **** 0x00,
 160:..\..\src/mode.c **** 0x00,
ARM GAS  C:\Users\r\AppData\Local\Temp\cc0NugVx.s 			page 9


 161:..\..\src/mode.c **** 0x00,
 162:..\..\src/mode.c **** 0x00,
 163:..\..\src/mode.c **** 0x00,
 164:..\..\src/mode.c **** 0x00,
 165:..\..\src/mode.c **** 0x00,
 166:..\..\src/mode.c **** 0x00,
 167:..\..\src/mode.c **** 0x00
 168:..\..\src/mode.c **** };
 169:..\..\src/mode.c **** 
 170:..\..\src/mode.c **** static const uint8 RigidDiskDriveGeometry_SCSI1[] =
 171:..\..\src/mode.c **** {
 172:..\..\src/mode.c **** 0x04, // Page code
 173:..\..\src/mode.c **** 0x12, // Page length
 174:..\..\src/mode.c **** 0xFF, 0xFF, 0xFF, // Number of cylinders
 175:..\..\src/mode.c **** 0x00, // Number of heads (replaced by configured value)
 176:..\..\src/mode.c **** 0xFF, 0xFF, 0xFF, // Starting cylinder-write precompensation
 177:..\..\src/mode.c **** 0xFF, 0xFF, 0xFF, // Starting cylinder-reduced write current
 178:..\..\src/mode.c **** 0x00, 0x1, // Drive step rate (units of 100ns)
 179:..\..\src/mode.c **** 0x00, 0x00, 0x00, // Landing zone cylinder
 180:..\..\src/mode.c **** 0x00, // RPL
 181:..\..\src/mode.c **** 0x00, // Rotational offset
 182:..\..\src/mode.c **** 0x00 // Reserved
 183:..\..\src/mode.c **** };
 184:..\..\src/mode.c **** 
 185:..\..\src/mode.c **** static const uint8 CachingPage[] =
 186:..\..\src/mode.c **** {
 187:..\..\src/mode.c **** 0x08, // Page Code
 188:..\..\src/mode.c **** 0x0A, // Page length
 189:..\..\src/mode.c **** 0x01, // Read cache disable
 190:..\..\src/mode.c **** 0x00, // No useful rention policy.
 191:..\..\src/mode.c **** 0x00, 0x00, // Pre-fetch always disabled
 192:..\..\src/mode.c **** 0x00, 0x00, // Minimum pre-fetch
 193:..\..\src/mode.c **** 0x00, 0x00, // Maximum pre-fetch
 194:..\..\src/mode.c **** 0x00, 0x00, // Maximum pre-fetch ceiling
 195:..\..\src/mode.c **** };
 196:..\..\src/mode.c **** 
 197:..\..\src/mode.c **** static const uint8 ControlModePage[] =
 198:..\..\src/mode.c **** {
 199:..\..\src/mode.c **** 0x0A, // Page code
 200:..\..\src/mode.c **** 0x06, // Page length
 201:..\..\src/mode.c **** 0x00, // No logging
 202:..\..\src/mode.c **** 0x01, // Disable tagged queuing
 203:..\..\src/mode.c **** 0x00, // No async event notifications
 204:..\..\src/mode.c **** 0x00, // Reserved
 205:..\..\src/mode.c **** 0x00, 0x00 // AEN holdoff period.
 206:..\..\src/mode.c **** };
 207:..\..\src/mode.c **** 
 208:..\..\src/mode.c **** static const uint8_t SequentialDeviceConfigPage[] =
 209:..\..\src/mode.c **** {
 210:..\..\src/mode.c **** 0x10, // page code
 211:..\..\src/mode.c **** 0x0E, // Page length
 212:..\..\src/mode.c **** 0x00, // CAP, CAF, Active Format
 213:..\..\src/mode.c **** 0x00, // Active partition
 214:..\..\src/mode.c **** 0x00, // Write buffer full ratio
 215:..\..\src/mode.c **** 0x00, // Read buffer empty ratio
 216:..\..\src/mode.c **** 0x00,0x01, // Write delay time, in 100ms units
 217:..\..\src/mode.c **** 0x00, // Default gap size
ARM GAS  C:\Users\r\AppData\Local\Temp\cc0NugVx.s 			page 10


 218:..\..\src/mode.c **** 0x10, // auto-generation of default eod (end of data)
 219:..\..\src/mode.c **** 0x00,0x00,0x00, // buffer-size at early warning
 220:..\..\src/mode.c **** 0x00, // No data compression
 221:..\..\src/mode.c **** 0x00 // reserved
 222:..\..\src/mode.c **** };
 223:..\..\src/mode.c **** 
 224:..\..\src/mode.c **** // Allow Apple 68k Drive Setup to format this drive.
 225:..\..\src/mode.c **** // Code
 226:..\..\src/mode.c **** static const uint8 AppleVendorPage[] =
 227:..\..\src/mode.c **** {
 228:..\..\src/mode.c **** 0x30, // Page code
 229:..\..\src/mode.c **** 28, // Page length
 230:..\..\src/mode.c **** 0x00,0x00,0x00,0x00,0x00,0x00,0x00,0x00,
 231:..\..\src/mode.c **** 'A','P','P','L','E',' ','C','O','M','P','U','T','E','R',',',' ','I','N','C','.'
 232:..\..\src/mode.c **** };
 233:..\..\src/mode.c **** 
 234:..\..\src/mode.c **** static void pageIn(int pc, int dataIdx, const uint8* pageData, int pageLen)
 235:..\..\src/mode.c **** {
 297              		.loc 1 235 0
 298              		.cfi_startproc
 299              		@ args = 0, pretend = 0, frame = 16
 300              		@ frame_needed = 1, uses_anonymous_args = 0
 301 0000 80B5     		push	{r7, lr}
 302              		.cfi_def_cfa_offset 8
 303              		.cfi_offset 7, -8
 304              		.cfi_offset 14, -4
 305 0002 84B0     		sub	sp, sp, #16
 306              		.cfi_def_cfa_offset 24
 307 0004 00AF     		add	r7, sp, #0
 308              		.cfi_def_cfa_register 7
 309 0006 F860     		str	r0, [r7, #12]
 310 0008 B960     		str	r1, [r7, #8]
 311 000a 7A60     		str	r2, [r7, #4]
 312 000c 3B60     		str	r3, [r7]
 236:..\..\src/mode.c **** 	memcpy(&scsiDev.data[dataIdx], pageData, pageLen);
 313              		.loc 1 236 0
 314 000e BB68     		ldr	r3, [r7, #8]
 315 0010 03F5BC73 		add	r3, r3, #376
 316 0014 0D4A     		ldr	r2, .L4
 317 0016 1344     		add	r3, r3, r2
 318 0018 0433     		adds	r3, r3, #4
 319 001a 3A68     		ldr	r2, [r7]
 320 001c 7968     		ldr	r1, [r7, #4]
 321 001e 1846     		mov	r0, r3
 322 0020 FFF7FEFF 		bl	memcpy
 237:..\..\src/mode.c **** 
 238:..\..\src/mode.c **** 	if (pc == 0x01) // Mask out (un)changable values
 323              		.loc 1 238 0
 324 0024 FB68     		ldr	r3, [r7, #12]
 325 0026 012B     		cmp	r3, #1
 326 0028 0CD1     		bne	.L3
 239:..\..\src/mode.c **** 	{
 240:..\..\src/mode.c **** 		memset(&scsiDev.data[dataIdx+2], 0, pageLen - 2);
 327              		.loc 1 240 0
 328 002a BB68     		ldr	r3, [r7, #8]
 329 002c 0233     		adds	r3, r3, #2
 330 002e 03F5BC73 		add	r3, r3, #376
ARM GAS  C:\Users\r\AppData\Local\Temp\cc0NugVx.s 			page 11


 331 0032 064A     		ldr	r2, .L4
 332 0034 1344     		add	r3, r3, r2
 333 0036 181D     		adds	r0, r3, #4
 334 0038 3B68     		ldr	r3, [r7]
 335 003a 023B     		subs	r3, r3, #2
 336 003c 1A46     		mov	r2, r3
 337 003e 0021     		movs	r1, #0
 338 0040 FFF7FEFF 		bl	memset
 339              	.L3:
 241:..\..\src/mode.c **** 	}
 242:..\..\src/mode.c **** }
 340              		.loc 1 242 0
 341 0044 00BF     		nop
 342 0046 1037     		adds	r7, r7, #16
 343              		.cfi_def_cfa_offset 8
 344 0048 BD46     		mov	sp, r7
 345              		.cfi_def_cfa_register 13
 346              		@ sp needed
 347 004a 80BD     		pop	{r7, pc}
 348              	.L5:
 349              		.align	2
 350              	.L4:
 351 004c 00000000 		.word	scsiDev
 352              		.cfi_endproc
 353              	.LFE64:
 354              		.size	pageIn, .-pageIn
 355              		.section	.text.useCustomPages,"ax",%progbits
 356              		.align	2
 357              		.thumb
 358              		.thumb_func
 359              		.type	useCustomPages, %function
 360              	useCustomPages:
 361              	.LFB65:
 243:..\..\src/mode.c **** 
 244:..\..\src/mode.c **** static int useCustomPages(const TargetConfig* cfg, int pc, int pageCode, int* idx)
 245:..\..\src/mode.c **** {
 362              		.loc 1 245 0
 363              		.cfi_startproc
 364              		@ args = 0, pretend = 0, frame = 32
 365              		@ frame_needed = 1, uses_anonymous_args = 0
 366 0000 80B5     		push	{r7, lr}
 367              		.cfi_def_cfa_offset 8
 368              		.cfi_offset 7, -8
 369              		.cfi_offset 14, -4
 370 0002 88B0     		sub	sp, sp, #32
 371              		.cfi_def_cfa_offset 40
 372 0004 00AF     		add	r7, sp, #0
 373              		.cfi_def_cfa_register 7
 374 0006 F860     		str	r0, [r7, #12]
 375 0008 B960     		str	r1, [r7, #8]
 376 000a 7A60     		str	r2, [r7, #4]
 377 000c 3B60     		str	r3, [r7]
 246:..\..\src/mode.c **** 	int found = 0;
 378              		.loc 1 246 0
 379 000e 0023     		movs	r3, #0
 380 0010 FB61     		str	r3, [r7, #28]
 247:..\..\src/mode.c **** 	int cfgIdx = 0;
ARM GAS  C:\Users\r\AppData\Local\Temp\cc0NugVx.s 			page 12


 381              		.loc 1 247 0
 382 0012 0023     		movs	r3, #0
 383 0014 BB61     		str	r3, [r7, #24]
 248:..\..\src/mode.c **** 	while ((cfgIdx < sizeof(cfg->modePages) - 2) &&
 384              		.loc 1 248 0
 385 0016 31E0     		b	.L7
 386              	.L11:
 387              	.LBB2:
 249:..\..\src/mode.c **** 		(cfg->modePages[cfgIdx + 1] != 0)
 250:..\..\src/mode.c **** 		)
 251:..\..\src/mode.c **** 	{
 252:..\..\src/mode.c **** 		int pageSize = cfg->modePages[cfgIdx + 1] + 2;
 388              		.loc 1 252 0
 389 0018 BB69     		ldr	r3, [r7, #24]
 390 001a 0133     		adds	r3, r3, #1
 391 001c FA68     		ldr	r2, [r7, #12]
 392 001e 1344     		add	r3, r3, r2
 393 0020 93F80034 		ldrb	r3, [r3, #1024]	@ zero_extendqisi2
 394 0024 0233     		adds	r3, r3, #2
 395 0026 7B61     		str	r3, [r7, #20]
 253:..\..\src/mode.c **** 		int dataPageCode = cfg->modePages[cfgIdx] & 0x3f;
 396              		.loc 1 253 0
 397 0028 FA68     		ldr	r2, [r7, #12]
 398 002a BB69     		ldr	r3, [r7, #24]
 399 002c 1344     		add	r3, r3, r2
 400 002e 03F58063 		add	r3, r3, #1024
 401 0032 1B78     		ldrb	r3, [r3]	@ zero_extendqisi2
 402 0034 03F03F03 		and	r3, r3, #63
 403 0038 3B61     		str	r3, [r7, #16]
 254:..\..\src/mode.c **** 		if ((dataPageCode == pageCode) ||
 404              		.loc 1 254 0
 405 003a 3A69     		ldr	r2, [r7, #16]
 406 003c 7B68     		ldr	r3, [r7, #4]
 407 003e 9A42     		cmp	r2, r3
 408 0040 02D0     		beq	.L8
 409              		.loc 1 254 0 is_stmt 0 discriminator 1
 410 0042 7B68     		ldr	r3, [r7, #4]
 411 0044 3F2B     		cmp	r3, #63
 412 0046 15D1     		bne	.L9
 413              	.L8:
 255:..\..\src/mode.c **** 			(pageCode == 0x3f)
 256:..\..\src/mode.c **** 			)
 257:..\..\src/mode.c **** 		{
 258:..\..\src/mode.c **** 			pageIn(pc, *idx, &cfg->modePages[cfgIdx], pageSize);
 414              		.loc 1 258 0 is_stmt 1
 415 0048 3B68     		ldr	r3, [r7]
 416 004a 1968     		ldr	r1, [r3]
 417 004c BB69     		ldr	r3, [r7, #24]
 418 004e 03F58063 		add	r3, r3, #1024
 419 0052 FA68     		ldr	r2, [r7, #12]
 420 0054 1A44     		add	r2, r2, r3
 421 0056 7B69     		ldr	r3, [r7, #20]
 422 0058 B868     		ldr	r0, [r7, #8]
 423 005a FFF7FEFF 		bl	pageIn
 259:..\..\src/mode.c **** 			*idx += pageSize;
 424              		.loc 1 259 0
 425 005e 3B68     		ldr	r3, [r7]
ARM GAS  C:\Users\r\AppData\Local\Temp\cc0NugVx.s 			page 13


 426 0060 1A68     		ldr	r2, [r3]
 427 0062 7B69     		ldr	r3, [r7, #20]
 428 0064 1A44     		add	r2, r2, r3
 429 0066 3B68     		ldr	r3, [r7]
 430 0068 1A60     		str	r2, [r3]
 260:..\..\src/mode.c **** 			found = 1;
 431              		.loc 1 260 0
 432 006a 0123     		movs	r3, #1
 433 006c FB61     		str	r3, [r7, #28]
 261:..\..\src/mode.c **** 			if (pageCode != 0x3f)
 434              		.loc 1 261 0
 435 006e 7B68     		ldr	r3, [r7, #4]
 436 0070 3F2B     		cmp	r3, #63
 437 0072 11D1     		bne	.L13
 438              	.L9:
 262:..\..\src/mode.c **** 			{
 263:..\..\src/mode.c **** 				break;
 264:..\..\src/mode.c **** 			}
 265:..\..\src/mode.c **** 		}
 266:..\..\src/mode.c **** 		cfgIdx += pageSize;
 439              		.loc 1 266 0
 440 0074 BA69     		ldr	r2, [r7, #24]
 441 0076 7B69     		ldr	r3, [r7, #20]
 442 0078 1344     		add	r3, r3, r2
 443 007a BB61     		str	r3, [r7, #24]
 444              	.L7:
 445              	.LBE2:
 248:..\..\src/mode.c **** 		(cfg->modePages[cfgIdx + 1] != 0)
 446              		.loc 1 248 0
 447 007c BB69     		ldr	r3, [r7, #24]
 448 007e 40F2FD32 		movw	r2, #1021
 449 0082 9342     		cmp	r3, r2
 450 0084 09D8     		bhi	.L10
 249:..\..\src/mode.c **** 		)
 451              		.loc 1 249 0 discriminator 1
 452 0086 BB69     		ldr	r3, [r7, #24]
 453 0088 0133     		adds	r3, r3, #1
 454 008a FA68     		ldr	r2, [r7, #12]
 455 008c 1344     		add	r3, r3, r2
 456 008e 93F80034 		ldrb	r3, [r3, #1024]	@ zero_extendqisi2
 248:..\..\src/mode.c **** 		(cfg->modePages[cfgIdx + 1] != 0)
 457              		.loc 1 248 0 discriminator 1
 458 0092 002B     		cmp	r3, #0
 459 0094 C0D1     		bne	.L11
 460 0096 00E0     		b	.L10
 461              	.L13:
 462              	.LBB3:
 263:..\..\src/mode.c **** 			}
 463              		.loc 1 263 0
 464 0098 00BF     		nop
 465              	.L10:
 466              	.LBE3:
 267:..\..\src/mode.c **** 	}
 268:..\..\src/mode.c **** 	return found;
 467              		.loc 1 268 0
 468 009a FB69     		ldr	r3, [r7, #28]
 269:..\..\src/mode.c **** }
ARM GAS  C:\Users\r\AppData\Local\Temp\cc0NugVx.s 			page 14


 469              		.loc 1 269 0
 470 009c 1846     		mov	r0, r3
 471 009e 2037     		adds	r7, r7, #32
 472              		.cfi_def_cfa_offset 8
 473 00a0 BD46     		mov	sp, r7
 474              		.cfi_def_cfa_register 13
 475              		@ sp needed
 476 00a2 80BD     		pop	{r7, pc}
 477              		.cfi_endproc
 478              	.LFE65:
 479              		.size	useCustomPages, .-useCustomPages
 480              		.section	.text.doModeSense,"ax",%progbits
 481              		.align	2
 482              		.thumb
 483              		.thumb_func
 484              		.type	doModeSense, %function
 485              	doModeSense:
 486              	.LFB66:
 270:..\..\src/mode.c **** 
 271:..\..\src/mode.c **** static void doModeSense(
 272:..\..\src/mode.c **** 	int sixByteCmd, int dbd, int pc, int pageCode, int allocLength)
 273:..\..\src/mode.c **** {
 487              		.loc 1 273 0
 488              		.cfi_startproc
 489              		@ args = 4, pretend = 0, frame = 56
 490              		@ frame_needed = 1, uses_anonymous_args = 0
 491 0000 B0B5     		push	{r4, r5, r7, lr}
 492              		.cfi_def_cfa_offset 16
 493              		.cfi_offset 4, -16
 494              		.cfi_offset 5, -12
 495              		.cfi_offset 7, -8
 496              		.cfi_offset 14, -4
 497 0002 90B0     		sub	sp, sp, #64
 498              		.cfi_def_cfa_offset 80
 499 0004 02AF     		add	r7, sp, #8
 500              		.cfi_def_cfa 7, 72
 501 0006 F860     		str	r0, [r7, #12]
 502 0008 B960     		str	r1, [r7, #8]
 503 000a 7A60     		str	r2, [r7, #4]
 504 000c 3B60     		str	r3, [r7]
 274:..\..\src/mode.c **** 	////////////// Mode Parameter Header
 275:..\..\src/mode.c **** 	////////////////////////////////////
 276:..\..\src/mode.c **** 
 277:..\..\src/mode.c **** 	// Skip the Mode Data Length, we set that last.
 278:..\..\src/mode.c **** 	int idx = 1;
 505              		.loc 1 278 0
 506 000e 0123     		movs	r3, #1
 507 0010 3B62     		str	r3, [r7, #32]
 279:..\..\src/mode.c **** 	if (!sixByteCmd) ++idx;
 508              		.loc 1 279 0
 509 0012 FB68     		ldr	r3, [r7, #12]
 510 0014 002B     		cmp	r3, #0
 511 0016 02D1     		bne	.L15
 512              		.loc 1 279 0 is_stmt 0 discriminator 1
 513 0018 3B6A     		ldr	r3, [r7, #32]
 514 001a 0133     		adds	r3, r3, #1
 515 001c 3B62     		str	r3, [r7, #32]
ARM GAS  C:\Users\r\AppData\Local\Temp\cc0NugVx.s 			page 15


 516              	.L15:
 280:..\..\src/mode.c **** 
 281:..\..\src/mode.c **** 	uint8_t mediumType = 0;
 517              		.loc 1 281 0 is_stmt 1
 518 001e 0023     		movs	r3, #0
 519 0020 87F83730 		strb	r3, [r7, #55]
 282:..\..\src/mode.c **** 	uint8_t deviceSpecificParam = 0;
 520              		.loc 1 282 0
 521 0024 0023     		movs	r3, #0
 522 0026 87F83630 		strb	r3, [r7, #54]
 283:..\..\src/mode.c **** 	uint8_t density = 0;
 523              		.loc 1 283 0
 524 002a 0023     		movs	r3, #0
 525 002c 87F83530 		strb	r3, [r7, #53]
 284:..\..\src/mode.c **** 	switch (scsiDev.target->cfg->deviceType)
 526              		.loc 1 284 0
 527 0030 B24B     		ldr	r3, .L73
 528 0032 1B6E     		ldr	r3, [r3, #96]
 529 0034 5B68     		ldr	r3, [r3, #4]
 530 0036 5B78     		ldrb	r3, [r3, #1]	@ zero_extendqisi2
 531 0038 052B     		cmp	r3, #5
 532 003a 61D8     		bhi	.L16
 533 003c 01A2     		adr	r2, .L18
 534 003e 52F823F0 		ldr	pc, [r2, r3, lsl #2]
 535 0042 00BF     		.p2align 2
 536              	.L18:
 537 0044 5D000000 		.word	.L17+1
 538 0048 5D000000 		.word	.L17+1
 539 004c A5000000 		.word	.L19+1
 540 0050 81000000 		.word	.L20+1
 541 0054 DD000000 		.word	.L21+1
 542 0058 B9000000 		.word	.L22+1
 543              		.p2align 1
 544              	.L17:
 285:..\..\src/mode.c **** 	{
 286:..\..\src/mode.c **** 	case CONFIG_FIXED:
 287:..\..\src/mode.c **** 	case CONFIG_REMOVEABLE:
 288:..\..\src/mode.c **** 		mediumType = 0; // We should support various floppy types here!
 545              		.loc 1 288 0
 546 005c 0023     		movs	r3, #0
 547 005e 87F83730 		strb	r3, [r7, #55]
 289:..\..\src/mode.c **** 		// Contains cache bits (0) and a Write-Protect bit.
 290:..\..\src/mode.c **** 		deviceSpecificParam =
 291:..\..\src/mode.c **** 			(blockDev.state & DISK_WP) ? 0x80 : 0;
 548              		.loc 1 291 0
 549 0062 A74B     		ldr	r3, .L73+4
 550 0064 1B68     		ldr	r3, [r3]
 551 0066 03F00803 		and	r3, r3, #8
 290:..\..\src/mode.c **** 			(blockDev.state & DISK_WP) ? 0x80 : 0;
 552              		.loc 1 290 0
 553 006a 002B     		cmp	r3, #0
 554 006c 01D0     		beq	.L23
 290:..\..\src/mode.c **** 			(blockDev.state & DISK_WP) ? 0x80 : 0;
 555              		.loc 1 290 0 is_stmt 0 discriminator 1
 556 006e 8023     		movs	r3, #128
 557 0070 00E0     		b	.L24
 558              	.L23:
ARM GAS  C:\Users\r\AppData\Local\Temp\cc0NugVx.s 			page 16


 290:..\..\src/mode.c **** 			(blockDev.state & DISK_WP) ? 0x80 : 0;
 559              		.loc 1 290 0 discriminator 2
 560 0072 0023     		movs	r3, #0
 561              	.L24:
 290:..\..\src/mode.c **** 			(blockDev.state & DISK_WP) ? 0x80 : 0;
 562              		.loc 1 290 0 discriminator 4
 563 0074 87F83630 		strb	r3, [r7, #54]
 292:..\..\src/mode.c **** 		density = 0; // reserved for direct access
 564              		.loc 1 292 0 is_stmt 1 discriminator 4
 565 0078 0023     		movs	r3, #0
 566 007a 87F83530 		strb	r3, [r7, #53]
 293:..\..\src/mode.c **** 		break;
 567              		.loc 1 293 0 discriminator 4
 568 007e 3FE0     		b	.L16
 569              	.L20:
 294:..\..\src/mode.c **** 
 295:..\..\src/mode.c **** 	case CONFIG_FLOPPY_14MB:
 296:..\..\src/mode.c **** 		mediumType = 0x1E; // 90mm/3.5"
 570              		.loc 1 296 0
 571 0080 1E23     		movs	r3, #30
 572 0082 87F83730 		strb	r3, [r7, #55]
 297:..\..\src/mode.c **** 		deviceSpecificParam =
 298:..\..\src/mode.c **** 			(blockDev.state & DISK_WP) ? 0x80 : 0;
 573              		.loc 1 298 0
 574 0086 9E4B     		ldr	r3, .L73+4
 575 0088 1B68     		ldr	r3, [r3]
 576 008a 03F00803 		and	r3, r3, #8
 297:..\..\src/mode.c **** 		deviceSpecificParam =
 577              		.loc 1 297 0
 578 008e 002B     		cmp	r3, #0
 579 0090 01D0     		beq	.L25
 297:..\..\src/mode.c **** 		deviceSpecificParam =
 580              		.loc 1 297 0 is_stmt 0 discriminator 1
 581 0092 8023     		movs	r3, #128
 582 0094 00E0     		b	.L26
 583              	.L25:
 297:..\..\src/mode.c **** 		deviceSpecificParam =
 584              		.loc 1 297 0 discriminator 2
 585 0096 0023     		movs	r3, #0
 586              	.L26:
 297:..\..\src/mode.c **** 		deviceSpecificParam =
 587              		.loc 1 297 0 discriminator 4
 588 0098 87F83630 		strb	r3, [r7, #54]
 299:..\..\src/mode.c **** 		density = 0; // reserved for direct access
 589              		.loc 1 299 0 is_stmt 1 discriminator 4
 590 009c 0023     		movs	r3, #0
 591 009e 87F83530 		strb	r3, [r7, #53]
 300:..\..\src/mode.c **** 		break;
 592              		.loc 1 300 0 discriminator 4
 593 00a2 2DE0     		b	.L16
 594              	.L19:
 301:..\..\src/mode.c **** 
 302:..\..\src/mode.c **** 	case CONFIG_OPTICAL:
 303:..\..\src/mode.c **** 		mediumType = 0x02; // 120mm CDROM, data only.
 595              		.loc 1 303 0
 596 00a4 0223     		movs	r3, #2
 597 00a6 87F83730 		strb	r3, [r7, #55]
ARM GAS  C:\Users\r\AppData\Local\Temp\cc0NugVx.s 			page 17


 304:..\..\src/mode.c **** 		deviceSpecificParam = 0;
 598              		.loc 1 304 0
 599 00aa 0023     		movs	r3, #0
 600 00ac 87F83630 		strb	r3, [r7, #54]
 305:..\..\src/mode.c **** 		density = 0x01; // User data only, 2048bytes per sector.
 601              		.loc 1 305 0
 602 00b0 0123     		movs	r3, #1
 603 00b2 87F83530 		strb	r3, [r7, #53]
 306:..\..\src/mode.c **** 		break;
 604              		.loc 1 306 0
 605 00b6 23E0     		b	.L16
 606              	.L22:
 307:..\..\src/mode.c **** 
 308:..\..\src/mode.c **** 	case CONFIG_SEQUENTIAL:
 309:..\..\src/mode.c **** 		mediumType = 0; // reserved
 607              		.loc 1 309 0
 608 00b8 0023     		movs	r3, #0
 609 00ba 87F83730 		strb	r3, [r7, #55]
 310:..\..\src/mode.c **** 		deviceSpecificParam =
 311:..\..\src/mode.c **** 			(blockDev.state & DISK_WP) ? 0x80 : 0;
 610              		.loc 1 311 0
 611 00be 904B     		ldr	r3, .L73+4
 612 00c0 1B68     		ldr	r3, [r3]
 613 00c2 03F00803 		and	r3, r3, #8
 310:..\..\src/mode.c **** 		deviceSpecificParam =
 614              		.loc 1 310 0
 615 00c6 002B     		cmp	r3, #0
 616 00c8 01D0     		beq	.L27
 310:..\..\src/mode.c **** 		deviceSpecificParam =
 617              		.loc 1 310 0 is_stmt 0 discriminator 1
 618 00ca 8023     		movs	r3, #128
 619 00cc 00E0     		b	.L28
 620              	.L27:
 310:..\..\src/mode.c **** 		deviceSpecificParam =
 621              		.loc 1 310 0 discriminator 2
 622 00ce 0023     		movs	r3, #0
 623              	.L28:
 310:..\..\src/mode.c **** 		deviceSpecificParam =
 624              		.loc 1 310 0 discriminator 4
 625 00d0 87F83630 		strb	r3, [r7, #54]
 312:..\..\src/mode.c **** 		density = 0x13; // DAT Data Storage, X3B5/88-185A 
 626              		.loc 1 312 0 is_stmt 1 discriminator 4
 627 00d4 1323     		movs	r3, #19
 628 00d6 87F83530 		strb	r3, [r7, #53]
 313:..\..\src/mode.c **** 		break;
 629              		.loc 1 313 0 discriminator 4
 630 00da 11E0     		b	.L16
 631              	.L21:
 314:..\..\src/mode.c **** 
 315:..\..\src/mode.c **** 	case CONFIG_MO:
 316:..\..\src/mode.c ****         mediumType = 0x03; // Optical reversible or erasable medium
 632              		.loc 1 316 0
 633 00dc 0323     		movs	r3, #3
 634 00de 87F83730 		strb	r3, [r7, #55]
 317:..\..\src/mode.c **** 		deviceSpecificParam =
 318:..\..\src/mode.c **** 			(blockDev.state & DISK_WP) ? 0x80 : 0;
 635              		.loc 1 318 0
ARM GAS  C:\Users\r\AppData\Local\Temp\cc0NugVx.s 			page 18


 636 00e2 874B     		ldr	r3, .L73+4
 637 00e4 1B68     		ldr	r3, [r3]
 638 00e6 03F00803 		and	r3, r3, #8
 317:..\..\src/mode.c **** 		deviceSpecificParam =
 639              		.loc 1 317 0
 640 00ea 002B     		cmp	r3, #0
 641 00ec 01D0     		beq	.L29
 317:..\..\src/mode.c **** 		deviceSpecificParam =
 642              		.loc 1 317 0 is_stmt 0 discriminator 1
 643 00ee 8023     		movs	r3, #128
 644 00f0 00E0     		b	.L30
 645              	.L29:
 317:..\..\src/mode.c **** 		deviceSpecificParam =
 646              		.loc 1 317 0 discriminator 2
 647 00f2 0023     		movs	r3, #0
 648              	.L30:
 317:..\..\src/mode.c **** 		deviceSpecificParam =
 649              		.loc 1 317 0 discriminator 4
 650 00f4 87F83630 		strb	r3, [r7, #54]
 319:..\..\src/mode.c **** 		density = 0x00; // Default
 651              		.loc 1 319 0 is_stmt 1 discriminator 4
 652 00f8 0023     		movs	r3, #0
 653 00fa 87F83530 		strb	r3, [r7, #53]
 320:..\..\src/mode.c **** 		break;
 654              		.loc 1 320 0 discriminator 4
 655 00fe 00BF     		nop
 656              	.L16:
 321:..\..\src/mode.c **** 
 322:..\..\src/mode.c **** 	};
 323:..\..\src/mode.c **** 
 324:..\..\src/mode.c **** 	scsiDev.data[idx++] = mediumType;
 657              		.loc 1 324 0
 658 0100 3B6A     		ldr	r3, [r7, #32]
 659 0102 5A1C     		adds	r2, r3, #1
 660 0104 3A62     		str	r2, [r7, #32]
 661 0106 7D4A     		ldr	r2, .L73
 662 0108 1344     		add	r3, r3, r2
 663 010a 97F83720 		ldrb	r2, [r7, #55]
 664 010e 83F87C21 		strb	r2, [r3, #380]
 325:..\..\src/mode.c **** 	scsiDev.data[idx++] = deviceSpecificParam;
 665              		.loc 1 325 0
 666 0112 3B6A     		ldr	r3, [r7, #32]
 667 0114 5A1C     		adds	r2, r3, #1
 668 0116 3A62     		str	r2, [r7, #32]
 669 0118 784A     		ldr	r2, .L73
 670 011a 1344     		add	r3, r3, r2
 671 011c 97F83620 		ldrb	r2, [r7, #54]
 672 0120 83F87C21 		strb	r2, [r3, #380]
 326:..\..\src/mode.c **** 
 327:..\..\src/mode.c **** 	if (sixByteCmd)
 673              		.loc 1 327 0
 674 0124 FB68     		ldr	r3, [r7, #12]
 675 0126 002B     		cmp	r3, #0
 676 0128 14D0     		beq	.L31
 328:..\..\src/mode.c **** 	{
 329:..\..\src/mode.c **** 		if (dbd)
 677              		.loc 1 329 0
ARM GAS  C:\Users\r\AppData\Local\Temp\cc0NugVx.s 			page 19


 678 012a BB68     		ldr	r3, [r7, #8]
 679 012c 002B     		cmp	r3, #0
 680 012e 08D0     		beq	.L32
 330:..\..\src/mode.c **** 		{
 331:..\..\src/mode.c **** 			scsiDev.data[idx++] = 0; // No block descriptor
 681              		.loc 1 331 0
 682 0130 3B6A     		ldr	r3, [r7, #32]
 683 0132 5A1C     		adds	r2, r3, #1
 684 0134 3A62     		str	r2, [r7, #32]
 685 0136 714A     		ldr	r2, .L73
 686 0138 1344     		add	r3, r3, r2
 687 013a 0022     		movs	r2, #0
 688 013c 83F87C21 		strb	r2, [r3, #380]
 689 0140 3CE0     		b	.L34
 690              	.L32:
 332:..\..\src/mode.c **** 		}
 333:..\..\src/mode.c **** 		else
 334:..\..\src/mode.c **** 		{
 335:..\..\src/mode.c **** 			// One block descriptor of length 8 bytes.
 336:..\..\src/mode.c **** 			scsiDev.data[idx++] = 8;
 691              		.loc 1 336 0
 692 0142 3B6A     		ldr	r3, [r7, #32]
 693 0144 5A1C     		adds	r2, r3, #1
 694 0146 3A62     		str	r2, [r7, #32]
 695 0148 6C4A     		ldr	r2, .L73
 696 014a 1344     		add	r3, r3, r2
 697 014c 0822     		movs	r2, #8
 698 014e 83F87C21 		strb	r2, [r3, #380]
 699 0152 33E0     		b	.L34
 700              	.L31:
 337:..\..\src/mode.c **** 		}
 338:..\..\src/mode.c **** 	}
 339:..\..\src/mode.c **** 	else
 340:..\..\src/mode.c **** 	{
 341:..\..\src/mode.c **** 		scsiDev.data[idx++] = 0; // Reserved
 701              		.loc 1 341 0
 702 0154 3B6A     		ldr	r3, [r7, #32]
 703 0156 5A1C     		adds	r2, r3, #1
 704 0158 3A62     		str	r2, [r7, #32]
 705 015a 684A     		ldr	r2, .L73
 706 015c 1344     		add	r3, r3, r2
 707 015e 0022     		movs	r2, #0
 708 0160 83F87C21 		strb	r2, [r3, #380]
 342:..\..\src/mode.c **** 		scsiDev.data[idx++] = 0; // Reserved
 709              		.loc 1 342 0
 710 0164 3B6A     		ldr	r3, [r7, #32]
 711 0166 5A1C     		adds	r2, r3, #1
 712 0168 3A62     		str	r2, [r7, #32]
 713 016a 644A     		ldr	r2, .L73
 714 016c 1344     		add	r3, r3, r2
 715 016e 0022     		movs	r2, #0
 716 0170 83F87C21 		strb	r2, [r3, #380]
 343:..\..\src/mode.c **** 		if (dbd)
 717              		.loc 1 343 0
 718 0174 BB68     		ldr	r3, [r7, #8]
 719 0176 002B     		cmp	r3, #0
 720 0178 10D0     		beq	.L35
ARM GAS  C:\Users\r\AppData\Local\Temp\cc0NugVx.s 			page 20


 344:..\..\src/mode.c **** 		{
 345:..\..\src/mode.c **** 			scsiDev.data[idx++] = 0; // No block descriptor
 721              		.loc 1 345 0
 722 017a 3B6A     		ldr	r3, [r7, #32]
 723 017c 5A1C     		adds	r2, r3, #1
 724 017e 3A62     		str	r2, [r7, #32]
 725 0180 5E4A     		ldr	r2, .L73
 726 0182 1344     		add	r3, r3, r2
 727 0184 0022     		movs	r2, #0
 728 0186 83F87C21 		strb	r2, [r3, #380]
 346:..\..\src/mode.c **** 			scsiDev.data[idx++] = 0; // No block descriptor
 729              		.loc 1 346 0
 730 018a 3B6A     		ldr	r3, [r7, #32]
 731 018c 5A1C     		adds	r2, r3, #1
 732 018e 3A62     		str	r2, [r7, #32]
 733 0190 5A4A     		ldr	r2, .L73
 734 0192 1344     		add	r3, r3, r2
 735 0194 0022     		movs	r2, #0
 736 0196 83F87C21 		strb	r2, [r3, #380]
 737 019a 0FE0     		b	.L34
 738              	.L35:
 347:..\..\src/mode.c **** 		}
 348:..\..\src/mode.c **** 		else
 349:..\..\src/mode.c **** 		{
 350:..\..\src/mode.c **** 			// One block descriptor of length 8 bytes.
 351:..\..\src/mode.c **** 			scsiDev.data[idx++] = 0;
 739              		.loc 1 351 0
 740 019c 3B6A     		ldr	r3, [r7, #32]
 741 019e 5A1C     		adds	r2, r3, #1
 742 01a0 3A62     		str	r2, [r7, #32]
 743 01a2 564A     		ldr	r2, .L73
 744 01a4 1344     		add	r3, r3, r2
 745 01a6 0022     		movs	r2, #0
 746 01a8 83F87C21 		strb	r2, [r3, #380]
 352:..\..\src/mode.c **** 			scsiDev.data[idx++] = 8;
 747              		.loc 1 352 0
 748 01ac 3B6A     		ldr	r3, [r7, #32]
 749 01ae 5A1C     		adds	r2, r3, #1
 750 01b0 3A62     		str	r2, [r7, #32]
 751 01b2 524A     		ldr	r2, .L73
 752 01b4 1344     		add	r3, r3, r2
 753 01b6 0822     		movs	r2, #8
 754 01b8 83F87C21 		strb	r2, [r3, #380]
 755              	.L34:
 353:..\..\src/mode.c **** 		}
 354:..\..\src/mode.c **** 	}
 355:..\..\src/mode.c **** 
 356:..\..\src/mode.c **** 	////////////// Block Descriptor
 357:..\..\src/mode.c **** 	////////////////////////////////////
 358:..\..\src/mode.c **** 	if (!dbd)
 756              		.loc 1 358 0
 757 01bc BB68     		ldr	r3, [r7, #8]
 758 01be 002B     		cmp	r3, #0
 759 01c0 4CD1     		bne	.L36
 760              	.LBB4:
 359:..\..\src/mode.c **** 	{
 360:..\..\src/mode.c **** 		scsiDev.data[idx++] = density;
ARM GAS  C:\Users\r\AppData\Local\Temp\cc0NugVx.s 			page 21


 761              		.loc 1 360 0
 762 01c2 3B6A     		ldr	r3, [r7, #32]
 763 01c4 5A1C     		adds	r2, r3, #1
 764 01c6 3A62     		str	r2, [r7, #32]
 765 01c8 4C4A     		ldr	r2, .L73
 766 01ca 1344     		add	r3, r3, r2
 767 01cc 97F83520 		ldrb	r2, [r7, #53]
 768 01d0 83F87C21 		strb	r2, [r3, #380]
 361:..\..\src/mode.c **** 		// Number of blocks
 362:..\..\src/mode.c **** 		// Zero == all remaining blocks shall have the medium
 363:..\..\src/mode.c **** 		// characteristics specified.
 364:..\..\src/mode.c **** 		scsiDev.data[idx++] = 0;
 769              		.loc 1 364 0
 770 01d4 3B6A     		ldr	r3, [r7, #32]
 771 01d6 5A1C     		adds	r2, r3, #1
 772 01d8 3A62     		str	r2, [r7, #32]
 773 01da 484A     		ldr	r2, .L73
 774 01dc 1344     		add	r3, r3, r2
 775 01de 0022     		movs	r2, #0
 776 01e0 83F87C21 		strb	r2, [r3, #380]
 365:..\..\src/mode.c **** 		scsiDev.data[idx++] = 0;
 777              		.loc 1 365 0
 778 01e4 3B6A     		ldr	r3, [r7, #32]
 779 01e6 5A1C     		adds	r2, r3, #1
 780 01e8 3A62     		str	r2, [r7, #32]
 781 01ea 444A     		ldr	r2, .L73
 782 01ec 1344     		add	r3, r3, r2
 783 01ee 0022     		movs	r2, #0
 784 01f0 83F87C21 		strb	r2, [r3, #380]
 366:..\..\src/mode.c **** 		scsiDev.data[idx++] = 0;
 785              		.loc 1 366 0
 786 01f4 3B6A     		ldr	r3, [r7, #32]
 787 01f6 5A1C     		adds	r2, r3, #1
 788 01f8 3A62     		str	r2, [r7, #32]
 789 01fa 404A     		ldr	r2, .L73
 790 01fc 1344     		add	r3, r3, r2
 791 01fe 0022     		movs	r2, #0
 792 0200 83F87C21 		strb	r2, [r3, #380]
 367:..\..\src/mode.c **** 
 368:..\..\src/mode.c **** 		scsiDev.data[idx++] = 0; // reserved
 793              		.loc 1 368 0
 794 0204 3B6A     		ldr	r3, [r7, #32]
 795 0206 5A1C     		adds	r2, r3, #1
 796 0208 3A62     		str	r2, [r7, #32]
 797 020a 3C4A     		ldr	r2, .L73
 798 020c 1344     		add	r3, r3, r2
 799 020e 0022     		movs	r2, #0
 800 0210 83F87C21 		strb	r2, [r3, #380]
 369:..\..\src/mode.c **** 
 370:..\..\src/mode.c **** 		// Block length
 371:..\..\src/mode.c **** 		uint32_t bytesPerSector = scsiDev.target->liveCfg.bytesPerSector;
 801              		.loc 1 371 0
 802 0214 394B     		ldr	r3, .L73
 803 0216 1B6E     		ldr	r3, [r3, #96]
 804 0218 1B89     		ldrh	r3, [r3, #8]
 805 021a FB62     		str	r3, [r7, #44]
 372:..\..\src/mode.c **** 		scsiDev.data[idx++] = bytesPerSector >> 16;
ARM GAS  C:\Users\r\AppData\Local\Temp\cc0NugVx.s 			page 22


 806              		.loc 1 372 0
 807 021c 3B6A     		ldr	r3, [r7, #32]
 808 021e 5A1C     		adds	r2, r3, #1
 809 0220 3A62     		str	r2, [r7, #32]
 810 0222 FA6A     		ldr	r2, [r7, #44]
 811 0224 120C     		lsrs	r2, r2, #16
 812 0226 D1B2     		uxtb	r1, r2
 813 0228 344A     		ldr	r2, .L73
 814 022a 1344     		add	r3, r3, r2
 815 022c 0A46     		mov	r2, r1
 816 022e 83F87C21 		strb	r2, [r3, #380]
 373:..\..\src/mode.c **** 		scsiDev.data[idx++] = bytesPerSector >> 8;
 817              		.loc 1 373 0
 818 0232 3B6A     		ldr	r3, [r7, #32]
 819 0234 5A1C     		adds	r2, r3, #1
 820 0236 3A62     		str	r2, [r7, #32]
 821 0238 FA6A     		ldr	r2, [r7, #44]
 822 023a 120A     		lsrs	r2, r2, #8
 823 023c D1B2     		uxtb	r1, r2
 824 023e 2F4A     		ldr	r2, .L73
 825 0240 1344     		add	r3, r3, r2
 826 0242 0A46     		mov	r2, r1
 827 0244 83F87C21 		strb	r2, [r3, #380]
 374:..\..\src/mode.c **** 		scsiDev.data[idx++] = bytesPerSector & 0xFF;
 828              		.loc 1 374 0
 829 0248 3B6A     		ldr	r3, [r7, #32]
 830 024a 5A1C     		adds	r2, r3, #1
 831 024c 3A62     		str	r2, [r7, #32]
 832 024e FA6A     		ldr	r2, [r7, #44]
 833 0250 D1B2     		uxtb	r1, r2
 834 0252 2A4A     		ldr	r2, .L73
 835 0254 1344     		add	r3, r3, r2
 836 0256 0A46     		mov	r2, r1
 837 0258 83F87C21 		strb	r2, [r3, #380]
 838              	.L36:
 839              	.LBE4:
 375:..\..\src/mode.c **** 	}
 376:..\..\src/mode.c **** 
 377:..\..\src/mode.c **** 	int pageFound = 0;
 840              		.loc 1 377 0
 841 025c 0023     		movs	r3, #0
 842 025e 3B63     		str	r3, [r7, #48]
 378:..\..\src/mode.c **** 
 379:..\..\src/mode.c **** 	if (scsiDev.target->cfg->modePages[1] != 0)
 843              		.loc 1 379 0
 844 0260 264B     		ldr	r3, .L73
 845 0262 1B6E     		ldr	r3, [r3, #96]
 846 0264 5B68     		ldr	r3, [r3, #4]
 847 0266 93F80134 		ldrb	r3, [r3, #1025]	@ zero_extendqisi2
 848 026a 002B     		cmp	r3, #0
 849 026c 0BD0     		beq	.L37
 380:..\..\src/mode.c **** 	{
 381:..\..\src/mode.c **** 		pageFound = useCustomPages(scsiDev.target->cfg, pc, pageCode, &idx);
 850              		.loc 1 381 0
 851 026e 234B     		ldr	r3, .L73
 852 0270 1B6E     		ldr	r3, [r3, #96]
 853 0272 5868     		ldr	r0, [r3, #4]
ARM GAS  C:\Users\r\AppData\Local\Temp\cc0NugVx.s 			page 23


 854 0274 07F12003 		add	r3, r7, #32
 855 0278 3A68     		ldr	r2, [r7]
 856 027a 7968     		ldr	r1, [r7, #4]
 857 027c FFF7FEFF 		bl	useCustomPages
 858 0280 3863     		str	r0, [r7, #48]
 382:..\..\src/mode.c **** 		pageCode = 0xFF; // dodgy, skip rest of logic
 859              		.loc 1 382 0
 860 0282 FF23     		movs	r3, #255
 861 0284 3B60     		str	r3, [r7]
 862              	.L37:
 383:..\..\src/mode.c **** 	}
 384:..\..\src/mode.c **** 
 385:..\..\src/mode.c **** 	if (pageCode == 0x01 || pageCode == 0x3F)
 863              		.loc 1 385 0
 864 0286 3B68     		ldr	r3, [r7]
 865 0288 012B     		cmp	r3, #1
 866 028a 02D0     		beq	.L38
 867              		.loc 1 385 0 is_stmt 0 discriminator 1
 868 028c 3B68     		ldr	r3, [r7]
 869 028e 3F2B     		cmp	r3, #63
 870 0290 1BD1     		bne	.L39
 871              	.L38:
 386:..\..\src/mode.c **** 	{
 387:..\..\src/mode.c **** 		pageFound = 1;
 872              		.loc 1 387 0 is_stmt 1
 873 0292 0123     		movs	r3, #1
 874 0294 3B63     		str	r3, [r7, #48]
 388:..\..\src/mode.c **** 		if ((scsiDev.compatMode >= COMPAT_SCSI2))
 875              		.loc 1 388 0
 876 0296 194B     		ldr	r3, .L73
 877 0298 03F58343 		add	r3, r3, #16768
 878 029c 1733     		adds	r3, r3, #23
 879 029e 1B78     		ldrb	r3, [r3]	@ zero_extendqisi2
 880 02a0 022B     		cmp	r3, #2
 881 02a2 09D9     		bls	.L40
 389:..\..\src/mode.c **** 		{
 390:..\..\src/mode.c **** 			pageIn(pc, idx, ReadWriteErrorRecoveryPage, sizeof(ReadWriteErrorRecoveryPage));
 882              		.loc 1 390 0
 883 02a4 396A     		ldr	r1, [r7, #32]
 884 02a6 0C23     		movs	r3, #12
 885 02a8 164A     		ldr	r2, .L73+8
 886 02aa 7868     		ldr	r0, [r7, #4]
 887 02ac FFF7FEFF 		bl	pageIn
 391:..\..\src/mode.c **** 			idx += sizeof(ReadWriteErrorRecoveryPage);
 888              		.loc 1 391 0
 889 02b0 3B6A     		ldr	r3, [r7, #32]
 890 02b2 0C33     		adds	r3, r3, #12
 891 02b4 3B62     		str	r3, [r7, #32]
 892 02b6 08E0     		b	.L39
 893              	.L40:
 392:..\..\src/mode.c **** 		}
 393:..\..\src/mode.c **** 		else
 394:..\..\src/mode.c **** 		{
 395:..\..\src/mode.c **** 			pageIn(pc, idx, ReadWriteErrorRecoveryPage_SCSI1, sizeof(ReadWriteErrorRecoveryPage_SCSI1));
 894              		.loc 1 395 0
 895 02b8 396A     		ldr	r1, [r7, #32]
 896 02ba 0823     		movs	r3, #8
ARM GAS  C:\Users\r\AppData\Local\Temp\cc0NugVx.s 			page 24


 897 02bc 124A     		ldr	r2, .L73+12
 898 02be 7868     		ldr	r0, [r7, #4]
 899 02c0 FFF7FEFF 		bl	pageIn
 396:..\..\src/mode.c **** 			idx += sizeof(ReadWriteErrorRecoveryPage_SCSI1);
 900              		.loc 1 396 0
 901 02c4 3B6A     		ldr	r3, [r7, #32]
 902 02c6 0833     		adds	r3, r3, #8
 903 02c8 3B62     		str	r3, [r7, #32]
 904              	.L39:
 397:..\..\src/mode.c **** 		}
 398:..\..\src/mode.c **** 	}
 399:..\..\src/mode.c **** 
 400:..\..\src/mode.c **** 	if (pageCode == 0x02 || pageCode == 0x3F)
 905              		.loc 1 400 0
 906 02ca 3B68     		ldr	r3, [r7]
 907 02cc 022B     		cmp	r3, #2
 908 02ce 02D0     		beq	.L41
 909              		.loc 1 400 0 is_stmt 0 discriminator 1
 910 02d0 3B68     		ldr	r3, [r7]
 911 02d2 3F2B     		cmp	r3, #63
 912 02d4 25D1     		bne	.L42
 913              	.L41:
 401:..\..\src/mode.c **** 	{
 402:..\..\src/mode.c **** 		pageFound = 1;
 914              		.loc 1 402 0 is_stmt 1
 915 02d6 0123     		movs	r3, #1
 916 02d8 3B63     		str	r3, [r7, #48]
 403:..\..\src/mode.c **** 		if ((scsiDev.compatMode >= COMPAT_SCSI2))
 917              		.loc 1 403 0
 918 02da 084B     		ldr	r3, .L73
 919 02dc 03F58343 		add	r3, r3, #16768
 920 02e0 1733     		adds	r3, r3, #23
 921 02e2 1B78     		ldrb	r3, [r3]	@ zero_extendqisi2
 922 02e4 022B     		cmp	r3, #2
 923 02e6 13D9     		bls	.L43
 404:..\..\src/mode.c **** 		{
 405:..\..\src/mode.c **** 			pageIn(pc, idx, DisconnectReconnectPage, sizeof(DisconnectReconnectPage));
 924              		.loc 1 405 0
 925 02e8 396A     		ldr	r1, [r7, #32]
 926 02ea 1023     		movs	r3, #16
 927 02ec 074A     		ldr	r2, .L73+16
 928 02ee 7868     		ldr	r0, [r7, #4]
 929 02f0 FFF7FEFF 		bl	pageIn
 406:..\..\src/mode.c **** 			idx += sizeof(DisconnectReconnectPage);
 930              		.loc 1 406 0
 931 02f4 3B6A     		ldr	r3, [r7, #32]
 932 02f6 1033     		adds	r3, r3, #16
 933 02f8 3B62     		str	r3, [r7, #32]
 934 02fa 12E0     		b	.L42
 935              	.L74:
 936              		.align	2
 937              	.L73:
 938 02fc 00000000 		.word	scsiDev
 939 0300 00000000 		.word	blockDev
 940 0304 04000000 		.word	ReadWriteErrorRecoveryPage
 941 0308 10000000 		.word	ReadWriteErrorRecoveryPage_SCSI1
 942 030c 18000000 		.word	DisconnectReconnectPage
ARM GAS  C:\Users\r\AppData\Local\Temp\cc0NugVx.s 			page 25


 943              	.L43:
 407:..\..\src/mode.c **** 		}
 408:..\..\src/mode.c **** 		else
 409:..\..\src/mode.c **** 		{
 410:..\..\src/mode.c **** 			pageIn(pc, idx, DisconnectReconnectPage_SCSI1, sizeof(DisconnectReconnectPage_SCSI1));
 944              		.loc 1 410 0
 945 0310 396A     		ldr	r1, [r7, #32]
 946 0312 0C23     		movs	r3, #12
 947 0314 7D4A     		ldr	r2, .L75
 948 0316 7868     		ldr	r0, [r7, #4]
 949 0318 FFF7FEFF 		bl	pageIn
 411:..\..\src/mode.c **** 			idx += sizeof(DisconnectReconnectPage_SCSI1);
 950              		.loc 1 411 0
 951 031c 3B6A     		ldr	r3, [r7, #32]
 952 031e 0C33     		adds	r3, r3, #12
 953 0320 3B62     		str	r3, [r7, #32]
 954              	.L42:
 412:..\..\src/mode.c **** 		}
 413:..\..\src/mode.c **** 	}
 414:..\..\src/mode.c **** 
 415:..\..\src/mode.c **** 	if (pageCode == 0x03 || pageCode == 0x3F)
 955              		.loc 1 415 0
 956 0322 3B68     		ldr	r3, [r7]
 957 0324 032B     		cmp	r3, #3
 958 0326 02D0     		beq	.L44
 959              		.loc 1 415 0 is_stmt 0 discriminator 1
 960 0328 3B68     		ldr	r3, [r7]
 961 032a 3F2B     		cmp	r3, #63
 962 032c 4FD1     		bne	.L45
 963              	.L44:
 416:..\..\src/mode.c **** 	{
 417:..\..\src/mode.c **** 		pageFound = 1;
 964              		.loc 1 417 0 is_stmt 1
 965 032e 0123     		movs	r3, #1
 966 0330 3B63     		str	r3, [r7, #48]
 418:..\..\src/mode.c **** 		pageIn(pc, idx, FormatDevicePage, sizeof(FormatDevicePage));
 967              		.loc 1 418 0
 968 0332 396A     		ldr	r1, [r7, #32]
 969 0334 1823     		movs	r3, #24
 970 0336 764A     		ldr	r2, .L75+4
 971 0338 7868     		ldr	r0, [r7, #4]
 972 033a FFF7FEFF 		bl	pageIn
 419:..\..\src/mode.c **** 		if (pc != 0x01)
 973              		.loc 1 419 0
 974 033e 7B68     		ldr	r3, [r7, #4]
 975 0340 012B     		cmp	r3, #1
 976 0342 33D0     		beq	.L46
 977              	.LBB5:
 420:..\..\src/mode.c **** 		{
 421:..\..\src/mode.c **** 			uint16_t sectorsPerTrack = scsiDev.target->cfg->sectorsPerTrack;
 978              		.loc 1 421 0
 979 0344 734B     		ldr	r3, .L75+8
 980 0346 1B6E     		ldr	r3, [r3, #96]
 981 0348 5B68     		ldr	r3, [r3, #4]
 982 034a 9A7B     		ldrb	r2, [r3, #14]	@ zero_extendqisi2
 983 034c DB7B     		ldrb	r3, [r3, #15]	@ zero_extendqisi2
 984 034e 1B02     		lsls	r3, r3, #8
ARM GAS  C:\Users\r\AppData\Local\Temp\cc0NugVx.s 			page 26


 985 0350 1343     		orrs	r3, r3, r2
 986 0352 7B85     		strh	r3, [r7, #42]	@ movhi
 422:..\..\src/mode.c **** 			scsiDev.data[idx+10] = sectorsPerTrack >> 8;
 987              		.loc 1 422 0
 988 0354 3B6A     		ldr	r3, [r7, #32]
 989 0356 0A33     		adds	r3, r3, #10
 990 0358 7A8D     		ldrh	r2, [r7, #42]
 991 035a 120A     		lsrs	r2, r2, #8
 992 035c 92B2     		uxth	r2, r2
 993 035e D1B2     		uxtb	r1, r2
 994 0360 6C4A     		ldr	r2, .L75+8
 995 0362 1344     		add	r3, r3, r2
 996 0364 0A46     		mov	r2, r1
 997 0366 83F87C21 		strb	r2, [r3, #380]
 423:..\..\src/mode.c **** 			scsiDev.data[idx+11] = sectorsPerTrack & 0xFF;
 998              		.loc 1 423 0
 999 036a 3B6A     		ldr	r3, [r7, #32]
 1000 036c 0B33     		adds	r3, r3, #11
 1001 036e 7A8D     		ldrh	r2, [r7, #42]	@ movhi
 1002 0370 D1B2     		uxtb	r1, r2
 1003 0372 684A     		ldr	r2, .L75+8
 1004 0374 1344     		add	r3, r3, r2
 1005 0376 0A46     		mov	r2, r1
 1006 0378 83F87C21 		strb	r2, [r3, #380]
 424:..\..\src/mode.c **** 
 425:..\..\src/mode.c **** 			// Fill out the configured bytes-per-sector
 426:..\..\src/mode.c **** 			uint32_t bytesPerSector = scsiDev.target->liveCfg.bytesPerSector;
 1007              		.loc 1 426 0
 1008 037c 654B     		ldr	r3, .L75+8
 1009 037e 1B6E     		ldr	r3, [r3, #96]
 1010 0380 1B89     		ldrh	r3, [r3, #8]
 1011 0382 7B62     		str	r3, [r7, #36]
 427:..\..\src/mode.c **** 			scsiDev.data[idx+12] = bytesPerSector >> 8;
 1012              		.loc 1 427 0
 1013 0384 3B6A     		ldr	r3, [r7, #32]
 1014 0386 0C33     		adds	r3, r3, #12
 1015 0388 7A6A     		ldr	r2, [r7, #36]
 1016 038a 120A     		lsrs	r2, r2, #8
 1017 038c D1B2     		uxtb	r1, r2
 1018 038e 614A     		ldr	r2, .L75+8
 1019 0390 1344     		add	r3, r3, r2
 1020 0392 0A46     		mov	r2, r1
 1021 0394 83F87C21 		strb	r2, [r3, #380]
 428:..\..\src/mode.c **** 			scsiDev.data[idx+13] = bytesPerSector & 0xFF;
 1022              		.loc 1 428 0
 1023 0398 3B6A     		ldr	r3, [r7, #32]
 1024 039a 0D33     		adds	r3, r3, #13
 1025 039c 7A6A     		ldr	r2, [r7, #36]
 1026 039e D1B2     		uxtb	r1, r2
 1027 03a0 5C4A     		ldr	r2, .L75+8
 1028 03a2 1344     		add	r3, r3, r2
 1029 03a4 0A46     		mov	r2, r1
 1030 03a6 83F87C21 		strb	r2, [r3, #380]
 1031              	.LBE5:
 1032 03aa 0DE0     		b	.L47
 1033              	.L46:
 429:..\..\src/mode.c **** 		}
ARM GAS  C:\Users\r\AppData\Local\Temp\cc0NugVx.s 			page 27


 430:..\..\src/mode.c **** 		else
 431:..\..\src/mode.c **** 		{
 432:..\..\src/mode.c **** 			// Set a mask for the changeable values.
 433:..\..\src/mode.c **** 			scsiDev.data[idx+12] = 0xFF;
 1034              		.loc 1 433 0
 1035 03ac 3B6A     		ldr	r3, [r7, #32]
 1036 03ae 0C33     		adds	r3, r3, #12
 1037 03b0 584A     		ldr	r2, .L75+8
 1038 03b2 1344     		add	r3, r3, r2
 1039 03b4 FF22     		movs	r2, #255
 1040 03b6 83F87C21 		strb	r2, [r3, #380]
 434:..\..\src/mode.c **** 			scsiDev.data[idx+13] = 0xFF;
 1041              		.loc 1 434 0
 1042 03ba 3B6A     		ldr	r3, [r7, #32]
 1043 03bc 0D33     		adds	r3, r3, #13
 1044 03be 554A     		ldr	r2, .L75+8
 1045 03c0 1344     		add	r3, r3, r2
 1046 03c2 FF22     		movs	r2, #255
 1047 03c4 83F87C21 		strb	r2, [r3, #380]
 1048              	.L47:
 435:..\..\src/mode.c **** 		}
 436:..\..\src/mode.c **** 
 437:..\..\src/mode.c **** 		idx += sizeof(FormatDevicePage);
 1049              		.loc 1 437 0
 1050 03c8 3B6A     		ldr	r3, [r7, #32]
 1051 03ca 1833     		adds	r3, r3, #24
 1052 03cc 3B62     		str	r3, [r7, #32]
 1053              	.L45:
 438:..\..\src/mode.c **** 	}
 439:..\..\src/mode.c **** 
 440:..\..\src/mode.c **** 	if (pageCode == 0x04 || pageCode == 0x3F)
 1054              		.loc 1 440 0
 1055 03ce 3B68     		ldr	r3, [r7]
 1056 03d0 042B     		cmp	r3, #4
 1057 03d2 03D0     		beq	.L48
 1058              		.loc 1 440 0 is_stmt 0 discriminator 1
 1059 03d4 3B68     		ldr	r3, [r7]
 1060 03d6 3F2B     		cmp	r3, #63
 1061 03d8 40F0A580 		bne	.L49
 1062              	.L48:
 441:..\..\src/mode.c **** 	{
 442:..\..\src/mode.c **** 		pageFound = 1;
 1063              		.loc 1 442 0 is_stmt 1
 1064 03dc 0123     		movs	r3, #1
 1065 03de 3B63     		str	r3, [r7, #48]
 443:..\..\src/mode.c **** 		if ((scsiDev.compatMode >= COMPAT_SCSI2))
 1066              		.loc 1 443 0
 1067 03e0 4C4B     		ldr	r3, .L75+8
 1068 03e2 03F58343 		add	r3, r3, #16768
 1069 03e6 1733     		adds	r3, r3, #23
 1070 03e8 1B78     		ldrb	r3, [r3]	@ zero_extendqisi2
 1071 03ea 022B     		cmp	r3, #2
 1072 03ec 06D9     		bls	.L50
 444:..\..\src/mode.c **** 		{
 445:..\..\src/mode.c **** 			pageIn(pc, idx, RigidDiskDriveGeometry, sizeof(RigidDiskDriveGeometry));
 1073              		.loc 1 445 0
 1074 03ee 396A     		ldr	r1, [r7, #32]
ARM GAS  C:\Users\r\AppData\Local\Temp\cc0NugVx.s 			page 28


 1075 03f0 1823     		movs	r3, #24
 1076 03f2 494A     		ldr	r2, .L75+12
 1077 03f4 7868     		ldr	r0, [r7, #4]
 1078 03f6 FFF7FEFF 		bl	pageIn
 1079 03fa 05E0     		b	.L51
 1080              	.L50:
 446:..\..\src/mode.c **** 		}
 447:..\..\src/mode.c **** 		else
 448:..\..\src/mode.c **** 		{
 449:..\..\src/mode.c **** 			pageIn(pc, idx, RigidDiskDriveGeometry_SCSI1, sizeof(RigidDiskDriveGeometry_SCSI1));
 1081              		.loc 1 449 0
 1082 03fc 396A     		ldr	r1, [r7, #32]
 1083 03fe 1423     		movs	r3, #20
 1084 0400 464A     		ldr	r2, .L75+16
 1085 0402 7868     		ldr	r0, [r7, #4]
 1086 0404 FFF7FEFF 		bl	pageIn
 1087              	.L51:
 450:..\..\src/mode.c **** 		}
 451:..\..\src/mode.c **** 
 452:..\..\src/mode.c **** 		if (pc != 0x01)
 1088              		.loc 1 452 0
 1089 0408 7B68     		ldr	r3, [r7, #4]
 1090 040a 012B     		cmp	r3, #1
 1091 040c 73D0     		beq	.L52
 1092              	.LBB6:
 453:..\..\src/mode.c **** 		{
 454:..\..\src/mode.c **** 			// Need to fill out the number of cylinders.
 455:..\..\src/mode.c **** 			uint32 cyl;
 456:..\..\src/mode.c **** 			uint8 head;
 457:..\..\src/mode.c **** 			uint32 sector;
 458:..\..\src/mode.c **** 			LBA2CHS(
 459:..\..\src/mode.c **** 				getScsiCapacity(
 460:..\..\src/mode.c **** 					scsiDev.target->cfg->sdSectorStart,
 1093              		.loc 1 460 0
 1094 040e 414B     		ldr	r3, .L75+8
 1095 0410 1B6E     		ldr	r3, [r3, #96]
 1096 0412 5B68     		ldr	r3, [r3, #4]
 458:..\..\src/mode.c **** 				getScsiCapacity(
 1097              		.loc 1 458 0
 1098 0414 5868     		ldr	r0, [r3, #4]	@ unaligned
 461:..\..\src/mode.c **** 					scsiDev.target->liveCfg.bytesPerSector,
 1099              		.loc 1 461 0
 1100 0416 3F4B     		ldr	r3, .L75+8
 1101 0418 1B6E     		ldr	r3, [r3, #96]
 458:..\..\src/mode.c **** 				getScsiCapacity(
 1102              		.loc 1 458 0
 1103 041a 1989     		ldrh	r1, [r3, #8]
 462:..\..\src/mode.c **** 					scsiDev.target->cfg->scsiSectors),
 1104              		.loc 1 462 0
 1105 041c 3D4B     		ldr	r3, .L75+8
 1106 041e 1B6E     		ldr	r3, [r3, #96]
 1107 0420 5B68     		ldr	r3, [r3, #4]
 458:..\..\src/mode.c **** 				getScsiCapacity(
 1108              		.loc 1 458 0
 1109 0422 9B68     		ldr	r3, [r3, #8]	@ unaligned
 1110 0424 1A46     		mov	r2, r3
 1111 0426 FFF7FEFF 		bl	getScsiCapacity
ARM GAS  C:\Users\r\AppData\Local\Temp\cc0NugVx.s 			page 29


 1112 042a 0546     		mov	r5, r0
 463:..\..\src/mode.c **** 				&cyl,
 464:..\..\src/mode.c **** 				&head,
 465:..\..\src/mode.c **** 				&sector,
 466:..\..\src/mode.c **** 				scsiDev.target->cfg->headsPerCylinder,
 1113              		.loc 1 466 0
 1114 042c 394B     		ldr	r3, .L75+8
 1115 042e 1B6E     		ldr	r3, [r3, #96]
 1116 0430 5B68     		ldr	r3, [r3, #4]
 458:..\..\src/mode.c **** 				getScsiCapacity(
 1117              		.loc 1 458 0
 1118 0432 1B8A     		ldrh	r3, [r3, #16]	@ unaligned
 1119 0434 9BB2     		uxth	r3, r3
 467:..\..\src/mode.c **** 				scsiDev.target->cfg->sectorsPerTrack);
 1120              		.loc 1 467 0
 1121 0436 374A     		ldr	r2, .L75+8
 1122 0438 126E     		ldr	r2, [r2, #96]
 1123 043a 5268     		ldr	r2, [r2, #4]
 458:..\..\src/mode.c **** 				getScsiCapacity(
 1124              		.loc 1 458 0
 1125 043c D289     		ldrh	r2, [r2, #14]	@ unaligned
 1126 043e 92B2     		uxth	r2, r2
 1127 0440 07F11404 		add	r4, r7, #20
 1128 0444 07F11B00 		add	r0, r7, #27
 1129 0448 07F11C01 		add	r1, r7, #28
 1130 044c 0192     		str	r2, [sp, #4]
 1131 044e 0093     		str	r3, [sp]
 1132 0450 2346     		mov	r3, r4
 1133 0452 0246     		mov	r2, r0
 1134 0454 2846     		mov	r0, r5
 1135 0456 FFF7FEFF 		bl	LBA2CHS
 468:..\..\src/mode.c **** 
 469:..\..\src/mode.c **** 			scsiDev.data[idx+2] = cyl >> 16;
 1136              		.loc 1 469 0
 1137 045a 3B6A     		ldr	r3, [r7, #32]
 1138 045c 0233     		adds	r3, r3, #2
 1139 045e FA69     		ldr	r2, [r7, #28]
 1140 0460 120C     		lsrs	r2, r2, #16
 1141 0462 D1B2     		uxtb	r1, r2
 1142 0464 2B4A     		ldr	r2, .L75+8
 1143 0466 1344     		add	r3, r3, r2
 1144 0468 0A46     		mov	r2, r1
 1145 046a 83F87C21 		strb	r2, [r3, #380]
 470:..\..\src/mode.c **** 			scsiDev.data[idx+3] = cyl >> 8;
 1146              		.loc 1 470 0
 1147 046e 3B6A     		ldr	r3, [r7, #32]
 1148 0470 0333     		adds	r3, r3, #3
 1149 0472 FA69     		ldr	r2, [r7, #28]
 1150 0474 120A     		lsrs	r2, r2, #8
 1151 0476 D1B2     		uxtb	r1, r2
 1152 0478 264A     		ldr	r2, .L75+8
 1153 047a 1344     		add	r3, r3, r2
 1154 047c 0A46     		mov	r2, r1
 1155 047e 83F87C21 		strb	r2, [r3, #380]
 471:..\..\src/mode.c **** 			scsiDev.data[idx+4] = cyl;
 1156              		.loc 1 471 0
 1157 0482 3B6A     		ldr	r3, [r7, #32]
ARM GAS  C:\Users\r\AppData\Local\Temp\cc0NugVx.s 			page 30


 1158 0484 0433     		adds	r3, r3, #4
 1159 0486 FA69     		ldr	r2, [r7, #28]
 1160 0488 D1B2     		uxtb	r1, r2
 1161 048a 224A     		ldr	r2, .L75+8
 1162 048c 1344     		add	r3, r3, r2
 1163 048e 0A46     		mov	r2, r1
 1164 0490 83F87C21 		strb	r2, [r3, #380]
 472:..\..\src/mode.c **** 
 473:..\..\src/mode.c **** 			memcpy(&scsiDev.data[idx+6], &scsiDev.data[idx+2], 3);
 1165              		.loc 1 473 0
 1166 0494 3B6A     		ldr	r3, [r7, #32]
 1167 0496 0633     		adds	r3, r3, #6
 1168 0498 03F5BC73 		add	r3, r3, #376
 1169 049c 1D4A     		ldr	r2, .L75+8
 1170 049e 1344     		add	r3, r3, r2
 1171 04a0 181D     		adds	r0, r3, #4
 1172 04a2 3B6A     		ldr	r3, [r7, #32]
 1173 04a4 0233     		adds	r3, r3, #2
 1174 04a6 03F5BC73 		add	r3, r3, #376
 1175 04aa 1A4A     		ldr	r2, .L75+8
 1176 04ac 1344     		add	r3, r3, r2
 1177 04ae 0433     		adds	r3, r3, #4
 1178 04b0 0322     		movs	r2, #3
 1179 04b2 1946     		mov	r1, r3
 1180 04b4 FFF7FEFF 		bl	memcpy
 474:..\..\src/mode.c **** 			memcpy(&scsiDev.data[idx+9], &scsiDev.data[idx+2], 3);
 1181              		.loc 1 474 0
 1182 04b8 3B6A     		ldr	r3, [r7, #32]
 1183 04ba 0933     		adds	r3, r3, #9
 1184 04bc 03F5BC73 		add	r3, r3, #376
 1185 04c0 144A     		ldr	r2, .L75+8
 1186 04c2 1344     		add	r3, r3, r2
 1187 04c4 181D     		adds	r0, r3, #4
 1188 04c6 3B6A     		ldr	r3, [r7, #32]
 1189 04c8 0233     		adds	r3, r3, #2
 1190 04ca 03F5BC73 		add	r3, r3, #376
 1191 04ce 114A     		ldr	r2, .L75+8
 1192 04d0 1344     		add	r3, r3, r2
 1193 04d2 0433     		adds	r3, r3, #4
 1194 04d4 0322     		movs	r2, #3
 1195 04d6 1946     		mov	r1, r3
 1196 04d8 FFF7FEFF 		bl	memcpy
 475:..\..\src/mode.c **** 
 476:..\..\src/mode.c **** 			scsiDev.data[idx+5] = scsiDev.target->cfg->headsPerCylinder;
 1197              		.loc 1 476 0
 1198 04dc 3B6A     		ldr	r3, [r7, #32]
 1199 04de 0533     		adds	r3, r3, #5
 1200 04e0 0C4A     		ldr	r2, .L75+8
 1201 04e2 126E     		ldr	r2, [r2, #96]
 1202 04e4 5268     		ldr	r2, [r2, #4]
 1203 04e6 128A     		ldrh	r2, [r2, #16]	@ unaligned
 1204 04e8 92B2     		uxth	r2, r2
 1205 04ea D1B2     		uxtb	r1, r2
 1206 04ec 094A     		ldr	r2, .L75+8
 1207 04ee 1344     		add	r3, r3, r2
 1208 04f0 0A46     		mov	r2, r1
 1209 04f2 83F87C21 		strb	r2, [r3, #380]
ARM GAS  C:\Users\r\AppData\Local\Temp\cc0NugVx.s 			page 31


 1210              	.L52:
 1211              	.LBE6:
 477:..\..\src/mode.c **** 		}
 478:..\..\src/mode.c **** 
 479:..\..\src/mode.c **** 		if ((scsiDev.compatMode >= COMPAT_SCSI2))
 1212              		.loc 1 479 0
 1213 04f6 074B     		ldr	r3, .L75+8
 1214 04f8 03F58343 		add	r3, r3, #16768
 1215 04fc 1733     		adds	r3, r3, #23
 1216 04fe 1B78     		ldrb	r3, [r3]	@ zero_extendqisi2
 1217 0500 022B     		cmp	r3, #2
 1218 0502 0DD9     		bls	.L53
 480:..\..\src/mode.c **** 		{
 481:..\..\src/mode.c **** 			idx += sizeof(RigidDiskDriveGeometry);
 1219              		.loc 1 481 0
 1220 0504 3B6A     		ldr	r3, [r7, #32]
 1221 0506 1833     		adds	r3, r3, #24
 1222 0508 3B62     		str	r3, [r7, #32]
 1223 050a 0CE0     		b	.L49
 1224              	.L76:
 1225              		.align	2
 1226              	.L75:
 1227 050c 28000000 		.word	DisconnectReconnectPage_SCSI1
 1228 0510 34000000 		.word	FormatDevicePage
 1229 0514 00000000 		.word	scsiDev
 1230 0518 4C000000 		.word	RigidDiskDriveGeometry
 1231 051c 84000000 		.word	RigidDiskDriveGeometry_SCSI1
 1232              	.L53:
 482:..\..\src/mode.c **** 		}
 483:..\..\src/mode.c **** 		else
 484:..\..\src/mode.c **** 		{
 485:..\..\src/mode.c **** 			idx += sizeof(RigidDiskDriveGeometry_SCSI1);
 1233              		.loc 1 485 0
 1234 0520 3B6A     		ldr	r3, [r7, #32]
 1235 0522 1433     		adds	r3, r3, #20
 1236 0524 3B62     		str	r3, [r7, #32]
 1237              	.L49:
 486:..\..\src/mode.c **** 		}
 487:..\..\src/mode.c **** 	}
 488:..\..\src/mode.c **** 
 489:..\..\src/mode.c ****     if (pageCode == 0x05 || pageCode == 0x3F)
 1238              		.loc 1 489 0
 1239 0526 3B68     		ldr	r3, [r7]
 1240 0528 052B     		cmp	r3, #5
 1241 052a 02D0     		beq	.L54
 1242              		.loc 1 489 0 is_stmt 0 discriminator 1
 1243 052c 3B68     		ldr	r3, [r7]
 1244 052e 3F2B     		cmp	r3, #63
 1245 0530 0AD1     		bne	.L55
 1246              	.L54:
 490:..\..\src/mode.c ****     {
 491:..\..\src/mode.c ****         pageFound = 1;
 1247              		.loc 1 491 0 is_stmt 1
 1248 0532 0123     		movs	r3, #1
 1249 0534 3B63     		str	r3, [r7, #48]
 492:..\..\src/mode.c ****         pageIn(pc, idx, FlexibleDiskDriveGeometry, sizeof(FlexibleDiskDriveGeometry));
 1250              		.loc 1 492 0
ARM GAS  C:\Users\r\AppData\Local\Temp\cc0NugVx.s 			page 32


 1251 0536 396A     		ldr	r1, [r7, #32]
 1252 0538 2023     		movs	r3, #32
 1253 053a 6B4A     		ldr	r2, .L77
 1254 053c 7868     		ldr	r0, [r7, #4]
 1255 053e FFF7FEFF 		bl	pageIn
 493:..\..\src/mode.c ****         idx += sizeof(FlexibleDiskDriveGeometry);
 1256              		.loc 1 493 0
 1257 0542 3B6A     		ldr	r3, [r7, #32]
 1258 0544 2033     		adds	r3, r3, #32
 1259 0546 3B62     		str	r3, [r7, #32]
 1260              	.L55:
 494:..\..\src/mode.c ****     }
 495:..\..\src/mode.c **** 
 496:..\..\src/mode.c **** 	// DON'T output the following pages for SCSI1 hosts. They get upset when
 497:..\..\src/mode.c **** 	// we have more data to send than the allocation length provided.
 498:..\..\src/mode.c **** 	// (ie. Try not to output any more pages below this comment)
 499:..\..\src/mode.c **** 
 500:..\..\src/mode.c **** 
 501:..\..\src/mode.c **** 	if ((scsiDev.compatMode >= COMPAT_SCSI2) &&
 1261              		.loc 1 501 0
 1262 0548 684B     		ldr	r3, .L77+4
 1263 054a 03F58343 		add	r3, r3, #16768
 1264 054e 1733     		adds	r3, r3, #23
 1265 0550 1B78     		ldrb	r3, [r3]	@ zero_extendqisi2
 1266 0552 022B     		cmp	r3, #2
 1267 0554 10D9     		bls	.L56
 1268              		.loc 1 501 0 is_stmt 0 discriminator 1
 1269 0556 3B68     		ldr	r3, [r7]
 1270 0558 082B     		cmp	r3, #8
 1271 055a 02D0     		beq	.L57
 502:..\..\src/mode.c **** 		(pageCode == 0x08 || pageCode == 0x3F))
 1272              		.loc 1 502 0 is_stmt 1
 1273 055c 3B68     		ldr	r3, [r7]
 1274 055e 3F2B     		cmp	r3, #63
 1275 0560 0AD1     		bne	.L56
 1276              	.L57:
 503:..\..\src/mode.c **** 	{
 504:..\..\src/mode.c **** 		pageFound = 1;
 1277              		.loc 1 504 0
 1278 0562 0123     		movs	r3, #1
 1279 0564 3B63     		str	r3, [r7, #48]
 505:..\..\src/mode.c **** 		pageIn(pc, idx, CachingPage, sizeof(CachingPage));
 1280              		.loc 1 505 0
 1281 0566 396A     		ldr	r1, [r7, #32]
 1282 0568 0C23     		movs	r3, #12
 1283 056a 614A     		ldr	r2, .L77+8
 1284 056c 7868     		ldr	r0, [r7, #4]
 1285 056e FFF7FEFF 		bl	pageIn
 506:..\..\src/mode.c **** 		idx += sizeof(CachingPage);
 1286              		.loc 1 506 0
 1287 0572 3B6A     		ldr	r3, [r7, #32]
 1288 0574 0C33     		adds	r3, r3, #12
 1289 0576 3B62     		str	r3, [r7, #32]
 1290              	.L56:
 507:..\..\src/mode.c **** 	}
 508:..\..\src/mode.c **** 
 509:..\..\src/mode.c **** 	if ((scsiDev.compatMode >= COMPAT_SCSI2)
ARM GAS  C:\Users\r\AppData\Local\Temp\cc0NugVx.s 			page 33


 1291              		.loc 1 509 0
 1292 0578 5C4B     		ldr	r3, .L77+4
 1293 057a 03F58343 		add	r3, r3, #16768
 1294 057e 1733     		adds	r3, r3, #23
 1295 0580 1B78     		ldrb	r3, [r3]	@ zero_extendqisi2
 1296 0582 022B     		cmp	r3, #2
 1297 0584 10D9     		bls	.L58
 510:..\..\src/mode.c **** 		&& (pageCode == 0x0A || pageCode == 0x3F))
 1298              		.loc 1 510 0
 1299 0586 3B68     		ldr	r3, [r7]
 1300 0588 0A2B     		cmp	r3, #10
 1301 058a 02D0     		beq	.L59
 1302              		.loc 1 510 0 is_stmt 0 discriminator 1
 1303 058c 3B68     		ldr	r3, [r7]
 1304 058e 3F2B     		cmp	r3, #63
 1305 0590 0AD1     		bne	.L58
 1306              	.L59:
 511:..\..\src/mode.c **** 	{
 512:..\..\src/mode.c **** 		pageFound = 1;
 1307              		.loc 1 512 0 is_stmt 1
 1308 0592 0123     		movs	r3, #1
 1309 0594 3B63     		str	r3, [r7, #48]
 513:..\..\src/mode.c **** 		pageIn(pc, idx, ControlModePage, sizeof(ControlModePage));
 1310              		.loc 1 513 0
 1311 0596 396A     		ldr	r1, [r7, #32]
 1312 0598 0823     		movs	r3, #8
 1313 059a 564A     		ldr	r2, .L77+12
 1314 059c 7868     		ldr	r0, [r7, #4]
 1315 059e FFF7FEFF 		bl	pageIn
 514:..\..\src/mode.c **** 		idx += sizeof(ControlModePage);
 1316              		.loc 1 514 0
 1317 05a2 3B6A     		ldr	r3, [r7, #32]
 1318 05a4 0833     		adds	r3, r3, #8
 1319 05a6 3B62     		str	r3, [r7, #32]
 1320              	.L58:
 515:..\..\src/mode.c **** 	}
 516:..\..\src/mode.c **** 
 517:..\..\src/mode.c **** 	if ((scsiDev.target->cfg->deviceType == CONFIG_SEQUENTIAL) &&
 1321              		.loc 1 517 0
 1322 05a8 504B     		ldr	r3, .L77+4
 1323 05aa 1B6E     		ldr	r3, [r3, #96]
 1324 05ac 5B68     		ldr	r3, [r3, #4]
 1325 05ae 5B78     		ldrb	r3, [r3, #1]	@ zero_extendqisi2
 1326 05b0 052B     		cmp	r3, #5
 1327 05b2 10D1     		bne	.L60
 1328              		.loc 1 517 0 is_stmt 0 discriminator 1
 1329 05b4 3B68     		ldr	r3, [r7]
 1330 05b6 102B     		cmp	r3, #16
 1331 05b8 02D0     		beq	.L61
 518:..\..\src/mode.c **** 		(pageCode == 0x10 || pageCode == 0x3F))
 1332              		.loc 1 518 0 is_stmt 1
 1333 05ba 3B68     		ldr	r3, [r7]
 1334 05bc 3F2B     		cmp	r3, #63
 1335 05be 0AD1     		bne	.L60
 1336              	.L61:
 519:..\..\src/mode.c **** 	{
 520:..\..\src/mode.c **** 		pageFound = 1;
ARM GAS  C:\Users\r\AppData\Local\Temp\cc0NugVx.s 			page 34


 1337              		.loc 1 520 0
 1338 05c0 0123     		movs	r3, #1
 1339 05c2 3B63     		str	r3, [r7, #48]
 521:..\..\src/mode.c **** 		pageIn(
 1340              		.loc 1 521 0
 1341 05c4 396A     		ldr	r1, [r7, #32]
 1342 05c6 0F23     		movs	r3, #15
 1343 05c8 4B4A     		ldr	r2, .L77+16
 1344 05ca 7868     		ldr	r0, [r7, #4]
 1345 05cc FFF7FEFF 		bl	pageIn
 522:..\..\src/mode.c **** 			pc,
 523:..\..\src/mode.c **** 			idx,
 524:..\..\src/mode.c **** 			SequentialDeviceConfigPage,
 525:..\..\src/mode.c **** 			sizeof(SequentialDeviceConfigPage));
 526:..\..\src/mode.c **** 		idx += sizeof(SequentialDeviceConfigPage);
 1346              		.loc 1 526 0
 1347 05d0 3B6A     		ldr	r3, [r7, #32]
 1348 05d2 0F33     		adds	r3, r3, #15
 1349 05d4 3B62     		str	r3, [r7, #32]
 1350              	.L60:
 527:..\..\src/mode.c **** 	}
 528:..\..\src/mode.c **** 
 529:..\..\src/mode.c **** 	if ((
 530:..\..\src/mode.c **** 			(scsiDev.target->cfg->quirks == CONFIG_QUIRKS_APPLE)
 1351              		.loc 1 530 0
 1352 05d6 454B     		ldr	r3, .L77+4
 1353 05d8 1B6E     		ldr	r3, [r3, #96]
 1354 05da 5B68     		ldr	r3, [r3, #4]
 1355 05dc DB8F     		ldrh	r3, [r3, #62]	@ unaligned
 1356 05de 9BB2     		uxth	r3, r3
 529:..\..\src/mode.c **** 			(scsiDev.target->cfg->quirks == CONFIG_QUIRKS_APPLE)
 1357              		.loc 1 529 0
 1358 05e0 012B     		cmp	r3, #1
 1359 05e2 10D1     		bne	.L62
 531:..\..\src/mode.c **** 		) &&
 1360              		.loc 1 531 0
 1361 05e4 3B68     		ldr	r3, [r7]
 1362 05e6 302B     		cmp	r3, #48
 1363 05e8 02D0     		beq	.L63
 532:..\..\src/mode.c **** 		(pageCode == 0x30 || pageCode == 0x3F))
 1364              		.loc 1 532 0
 1365 05ea 3B68     		ldr	r3, [r7]
 1366 05ec 3F2B     		cmp	r3, #63
 1367 05ee 0AD1     		bne	.L62
 1368              	.L63:
 533:..\..\src/mode.c **** 	{
 534:..\..\src/mode.c **** 		pageFound = 1;
 1369              		.loc 1 534 0
 1370 05f0 0123     		movs	r3, #1
 1371 05f2 3B63     		str	r3, [r7, #48]
 535:..\..\src/mode.c **** 		pageIn(pc, idx, AppleVendorPage, sizeof(AppleVendorPage));
 1372              		.loc 1 535 0
 1373 05f4 396A     		ldr	r1, [r7, #32]
 1374 05f6 1E23     		movs	r3, #30
 1375 05f8 404A     		ldr	r2, .L77+20
 1376 05fa 7868     		ldr	r0, [r7, #4]
 1377 05fc FFF7FEFF 		bl	pageIn
ARM GAS  C:\Users\r\AppData\Local\Temp\cc0NugVx.s 			page 35


 536:..\..\src/mode.c **** 		idx += sizeof(AppleVendorPage);
 1378              		.loc 1 536 0
 1379 0600 3B6A     		ldr	r3, [r7, #32]
 1380 0602 1E33     		adds	r3, r3, #30
 1381 0604 3B62     		str	r3, [r7, #32]
 1382              	.L62:
 537:..\..\src/mode.c **** 	}
 538:..\..\src/mode.c ****        // SCSI 2 standard says page 0 is always last.
 539:..\..\src/mode.c ****        if (pageCode == 0x00 || pageCode == 0x3F)
 1383              		.loc 1 539 0
 1384 0606 3B68     		ldr	r3, [r7]
 1385 0608 002B     		cmp	r3, #0
 1386 060a 02D0     		beq	.L64
 1387              		.loc 1 539 0 is_stmt 0 discriminator 1
 1388 060c 3B68     		ldr	r3, [r7]
 1389 060e 3F2B     		cmp	r3, #63
 1390 0610 25D1     		bne	.L65
 1391              	.L64:
 540:..\..\src/mode.c ****        {
 541:..\..\src/mode.c ****                pageFound = 1;
 1392              		.loc 1 541 0 is_stmt 1
 1393 0612 0123     		movs	r3, #1
 1394 0614 3B63     		str	r3, [r7, #48]
 542:..\..\src/mode.c ****                pageIn(pc, idx, OperatingPage, sizeof(OperatingPage));
 1395              		.loc 1 542 0
 1396 0616 396A     		ldr	r1, [r7, #32]
 1397 0618 0423     		movs	r3, #4
 1398 061a 394A     		ldr	r2, .L77+24
 1399 061c 7868     		ldr	r0, [r7, #4]
 1400 061e FFF7FEFF 		bl	pageIn
 543:..\..\src/mode.c **** 
 544:..\..\src/mode.c ****                // Note inverted logic for the flag.
 545:..\..\src/mode.c ****                scsiDev.data[idx+2] =
 1401              		.loc 1 545 0
 1402 0622 3B6A     		ldr	r3, [r7, #32]
 1403 0624 0233     		adds	r3, r3, #2
 546:..\..\src/mode.c ****                        (scsiDev.boardCfg.flags & CONFIG_ENABLE_UNIT_ATTENTION) ? 0x80 : 0x90;
 1404              		.loc 1 546 0
 1405 0626 314A     		ldr	r2, .L77+4
 1406 0628 92F86820 		ldrb	r2, [r2, #104]	@ zero_extendqisi2
 1407 062c 02F00102 		and	r2, r2, #1
 545:..\..\src/mode.c ****                        (scsiDev.boardCfg.flags & CONFIG_ENABLE_UNIT_ATTENTION) ? 0x80 : 0x90;
 1408              		.loc 1 545 0
 1409 0630 002A     		cmp	r2, #0
 1410 0632 01D0     		beq	.L66
 545:..\..\src/mode.c ****                        (scsiDev.boardCfg.flags & CONFIG_ENABLE_UNIT_ATTENTION) ? 0x80 : 0x90;
 1411              		.loc 1 545 0 is_stmt 0 discriminator 1
 1412 0634 8021     		movs	r1, #128
 1413 0636 00E0     		b	.L67
 1414              	.L66:
 545:..\..\src/mode.c ****                        (scsiDev.boardCfg.flags & CONFIG_ENABLE_UNIT_ATTENTION) ? 0x80 : 0x90;
 1415              		.loc 1 545 0 discriminator 2
 1416 0638 9021     		movs	r1, #144
 1417              	.L67:
 545:..\..\src/mode.c ****                        (scsiDev.boardCfg.flags & CONFIG_ENABLE_UNIT_ATTENTION) ? 0x80 : 0x90;
 1418              		.loc 1 545 0 discriminator 4
 1419 063a 2C4A     		ldr	r2, .L77+4
ARM GAS  C:\Users\r\AppData\Local\Temp\cc0NugVx.s 			page 36


 1420 063c 1344     		add	r3, r3, r2
 1421 063e 0A46     		mov	r2, r1
 1422 0640 83F87C21 		strb	r2, [r3, #380]
 547:..\..\src/mode.c **** 
 548:..\..\src/mode.c ****                scsiDev.data[idx+3] = getDeviceTypeQualifier();
 1423              		.loc 1 548 0 is_stmt 1 discriminator 4
 1424 0644 3B6A     		ldr	r3, [r7, #32]
 1425 0646 DC1C     		adds	r4, r3, #3
 1426 0648 FFF7FEFF 		bl	getDeviceTypeQualifier
 1427 064c 0346     		mov	r3, r0
 1428 064e 1A46     		mov	r2, r3
 1429 0650 264B     		ldr	r3, .L77+4
 1430 0652 2344     		add	r3, r3, r4
 1431 0654 83F87C21 		strb	r2, [r3, #380]
 549:..\..\src/mode.c **** 
 550:..\..\src/mode.c ****                idx += sizeof(OperatingPage);
 1432              		.loc 1 550 0 discriminator 4
 1433 0658 3B6A     		ldr	r3, [r7, #32]
 1434 065a 0433     		adds	r3, r3, #4
 1435 065c 3B62     		str	r3, [r7, #32]
 1436              	.L65:
 551:..\..\src/mode.c ****        }
 552:..\..\src/mode.c **** 
 553:..\..\src/mode.c **** 	if (!pageFound)
 1437              		.loc 1 553 0
 1438 065e 3B6B     		ldr	r3, [r7, #48]
 1439 0660 002B     		cmp	r3, #0
 1440 0662 15D1     		bne	.L68
 554:..\..\src/mode.c **** 	{
 555:..\..\src/mode.c **** 		// Unknown Page Code
 556:..\..\src/mode.c **** 		pageFound = 0;
 1441              		.loc 1 556 0
 1442 0664 0023     		movs	r3, #0
 1443 0666 3B63     		str	r3, [r7, #48]
 557:..\..\src/mode.c **** 		scsiDev.status = CHECK_CONDITION;
 1444              		.loc 1 557 0
 1445 0668 204B     		ldr	r3, .L77+4
 1446 066a 03F58343 		add	r3, r3, #16768
 1447 066e 1C33     		adds	r3, r3, #28
 1448 0670 0222     		movs	r2, #2
 1449 0672 1A70     		strb	r2, [r3]
 558:..\..\src/mode.c **** 		scsiDev.target->sense.code = ILLEGAL_REQUEST;
 1450              		.loc 1 558 0
 1451 0674 1D4B     		ldr	r3, .L77+4
 1452 0676 1B6E     		ldr	r3, [r3, #96]
 1453 0678 0522     		movs	r2, #5
 1454 067a 9A72     		strb	r2, [r3, #10]
 559:..\..\src/mode.c **** 		scsiDev.target->sense.asc = INVALID_FIELD_IN_CDB;
 1455              		.loc 1 559 0
 1456 067c 1B4B     		ldr	r3, .L77+4
 1457 067e 1B6E     		ldr	r3, [r3, #96]
 1458 0680 4FF41052 		mov	r2, #9216
 1459 0684 9A81     		strh	r2, [r3, #12]	@ movhi
 560:..\..\src/mode.c **** 		scsiDev.phase = STATUS;
 1460              		.loc 1 560 0
 1461 0686 194B     		ldr	r3, .L77+4
 1462 0688 0622     		movs	r2, #6
ARM GAS  C:\Users\r\AppData\Local\Temp\cc0NugVx.s 			page 37


 1463 068a C3F87821 		str	r2, [r3, #376]
 561:..\..\src/mode.c **** 	}
 562:..\..\src/mode.c **** 	else
 563:..\..\src/mode.c **** 	{
 564:..\..\src/mode.c **** 		// Go back and fill out the mode data length
 565:..\..\src/mode.c **** 		if (sixByteCmd)
 566:..\..\src/mode.c **** 		{
 567:..\..\src/mode.c **** 			// Cannot currently exceed limits. yay
 568:..\..\src/mode.c **** 			scsiDev.data[0] = idx - 1;
 569:..\..\src/mode.c **** 		}
 570:..\..\src/mode.c **** 		else
 571:..\..\src/mode.c **** 		{
 572:..\..\src/mode.c **** 			scsiDev.data[0] = ((idx - 2) >> 8);
 573:..\..\src/mode.c **** 			scsiDev.data[1] = (idx - 2);
 574:..\..\src/mode.c **** 		}
 575:..\..\src/mode.c **** 
 576:..\..\src/mode.c **** 		scsiDev.dataLen = idx > allocLength ? allocLength : idx;
 577:..\..\src/mode.c **** 		scsiDev.phase = DATA_IN;
 578:..\..\src/mode.c **** 	}
 579:..\..\src/mode.c **** }
 1464              		.loc 1 579 0
 1465 068e 26E0     		b	.L72
 1466              	.L68:
 565:..\..\src/mode.c **** 		{
 1467              		.loc 1 565 0
 1468 0690 FB68     		ldr	r3, [r7, #12]
 1469 0692 002B     		cmp	r3, #0
 1470 0694 07D0     		beq	.L70
 568:..\..\src/mode.c **** 		}
 1471              		.loc 1 568 0
 1472 0696 3B6A     		ldr	r3, [r7, #32]
 1473 0698 DBB2     		uxtb	r3, r3
 1474 069a 013B     		subs	r3, r3, #1
 1475 069c DAB2     		uxtb	r2, r3
 1476 069e 134B     		ldr	r3, .L77+4
 1477 06a0 83F87C21 		strb	r2, [r3, #380]
 1478 06a4 0DE0     		b	.L71
 1479              	.L70:
 572:..\..\src/mode.c **** 			scsiDev.data[1] = (idx - 2);
 1480              		.loc 1 572 0
 1481 06a6 3B6A     		ldr	r3, [r7, #32]
 1482 06a8 023B     		subs	r3, r3, #2
 1483 06aa 1B12     		asrs	r3, r3, #8
 1484 06ac DAB2     		uxtb	r2, r3
 1485 06ae 0F4B     		ldr	r3, .L77+4
 1486 06b0 83F87C21 		strb	r2, [r3, #380]
 573:..\..\src/mode.c **** 		}
 1487              		.loc 1 573 0
 1488 06b4 3B6A     		ldr	r3, [r7, #32]
 1489 06b6 DBB2     		uxtb	r3, r3
 1490 06b8 023B     		subs	r3, r3, #2
 1491 06ba DAB2     		uxtb	r2, r3
 1492 06bc 0B4B     		ldr	r3, .L77+4
 1493 06be 83F87D21 		strb	r2, [r3, #381]
 1494              	.L71:
 576:..\..\src/mode.c **** 		scsiDev.phase = DATA_IN;
 1495              		.loc 1 576 0
ARM GAS  C:\Users\r\AppData\Local\Temp\cc0NugVx.s 			page 38


 1496 06c2 3A6A     		ldr	r2, [r7, #32]
 1497 06c4 BB6C     		ldr	r3, [r7, #72]
 1498 06c6 9A42     		cmp	r2, r3
 1499 06c8 A8BF     		it	ge
 1500 06ca 1A46     		movge	r2, r3
 1501 06cc 074B     		ldr	r3, .L77+4
 1502 06ce 03F58343 		add	r3, r3, #16768
 1503 06d2 0433     		adds	r3, r3, #4
 1504 06d4 1A60     		str	r2, [r3]
 577:..\..\src/mode.c **** 	}
 1505              		.loc 1 577 0
 1506 06d6 054B     		ldr	r3, .L77+4
 1507 06d8 0422     		movs	r2, #4
 1508 06da C3F87821 		str	r2, [r3, #376]
 1509              	.L72:
 1510              		.loc 1 579 0
 1511 06de 00BF     		nop
 1512 06e0 3837     		adds	r7, r7, #56
 1513              		.cfi_def_cfa_offset 16
 1514 06e2 BD46     		mov	sp, r7
 1515              		.cfi_def_cfa_register 13
 1516              		@ sp needed
 1517 06e4 B0BD     		pop	{r4, r5, r7, pc}
 1518              	.L78:
 1519 06e6 00BF     		.align	2
 1520              	.L77:
 1521 06e8 64000000 		.word	FlexibleDiskDriveGeometry
 1522 06ec 00000000 		.word	scsiDev
 1523 06f0 98000000 		.word	CachingPage
 1524 06f4 A4000000 		.word	ControlModePage
 1525 06f8 AC000000 		.word	SequentialDeviceConfigPage
 1526 06fc BC000000 		.word	AppleVendorPage
 1527 0700 00000000 		.word	OperatingPage
 1528              		.cfi_endproc
 1529              	.LFE66:
 1530              		.size	doModeSense, .-doModeSense
 1531              		.section	.text.doModeSelect,"ax",%progbits
 1532              		.align	2
 1533              		.thumb
 1534              		.thumb_func
 1535              		.type	doModeSelect, %function
 1536              	doModeSelect:
 1537              	.LFB67:
 580:..\..\src/mode.c **** 
 581:..\..\src/mode.c **** 
 582:..\..\src/mode.c **** // Callback after the DATA OUT phase is complete.
 583:..\..\src/mode.c **** static void doModeSelect(void)
 584:..\..\src/mode.c **** {
 1538              		.loc 1 584 0
 1539              		.cfi_startproc
 1540              		@ args = 0, pretend = 0, frame = 24
 1541              		@ frame_needed = 1, uses_anonymous_args = 0
 1542 0000 80B5     		push	{r7, lr}
 1543              		.cfi_def_cfa_offset 8
 1544              		.cfi_offset 7, -8
 1545              		.cfi_offset 14, -4
 1546 0002 86B0     		sub	sp, sp, #24
ARM GAS  C:\Users\r\AppData\Local\Temp\cc0NugVx.s 			page 39


 1547              		.cfi_def_cfa_offset 32
 1548 0004 00AF     		add	r7, sp, #0
 1549              		.cfi_def_cfa_register 7
 585:..\..\src/mode.c **** 	if (scsiDev.status == GOOD) // skip if we've already encountered an error
 1550              		.loc 1 585 0
 1551 0006 6D4B     		ldr	r3, .L97
 1552 0008 03F58343 		add	r3, r3, #16768
 1553 000c 1C33     		adds	r3, r3, #28
 1554 000e 1B78     		ldrb	r3, [r3]	@ zero_extendqisi2
 1555 0010 002B     		cmp	r3, #0
 1556 0012 40F0CA80 		bne	.L93
 1557              	.LBB7:
 586:..\..\src/mode.c **** 	{
 587:..\..\src/mode.c **** 		// scsiDev.dataLen bytes are in scsiDev.data
 588:..\..\src/mode.c **** 
 589:..\..\src/mode.c **** 		int idx;
 590:..\..\src/mode.c **** 		int blockDescLen;
 591:..\..\src/mode.c **** 		if (scsiDev.cdb[0] == 0x55)
 1558              		.loc 1 591 0
 1559 0016 694B     		ldr	r3, .L97
 1560 0018 03F58343 		add	r3, r3, #16768
 1561 001c 0833     		adds	r3, r3, #8
 1562 001e 1B78     		ldrb	r3, [r3]	@ zero_extendqisi2
 1563 0020 552B     		cmp	r3, #85
 1564 0022 0BD1     		bne	.L81
 592:..\..\src/mode.c **** 		{
 593:..\..\src/mode.c **** 			blockDescLen =
 594:..\..\src/mode.c **** 				(((uint16_t)scsiDev.data[6]) << 8) |scsiDev.data[7];
 1565              		.loc 1 594 0
 1566 0024 654B     		ldr	r3, .L97
 1567 0026 93F88231 		ldrb	r3, [r3, #386]	@ zero_extendqisi2
 1568 002a 1B02     		lsls	r3, r3, #8
 1569 002c 634A     		ldr	r2, .L97
 1570 002e 92F88321 		ldrb	r2, [r2, #387]	@ zero_extendqisi2
 593:..\..\src/mode.c **** 				(((uint16_t)scsiDev.data[6]) << 8) |scsiDev.data[7];
 1571              		.loc 1 593 0
 1572 0032 1343     		orrs	r3, r3, r2
 1573 0034 3B61     		str	r3, [r7, #16]
 595:..\..\src/mode.c **** 			idx = 8;
 1574              		.loc 1 595 0
 1575 0036 0823     		movs	r3, #8
 1576 0038 7B61     		str	r3, [r7, #20]
 1577 003a 05E0     		b	.L82
 1578              	.L81:
 596:..\..\src/mode.c **** 		}
 597:..\..\src/mode.c **** 		else
 598:..\..\src/mode.c **** 		{
 599:..\..\src/mode.c **** 			blockDescLen = scsiDev.data[3];
 1579              		.loc 1 599 0
 1580 003c 5F4B     		ldr	r3, .L97
 1581 003e 93F87F31 		ldrb	r3, [r3, #383]	@ zero_extendqisi2
 1582 0042 3B61     		str	r3, [r7, #16]
 600:..\..\src/mode.c **** 			idx = 4;
 1583              		.loc 1 600 0
 1584 0044 0423     		movs	r3, #4
 1585 0046 7B61     		str	r3, [r7, #20]
 1586              	.L82:
ARM GAS  C:\Users\r\AppData\Local\Temp\cc0NugVx.s 			page 40


 601:..\..\src/mode.c **** 		}
 602:..\..\src/mode.c **** 
 603:..\..\src/mode.c **** 		// The unwritten rule.  Blocksizes are normally set using the
 604:..\..\src/mode.c **** 		// block descriptor value, not by changing page 0x03.
 605:..\..\src/mode.c **** 		if (blockDescLen >= 8)
 1587              		.loc 1 605 0
 1588 0048 3B69     		ldr	r3, [r7, #16]
 1589 004a 072B     		cmp	r3, #7
 1590 004c 36DD     		ble	.L83
 1591              	.LBB8:
 606:..\..\src/mode.c **** 		{
 607:..\..\src/mode.c **** 			uint32_t bytesPerSector =
 608:..\..\src/mode.c **** 				(((uint32_t)scsiDev.data[idx+5]) << 16) |
 1592              		.loc 1 608 0
 1593 004e 7B69     		ldr	r3, [r7, #20]
 1594 0050 0533     		adds	r3, r3, #5
 1595 0052 5A4A     		ldr	r2, .L97
 1596 0054 1344     		add	r3, r3, r2
 1597 0056 93F87C31 		ldrb	r3, [r3, #380]	@ zero_extendqisi2
 1598 005a 1A04     		lsls	r2, r3, #16
 609:..\..\src/mode.c **** 				(((uint32_t)scsiDev.data[idx+6]) << 8) |
 1599              		.loc 1 609 0
 1600 005c 7B69     		ldr	r3, [r7, #20]
 1601 005e 0633     		adds	r3, r3, #6
 1602 0060 5649     		ldr	r1, .L97
 1603 0062 0B44     		add	r3, r3, r1
 1604 0064 93F87C31 		ldrb	r3, [r3, #380]	@ zero_extendqisi2
 1605 0068 1B02     		lsls	r3, r3, #8
 608:..\..\src/mode.c **** 				(((uint32_t)scsiDev.data[idx+6]) << 8) |
 1606              		.loc 1 608 0
 1607 006a 1343     		orrs	r3, r3, r2
 610:..\..\src/mode.c **** 				scsiDev.data[idx+7];
 1608              		.loc 1 610 0
 1609 006c 7A69     		ldr	r2, [r7, #20]
 1610 006e 0732     		adds	r2, r2, #7
 1611 0070 5249     		ldr	r1, .L97
 1612 0072 0A44     		add	r2, r2, r1
 1613 0074 92F87C21 		ldrb	r2, [r2, #380]	@ zero_extendqisi2
 607:..\..\src/mode.c **** 				(((uint32_t)scsiDev.data[idx+5]) << 16) |
 1614              		.loc 1 607 0
 1615 0078 1343     		orrs	r3, r3, r2
 1616 007a FB60     		str	r3, [r7, #12]
 611:..\..\src/mode.c **** 			if ((bytesPerSector < MIN_SECTOR_SIZE) ||
 1617              		.loc 1 611 0
 1618 007c FB68     		ldr	r3, [r7, #12]
 1619 007e 3F2B     		cmp	r3, #63
 1620 0080 40F28380 		bls	.L84
 1621              		.loc 1 611 0 is_stmt 0 discriminator 1
 1622 0084 FB68     		ldr	r3, [r7, #12]
 1623 0086 B3F5005F 		cmp	r3, #8192
 1624 008a 7ED8     		bhi	.L84
 612:..\..\src/mode.c **** 				(bytesPerSector > MAX_SECTOR_SIZE))
 613:..\..\src/mode.c **** 			{
 614:..\..\src/mode.c **** 				goto bad;
 615:..\..\src/mode.c **** 			}
 616:..\..\src/mode.c **** 			else
 617:..\..\src/mode.c **** 			{
ARM GAS  C:\Users\r\AppData\Local\Temp\cc0NugVx.s 			page 41


 618:..\..\src/mode.c **** 				scsiDev.target->liveCfg.bytesPerSector = bytesPerSector;
 1625              		.loc 1 618 0 is_stmt 1
 1626 008c 4B4B     		ldr	r3, .L97
 1627 008e 1B6E     		ldr	r3, [r3, #96]
 1628 0090 FA68     		ldr	r2, [r7, #12]
 1629 0092 92B2     		uxth	r2, r2
 1630 0094 1A81     		strh	r2, [r3, #8]	@ movhi
 619:..\..\src/mode.c **** 				if (bytesPerSector != scsiDev.target->cfg->bytesPerSector)
 1631              		.loc 1 619 0
 1632 0096 494B     		ldr	r3, .L97
 1633 0098 1B6E     		ldr	r3, [r3, #96]
 1634 009a 5B68     		ldr	r3, [r3, #4]
 1635 009c 9B89     		ldrh	r3, [r3, #12]	@ unaligned
 1636 009e 9BB2     		uxth	r3, r3
 1637 00a0 1A46     		mov	r2, r3
 1638 00a2 FB68     		ldr	r3, [r7, #12]
 1639 00a4 9A42     		cmp	r2, r3
 1640 00a6 09D0     		beq	.L83
 620:..\..\src/mode.c **** 				{
 621:..\..\src/mode.c **** 					configSave(scsiDev.target->targetId, bytesPerSector);
 1641              		.loc 1 621 0
 1642 00a8 444B     		ldr	r3, .L97
 1643 00aa 1B6E     		ldr	r3, [r3, #96]
 1644 00ac 1B78     		ldrb	r3, [r3]	@ zero_extendqisi2
 1645 00ae 1A46     		mov	r2, r3
 1646 00b0 FB68     		ldr	r3, [r7, #12]
 1647 00b2 9BB2     		uxth	r3, r3
 1648 00b4 1946     		mov	r1, r3
 1649 00b6 1046     		mov	r0, r2
 1650 00b8 FFF7FEFF 		bl	configSave
 1651              	.L83:
 1652              	.LBE8:
 622:..\..\src/mode.c **** 				}
 623:..\..\src/mode.c **** 			}
 624:..\..\src/mode.c **** 		}
 625:..\..\src/mode.c **** 		idx += blockDescLen;
 1653              		.loc 1 625 0
 1654 00bc 7A69     		ldr	r2, [r7, #20]
 1655 00be 3B69     		ldr	r3, [r7, #16]
 1656 00c0 1344     		add	r3, r3, r2
 1657 00c2 7B61     		str	r3, [r7, #20]
 626:..\..\src/mode.c **** 
 627:..\..\src/mode.c **** 		while (idx < scsiDev.dataLen)
 1658              		.loc 1 627 0
 1659 00c4 55E0     		b	.L85
 1660              	.L91:
 1661              	.LBB9:
 628:..\..\src/mode.c **** 		{
 629:..\..\src/mode.c **** 			int pageLen = scsiDev.data[idx + 1];
 1662              		.loc 1 629 0
 1663 00c6 7B69     		ldr	r3, [r7, #20]
 1664 00c8 0133     		adds	r3, r3, #1
 1665 00ca 3C4A     		ldr	r2, .L97
 1666 00cc 1344     		add	r3, r3, r2
 1667 00ce 93F87C31 		ldrb	r3, [r3, #380]	@ zero_extendqisi2
 1668 00d2 BB60     		str	r3, [r7, #8]
 630:..\..\src/mode.c **** 			if (idx + 2 + pageLen > scsiDev.dataLen) goto bad;
ARM GAS  C:\Users\r\AppData\Local\Temp\cc0NugVx.s 			page 42


 1669              		.loc 1 630 0
 1670 00d4 7B69     		ldr	r3, [r7, #20]
 1671 00d6 9A1C     		adds	r2, r3, #2
 1672 00d8 BB68     		ldr	r3, [r7, #8]
 1673 00da 1A44     		add	r2, r2, r3
 1674 00dc 374B     		ldr	r3, .L97
 1675 00de 03F58343 		add	r3, r3, #16768
 1676 00e2 0433     		adds	r3, r3, #4
 1677 00e4 1B68     		ldr	r3, [r3]
 1678 00e6 9A42     		cmp	r2, r3
 1679 00e8 4CDC     		bgt	.L94
 631:..\..\src/mode.c **** 
 632:..\..\src/mode.c **** 			int pageCode = scsiDev.data[idx] & 0x3F;
 1680              		.loc 1 632 0
 1681 00ea 344A     		ldr	r2, .L97
 1682 00ec 7B69     		ldr	r3, [r7, #20]
 1683 00ee 1344     		add	r3, r3, r2
 1684 00f0 03F5BE73 		add	r3, r3, #380
 1685 00f4 1B78     		ldrb	r3, [r3]	@ zero_extendqisi2
 1686 00f6 03F03F03 		and	r3, r3, #63
 1687 00fa 7B60     		str	r3, [r7, #4]
 633:..\..\src/mode.c **** 			switch (pageCode)
 1688              		.loc 1 633 0
 1689 00fc 7B68     		ldr	r3, [r7, #4]
 1690 00fe 032B     		cmp	r3, #3
 1691 0100 32D1     		bne	.L87
 1692              	.LBB10:
 634:..\..\src/mode.c **** 			{
 635:..\..\src/mode.c **** 			case 0x03: // Format Device Page
 636:..\..\src/mode.c **** 			{
 637:..\..\src/mode.c **** 				if (pageLen != 0x16) goto bad;
 1693              		.loc 1 637 0
 1694 0102 BB68     		ldr	r3, [r7, #8]
 1695 0104 162B     		cmp	r3, #22
 1696 0106 3FD1     		bne	.L95
 638:..\..\src/mode.c **** 
 639:..\..\src/mode.c **** 				// Fill out the configured bytes-per-sector
 640:..\..\src/mode.c **** 				uint16_t bytesPerSector =
 641:..\..\src/mode.c **** 					(((uint16_t)scsiDev.data[idx+12]) << 8) |
 1697              		.loc 1 641 0
 1698 0108 7B69     		ldr	r3, [r7, #20]
 1699 010a 0C33     		adds	r3, r3, #12
 1700 010c 2B4A     		ldr	r2, .L97
 1701 010e 1344     		add	r3, r3, r2
 1702 0110 93F87C31 		ldrb	r3, [r3, #380]	@ zero_extendqisi2
 1703 0114 1B02     		lsls	r3, r3, #8
 640:..\..\src/mode.c **** 					(((uint16_t)scsiDev.data[idx+12]) << 8) |
 1704              		.loc 1 640 0
 1705 0116 1AB2     		sxth	r2, r3
 642:..\..\src/mode.c **** 					scsiDev.data[idx+13];
 1706              		.loc 1 642 0
 1707 0118 7B69     		ldr	r3, [r7, #20]
 1708 011a 0D33     		adds	r3, r3, #13
 1709 011c 2749     		ldr	r1, .L97
 1710 011e 0B44     		add	r3, r3, r1
 1711 0120 93F87C31 		ldrb	r3, [r3, #380]	@ zero_extendqisi2
 640:..\..\src/mode.c **** 					(((uint16_t)scsiDev.data[idx+12]) << 8) |
ARM GAS  C:\Users\r\AppData\Local\Temp\cc0NugVx.s 			page 43


 1712              		.loc 1 640 0
 1713 0124 1BB2     		sxth	r3, r3
 1714 0126 1343     		orrs	r3, r3, r2
 1715 0128 1BB2     		sxth	r3, r3
 1716 012a 7B80     		strh	r3, [r7, #2]	@ movhi
 643:..\..\src/mode.c **** 
 644:..\..\src/mode.c **** 				// Sane values only, ok ?
 645:..\..\src/mode.c **** 				if ((bytesPerSector < MIN_SECTOR_SIZE) ||
 1717              		.loc 1 645 0
 1718 012c 7B88     		ldrh	r3, [r7, #2]
 1719 012e 3F2B     		cmp	r3, #63
 1720 0130 2BD9     		bls	.L84
 1721              		.loc 1 645 0 is_stmt 0 discriminator 1
 1722 0132 7B88     		ldrh	r3, [r7, #2]
 1723 0134 B3F5005F 		cmp	r3, #8192
 1724 0138 27D8     		bhi	.L84
 646:..\..\src/mode.c **** 					(bytesPerSector > MAX_SECTOR_SIZE))
 647:..\..\src/mode.c **** 				{
 648:..\..\src/mode.c **** 					goto bad;
 649:..\..\src/mode.c **** 				}
 650:..\..\src/mode.c **** 
 651:..\..\src/mode.c **** 				scsiDev.target->liveCfg.bytesPerSector = bytesPerSector;
 1725              		.loc 1 651 0 is_stmt 1
 1726 013a 204B     		ldr	r3, .L97
 1727 013c 1B6E     		ldr	r3, [r3, #96]
 1728 013e 7A88     		ldrh	r2, [r7, #2]	@ movhi
 1729 0140 1A81     		strh	r2, [r3, #8]	@ movhi
 652:..\..\src/mode.c **** 				if (scsiDev.cdb[1] & 1) // SP Save Pages flag
 1730              		.loc 1 652 0
 1731 0142 1E4B     		ldr	r3, .L97
 1732 0144 03F58343 		add	r3, r3, #16768
 1733 0148 0933     		adds	r3, r3, #9
 1734 014a 1B78     		ldrb	r3, [r3]	@ zero_extendqisi2
 1735 014c 03F00103 		and	r3, r3, #1
 1736 0150 002B     		cmp	r3, #0
 1737 0152 08D0     		beq	.L96
 653:..\..\src/mode.c **** 				{
 654:..\..\src/mode.c **** 					configSave(scsiDev.target->targetId, bytesPerSector);
 1738              		.loc 1 654 0
 1739 0154 194B     		ldr	r3, .L97
 1740 0156 1B6E     		ldr	r3, [r3, #96]
 1741 0158 1B78     		ldrb	r3, [r3]	@ zero_extendqisi2
 1742 015a 1A46     		mov	r2, r3
 1743 015c 7B88     		ldrh	r3, [r7, #2]
 1744 015e 1946     		mov	r1, r3
 1745 0160 1046     		mov	r0, r2
 1746 0162 FFF7FEFF 		bl	configSave
 1747              	.L96:
 1748              	.LBE10:
 655:..\..\src/mode.c **** 				}
 656:..\..\src/mode.c **** 			}
 657:..\..\src/mode.c **** 			break;
 1749              		.loc 1 657 0
 1750 0166 00BF     		nop
 1751              	.L87:
 658:..\..\src/mode.c **** 			//default:
 659:..\..\src/mode.c **** 
ARM GAS  C:\Users\r\AppData\Local\Temp\cc0NugVx.s 			page 44


 660:..\..\src/mode.c **** 				// Easiest to just ignore for now. We'll get here when changing
 661:..\..\src/mode.c **** 				// the SCSI block size via the descriptor header.
 662:..\..\src/mode.c **** 			}
 663:..\..\src/mode.c **** 			idx += 2 + pageLen;
 1752              		.loc 1 663 0
 1753 0168 BB68     		ldr	r3, [r7, #8]
 1754 016a 0233     		adds	r3, r3, #2
 1755 016c 7A69     		ldr	r2, [r7, #20]
 1756 016e 1344     		add	r3, r3, r2
 1757 0170 7B61     		str	r3, [r7, #20]
 1758              	.L85:
 1759              	.LBE9:
 627:..\..\src/mode.c **** 		{
 1760              		.loc 1 627 0
 1761 0172 124B     		ldr	r3, .L97
 1762 0174 03F58343 		add	r3, r3, #16768
 1763 0178 0433     		adds	r3, r3, #4
 1764 017a 1A68     		ldr	r2, [r3]
 1765 017c 7B69     		ldr	r3, [r7, #20]
 1766 017e 9A42     		cmp	r2, r3
 1767 0180 A1DC     		bgt	.L91
 1768              	.LBE7:
 664:..\..\src/mode.c **** 		}
 665:..\..\src/mode.c **** 	}
 666:..\..\src/mode.c **** 
 667:..\..\src/mode.c **** 	goto out;
 1769              		.loc 1 667 0
 1770 0182 12E0     		b	.L93
 1771              	.L94:
 1772              	.LBB13:
 1773              	.LBB12:
 630:..\..\src/mode.c **** 
 1774              		.loc 1 630 0
 1775 0184 00BF     		nop
 1776 0186 00E0     		b	.L84
 1777              	.L95:
 1778              	.LBB11:
 637:..\..\src/mode.c **** 
 1779              		.loc 1 637 0
 1780 0188 00BF     		nop
 1781              	.L84:
 1782              	.LBE11:
 1783              	.LBE12:
 1784              	.LBE13:
 668:..\..\src/mode.c **** bad:
 669:..\..\src/mode.c **** 	scsiDev.status = CHECK_CONDITION;
 1785              		.loc 1 669 0
 1786 018a 0C4B     		ldr	r3, .L97
 1787 018c 03F58343 		add	r3, r3, #16768
 1788 0190 1C33     		adds	r3, r3, #28
 1789 0192 0222     		movs	r2, #2
 1790 0194 1A70     		strb	r2, [r3]
 670:..\..\src/mode.c **** 	scsiDev.target->sense.code = ILLEGAL_REQUEST;
 1791              		.loc 1 670 0
 1792 0196 094B     		ldr	r3, .L97
 1793 0198 1B6E     		ldr	r3, [r3, #96]
 1794 019a 0522     		movs	r2, #5
ARM GAS  C:\Users\r\AppData\Local\Temp\cc0NugVx.s 			page 45


 1795 019c 9A72     		strb	r2, [r3, #10]
 671:..\..\src/mode.c **** 	scsiDev.target->sense.asc = INVALID_FIELD_IN_PARAMETER_LIST;
 1796              		.loc 1 671 0
 1797 019e 074B     		ldr	r3, .L97
 1798 01a0 1B6E     		ldr	r3, [r3, #96]
 1799 01a2 4FF41852 		mov	r2, #9728
 1800 01a6 9A81     		strh	r2, [r3, #12]	@ movhi
 1801 01a8 00E0     		b	.L92
 1802              	.L93:
 667:..\..\src/mode.c **** bad:
 1803              		.loc 1 667 0
 1804 01aa 00BF     		nop
 1805              	.L92:
 672:..\..\src/mode.c **** 
 673:..\..\src/mode.c **** out:
 674:..\..\src/mode.c **** 	scsiDev.phase = STATUS;
 1806              		.loc 1 674 0
 1807 01ac 034B     		ldr	r3, .L97
 1808 01ae 0622     		movs	r2, #6
 1809 01b0 C3F87821 		str	r2, [r3, #376]
 675:..\..\src/mode.c **** }
 1810              		.loc 1 675 0
 1811 01b4 00BF     		nop
 1812 01b6 1837     		adds	r7, r7, #24
 1813              		.cfi_def_cfa_offset 8
 1814 01b8 BD46     		mov	sp, r7
 1815              		.cfi_def_cfa_register 13
 1816              		@ sp needed
 1817 01ba 80BD     		pop	{r7, pc}
 1818              	.L98:
 1819              		.align	2
 1820              	.L97:
 1821 01bc 00000000 		.word	scsiDev
 1822              		.cfi_endproc
 1823              	.LFE67:
 1824              		.size	doModeSelect, .-doModeSelect
 1825              		.section	.text.scsiModeCommand,"ax",%progbits
 1826              		.align	2
 1827              		.global	scsiModeCommand
 1828              		.thumb
 1829              		.thumb_func
 1830              		.type	scsiModeCommand, %function
 1831              	scsiModeCommand:
 1832              	.LFB68:
 676:..\..\src/mode.c **** 
 677:..\..\src/mode.c **** int scsiModeCommand()
 678:..\..\src/mode.c **** {
 1833              		.loc 1 678 0
 1834              		.cfi_startproc
 1835              		@ args = 0, pretend = 0, frame = 48
 1836              		@ frame_needed = 1, uses_anonymous_args = 0
 1837 0000 80B5     		push	{r7, lr}
 1838              		.cfi_def_cfa_offset 8
 1839              		.cfi_offset 7, -8
 1840              		.cfi_offset 14, -4
 1841 0002 8EB0     		sub	sp, sp, #56
 1842              		.cfi_def_cfa_offset 64
ARM GAS  C:\Users\r\AppData\Local\Temp\cc0NugVx.s 			page 46


 1843 0004 02AF     		add	r7, sp, #8
 1844              		.cfi_def_cfa 7, 56
 679:..\..\src/mode.c **** 	int commandHandled = 1;
 1845              		.loc 1 679 0
 1846 0006 0123     		movs	r3, #1
 1847 0008 FB62     		str	r3, [r7, #44]
 680:..\..\src/mode.c **** 
 681:..\..\src/mode.c **** 	uint8 command = scsiDev.cdb[0];
 1848              		.loc 1 681 0
 1849 000a 5C4B     		ldr	r3, .L110
 1850 000c 03F58343 		add	r3, r3, #16768
 1851 0010 0833     		adds	r3, r3, #8
 1852 0012 1B78     		ldrb	r3, [r3]
 1853 0014 87F82B30 		strb	r3, [r7, #43]
 682:..\..\src/mode.c **** 
 683:..\..\src/mode.c **** 	// We don't currently support the setting of any parameters.
 684:..\..\src/mode.c **** 	// (ie. no MODE SELECT(6) or MODE SELECT(10) commands)
 685:..\..\src/mode.c **** 
 686:..\..\src/mode.c **** 	if (command == 0x1A)
 1854              		.loc 1 686 0
 1855 0018 97F82B30 		ldrb	r3, [r7, #43]	@ zero_extendqisi2
 1856 001c 1A2B     		cmp	r3, #26
 1857 001e 26D1     		bne	.L100
 1858              	.LBB14:
 687:..\..\src/mode.c **** 	{
 688:..\..\src/mode.c **** 		// MODE SENSE(6)
 689:..\..\src/mode.c **** 		int dbd = scsiDev.cdb[1] & 0x08; // Disable block descriptors
 1859              		.loc 1 689 0
 1860 0020 564B     		ldr	r3, .L110
 1861 0022 03F58343 		add	r3, r3, #16768
 1862 0026 0933     		adds	r3, r3, #9
 1863 0028 1B78     		ldrb	r3, [r3]	@ zero_extendqisi2
 1864 002a 03F00803 		and	r3, r3, #8
 1865 002e 7B62     		str	r3, [r7, #36]
 690:..\..\src/mode.c **** 		int pc = scsiDev.cdb[2] >> 6; // Page Control
 1866              		.loc 1 690 0
 1867 0030 524B     		ldr	r3, .L110
 1868 0032 03F58343 		add	r3, r3, #16768
 1869 0036 0A33     		adds	r3, r3, #10
 1870 0038 1B78     		ldrb	r3, [r3]	@ zero_extendqisi2
 1871 003a 9B09     		lsrs	r3, r3, #6
 1872 003c DBB2     		uxtb	r3, r3
 1873 003e 3B62     		str	r3, [r7, #32]
 691:..\..\src/mode.c **** 		int pageCode = scsiDev.cdb[2] & 0x3F;
 1874              		.loc 1 691 0
 1875 0040 4E4B     		ldr	r3, .L110
 1876 0042 03F58343 		add	r3, r3, #16768
 1877 0046 0A33     		adds	r3, r3, #10
 1878 0048 1B78     		ldrb	r3, [r3]	@ zero_extendqisi2
 1879 004a 03F03F03 		and	r3, r3, #63
 1880 004e FB61     		str	r3, [r7, #28]
 692:..\..\src/mode.c **** 		int allocLength = scsiDev.cdb[4];
 1881              		.loc 1 692 0
 1882 0050 4A4B     		ldr	r3, .L110
 1883 0052 03F58343 		add	r3, r3, #16768
 1884 0056 0C33     		adds	r3, r3, #12
 1885 0058 1B78     		ldrb	r3, [r3]	@ zero_extendqisi2
ARM GAS  C:\Users\r\AppData\Local\Temp\cc0NugVx.s 			page 47


 1886 005a BB61     		str	r3, [r7, #24]
 693:..\..\src/mode.c **** 
 694:..\..\src/mode.c **** 		// SCSI1 standard: (CCS X3T9.2/86-52)
 695:..\..\src/mode.c **** 		// "An Allocation Length of zero indicates that no MODE SENSE data shall
 696:..\..\src/mode.c **** 		// be transferred. This condition shall not be considered as an error."
 697:..\..\src/mode.c **** 		doModeSense(1, dbd, pc, pageCode, allocLength);
 1887              		.loc 1 697 0
 1888 005c BB69     		ldr	r3, [r7, #24]
 1889 005e 0093     		str	r3, [sp]
 1890 0060 FB69     		ldr	r3, [r7, #28]
 1891 0062 3A6A     		ldr	r2, [r7, #32]
 1892 0064 796A     		ldr	r1, [r7, #36]
 1893 0066 0120     		movs	r0, #1
 1894 0068 FFF7FEFF 		bl	doModeSense
 1895              	.LBE14:
 1896 006c 80E0     		b	.L101
 1897              	.L100:
 698:..\..\src/mode.c **** 	}
 699:..\..\src/mode.c **** 	else if (command == 0x5A)
 1898              		.loc 1 699 0
 1899 006e 97F82B30 		ldrb	r3, [r7, #43]	@ zero_extendqisi2
 1900 0072 5A2B     		cmp	r3, #90
 1901 0074 2DD1     		bne	.L102
 1902              	.LBB15:
 700:..\..\src/mode.c **** 	{
 701:..\..\src/mode.c **** 		// MODE SENSE(10)
 702:..\..\src/mode.c **** 		int dbd = scsiDev.cdb[1] & 0x08; // Disable block descriptors
 1903              		.loc 1 702 0
 1904 0076 414B     		ldr	r3, .L110
 1905 0078 03F58343 		add	r3, r3, #16768
 1906 007c 0933     		adds	r3, r3, #9
 1907 007e 1B78     		ldrb	r3, [r3]	@ zero_extendqisi2
 1908 0080 03F00803 		and	r3, r3, #8
 1909 0084 7B61     		str	r3, [r7, #20]
 703:..\..\src/mode.c **** 		int pc = scsiDev.cdb[2] >> 6; // Page Control
 1910              		.loc 1 703 0
 1911 0086 3D4B     		ldr	r3, .L110
 1912 0088 03F58343 		add	r3, r3, #16768
 1913 008c 0A33     		adds	r3, r3, #10
 1914 008e 1B78     		ldrb	r3, [r3]	@ zero_extendqisi2
 1915 0090 9B09     		lsrs	r3, r3, #6
 1916 0092 DBB2     		uxtb	r3, r3
 1917 0094 3B61     		str	r3, [r7, #16]
 704:..\..\src/mode.c **** 		int pageCode = scsiDev.cdb[2] & 0x3F;
 1918              		.loc 1 704 0
 1919 0096 394B     		ldr	r3, .L110
 1920 0098 03F58343 		add	r3, r3, #16768
 1921 009c 0A33     		adds	r3, r3, #10
 1922 009e 1B78     		ldrb	r3, [r3]	@ zero_extendqisi2
 1923 00a0 03F03F03 		and	r3, r3, #63
 1924 00a4 FB60     		str	r3, [r7, #12]
 705:..\..\src/mode.c **** 		int allocLength =
 706:..\..\src/mode.c **** 			(((uint16) scsiDev.cdb[7]) << 8) +
 1925              		.loc 1 706 0
 1926 00a6 354B     		ldr	r3, .L110
 1927 00a8 03F58343 		add	r3, r3, #16768
 1928 00ac 0F33     		adds	r3, r3, #15
ARM GAS  C:\Users\r\AppData\Local\Temp\cc0NugVx.s 			page 48


 1929 00ae 1B78     		ldrb	r3, [r3]	@ zero_extendqisi2
 1930 00b0 1A02     		lsls	r2, r3, #8
 707:..\..\src/mode.c **** 			scsiDev.cdb[8];
 1931              		.loc 1 707 0
 1932 00b2 324B     		ldr	r3, .L110
 1933 00b4 03F58343 		add	r3, r3, #16768
 1934 00b8 1033     		adds	r3, r3, #16
 1935 00ba 1B78     		ldrb	r3, [r3]	@ zero_extendqisi2
 705:..\..\src/mode.c **** 		int allocLength =
 1936              		.loc 1 705 0
 1937 00bc 1344     		add	r3, r3, r2
 1938 00be BB60     		str	r3, [r7, #8]
 708:..\..\src/mode.c **** 		doModeSense(0, dbd, pc, pageCode, allocLength);
 1939              		.loc 1 708 0
 1940 00c0 BB68     		ldr	r3, [r7, #8]
 1941 00c2 0093     		str	r3, [sp]
 1942 00c4 FB68     		ldr	r3, [r7, #12]
 1943 00c6 3A69     		ldr	r2, [r7, #16]
 1944 00c8 7969     		ldr	r1, [r7, #20]
 1945 00ca 0020     		movs	r0, #0
 1946 00cc FFF7FEFF 		bl	doModeSense
 1947              	.LBE15:
 1948 00d0 4EE0     		b	.L101
 1949              	.L102:
 709:..\..\src/mode.c **** 	}
 710:..\..\src/mode.c **** 	else if (command == 0x15)
 1950              		.loc 1 710 0
 1951 00d2 97F82B30 		ldrb	r3, [r7, #43]	@ zero_extendqisi2
 1952 00d6 152B     		cmp	r3, #21
 1953 00d8 1ED1     		bne	.L103
 1954              	.LBB16:
 711:..\..\src/mode.c **** 	{
 712:..\..\src/mode.c **** 		// MODE SELECT(6)
 713:..\..\src/mode.c **** 		int len = scsiDev.cdb[4];
 1955              		.loc 1 713 0
 1956 00da 284B     		ldr	r3, .L110
 1957 00dc 03F58343 		add	r3, r3, #16768
 1958 00e0 0C33     		adds	r3, r3, #12
 1959 00e2 1B78     		ldrb	r3, [r3]	@ zero_extendqisi2
 1960 00e4 7B60     		str	r3, [r7, #4]
 714:..\..\src/mode.c **** 		if (len == 0)
 1961              		.loc 1 714 0
 1962 00e6 7B68     		ldr	r3, [r7, #4]
 1963 00e8 002B     		cmp	r3, #0
 1964 00ea 04D1     		bne	.L104
 715:..\..\src/mode.c **** 		{
 716:..\..\src/mode.c **** 			// If len == 0, then transfer no data. From the SCSI 2 standard:
 717:..\..\src/mode.c **** 			//      A parameter list length of zero indicates that no data shall
 718:..\..\src/mode.c **** 			//      be transferred. This condition shall not be considered as an
 719:..\..\src/mode.c **** 			//		error.
 720:..\..\src/mode.c **** 			scsiDev.phase = STATUS;
 1965              		.loc 1 720 0
 1966 00ec 234B     		ldr	r3, .L110
 1967 00ee 0622     		movs	r2, #6
 1968 00f0 C3F87821 		str	r2, [r3, #376]
 1969 00f4 3CE0     		b	.L101
 1970              	.L104:
ARM GAS  C:\Users\r\AppData\Local\Temp\cc0NugVx.s 			page 49


 721:..\..\src/mode.c **** 		}
 722:..\..\src/mode.c **** 		else
 723:..\..\src/mode.c **** 		{
 724:..\..\src/mode.c **** 			scsiDev.dataLen = len;
 1971              		.loc 1 724 0
 1972 00f6 214B     		ldr	r3, .L110
 1973 00f8 03F58343 		add	r3, r3, #16768
 1974 00fc 0433     		adds	r3, r3, #4
 1975 00fe 7A68     		ldr	r2, [r7, #4]
 1976 0100 1A60     		str	r2, [r3]
 725:..\..\src/mode.c **** 			scsiDev.phase = DATA_OUT;
 1977              		.loc 1 725 0
 1978 0102 1E4B     		ldr	r3, .L110
 1979 0104 0022     		movs	r2, #0
 1980 0106 C3F87821 		str	r2, [r3, #376]
 726:..\..\src/mode.c **** 			scsiDev.postDataOutHook = doModeSelect;
 1981              		.loc 1 726 0
 1982 010a 1C4B     		ldr	r3, .L110
 1983 010c 03F58343 		add	r3, r3, #16768
 1984 0110 2033     		adds	r3, r3, #32
 1985 0112 1B4A     		ldr	r2, .L110+4
 1986 0114 1A60     		str	r2, [r3]
 1987 0116 2BE0     		b	.L101
 1988              	.L103:
 1989              	.LBE16:
 727:..\..\src/mode.c **** 		}
 728:..\..\src/mode.c **** 	}
 729:..\..\src/mode.c **** 	else if (command == 0x55)
 1990              		.loc 1 729 0
 1991 0118 97F82B30 		ldrb	r3, [r7, #43]	@ zero_extendqisi2
 1992 011c 552B     		cmp	r3, #85
 1993 011e 25D1     		bne	.L106
 1994              	.LBB17:
 730:..\..\src/mode.c **** 	{
 731:..\..\src/mode.c **** 		// MODE SELECT(10)
 732:..\..\src/mode.c **** 		int allocLength = (((uint16) scsiDev.cdb[7]) << 8) + scsiDev.cdb[8];
 1995              		.loc 1 732 0
 1996 0120 164B     		ldr	r3, .L110
 1997 0122 03F58343 		add	r3, r3, #16768
 1998 0126 0F33     		adds	r3, r3, #15
 1999 0128 1B78     		ldrb	r3, [r3]	@ zero_extendqisi2
 2000 012a 1A02     		lsls	r2, r3, #8
 2001 012c 134B     		ldr	r3, .L110
 2002 012e 03F58343 		add	r3, r3, #16768
 2003 0132 1033     		adds	r3, r3, #16
 2004 0134 1B78     		ldrb	r3, [r3]	@ zero_extendqisi2
 2005 0136 1344     		add	r3, r3, r2
 2006 0138 3B60     		str	r3, [r7]
 733:..\..\src/mode.c **** 		if (allocLength == 0)
 2007              		.loc 1 733 0
 2008 013a 3B68     		ldr	r3, [r7]
 2009 013c 002B     		cmp	r3, #0
 2010 013e 04D1     		bne	.L107
 734:..\..\src/mode.c **** 		{
 735:..\..\src/mode.c **** 			// If len == 0, then transfer no data. From the SCSI 2 standard:
 736:..\..\src/mode.c **** 			//      A parameter list length of zero indicates that no data shall
 737:..\..\src/mode.c **** 			//      be transferred. This condition shall not be considered as an
ARM GAS  C:\Users\r\AppData\Local\Temp\cc0NugVx.s 			page 50


 738:..\..\src/mode.c **** 			//		error.
 739:..\..\src/mode.c **** 			scsiDev.phase = STATUS;
 2011              		.loc 1 739 0
 2012 0140 0E4B     		ldr	r3, .L110
 2013 0142 0622     		movs	r2, #6
 2014 0144 C3F87821 		str	r2, [r3, #376]
 2015 0148 12E0     		b	.L101
 2016              	.L107:
 740:..\..\src/mode.c **** 		}
 741:..\..\src/mode.c **** 		else
 742:..\..\src/mode.c **** 		{
 743:..\..\src/mode.c **** 			scsiDev.dataLen = allocLength;
 2017              		.loc 1 743 0
 2018 014a 0C4B     		ldr	r3, .L110
 2019 014c 03F58343 		add	r3, r3, #16768
 2020 0150 0433     		adds	r3, r3, #4
 2021 0152 3A68     		ldr	r2, [r7]
 2022 0154 1A60     		str	r2, [r3]
 744:..\..\src/mode.c **** 			scsiDev.phase = DATA_OUT;
 2023              		.loc 1 744 0
 2024 0156 094B     		ldr	r3, .L110
 2025 0158 0022     		movs	r2, #0
 2026 015a C3F87821 		str	r2, [r3, #376]
 745:..\..\src/mode.c **** 			scsiDev.postDataOutHook = doModeSelect;
 2027              		.loc 1 745 0
 2028 015e 074B     		ldr	r3, .L110
 2029 0160 03F58343 		add	r3, r3, #16768
 2030 0164 2033     		adds	r3, r3, #32
 2031 0166 064A     		ldr	r2, .L110+4
 2032 0168 1A60     		str	r2, [r3]
 2033 016a 01E0     		b	.L101
 2034              	.L106:
 2035              	.LBE17:
 746:..\..\src/mode.c **** 		}
 747:..\..\src/mode.c **** 	}
 748:..\..\src/mode.c **** 	else
 749:..\..\src/mode.c **** 	{
 750:..\..\src/mode.c **** 		commandHandled = 0;
 2036              		.loc 1 750 0
 2037 016c 0023     		movs	r3, #0
 2038 016e FB62     		str	r3, [r7, #44]
 2039              	.L101:
 751:..\..\src/mode.c **** 	}
 752:..\..\src/mode.c **** 
 753:..\..\src/mode.c **** 	return commandHandled;
 2040              		.loc 1 753 0
 2041 0170 FB6A     		ldr	r3, [r7, #44]
 754:..\..\src/mode.c **** }...
 2042              		.loc 1 754 0
 2043 0172 1846     		mov	r0, r3
 2044 0174 3037     		adds	r7, r7, #48
 2045              		.cfi_def_cfa_offset 8
 2046 0176 BD46     		mov	sp, r7
 2047              		.cfi_def_cfa_register 13
 2048              		@ sp needed
 2049 0178 80BD     		pop	{r7, pc}
 2050              	.L111:
ARM GAS  C:\Users\r\AppData\Local\Temp\cc0NugVx.s 			page 51


 2051 017a 00BF     		.align	2
 2052              	.L110:
 2053 017c 00000000 		.word	scsiDev
 2054 0180 00000000 		.word	doModeSelect
 2055              		.cfi_endproc
 2056              	.LFE68:
 2057              		.size	scsiModeCommand, .-scsiModeCommand
 2058              		.text
 2059              	.Letext0:
 2060              		.file 2 "c:\\program files (x86)\\cypress\\psoc creator\\4.2\\psoc creator\\import\\gnu\\arm\\5.4.
 2061              		.file 3 "c:\\program files (x86)\\cypress\\psoc creator\\4.2\\psoc creator\\import\\gnu\\arm\\5.4.
 2062              		.file 4 "Generated_Source\\PSoC5/cytypes.h"
 2063              		.file 5 "../../../include/scsi2sd.h"
 2064              		.file 6 "..\\..\\src\\sense.h"
 2065              		.file 7 "..\\..\\src\\scsi.h"
 2066              		.file 8 "..\\..\\src\\disk.h"
 2067              		.file 9 "Generated_Source\\PSoC5/core_cm3.h"