ARM GAS  C:\Users\r\AppData\Local\Temp\cc0NugVx.s 			page 1


   1              		.syntax unified
   2              		.cpu cortex-m3
   3              		.fpu softvfp
   4              		.eabi_attribute 20, 1
   5              		.eabi_attribute 21, 1
   6              		.eabi_attribute 23, 3
   7              		.eabi_attribute 24, 1
   8              		.eabi_attribute 25, 1
   9              		.eabi_attribute 26, 1
  10              		.eabi_attribute 30, 6
  11              		.eabi_attribute 34, 1
  12              		.eabi_attribute 18, 4
  13              		.thumb
  14              		.syntax unified
  15              		.file	"mode.c"
  16              		.text
  17              	.Ltext0:
  18              		.cfi_sections	.debug_frame
  19              		.section	.rodata
  20              		.align	2
  21              		.type	OperatingPage, %object
  22              		.size	OperatingPage, 4
  23              	OperatingPage:
  24 0000 00       		.byte	0
  25 0001 02       		.byte	2
  26 0002 80       		.byte	-128
  27 0003 00       		.byte	0
  28              		.align	2
  29              		.type	ReadWriteErrorRecoveryPage, %object
  30              		.size	ReadWriteErrorRecoveryPage, 12
  31              	ReadWriteErrorRecoveryPage:
  32 0004 01       		.byte	1
  33 0005 0A       		.byte	10
  34 0006 26       		.byte	38
  35 0007 00       		.byte	0
  36 0008 00       		.byte	0
  37 0009 00       		.byte	0
  38 000a 00       		.byte	0
  39 000b 00       		.byte	0
  40 000c 00       		.byte	0
  41 000d 00       		.byte	0
  42 000e 00       		.byte	0
  43 000f 00       		.byte	0
  44              		.align	2
  45              		.type	ReadWriteErrorRecoveryPage_SCSI1, %object
  46              		.size	ReadWriteErrorRecoveryPage_SCSI1, 8
  47              	ReadWriteErrorRecoveryPage_SCSI1:
  48 0010 01       		.byte	1
  49 0011 06       		.byte	6
  50 0012 26       		.byte	38
  51 0013 00       		.byte	0
  52 0014 00       		.byte	0
  53 0015 00       		.byte	0
  54 0016 00       		.byte	0
  55 0017 FF       		.byte	-1
  56              		.align	2
  57              		.type	DisconnectReconnectPage, %object
ARM GAS  C:\Users\r\AppData\Local\Temp\cc0NugVx.s 			page 2


  58              		.size	DisconnectReconnectPage, 16
  59              	DisconnectReconnectPage:
  60 0018 02       		.byte	2
  61 0019 0E       		.byte	14
  62 001a 00       		.byte	0
  63 001b 00       		.byte	0
  64 001c 00       		.byte	0
  65 001d 0A       		.byte	10
  66 001e 00       		.byte	0
  67 001f 00       		.byte	0
  68 0020 00       		.byte	0
  69 0021 00       		.byte	0
  70 0022 00       		.byte	0
  71 0023 00       		.byte	0
  72 0024 00       		.byte	0
  73 0025 00       		.byte	0
  74 0026 00       		.byte	0
  75 0027 00       		.byte	0
  76              		.align	2
  77              		.type	DisconnectReconnectPage_SCSI1, %object
  78              		.size	DisconnectReconnectPage_SCSI1, 12
  79              	DisconnectReconnectPage_SCSI1:
  80 0028 02       		.byte	2
  81 0029 0A       		.byte	10
  82 002a 00       		.byte	0
  83 002b 00       		.byte	0
  84 002c 00       		.byte	0
  85 002d 0A       		.byte	10
  86 002e 00       		.byte	0
  87 002f 00       		.byte	0
  88 0030 00       		.byte	0
  89 0031 00       		.byte	0
  90 0032 00       		.byte	0
  91 0033 00       		.byte	0
  92              		.align	2
  93              		.type	FormatDevicePage, %object
  94              		.size	FormatDevicePage, 24
  95              	FormatDevicePage:
  96 0034 83       		.byte	-125
  97 0035 16       		.byte	22
  98 0036 00       		.byte	0
  99 0037 00       		.byte	0
 100 0038 00       		.byte	0
 101 0039 00       		.byte	0
 102 003a 00       		.byte	0
 103 003b 00       		.byte	0
 104 003c 00       		.byte	0
 105 003d 00       		.byte	0
 106 003e 00       		.byte	0
 107 003f 00       		.byte	0
 108 0040 FF       		.byte	-1
 109 0041 FF       		.byte	-1
 110 0042 00       		.byte	0
 111 0043 01       		.byte	1
 112 0044 00       		.byte	0
 113 0045 00       		.byte	0
 114 0046 00       		.byte	0
ARM GAS  C:\Users\r\AppData\Local\Temp\cc0NugVx.s 			page 3


 115 0047 00       		.byte	0
 116 0048 C0       		.byte	-64
 117 0049 00       		.byte	0
 118 004a 00       		.byte	0
 119 004b 00       		.byte	0
 120              		.align	2
 121              		.type	RigidDiskDriveGeometry, %object
 122              		.size	RigidDiskDriveGeometry, 24
 123              	RigidDiskDriveGeometry:
 124 004c 04       		.byte	4
 125 004d 16       		.byte	22
 126 004e FF       		.byte	-1
 127 004f FF       		.byte	-1
 128 0050 FF       		.byte	-1
 129 0051 00       		.byte	0
 130 0052 FF       		.byte	-1
 131 0053 FF       		.byte	-1
 132 0054 FF       		.byte	-1
 133 0055 FF       		.byte	-1
 134 0056 FF       		.byte	-1
 135 0057 FF       		.byte	-1
 136 0058 00       		.byte	0
 137 0059 01       		.byte	1
 138 005a 00       		.byte	0
 139 005b 00       		.byte	0
 140 005c 00       		.byte	0
 141 005d 00       		.byte	0
 142 005e 00       		.byte	0
 143 005f 00       		.byte	0
 144 0060 15       		.byte	21
 145 0061 18       		.byte	24
 146 0062 00       		.byte	0
 147 0063 00       		.byte	0
 148              		.align	2
 149              		.type	FlexibleDiskDriveGeometry, %object
 150              		.size	FlexibleDiskDriveGeometry, 32
 151              	FlexibleDiskDriveGeometry:
 152 0064 05       		.byte	5
 153 0065 1E       		.byte	30
 154 0066 01       		.byte	1
 155 0067 F4       		.byte	-12
 156 0068 01       		.byte	1
 157 0069 12       		.byte	18
 158 006a 20       		.byte	32
 159 006b 00       		.byte	0
 160 006c 00       		.byte	0
 161 006d 50       		.byte	80
 162 006e 00       		.byte	0
 163 006f 80       		.byte	-128
 164 0070 00       		.byte	0
 165 0071 80       		.byte	-128
 166 0072 00       		.byte	0
 167 0073 00       		.byte	0
 168 0074 00       		.byte	0
 169 0075 00       		.byte	0
 170 0076 00       		.byte	0
 171 0077 00       		.byte	0
ARM GAS  C:\Users\r\AppData\Local\Temp\cc0NugVx.s 			page 4


 172 0078 00       		.byte	0
 173 0079 00       		.byte	0
 174 007a 00       		.byte	0
 175 007b 00       		.byte	0
 176 007c 00       		.byte	0
 177 007d 00       		.byte	0
 178 007e 00       		.byte	0
 179 007f 00       		.byte	0
 180 0080 00       		.byte	0
 181 0081 00       		.byte	0
 182 0082 00       		.byte	0
 183 0083 00       		.byte	0
 184              		.align	2
 185              		.type	RigidDiskDriveGeometry_SCSI1, %object
 186              		.size	RigidDiskDriveGeometry_SCSI1, 20
 187              	RigidDiskDriveGeometry_SCSI1:
 188 0084 04       		.byte	4
 189 0085 12       		.byte	18
 190 0086 FF       		.byte	-1
 191 0087 FF       		.byte	-1
 192 0088 FF       		.byte	-1
 193 0089 00       		.byte	0
 194 008a FF       		.byte	-1
 195 008b FF       		.byte	-1
 196 008c FF       		.byte	-1
 197 008d FF       		.byte	-1
 198 008e FF       		.byte	-1
 199 008f FF       		.byte	-1
 200 0090 00       		.byte	0
 201 0091 01       		.byte	1
 202 0092 00       		.byte	0
 203 0093 00       		.byte	0
 204 0094 00       		.byte	0
 205 0095 00       		.byte	0
 206 0096 00       		.byte	0
 207 0097 00       		.byte	0
 208              		.align	2
 209              		.type	CachingPage, %object
 210              		.size	CachingPage, 12
 211              	CachingPage:
 212 0098 08       		.byte	8
 213 0099 0A       		.byte	10
 214 009a 01       		.byte	1
 215 009b 00       		.byte	0
 216 009c 00       		.byte	0
 217 009d 00       		.byte	0
 218 009e 00       		.byte	0
 219 009f 00       		.byte	0
 220 00a0 00       		.byte	0
 221 00a1 00       		.byte	0
 222 00a2 00       		.byte	0
 223 00a3 00       		.byte	0
 224              		.align	2
 225              		.type	ControlModePage, %object
 226              		.size	ControlModePage, 8
 227              	ControlModePage:
 228 00a4 0A       		.byte	10
ARM GAS  C:\Users\r\AppData\Local\Temp\cc0NugVx.s 			page 5


 229 00a5 06       		.byte	6
 230 00a6 00       		.byte	0
 231 00a7 01       		.byte	1
 232 00a8 00       		.byte	0
 233 00a9 00       		.byte	0
 234 00aa 00       		.byte	0
 235 00ab 00       		.byte	0
 236              		.align	2
 237              		.type	SequentialDeviceConfigPage, %object
 238              		.size	SequentialDeviceConfigPage, 15
 239              	SequentialDeviceConfigPage:
 240 00ac 10       		.byte	16
 241 00ad 0E       		.byte	14
 242 00ae 00       		.byte	0
 243 00af 00       		.byte	0
 244 00b0 00       		.byte	0
 245 00b1 00       		.byte	0
 246 00b2 00       		.byte	0
 247 00b3 01       		.byte	1
 248 00b4 00       		.byte	0
 249 00b5 10       		.byte	16
 250 00b6 00       		.byte	0
 251 00b7 00       		.byte	0
 252 00b8 00       		.byte	0
 253 00b9 00       		.byte	0
 254 00ba 00       		.byte	0
 255 00bb 00       		.align	2
 256              		.type	AppleVendorPage, %object
 257              		.size	AppleVendorPage, 30
 258              	AppleVendorPage:
 259 00bc 30       		.byte	48
 260 00bd 1C       		.byte	28
 261 00be 00       		.byte	0
 262 00bf 00       		.byte	0
 263 00c0 00       		.byte	0
 264 00c1 00       		.byte	0
 265 00c2 00       		.byte	0
 266 00c3 00       		.byte	0
 267 00c4 00       		.byte	0
 268 00c5 00       		.byte	0
 269 00c6 41       		.byte	65
 270 00c7 50       		.byte	80
 271 00c8 50       		.byte	80
 272 00c9 4C       		.byte	76
 273 00ca 45       		.byte	69
 274 00cb 20       		.byte	32
 275 00cc 43       		.byte	67
 276 00cd 4F       		.byte	79
 277 00ce 4D       		.byte	77
 278 00cf 50       		.byte	80
 279 00d0 55       		.byte	85
 280 00d1 54       		.byte	84
 281 00d2 45       		.byte	69
 282 00d3 52       		.byte	82
 283 00d4 2C       		.byte	44
 284 00d5 20       		.byte	32
 285 00d6 49       		.byte	73
ARM GAS  C:\Users\r\AppData\Local\Temp\cc0NugVx.s 			page 6


 286 00d7 4E       		.byte	78
 287 00d8 43       		.byte	67
 288 00d9 2E       		.byte	46
 289              		.section	.text.pageIn,"ax",%progbits
 290              		.align	2
 291              		.thumb
 292              		.thumb_func
 293              		.type	pageIn, %function
 294              	pageIn:
 295              	.LFB64:
 296              		.file 1 "..\\..\\src\\mode.c"
   1:..\..\src/mode.c **** //	Copyright (C) 2013 Michael McMaster <michael@codesrc.com>
   2:..\..\src/mode.c **** //  Copyright (C) 2014 Doug Brown <doug@downtowndougbrown.com>
   3:..\..\src/mode.c **** //
   4:..\..\src/mode.c **** //	This file is part of SCSI2SD.
   5:..\..\src/mode.c **** //
   6:..\..\src/mode.c **** //	SCSI2SD is free software: you can redistribute it and/or modify
   7:..\..\src/mode.c **** //	it under the terms of the GNU General Public License as published by
   8:..\..\src/mode.c **** //	the Free Software Foundation, either version 3 of the License, or
   9:..\..\src/mode.c **** //	(at your option) any later version.
  10:..\..\src/mode.c **** //
  11:..\..\src/mode.c **** //	SCSI2SD is distributed in the hope that it will be useful,
  12:..\..\src/mode.c **** //	but WITHOUT ANY WARRANTY; without even the implied warranty of
  13:..\..\src/mode.c **** //	MERCHANTABILITY or FITNESS FOR A PARTICULAR PURPOSE.  See the
  14:..\..\src/mode.c **** //	GNU General Public License for more details.
  15:..\..\src/mode.c **** //
  16:..\..\src/mode.c **** //	You should have received a copy of the GNU General Public License
  17:..\..\src/mode.c **** //	along with SCSI2SD.  If not, see <http://www.gnu.org/licenses/>.
  18:..\..\src/mode.c **** 
  19:..\..\src/mode.c **** #include "device.h"
  20:..\..\src/mode.c **** #include "scsi.h"
  21:..\..\src/mode.c **** #include "mode.h"
  22:..\..\src/mode.c **** #include "disk.h"
  23:..\..\src/mode.c **** #include "inquiry.h"
  24:..\..\src/mode.c **** 
  25:..\..\src/mode.c **** #include <string.h>
  26:..\..\src/mode.c **** 
  27:..\..\src/mode.c **** // "Vendor" defined page which was included by Seagate, and required for
  28:..\..\src/mode.c **** // Amiga 500 using DKB SpitFire controller.
  29:..\..\src/mode.c **** static const uint8 OperatingPage[] =
  30:..\..\src/mode.c **** {
  31:..\..\src/mode.c **** 0x00, // Page code
  32:..\..\src/mode.c **** 0x02, // Page length
  33:..\..\src/mode.c **** 
  34:..\..\src/mode.c **** // Bit 4 = unit attension (0 = on, 1 = off).
  35:..\..\src/mode.c **** // Bit 7 = usage bit, EEPROM life exceeded warning = 1.
  36:..\..\src/mode.c **** 0x80, 
  37:..\..\src/mode.c **** 
  38:..\..\src/mode.c **** // Bit 7 = reserved.
  39:..\..\src/mode.c **** // Bits 0:6: Device type qualifier, as per Inquiry data
  40:..\..\src/mode.c **** 0x00
  41:..\..\src/mode.c **** };
  42:..\..\src/mode.c **** 
  43:..\..\src/mode.c **** static const uint8 ReadWriteErrorRecoveryPage[] =
  44:..\..\src/mode.c **** {
  45:..\..\src/mode.c **** 0x01, // Page code
  46:..\..\src/mode.c **** 0x0A, // Page length
ARM GAS  C:\Users\r\AppData\Local\Temp\cc0NugVx.s 			page 7


  47:..\..\src/mode.c **** 
  48:..\..\src/mode.c **** // VMS 5.5-2 is very particular regarding the mode page values.
  49:..\..\src/mode.c **** // The required values for a SCSI2/NoTCQ device are:
  50:..\..\src/mode.c **** // AWRE=0 ARRE=0 TB=1 RC=0 EER=? PER=1 DTE=1 DCR=?
  51:..\..\src/mode.c **** // See ftp://www.digiater.nl/openvms/decus/vms94b/net94b/scsi_params_dkdriver.txt
  52:..\..\src/mode.c **** // X-Newsgroups: comp.os.vms
  53:..\..\src/mode.c **** // Subject: Re: VMS 6.1 vs. Seagate Disk Drives
  54:..\..\src/mode.c **** // Message-Id: <32g87h$8q@nntpd.lkg.dec.com>
  55:..\..\src/mode.c **** // From: weber@evms.enet.dec.com (Ralph O. Weber -- OpenVMS AXP)
  56:..\..\src/mode.c **** // Date: 12 Aug 1994 16:32:49 GMT
  57:..\..\src/mode.c **** 0x26,
  58:..\..\src/mode.c **** 
  59:..\..\src/mode.c **** 0x00, // Don't try recovery algorithm during reads
  60:..\..\src/mode.c **** 0x00, // Correction span 0
  61:..\..\src/mode.c **** 0x00, // Head offset count 0,
  62:..\..\src/mode.c **** 0x00, // Data strobe offset count 0,
  63:..\..\src/mode.c **** 0x00, // Reserved
  64:..\..\src/mode.c **** 0x00, // Don't try recovery algorithm during writes
  65:..\..\src/mode.c **** 0x00, // Reserved
  66:..\..\src/mode.c **** 0x00, 0x00 // Recovery time limit 0 (use default)*/
  67:..\..\src/mode.c **** };
  68:..\..\src/mode.c **** 
  69:..\..\src/mode.c **** static const uint8 ReadWriteErrorRecoveryPage_SCSI1[] =
  70:..\..\src/mode.c **** {
  71:..\..\src/mode.c **** 0x01, // Page code
  72:..\..\src/mode.c **** 0x06, // Page length
  73:..\..\src/mode.c **** 0x26,
  74:..\..\src/mode.c **** 0x00, // Don't try recovery algorithm during reads
  75:..\..\src/mode.c **** 0x00, // Correction span 0
  76:..\..\src/mode.c **** 0x00, // Head offset count 0,
  77:..\..\src/mode.c **** 0x00, // Data strobe offset count 0,
  78:..\..\src/mode.c **** 0xFF // Reserved
  79:..\..\src/mode.c **** };
  80:..\..\src/mode.c **** 
  81:..\..\src/mode.c **** static const uint8 DisconnectReconnectPage[] =
  82:..\..\src/mode.c **** {
  83:..\..\src/mode.c **** 0x02, // Page code
  84:..\..\src/mode.c **** 0x0E, // Page length
  85:..\..\src/mode.c **** 0, // Buffer full ratio
  86:..\..\src/mode.c **** 0, // Buffer empty ratio
  87:..\..\src/mode.c **** 0x00, 10, // Bus inactivity limit, 100us increments. Allow 1ms.
  88:..\..\src/mode.c **** 0x00, 0x00, // Disconnect time limit
  89:..\..\src/mode.c **** 0x00, 0x00, // Connect time limit
  90:..\..\src/mode.c **** 0x00, 0x00, // Maximum burst size
  91:..\..\src/mode.c **** 0x00 ,// DTDC. Not used.
  92:..\..\src/mode.c **** 0x00, 0x00, 0x00 // Reserved
  93:..\..\src/mode.c **** };
  94:..\..\src/mode.c **** 
  95:..\..\src/mode.c **** static const uint8 DisconnectReconnectPage_SCSI1[] =
  96:..\..\src/mode.c **** {
  97:..\..\src/mode.c **** 0x02, // Page code
  98:..\..\src/mode.c **** 0x0A, // Page length
  99:..\..\src/mode.c **** 0, // Buffer full ratio
 100:..\..\src/mode.c **** 0, // Buffer empty ratio
 101:..\..\src/mode.c **** 0x00, 10, // Bus inactivity limit, 100us increments. Allow 1ms.
 102:..\..\src/mode.c **** 0x00, 0x00, // Disconnect time limit
 103:..\..\src/mode.c **** 0x00, 0x00, // Connect time limit
ARM GAS  C:\Users\r\AppData\Local\Temp\cc0NugVx.s 			page 8


 104:..\..\src/mode.c **** 0x00, 0x00 // Maximum burst size
 105:..\..\src/mode.c **** };
 106:..\..\src/mode.c **** 
 107:..\..\src/mode.c **** static const uint8 FormatDevicePage[] =
 108:..\..\src/mode.c **** {
 109:..\..\src/mode.c **** 0x03 | 0x80, // Page code | PS (persist) bit.
 110:..\..\src/mode.c **** 0x16, // Page length
 111:..\..\src/mode.c **** 0x00, 0x00, // Single zone
 112:..\..\src/mode.c **** 0x00, 0x00, // No alternate sectors
 113:..\..\src/mode.c **** 0x00, 0x00, // No alternate tracks
 114:..\..\src/mode.c **** 0x00, 0x00, // No alternate tracks per lun
 115:..\..\src/mode.c **** 0x00, 0x00, // Sectors per track, configurable
 116:..\..\src/mode.c **** 0xFF, 0xFF, // Data bytes per physical sector. Configurable.
 117:..\..\src/mode.c **** 0x00, 0x01, // Interleave
 118:..\..\src/mode.c **** 0x00, 0x00, // Track skew factor
 119:..\..\src/mode.c **** 0x00, 0x00, // Cylinder skew factor
 120:..\..\src/mode.c **** 0xC0, // SSEC(set) HSEC(set) RMB SURF
 121:..\..\src/mode.c **** 0x00, 0x00, 0x00 // Reserved
 122:..\..\src/mode.c **** };
 123:..\..\src/mode.c **** 
 124:..\..\src/mode.c **** static const uint8 RigidDiskDriveGeometry[] =
 125:..\..\src/mode.c **** {
 126:..\..\src/mode.c **** 0x04, // Page code
 127:..\..\src/mode.c **** 0x16, // Page length
 128:..\..\src/mode.c **** 0xFF, 0xFF, 0xFF, // Number of cylinders
 129:..\..\src/mode.c **** 0x00, // Number of heads (replaced by configured value)
 130:..\..\src/mode.c **** 0xFF, 0xFF, 0xFF, // Starting cylinder-write precompensation
 131:..\..\src/mode.c **** 0xFF, 0xFF, 0xFF, // Starting cylinder-reduced write current
 132:..\..\src/mode.c **** 0x00, 0x1, // Drive step rate (units of 100ns)
 133:..\..\src/mode.c **** 0x00, 0x00, 0x00, // Landing zone cylinder
 134:..\..\src/mode.c **** 0x00, // RPL
 135:..\..\src/mode.c **** 0x00, // Rotational offset
 136:..\..\src/mode.c **** 0x00, // Reserved
 137:..\..\src/mode.c **** 5400 >> 8, 5400 & 0xFF, // Medium rotation rate (RPM)
 138:..\..\src/mode.c **** 0x00, 0x00 // Reserved
 139:..\..\src/mode.c **** };
 140:..\..\src/mode.c **** 
 141:..\..\src/mode.c **** static const uint8 FlexibleDiskDriveGeometry[] =
 142:..\..\src/mode.c **** {
 143:..\..\src/mode.c **** 0x05, // Page code
 144:..\..\src/mode.c **** 0x1E, // Page length
 145:..\..\src/mode.c **** 0x01, 0xF4, // Transfer Rate (500kbits)
 146:..\..\src/mode.c **** 0x01, // heads
 147:..\..\src/mode.c **** 18, // sectors per track
 148:..\..\src/mode.c **** 0x20,0x00, // bytes per sector
 149:..\..\src/mode.c **** 0x00, 80, // Cylinders
 150:..\..\src/mode.c **** 0x00, 0x80, // Write-precomp
 151:..\..\src/mode.c **** 0x00, 0x80, // reduced current,
 152:..\..\src/mode.c **** 0x00, 0x00, // Drive step rate
 153:..\..\src/mode.c **** 0x00, // pulse width
 154:..\..\src/mode.c **** 0x00, 0x00, // Head settle delay
 155:..\..\src/mode.c **** 0x00, // motor on delay
 156:..\..\src/mode.c **** 0x00,  // motor off delay
 157:..\..\src/mode.c **** 0x00,
 158:..\..\src/mode.c **** 0x00,
 159:..\..\src/mode.c **** 0x00,
 160:..\..\src/mode.c **** 0x00,
ARM GAS  C:\Users\r\AppData\Local\Temp\cc0NugVx.s 			page 9


 161:..\..\src/mode.c **** 0x00,
 162:..\..\src/mode.c **** 0x00,
 163:..\..\src/mode.c **** 0x00,
 164:..\..\src/mode.c **** 0x00,
 165:..\..\src/mode.c **** 0x00,
 166:..\..\src/mode.c **** 0x00,
 167:..\..\src/mode.c **** 0x00
 168:..\..\src/mode.c **** };
 169:..\..\src/mode.c **** 
 170:..\..\src/mode.c **** static const uint8 RigidDiskDriveGeometry_SCSI1[] =
 171:..\..\src/mode.c **** {
 172:..\..\src/mode.c **** 0x04, // Page code
 173:..\..\src/mode.c **** 0x12, // Page length
 174:..\..\src/mode.c **** 0xFF, 0xFF, 0xFF, // Number of cylinders
 175:..\..\src/mode.c **** 0x00, // Number of heads (replaced by configured value)
 176:..\..\src/mode.c **** 0xFF, 0xFF, 0xFF, // Starting cylinder-write precompensation
 177:..\..\src/mode.c **** 0xFF, 0xFF, 0xFF, // Starting cylinder-reduced write current
 178:..\..\src/mode.c **** 0x00, 0x1, // Drive step rate (units of 100ns)
 179:..\..\src/mode.c **** 0x00, 0x00, 0x00, // Landing zone cylinder
 180:..\..\src/mode.c **** 0x00, // RPL
 181:..\..\src/mode.c **** 0x00, // Rotational offset
 182:..\..\src/mode.c **** 0x00 // Reserved
 183:..\..\src/mode.c **** };
 184:..\..\src/mode.c **** 
 185:..\..\src/mode.c **** static const uint8 CachingPage[] =
 186:..\..\src/mode.c **** {
 187:..\..\src/mode.c **** 0x08, // Page Code
 188:..\..\src/mode.c **** 0x0A, // Page length
 189:..\..\src/mode.c **** 0x01, // Read cache disable
 190:..\..\src/mode.c **** 0x00, // No useful rention policy.
 191:..\..\src/mode.c **** 0x00, 0x00, // Pre-fetch always disabled
 192:..\..\src/mode.c **** 0x00, 0x00, // Minimum pre-fetch
 193:..\..\src/mode.c **** 0x00, 0x00, // Maximum pre-fetch
 194:..\..\src/mode.c **** 0x00, 0x00, // Maximum pre-fetch ceiling
 195:..\..\src/mode.c **** };
 196:..\..\src/mode.c **** 
 197:..\..\src/mode.c **** static const uint8 ControlModePage[] =
 198:..\..\src/mode.c **** {
 199:..\..\src/mode.c **** 0x0A, // Page code
 200:..\..\src/mode.c **** 0x06, // Page length
 201:..\..\src/mode.c **** 0x00, // No logging
 202:..\..\src/mode.c **** 0x01, // Disable tagged queuing
 203:..\..\src/mode.c **** 0x00, // No async event notifications
 204:..\..\src/mode.c **** 0x00, // Reserved
 205:..\..\src/mode.c **** 0x00, 0x00 // AEN holdoff period.
 206:..\..\src/mode.c **** };
 207:..\..\src/mode.c **** 
 208:..\..\src/mode.c **** static const uint8_t SequentialDeviceConfigPage[] =
 209:..\..\src/mode.c **** {
 210:..\..\src/mode.c **** 0x10, // page code
 211:..\..\src/mode.c **** 0x0E, // Page length
 212:..\..\src/mode.c **** 0x00, // CAP, CAF, Active Format
 213:..\..\src/mode.c **** 0x00, // Active partition
 214:..\..\src/mode.c **** 0x00, // Write buffer full ratio
 215:..\..\src/mode.c **** 0x00, // Read buffer empty ratio
 216:..\..\src/mode.c **** 0x00,0x01, // Write delay time, in 100ms units
 217:..\..\src/mode.c **** 0x00, // Default gap size
ARM GAS  C:\Users\r\AppData\Local\Temp\cc0NugVx.s 			page 10


 218:..\..\src/mode.c **** 0x10, // auto-generation of default eod (end of data)
 219:..\..\src/mode.c **** 0x00,0x00,0x00, // buffer-size at early warning
 220:..\..\src/mode.c **** 0x00, // No data compression
 221:..\..\src/mode.c **** 0x00 // reserved
 222:..\..\src/mode.c **** };
 223:..\..\src/mode.c **** 
 224:..\..\src/mode.c **** // Allow Apple 68k Drive Setup to format this drive.
 225:..\..\src/mode.c **** // Code
 226:..\..\src/mode.c **** static const uint8 AppleVendorPage[] =
 227:..\..\src/mode.c **** {
 228:..\..\src/mode.c **** 0x30, // Page code
 229:..\..\src/mode.c **** 28, // Page length
 230:..\..\src/mode.c **** 0x00,0x00,0x00,0x00,0x00,0x00,0x00,0x00,
 231:..\..\src/mode.c **** 'A','P','P','L','E',' ','C','O','M','P','U','T','E','R',',',' ','I','N','C','.'
 232:..\..\src/mode.c **** };
 233:..\..\src/mode.c **** 
 234:..\..\src/mode.c **** static void pageIn(int pc, int dataIdx, const uint8* pageData, int pageLen)
 235:..\..\src/mode.c **** {
 297              		.loc 1 235 0
 298              		.cfi_startproc
 299              		@ args = 0, pretend = 0, frame = 16
 300              		@ frame_needed = 1, uses_anonymous_args = 0
 301 0000 80B5     		push	{r7, lr}
 302              		.cfi_def_cfa_offset 8
 303              		.cfi_offset 7, -8
 304              		.cfi_offset 14, -4
 305 0002 84B0     		sub	sp, sp, #16
 306              		.cfi_def_cfa_offset 24
 307 0004 00AF     		add	r7, sp, #0
 308              		.cfi_def_cfa_register 7
 309 0006 F860     		str	r0, [r7, #12]
 310 0008 B960     		str	r1, [r7, #8]
 311 000a 7A60     		str	r2, [r7, #4]
 312 000c 3B60     		str	r3, [r7]
 236:..\..\src/mode.c **** 	memcpy(&scsiDev.data[dataIdx], pageData, pageLen);
 313              		.loc 1 236 0
 314 000e BB68     		ldr	r3, [r7, #8]
 315 0010 03F5BC73 		add	r3, r3, #376
 316 0014 0D4A     		ldr	r2, .L4
 317 0016 1344     		add	r3, r3, r2
 318 0018 0433     		adds	r3, r3, #4
 319 001a 3A68     		ldr	r2, [r7]
 320 001c 7968     		ldr	r1, [r7, #4]
 321 001e 1846     		mov	r0, r3
 322 0020 FFF7FEFF 		bl	memcpy
 237:..\..\src/mode.c **** 
 238:..\..\src/mode.c **** 	if (pc == 0x01) // Mask out (un)changable values
 323              		.loc 1 238 0
 324 0024 FB68     		ldr	r3, [r7, #12]
 325 0026 012B     		cmp	r3, #1
 326 0028 0CD1     		bne	.L3
 239:..\..\src/mode.c **** 	{
 240:..\..\src/mode.c **** 		memset(&scsiDev.data[dataIdx+2], 0, pageLen - 2);
 327              		.loc 1 240 0
 328 002a BB68     		ldr	r3, [r7, #8]
 329 002c 0233     		adds	r3, r3, #2
 330 002e 03F5BC73 		add	r3, r3, #376
ARM GAS  C:\Users\r\AppData\Local\Temp\cc0NugVx.s 			page 11


 331 0032 064A     		ldr	r2, .L4
 332 0034 1344     		add	r3, r3, r2
 333 0036 181D     		adds	r0, r3, #4
 334 0038 3B68     		ldr	r3, [r7]
 335 003a 023B     		subs	r3, r3, #2
 336 003c 1A46     		mov	r2, r3
 337 003e 0021     		movs	r1, #0
 338 0040 FFF7FEFF 		bl	memset
 339              	.L3:
 241:..\..\src/mode.c **** 	}
 242:..\..\src/mode.c **** }
 340              		.loc 1 242 0
 341 0044 00BF     		nop
 342 0046 1037     		adds	r7, r7, #16
 343              		.cfi_def_cfa_offset 8
 344 0048 BD46     		mov	sp, r7
 345              		.cfi_def_cfa_register 13
 346              		@ sp needed
 347 004a 80BD     		pop	{r7, pc}
 348              	.L5:
 349              		.align	2
 350              	.L4:
 351 004c 00000000 		.word	scsiDev
 352              		.cfi_endproc
 353              	.LFE64:
 354              		.size	pageIn, .-pageIn
 355              		.section	.text.useCustomPages,"ax",%progbits
 356              		.align	2
 357              		.thumb
 358              		.thumb_func
 359              		.type	useCustomPages, %function
 360              	useCustomPages:
 361              	.LFB65:
 243:..\..\src/mode.c **** 
 244:..\..\src/mode.c **** static int useCustomPages(const TargetConfig* cfg, int pc, int pageCode, int* idx)
 245:..\..\src/mode.c **** {
 362              		.loc 1 245 0
 363              		.cfi_startproc
 364              		@ args = 0, pretend = 0, frame = 32
 365              		@ frame_needed = 1, uses_anonymous_args = 0
 366 0000 80B5     		push	{r7, lr}
 367              		.cfi_def_cfa_offset 8
 368              		.cfi_offset 7, -8
 369              		.cfi_offset 14, -4
 370 0002 88B0     		sub	sp, sp, #32
 371              		.cfi_def_cfa_offset 40
 372 0004 00AF     		add	r7, sp, #0
 373              		.cfi_def_cfa_register 7
 374 0006 F860     		str	r0, [r7, #12]
 375 0008 B960     		str	r1, [r7, #8]
 376 000a 7A60     		str	r2, [r7, #4]
 377 000c 3B60     		str	r3, [r7]
 246:..\..\src/mode.c **** 	int found = 0;
 378              		.loc 1 246 0
 379 000e 0023     		movs	r3, #0
 380 0010 FB61     		str	r3, [r7, #28]
 247:..\..\src/mode.c **** 	int cfgIdx = 0;
ARM GAS  C:\Users\r\AppData\Local\Temp\cc0NugVx.s 			page 12


 381              		.loc 1 247 0
 382 0012 0023     		movs	r3, #0
 383 0014 BB61     		str	r3, [r7, #24]
 248:..\..\src/mode.c **** 	while ((cfgIdx < sizeof(cfg->modePages) - 2) &&
 384              		.loc 1 248 0
 385 0016 31E0     		b	.L7
 386              	.L11:
 387              	.LBB2:
 249:..\..\src/mode.c **** 		(cfg->modePages[cfgIdx + 1] != 0)
 250:..\..\src/mode.c **** 		)
 251:..\..\src/mode.c **** 	{
 252:..\..\src/mode.c **** 		int pageSize = cfg->modePages[cfgIdx + 1] + 2;
 388              		.loc 1 252 0
 389 0018 BB69     		ldr	r3, [r7, #24]
 390 001a 0133     		adds	r3, r3, #1
 391 001c FA68     		ldr	r2, [r7, #12]
 392 001e 1344     		add	r3, r3, r2
 393 0020 93F80034 		ldrb	r3, [r3, #1024]	@ zero_extendqisi2
 394 0024 0233     		adds	r3, r3, #2
 395 0026 7B61     		str	r3, [r7, #20]
 253:..\..\src/mode.c **** 		int dataPageCode = cfg->modePages[cfgIdx] & 0x3f;
 396              		.loc 1 253 0
 397 0028 FA68     		ldr	r2, [r7, #12]
 398 002a BB69     		ldr	r3, [r7, #24]
 399 002c 1344     		add	r3, r3, r2
 400 002e 03F58063 		add	r3, r3, #1024
 401 0032 1B78     		ldrb	r3, [r3]	@ zero_extendqisi2
 402 0034 03F03F03 		and	r3, r3, #63
 403 0038 3B61     		str	r3, [r7, #16]
 254:..\..\src/mode.c **** 		if ((dataPageCode == pageCode) ||
 404              		.loc 1 254 0
 405 003a 3A69     		ldr	r2, [r7, #16]
 406 003c 7B68     		ldr	r3, [r7, #4]
 407 003e 9A42     		cmp	r2, r3
 408 0040 02D0     		beq	.L8
 409              		.loc 1 254 0 is_stmt 0 discriminator 1
 410 0042 7B68     		ldr	r3, [r7, #4]
 411 0044 3F2B     		cmp	r3, #63
 412 0046 15D1     		bne	.L9
 413              	.L8:
 255:..\..\src/mode.c **** 			(pageCode == 0x3f)
 256:..\..\src/mode.c **** 			)
 257:..\..\src/mode.c **** 		{
 258:..\..\src/mode.c **** 			pageIn(pc, *idx, &cfg->modePages[cfgIdx], pageSize);
 414              		.loc 1 258 0 is_stmt 1
 415 0048 3B68     		ldr	r3, [r7]
 416 004a 1968     		ldr	r1, [r3]
 417 004c BB69     		ldr	r3, [r7, #24]
 418 004e 03F58063 		add	r3, r3, #1024
 419 0052 FA68     		ldr	r2, [r7, #12]
 420 0054 1A44     		add	r2, r2, r3
 421 0056 7B69     		ldr	r3, [r7, #20]
 422 0058 B868     		ldr	r0, [r7, #8]
 423 005a FFF7FEFF 		bl	pageIn
 259:..\..\src/mode.c **** 			*idx += pageSize;
 424              		.loc 1 259 0
 425 005e 3B68     		ldr	r3, [r7]
ARM GAS  C:\Users\r\AppData\Local\Temp\cc0NugVx.s 			page 13


 426 0060 1A68     		ldr	r2, [r3]
 427 0062 7B69     		ldr	r3, [r7, #20]
 428 0064 1A44     		add	r2, r2, r3
 429 0066 3B68     		ldr	r3, [r7]
 430 0068 1A60     		str	r2, [r3]
 260:..\..\src/mode.c **** 			found = 1;
 431              		.loc 1 260 0
 432 006a 0123     		movs	r3, #1
 433 006c FB61     		str	r3, [r7, #28]
 261:..\..\src/mode.c **** 			if (pageCode != 0x3f)
 434              		.loc 1 261 0
 435 006e 7B68     		ldr	r3, [r7, #4]
 436 0070 3F2B     		cmp	r3, #63
 437 0072 11D1     		bne	.L13
 438              	.L9:
 262:..\..\src/mode.c **** 			{
 263:..\..\src/mode.c **** 				break;
 264:..\..\src/mode.c **** 			}
 265:..\..\src/mode.c **** 		}
 266:..\..\src/mode.c **** 		cfgIdx += pageSize;
 439              		.loc 1 266 0
 440 0074 BA69     		ldr	r2, [r7, #24]
 441 0076 7B69     		ldr	r3, [r7, #20]
 442 0078 1344     		add	r3, r3, r2
 443 007a BB61     		str	r3, [r7, #24]
 444              	.L7:
 445              	.LBE2:
 248:..\..\src/mode.c **** 		(cfg->modePages[cfgIdx + 1] != 0)
 446              		.loc 1 248 0
 447 007c BB69     		ldr	r3, [r7, #24]
 448 007e 40F2FD32 		movw	r2, #1021
 449 0082 9342     		cmp	r3, r2
 450 0084 09D8     		bhi	.L10
 249:..\..\src/mode.c **** 		)
 451              		.loc 1 249 0 discriminator 1
 452 0086 BB69     		ldr	r3, [r7, #24]
 453 0088 0133     		adds	r3, r3, #1
 454 008a FA68     		ldr	r2, [r7, #12]
 455 008c 1344     		add	r3, r3, r2
 456 008e 93F80034 		ldrb	r3, [r3, #1024]	@ zero_extendqisi2
 248:..\..\src/mode.c **** 		(cfg->modePages[cfgIdx + 1] != 0)
 457              		.loc 1 248 0 discriminator 1
 458 0092 002B     		cmp	r3, #0
 459 0094 C0D1     		bne	.L11
 460 0096 00E0     		b	.L10
 461              	.L13:
 462              	.LBB3:
 263:..\..\src/mode.c **** 			}
 463              		.loc 1 263 0
 464 0098 00BF     		nop
 465              	.L10:
 466              	.LBE3:
 267:..\..\src/mode.c **** 	}
 268:..\..\src/mode.c **** 	return found;
 467              		.loc 1 268 0
 468 009a FB69     		ldr	r3, [r7, #28]
 269:..\..\src/mode.c **** }
ARM GAS  C:\Users\r\AppData\Local\Temp\cc0NugVx.s 			page 14


 469              		.loc 1 269 0
 470 009c 1846     		mov	r0, r3
 471 009e 2037     		adds	r7, r7, #32
 472              		.cfi_def_cfa_offset 8
 473 00a0 BD46     		mov	sp, r7
 474              		.cfi_def_cfa_register 13
 475              		@ sp needed
 476 00a2 80BD     		pop	{r7, pc}
 477              		.cfi_endproc
 478              	.LFE65:
 479              		.size	useCustomPages, .-useCustomPages
 480              		.section	.text.doModeSense,"ax",%progbits
 481              		.align	2
 482              		.thumb
 483              		.thumb_func
 484              		.type	doModeSense, %function
 485              	doModeSense:
 486              	.LFB66:
 270:..\..\src/mode.c **** 
 271:..\..\src/mode.c **** static void doModeSense(
 272:..\..\src/mode.c **** 	int sixByteCmd, int dbd, int pc, int pageCode, int allocLength)
 273:..\..\src/mode.c **** {
 487              		.loc 1 273 0
 488              		.cfi_startproc
 489              		@ args = 4, pretend = 0, frame = 56
 490              		@ frame_needed = 1, uses_anonymous_args = 0
 491 0000 B0B5     		push	{r4, r5, r7, lr}
 492              		.cfi_def_cfa_offset 16
 493              		.cfi_offset 4, -16
 494              		.cfi_offset 5, -12
 495              		.cfi_offset 7, -8
 496              		.cfi_offset 14, -4
 497 0002 90B0     		sub	sp, sp, #64
 498              		.cfi_def_cfa_offset 80
 499 0004 02AF     		add	r7, sp, #8
 500              		.cfi_def_cfa 7, 72
 501 0006 F860     		str	r0, [r7, #12]
 502 0008 B960     		str	r1, [r7, #8]
 503 000a 7A60     		str	r2, [r7, #4]
 504 000c 3B60     		str	r3, [r7]
 274:..\..\src/mode.c **** 	////////////// Mode Parameter Header
 275:..\..\src/mode.c **** 	////////////////////////////////////
 276:..\..\src/mode.c **** 
 277:..\..\src/mode.c **** 	// Skip the Mode Data Length, we set that last.
 278:..\..\src/mode.c **** 	int idx = 1;
 505              		.loc 1 278 0
 506 000e 0123     		movs	r3, #1
 507 0010 3B62     		str	r3, [r7, #32]
 279:..\..\src/mode.c **** 	if (!sixByteCmd) ++idx;
 508              		.loc 1 279 0
 509 0012 FB68     		ldr	r3, [r7, #12]
 510 0014 002B     		cmp	r3, #0
 511 0016 02D1     		bne	.L15
 512              		.loc 1 279 0 is_stmt 0 discriminator 1
 513 0018 3B6A     		ldr	r3, [r7, #32]
 514 001a 0133     		adds	r3, r3, #1
 515 001c 3B62     		str	r3, [r7, #32]
ARM GAS  C:\Users\r\AppData\Local\Temp\cc0NugVx.s 			page 15


 516              	.L15:
 280:..\..\src/mode.c **** 
 281:..\..\src/mode.c **** 	uint8_t mediumType = 0;
 517              		.loc 1 281 0 is_stmt 1
 518 001e 0023     		movs	r3, #0
 519 0020 87F83730 		strb	r3, [r7, #55]
 282:..\..\src/mode.c **** 	uint8_t deviceSpecificParam = 0;
 520              		.loc 1 282 0
 521 0024 0023     		movs	r3, #0
 522 0026 87F83630 		strb	r3, [r7, #54]
 283:..\..\src/mode.c **** 	uint8_t density = 0;
 523              		.loc 1 283 0
 524 002a 0023     		movs	r3, #0
 525 002c 87F83530 		strb	r3, [r7, #53]
 284:..\..\src/mode.c **** 	switch (scsiDev.target->cfg->deviceType)
 526              		.loc 1 284 0
 527 0030 B24B     		ldr	r3, .L73
 528 0032 1B6E     		ldr	r3, [r3, #96]
 529 0034 5B68     		ldr	r3, [r3, #4]
 530 0036 5B78     		ldrb	r3, [r3, #1]	@ zero_extendqisi2
 531 0038 052B     		cmp	r3, #5
 532 003a 61D8     		bhi	.L16
 533 003c 01A2     		adr	r2, .L18
 534 003e 52F823F0 		ldr	pc, [r2, r3, lsl #2]
 535 0042 00BF     		.p2align 2
 536              	.L18:
 537 0044 5D000000 		.word	.L17+1
 538 0048 5D000000 		.word	.L17+1
 539 004c A5000000 		.word	.L19+1
 540 0050 81000000 		.word	.L20+1
 541 0054 DD000000 		.word	.L21+1
 542 0058 B9000000 		.word	.L22+1
 543              		.p2align 1
 544              	.L17:
 285:..\..\src/mode.c **** 	{
 286:..\..\src/mode.c **** 	case CONFIG_FIXED:
 287:..\..\src/mode.c **** 	case CONFIG_REMOVEABLE:
 288:..\..\src/mode.c **** 		mediumType = 0; // We should support various floppy types here!
 545              		.loc 1 288 0
 546 005c 0023     		movs	r3, #0
 547 005e 87F83730 		strb	r3, [r7, #55]
 289:..\..\src/mode.c **** 		// Contains cache bits (0) and a Write-Protect bit.
 290:..\..\src/mode.c **** 		deviceSpecificParam =
 291:..\..\src/mode.c **** 			(blockDev.state & DISK_WP) ? 0x80 : 0;
 548              		.loc 1 291 0
 549 0062 A74B     		ldr	r3, .L73+4
 550 0064 1B68     		ldr	r3, [r3]
 551 0066 03F00803 		and	r3, r3, #8
 290:..\..\src/mode.c **** 			(blockDev.state & DISK_WP) ? 0x80 : 0;
 552              		.loc 1 290 0
 553 006a 002B     		cmp	r3, #0
 554 006c 01D0     		beq	.L23
 290:..\..\src/mode.c **** 			(blockDev.state & DISK_WP) ? 0x80 : 0;
 555              		.loc 1 290 0 is_stmt 0 discriminator 1
 556 006e 8023     		movs	r3, #128
 557 0070 00E0     		b	.L24
 558              	.L23:
ARM GAS  C:\Users\r\AppData\Local\Temp\cc0NugVx.s 			page 16


 290:..\..\src/mode.c **** 			(blockDev.state & DISK_WP) ? 0x80 : 0;
 559              		.loc 1 290 0 discriminator 2
 560 0072 0023     		movs	r3, #0
 561              	.L24:
 290:..\..\src/mode.c **** 			(blockDev.state & DISK_WP) ? 0x80 : 0;
 562              		.loc 1 290 0 discriminator 4
 563 0074 87F83630 		strb	r3, [r7, #54]
 292:..\..\src/mode.c **** 		density = 0; // reserved for direct access
 564              		.loc 1 292 0 is_stmt 1 discriminator 4
 565 0078 0023     		movs	r3, #0
 566 007a 87F83530 		strb	r3, [r7, #53]
 293:..\..\src/mode.c **** 		break;
 567              		.loc 1 293 0 discriminator 4
 568 007e 3FE0     		b	.L16
 569              	.L20:
 294:..\..\src/mode.c **** 
 295:..\..\src/mode.c **** 	case CONFIG_FLOPPY_14MB:
 296:..\..\src/mode.c **** 		mediumType = 0x1E; // 90mm/3.5"
 570              		.loc 1 296 0
 571 0080 1E23     		movs	r3, #30
 572 0082 87F83730 		strb	r3, [r7, #55]
 297:..\..\src/mode.c **** 		deviceSpecificParam =
 298:..\..\src/mode.c **** 			(blockDev.state & DISK_WP) ? 0x80 : 0;
 573              		.loc 1 298 0
 574 0086 9E4B     		ldr	r3, .L73+4
 575 0088 1B68     		ldr	r3, [r3]
 576 008a 03F00803 		and	r3, r3, #8
 297:..\..\src/mode.c **** 		deviceSpecificParam =
 577              		.loc 1 297 0
 578 008e 002B     		cmp	r3, #0
 579 0090 01D0     		beq	.L25
 297:..\..\src/mode.c **** 		deviceSpecificParam =
 580              		.loc 1 297 0 is_stmt 0 discriminator 1
 581 0092 8023     		movs	r3, #128
 582 0094 00E0     		b	.L26
 583              	.L25:
 297:..\..\src/mode.c **** 		deviceSpecificParam =
 584              		.loc 1 297 0 discriminator 2
 585 0096 0023     		movs	r3, #0
 586              	.L26:
 297:..\..\src/mode.c **** 		deviceSpecificParam =
 587              		.loc 1 297 0 discriminator 4
 588 0098 87F83630 		strb	r3, [r7, #54]
 299:..\..\src/mode.c **** 		density = 0; // reserved for direct access
 589              		.loc 1 299 0 is_stmt 1 discriminator 4
 590 009c 0023     		movs	r3, #0
 591 009e 87F83530 		strb	r3, [r7, #53]
 300:..\..\src/mode.c **** 		break;
 592              		.loc 1 300 0 discriminator 4
 593 00a2 2DE0     		b	.L16
 594              	.L19:
 301:..\..\src/mode.c **** 
 302:..\..\src/mode.c **** 	case CONFIG_OPTICAL:
 303:..\..\src/mode.c **** 		mediumType = 0x02; // 120mm CDROM, data only.
 595              		.loc 1 303 0
 596 00a4 0223     		movs	r3, #2
 597 00a6 87F83730 		strb	r3, [r7, #55]
ARM GAS  C:\Users\r\AppData\Local\Temp\cc0NugVx.s 			page 17


 304:..\..\src/mode.c **** 		deviceSpecificParam = 0;
 598              		.loc 1 304 0
 599 00aa 0023     		movs	r3, #0
 600 00ac 87F83630 		strb	r3, [r7, #54]
 305:..\..\src/mode.c **** 		density = 0x01; // User data only, 2048bytes per sector.
 601              		.loc 1 305 0
 602 00b0 0123     		movs	r3, #1
 603 00b2 87F83530 		strb	r3, [r7, #53]
 306:..\..\src/mode.c **** 		break;
 604              		.loc 1 306 0
 605 00b6 23E0     		b	.L16
 606              	.L22:
 307:..\..\src/mode.c **** 
 308:..\..\src/mode.c **** 	case CONFIG_SEQUENTIAL:
 309:..\..\src/mode.c **** 		mediumType = 0; // reserved
 607              		.loc 1 309 0
 608 00b8 0023     		movs	r3, #0
 609 00ba 87F83730 		strb	r3, [r7, #55]
 310:..\..\src/mode.c **** 		deviceSpecificParam =
 311:..\..\src/mode.c **** 			(blockDev.state & DISK_WP) ? 0x80 : 0;
 610              		.loc 1 311 0
 611 00be 904B     		ldr	r3, .L73+4
 612 00c0 1B68     		ldr	r3, [r3]
 613 00c2 03F00803 		and	r3, r3, #8
 310:..\..\src/mode.c **** 		deviceSpecificParam =
 614              		.loc 1 310 0
 615 00c6 002B     		cmp	r3, #0
 616 00c8 01D0     		beq	.L27
 310:..\..\src/mode.c **** 		deviceSpecificParam =
 617              		.loc 1 310 0 is_stmt 0 discriminator 1
 618 00ca 8023     		movs	r3, #128
 619 00cc 00E0     		b	.L28
 620              	.L27:
 310:..\..\src/mode.c **** 		deviceSpecificParam =
 621              		.loc 1 310 0 discriminator 2
 622 00ce 0023     		movs	r3, #0
 623              	.L28:
 310:..\..\src/mode.c **** 		deviceSpecificParam =
 624              		.loc 1 310 0 discriminator 4
 625 00d0 87F83630 		strb	r3, [r7, #54]
 312:..\..\src/mode.c **** 		density = 0x13; // DAT Data Storage, X3B5/88-185A 
 626              		.loc 1 312 0 is_stmt 1 discriminator 4
 627 00d4 1323     		movs	r3, #19
 628 00d6 87F83530 		strb	r3, [r7, #53]
 313:..\..\src/mode.c **** 		break;
 629              		.loc 1 313 0 discriminator 4
 630 00da 11E0     		b	.L16
 631              	.L21:
 314:..\..\src/mode.c **** 
 315:..\..\src/mode.c **** 	case CONFIG_MO:
 316:..\..\src/mode.c ****         mediumType = 0x03; // Optical reversible or erasable medium
 632              		.loc 1 316 0
 633 00dc 0323     		movs	r3, #3
 634 00de 87F83730 		strb	r3, [r7, #55]
 317:..\..\src/mode.c **** 		deviceSpecificParam =
 318:..\..\src/mode.c **** 			(blockDev.state & DISK_WP) ? 0x80 : 0;
 635              		.loc 1 318 0
ARM GAS  C:\Users\r\AppData\Local\Temp\cc0NugVx.s 			page 18


 636 00e2 874B     		ldr	r3, .L73+4
 637 00e4 1B68     		ldr	r3, [r3]
 638 00e6 03F00803 		and	r3, r3, #8
 317:..\..\src/mode.c **** 		deviceSpecificParam =
 639              		.loc 1 317 0
 640 00ea 002B     		cmp	r3, #0
 641 00ec 01D0     		beq	.L29
 317:..\..\src/mode.c **** 		deviceSpecificParam =
 642              		.loc 1 317 0 is_stmt 0 discriminator 1
 643 00ee 8023     		movs	r3, #128
 644 00f0 00E0     		b	.L30
 645              	.L29:
 317:..\..\src/mode.c **** 		deviceSpecificParam =
 646              		.loc 1 317 0 discriminator 2
 647 00f2 0023     		movs	r3, #0
 648              	.L30:
 317:..\..\src/mode.c **** 		deviceSpecificParam =
 649              		.loc 1 317 0 discriminator 4
 650 00f4 87F83630 		strb	r3, [r7, #54]
 319:..\..\src/mode.c **** 		density = 0x00; // Default
 651              		.loc 1 319 0 is_stmt 1 discriminator 4
 652 00f8 0023     		movs	r3, #0
 653 00fa 87F83530 		strb	r3, [r7, #53]
 320:..\..\src/mode.c **** 		break;
 654              		.loc 1 320 0 discriminator 4
 655 00fe 00BF     		nop
 656              	.L16:
 321:..\..\src/mode.c **** 
 322:..\..\src/mode.c **** 	};
 323:..\..\src/mode.c **** 
 324:..\..\src/mode.c **** 	scsiDev.data[idx++] = mediumType;
 657              		.loc 1 324 0
 658 0100 3B6A     		ldr	r3, [r7, #32]
 659 0102 5A1C     		adds	r2, r3, #1
 660 0104 3A62     		str	r2, [r7, #32]
 661 0106 7D4A     		ldr	r2, .L73
 662 0108 1344     		add	r3, r3, r2
 663 010a 97F83720 		ldrb	r2, [r7, #55]
 664 010e 83F87C21 		strb	r2, [r3, #380]
 325:..\..\src/mode.c **** 	scsiDev.data[idx++] = deviceSpecificParam;
 665              		.loc 1 325 0
 666 0112 3B6A     		ldr	r3, [r7, #32]
 667 0114 5A1C     		adds	r2, r3, #1
 668 0116 3A62     		str	r2, [r7, #32]
 669 0118 784A     		ldr	r2, .L73
 670 011a 1344     		add	r3, r3, r2
 671 011c 97F83620 		ldrb	r2, [r7, #54]
 672 0120 83F87C21 		strb	r2, [r3, #380]
 326:..\..\src/mode.c **** 
 327:..\..\src/mode.c **** 	if (sixByteCmd)
 673              		.loc 1 327 0
 674 0124 FB68     		ldr	r3, [r7, #12]
 675 0126 002B     		cmp	r3, #0
 676 0128 14D0     		beq	.L31
 328:..\..\src/mode.c **** 	{
 329:..\..\src/mode.c **** 		if (dbd)
 677              		.loc 1 329 0
ARM GAS  C:\Users\r\AppData\Local\Temp\cc0NugVx.s 			page 19


 678 012a BB68     		ldr	r3, [r7, #8]
 679 012c 002B     		cmp	r3, #0
 680 012e 08D0     		beq	.L32
 330:..\..\src/mode.c **** 		{
 331:..\..\src/mode.c **** 			scsiDev.data[idx++] = 0; // No block descriptor
 681              		.loc 1 331 0
 682 0130 3B6A     		ldr	r3, [r7, #32]
 683 0132 5A1C     		adds	r2, r3, #1
 684 0134 3A62     		str	r2, [r7, #32]
 685 0136 714A     		ldr	r2, .L73
 686 0138 1344     		add	r3, r3, r2
 687 013a 0022     		movs	r2, #0
 688 013c 83F87C21 		strb	r2, [r3, #380]
 689 0140 3CE0     		b	.L34
 690              	.L32:
 332:..\..\src/mode.c **** 		}
 333:..\..\src/mode.c **** 		else
 334:..\..\src/mode.c **** 		{
 335:..\..\src/mode.c **** 			// One block descriptor of length 8 bytes.
 336:..\..\src/mode.c **** 			scsiDev.data[idx++] = 8;
 691              		.loc 1 336 0
 692 0142 3B6A     		ldr	r3, [r7, #32]
 693 0144 5A1C     		adds	r2, r3, #1
 694 0146 3A62     		str	r2, [r7, #32]
 695 0148 6C4A     		ldr	r2, .L73
 696 014a 1344     		add	r3, r3, r2
 697 014c 0822     		movs	r2, #8
 698 014e 83F87C21 		strb	r2, [r3, #380]
 699 0152 33E0     		b	.L34
 700              	.L31:
 337:..\..\src/mode.c **** 		}
 338:..\..\src/mode.c **** 	}
 339:..\..\src/mode.c **** 	else
 340:..\..\src/mode.c **** 	{
 341:..\..\src/mode.c **** 		scsiDev.data[idx++] = 0; // Reserved
 701              		.loc 1 341 0
 702 0154 3B6A     		ldr	r3, [r7, #32]
 703 0156 5A1C     		adds	r2, r3, #1
 704 0158 3A62     		str	r2, [r7, #32]
 705 015a 684A     		ldr	r2, .L73
 706 015c 1344     		add	r3, r3, r2
 707 015e 0022     		movs	r2, #0
 708 0160 83F87C21 		strb	r2, [r3, #380]
 342:..\..\src/mode.c **** 		scsiDev.data[idx++] = 0; // Reserved
 709              		.loc 1 342 0
 710 0164 3B6A     		ldr	r3, [r7, #32]
 711 0166 5A1C     		adds	r2, r3, #1
 712 0168 3A62     		str	r2, [r7, #32]
 713 016a 644A     		ldr	r2, .L73
 714 016c 1344     		add	r3, r3, r2
 715 016e 0022     		movs	r2, #0
 716 0170 83F87C21 		strb	r2, [r3, #380]
 343:..\..\src/mode.c **** 		if (dbd)
 717              		.loc 1 343 0
 718 0174 BB68     		ldr	r3, [r7, #8]
 719 0176 002B     		cmp	r3, #0
 720 0178 10D0     		beq	.L35
ARM GAS  C:\Users\r\AppData\Local\Temp\cc0NugVx.s 			page 20


 344:..\..\src/mode.c **** 		{
 345:..\..\src/mode.c **** 			scsiDev.data[idx++] = 0; // No block descriptor
 721              		.loc 1 345 0
 722 017a 3B6A     		ldr	r3, [r7, #32]
 723 017c 5A1C     		adds	r2, r3, #1
 724 017e 3A62     		str	r2, [r7, #32]
 725 0180 5E4A     		ldr	r2, .L73
 726 0182 1344     		add	r3, r3, r2
 727 0184 0022     		movs	r2, #0
 728 0186 83F87C21 		strb	r2, [r3, #380]
 346:..\..\src/mode.c **** 			scsiDev.data[idx++] = 0; // No block descriptor
 729              		.loc 1 346 0
 730 018a 3B6A     		ldr	r3, [r7, #32]
 731 018c 5A1C     		adds	r2, r3, #1
 732 018e 3A62     		str	r2, [r7, #32]
 733 0190 5A4A     		ldr	r2, .L73
 734 0192 1344     		add	r3, r3, r2
 735 0194 0022     		movs	r2, #0
 736 0196 83F87C21 		strb	r2, [r3, #380]
 737 019a 0FE0     		b	.L34
 738              	.L35:
 347:..\..\src/mode.c **** 		}
 348:..\..\src/mode.c **** 		else
 349:..\..\src/mode.c **** 		{
 350:..\..\src/mode.c **** 			// One block descriptor of length 8 bytes.
 351:..\..\src/mode.c **** 			scsiDev.data[idx++] = 0;
 739              		.loc 1 351 0
 740 019c 3B6A     		ldr	r3, [r7, #32]
 741 019e 5A1C     		adds	r2, r3, #1
 742 01a0 3A62     		str	r2, [r7, #32]
 743 01a2 564A     		ldr	r2, .L73
 744 01a4 1344     		add	r3, r3, r2
 745 01a6 0022     		movs	r2, #0
 746 01a8 83F87C21 		strb	r2, [r3, #380]
 352:..\..\src/mode.c **** 			scsiDev.data[idx++] = 8;
 747              		.loc 1 352 0
 748 01ac 3B6A     		ldr	r3, [r7, #32]
 749 01ae 5A1C     		adds	r2, r3, #1
 750 01b0 3A62     		str	r2, [r7, #32]
 751 01b2 524A     		ldr	r2, .L73
 752 01b4 1344     		add	r3, r3, r2
 753 01b6 0822     		movs	r2, #8
 754 01b8 83F87C21 		strb	r2, [r3, #380]
 755              	.L34:
 353:..\..\src/mode.c **** 		}
 354:..\..\src/mode.c **** 	}
 355:..\..\src/mode.c **** 
 356:..\..\src/mode.c **** 	////////////// Block Descriptor
 357:..\..\src/mode.c **** 	////////////////////////////////////
 358:..\..\src/mode.c **** 	if (!dbd)
 756              		.loc 1 358 0
 757 01bc BB68     		ldr	r3, [r7, #8]
 758 01be 002B     		cmp	r3, #0
 759 01c0 4CD1     		bne	.L36
 760              	.LBB4:
 359:..\..\src/mode.c **** 	{
 360:..\..\src/mode.c **** 		scsiDev.data[idx++] = density;
ARM GAS  C:\Users\r\AppData\Local\Temp\cc0NugVx.s 			page 21


 761              		.loc 1 360 0
 762 01c2 3B6A     		ldr	r3, [r7, #32]
 763 01c4 5A1C     		adds	r2, r3, #1
 764 01c6 3A62     		str	r2, [r7, #32]
 765 01c8 4C4A     		ldr	r2, .L73
 766 01ca 1344     		add	r3, r3, r2
 767 01cc 97F83520 		ldrb	r2, [r7, #53]
 768 01d0 83F87C21 		strb	r2, [r3, #380]
 361:..\..\src/mode.c **** 		// Number of blocks
 362:..\..\src/mode.c **** 		// Zero == all remaining blocks shall have the medium
 363:..\..\src/mode.c **** 		// characteristics specified.
 364:..\..\src/mode.c **** 		scsiDev.data[idx++] = 0;
 769              		.loc 1 364 0
 770 01d4 3B6A     		ldr	r3, [r7, #32]
 771 01d6 5A1C     		adds	r2, r3, #1
 772 01d8 3A62     		str	r2, [r7, #32]
 773 01da 484A     		ldr	r2, .L73
 774 01dc 1344     		add	r3, r3, r2
 775 01de 0022     		movs	r2, #0
 776 01e0 83F87C21 		strb	r2, [r3, #380]
 365:..\..\src/mode.c **** 		scsiDev.data[idx++] = 0;
 777              		.loc 1 365 0
 778 01e4 3B6A     		ldr	r3, [r7, #32]
 779 01e6 5A1C     		adds	r2, r3, #1
 780 01e8 3A62     		str	r2, [r7, #32]
 781 01ea 444A     		ldr	r2, .L73
 782 01ec 1344     		add	r3, r3, r2
 783 01ee 0022     		movs	r2, #0
 784 01f0 83F87C21 		strb	r2, [r3, #380]
 366:..\..\src/mode.c **** 		scsiDev.data[idx++] = 0;
 785              		.loc 1 366 0
 786 01f4 3B6A     		ldr	r3, [r7, #32]
 787 01f6 5A1C     		adds	r2, r3, #1
 788 01f8 3A62     		str	r2, [r7, #32]
 789 01fa 404A     		ldr	r2, .L73
 790 01fc 1344     		add	r3, r3, r2
 791 01fe 0022     		movs	r2, #0
 792 0200 83F87C21 		strb	r2, [r3, #380]
 367:..\..\src/mode.c **** 
 368:..\..\src/mode.c **** 		scsiDev.data[idx++] = 0; // reserved
 793              		.loc 1 368 0
 794 0204 3B6A     		ldr	r3, [r7, #32]
 795 0206 5A1C     		adds	r2, r3, #1
 796 0208 3A62     		str	r2, [r7, #32]
 797 020a 3C4A     		ldr	r2, .L73
 798 020c 1344     		add	r3, r3, r2
 799 020e 0022     		movs	r2, #0
 800 0210 83F87C21 		strb	r2, [r3, #380]
 369:..\..\src/mode.c **** 
 370:..\..\src/mode.c **** 		// Block length
 371:..\..\src/mode.c **** 		uint32_t bytesPerSector = scsiDev.target->liveCfg.bytesPerSector;
 801              		.loc 1 371 0
 802 0214 394B     		ldr	r3, .L73
 803 0216 1B6E     		ldr	r3, [r3, #96]
 804 0218 1B89     		ldrh	r3, [r3, #8]
 805 021a FB62     		str	r3, [r7, #44]
 372:..\..\src/mode.c **** 		scsiDev.data[idx++] = bytesPerSector >> 16;
ARM GAS  C:\Users\r\AppData\Local\Temp\cc0NugVx.s 			page 22


 806              		.loc 1 372 0
 807 021c 3B6A     		ldr	r3, [r7, #32]
 808 021e 5A1C     		adds	r2, r3, #1
 809 0220 3A62     		str	r2, [r7, #32]
 810 0222 FA6A     		ldr	r2, [r7, #44]
 811 0224 120C     		lsrs	r2, r2, #16
 812 0226 D1B2     		uxtb	r1, r2
 813 0228 344A     		ldr	r2, .L73
 814 022a 1344     		add	r3, r3, r2
 815 022c 0A46     		mov	r2, r1
 816 022e 83F87C21 		strb	r2, [r3, #380]
 373:..\..\src/mode.c **** 		scsiDev.data[idx++] = bytesPerSector >> 8;
 817              		.loc 1 373 0
 818 0232 3B6A     		ldr	r3, [r7, #32]
 819 0234 5A1C     		adds	r2, r3, #1
 820 0236 3A62     		str	r2, [r7, #32]
 821 0238 FA6A     		ldr	r2, [r7, #44]
 822 023a 120A     		lsrs	r2, r2, #8
 823 023c D1B2     		uxtb	r1, r2
 824 023e 2F4A     		ldr	r2, .L73
 825 0240 1344     		add	r3, r3, r2
 826 0242 0A46     		mov	r2, r1
 827 0244 83F87C21 		strb	r2, [r3, #380]
 374:..\..\src/mode.c **** 		scsiDev.data[idx++] = bytesPerSector & 0xFF;
 828              		.loc 1 374 0
 829 0248 3B6A     		ldr	r3, [r7, #32]
 830 024a 5A1C     		adds	r2, r3, #1
 831 024c 3A62     		str	r2, [r7, #32]
 832 024e FA6A     		ldr	r2, [r7, #44]
 833 0250 D1B2     		uxtb	r1, r2
 834 0252 2A4A     		ldr	r2, .L73
 835 0254 1344     		add	r3, r3, r2
 836 0256 0A46     		mov	r2, r1
 837 0258 83F87C21 		strb	r2, [r3, #380]
 838              	.L36:
 839              	.LBE4:
 375:..\..\src/mode.c **** 	}
 376:..\..\src/mode.c **** 
 377:..\..\src/mode.c **** 	int pageFound = 0;
 840              		.loc 1 377 0
 841 025c 0023     		movs	r3, #0
 842 025e 3B63     		str	r3, [r7, #48]
 378:..\..\src/mode.c **** 
 379:..\..\src/mode.c **** 	if (scsiDev.target->cfg->modePages[1] != 0)
 843              		.loc 1 379 0
 844 0260 264B     		ldr	r3, .L73
 845 0262 1B6E     		ldr	r3, [r3, #96]
 846 0264 5B68     		ldr	r3, [r3, #4]
 847 0266 93F80134 		ldrb	r3, [r3, #1025]	@ zero_extendqisi2
 848 026a 002B     		cmp	r3, #0
 849 026c 0BD0     		beq	.L37
 380:..\..\src/mode.c **** 	{
 381:..\..\src/mode.c **** 		pageFound = useCustomPages(scsiDev.target->cfg, pc, pageCode, &idx);
 850              		.loc 1 381 0
 851 026e 234B     		ldr	r3, .L73
 852 0270 1B6E     		ldr	r3, [r3, #96]
 853 0272 5868     		ldr	r0, [r3, #4]
ARM GAS  C:\Users\r\AppData\Local\Temp\cc0NugVx.s 			page 23


 854 0274 07F12003 		add	r3, r7, #32
 855 0278 3A68     		ldr	r2, [r7]
 856 027a 7968     		ldr	r1, [r7, #4]
 857 027c FFF7FEFF 		bl	useCustomPages
 858 0280 3863     		str	r0, [r7, #48]
 382:..\..\src/mode.c **** 		pageCode = 0xFF; // dodgy, skip rest of logic
 859              		.loc 1 382 0
 860 0282 FF23     		movs	r3, #255
 861 0284 3B60     		str	r3, [r7]
 862              	.L37:
 383:..\..\src/mode.c **** 	}
 384:..\..\src/mode.c **** 
 385:..\..\src/mode.c **** 	if (pageCode == 0x01 || pageCode == 0x3F)
 863              		.loc 1 385 0
 864 0286 3B68     		ldr	r3, [r7]
 865 0288 012B     		cmp	r3, #1
 866 028a 02D0     		beq	.L38
 867              		.loc 1 385 0 is_stmt 0 discriminator 1
 868 028c 3B68     		ldr	r3, [r7]
 869 028e 3F2B     		cmp	r3, #63
 870 0290 1BD1     		bne	.L39
 871              	.L38:
 386:..\..\src/mode.c **** 	{
 387:..\..\src/mode.c **** 		pageFound = 1;
 872              		.loc 1 387 0 is_stmt 1
 873 0292 0123     		movs	r3, #1
 874 0294 3B63     		str	r3, [r7, #48]
 388:..\..\src/mode.c **** 		if ((scsiDev.compatMode >= COMPAT_SCSI2))
 875              		.loc 1 388 0
 876 0296 194B     		ldr	r3, .L73
 877 0298 03F58343 		add	r3, r3, #16768
 878 029c 1733     		adds	r3, r3, #23
 879 029e 1B78     		ldrb	r3, [r3]	@ zero_extendqisi2
 880 02a0 022B     		cmp	r3, #2
 881 02a2 09D9     		bls	.L40
 389:..\..\src/mode.c **** 		{
 390:..\..\src/mode.c **** 			pageIn(pc, idx, ReadWriteErrorRecoveryPage, sizeof(ReadWriteErrorRecoveryPage));
 882              		.loc 1 390 0
 883 02a4 396A     		ldr	r1, [r7, #32]
 884 02a6 0C23     		movs	r3, #12
 885 02a8 164A     		ldr	r2, .L73+8
 886 02aa 7868     		ldr	r0, [r7, #4]
 887 02ac FFF7FEFF 		bl	pageIn
 391:..\..\src/mode.c **** 			idx += sizeof(ReadWriteErrorRecoveryPage);
 888              		.loc 1 391 0
 889 02b0 3B6A     		ldr	r3, [r7, #32]
 890 02b2 0C33     		adds	r3, r3, #12
 891 02b4 3B62     		str	r3, [r7, #32]
 892 02b6 08E0     		b	.L39
 893              	.L40:
 392:..\..\src/mode.c **** 		}
 393:..\..\src/mode.c **** 		else
 394:..\..\src/mode.c **** 		{
 395:..\..\src/mode.c **** 			pageIn(pc, idx, ReadWriteErrorRecoveryPage_SCSI1, sizeof(ReadWriteErrorRecoveryPage_SCSI1));
 894              		.loc 1 395 0
 895 02b8 396A     		ldr	r1, [r7, #32]
 896 02ba 0823     		movs	r3, #8
ARM GAS  C:\Users\r\AppData\Local\Temp\cc0NugVx.s 			page 24


 897 02bc 124A     		ldr	r2, .L73+12
 898 02be 7868     		ldr	r0, [r7, #4]
 899 02c0 FFF7FEFF 		bl	pageIn
 396:..\..\src/mode.c **** 			idx += sizeof(ReadWriteErrorRecoveryPage_SCSI1);
 900              		.loc 1 396 0
 901 02c4 3B6A     		ldr	r3, [r7, #32]
 902 02c6 0833     		adds	r3, r3, #8
 903 02c8 3B62     		str	r3, [r7, #32]
 904              	.L39:
 397:..\..\src/mode.c **** 		}
 398:..\..\src/mode.c **** 	}
 399:..\..\src/mode.c **** 
 400:..\..\src/mode.c **** 	if (pageCode == 0x02 || pageCode == 0x3F)
 905              		.loc 1 400 0
 906 02ca 3B68     		ldr	r3, [r7]
 907 02cc 022B     		cmp	r3, #2
 908 02ce 02D0     		beq	.L41
 909              		.loc 1 400 0 is_stmt 0 discriminator 1
 910 02d0 3B68     		ldr	r3, [r7]
 911 02d2 3F2B     		cmp	r3, #63
 912 02d4 25D1     		bne	.L42
 913              	.L41:
 401:..\..\src/mode.c **** 	{
 402:..\..\src/mode.c **** 		pageFound = 1;
 914              		.loc 1 402 0 is_stmt 1
 915 02d6 0123     		movs	r3, #1
 916 02d8 3B63     		str	r3, [r7, #48]
 403:..\..\src/mode.c **** 		if ((scsiDev.compatMode >= COMPAT_SCSI2))
 917              		.loc 1 403 0
 918 02da 084B     		ldr	r3, .L73
 919 02dc 03F58343 		add	r3, r3, #16768
 920 02e0 1733     		adds	r3, r3, #23
 921 02e2 1B78     		ldrb	r3, [r3]	@ zero_extendqisi2
 922 02e4 022B     		cmp	r3, #2
 923 02e6 13D9     		bls	.L43
 404:..\..\src/mode.c **** 		{
 405:..\..\src/mode.c **** 			pageIn(pc, idx, DisconnectReconnectPage, sizeof(DisconnectReconnectPage));
 924              		.loc 1 405 0
 925 02e8 396A     		ldr	r1, [r7, #32]
 926 02ea 1023     		movs	r3, #16
 927 02ec 074A     		ldr	r2, .L73+16
 928 02ee 7868     		ldr	r0, [r7, #4]
 929 02f0 FFF7FEFF 		bl	pageIn
 406:..\..\src/mode.c **** 			idx += sizeof(DisconnectReconnectPage);
 930              		.loc 1 406 0
 931 02f4 3B6A     		ldr	r3, [r7, #32]
 932 02f6 1033     		adds	r3, r3, #16
 933 02f8 3B62     		str	r3, [r7, #32]
 934 02fa 12E0     		b	.L42
 935              	.L74:
 936              		.align	2
 937              	.L73:
 938 02fc 00000000 		.word	scsiDev
 939 0300 00000000 		.word	blockDev
 940 0304 04000000 		.word	ReadWriteErrorRecoveryPage
 941 0308 10000000 		.word	ReadWriteErrorRecoveryPage_SCSI1
 942 030c 18000000 		.word	DisconnectReconnectPage
ARM GAS  C:\Users\r\AppData\Local\Temp\cc0NugVx.s 			page 25


 943              	.L43:
 407:..\..\src/mode.c **** 		}
 408:..\..\src/mode.c **** 		else
 409:..\..\src/mode.c **** 		{
 410:..\..\src/mode.c **** 			pageIn(pc, idx, DisconnectReconnectPage_SCSI1, sizeof(DisconnectReconnectPage_SCSI1));
 944              		.loc 1 410 0
 945 0310 396A     		ldr	r1, [r7, #32]
 946 0312 0C23     		movs	r3, #12
 947 0314 7D4A     		ldr	r2, .L75
 948 0316 7868     		ldr	r0, [r7, #4]
 949 0318 FFF7FEFF 		bl	pageIn
 411:..\..\src/mode.c **** 			idx += sizeof(DisconnectReconnectPage_SCSI1);
 950              		.loc 1 411 0
 951 031c 3B6A     		ldr	r3, [r7, #32]
 952 031e 0C33     		adds	r3, r3, #12
 953 0320 3B62     		str	r3, [r7, #32]
 954              	.L42:
 412:..\..\src/mode.c **** 		}
 413:..\..\src/mode.c **** 	}
 414:..\..\src/mode.c **** 
 415:..\..\src/mode.c **** 	if (pageCode == 0x03 || pageCode == 0x3F)
 955              		.loc 1 415 0
 956 0322 3B68     		ldr	r3, [r7]
 957 0324 032B     		cmp	r3, #3
 958 0326 02D0     		beq	.L44
 959              		.loc 1 415 0 is_stmt 0 discriminator 1
 960 0328 3B68     		ldr	r3, [r7]
 961 032a 3F2B     		cmp	r3, #63
 962 032c 4FD1     		bne	.L45
 963              	.L44:
 416:..\..\src/mode.c **** 	{
 417:..\..\src/mode.c **** 		pageFound = 1;
 964              		.loc 1 417 0 is_stmt 1
 965 032e 0123     		movs	r3, #1
 966 0330 3B63     		str	r3, [r7, #48]
 418:..\..\src/mode.c **** 		pageIn(pc, idx, FormatDevicePage, sizeof(FormatDevicePage));
 967              		.loc 1 418 0
 968 0332 396A     		ldr	r1, [r7, #32]
 969 0334 1823     		movs	r3, #24
 970 0336 764A     		ldr	r2, .L75+4
 971 0338 7868     		ldr	r0, [r7, #4]
 972 033a FFF7FEFF 		bl	pageIn
 419:..\..\src/mode.c **** 		if (pc != 0x01)
 973              		.loc 1 419 0
 974 033e 7B68     		ldr	r3, [r7, #4]
 975 0340 012B     		cmp	r3, #1
 976 0342 33D0     		beq	.L46
 977              	.LBB5:
 420:..\..\src/mode.c **** 		{
 421:..\..\src/mode.c **** 			uint16_t sectorsPerTrack = scsiDev.target->cfg->sectorsPerTrack;
 978              		.loc 1 421 0
 979 0344 734B     		ldr	r3, .L75+8
 980 0346 1B6E     		ldr	r3, [r3, #96]
 981 0348 5B68     		ldr	r3, [r3, #4]
 982 034a 9A7B     		ldrb	r2, [r3, #14]	@ zero_extendqisi2
 983 034c DB7B     		ldrb	r3, [r3, #15]	@ zero_extendqisi2
 984 034e 1B02     		lsls	r3, r3, #8
ARM GAS  C:\Users\r\AppData\Local\Temp\cc0NugVx.s 			page 26


 985 0350 1343     		orrs	r3, r3, r2
 986 0352 7B85     		strh	r3, [r7, #42]	@ movhi
 422:..\..\src/mode.c **** 			scsiDev.data[idx+10] = sectorsPerTrack >> 8;
 987              		.loc 1 422 0
 988 0354 3B6A     		ldr	r3, [r7, #32]
 989 0356 0A33     		adds	r3, r3, #10
 990 0358 7A8D     		ldrh	r2, [r7, #42]
 991 035a 120A     		lsrs	r2, r2, #8
 992 035c 92B2     		uxth	r2, r2
 993 035e D1B2     		uxtb	r1, r2
 994 0360 6C4A     		ldr	r2, .L75+8
 995 0362 1344     		add	r3, r3, r2
 996 0364 0A46     		mov	r2, r1
 997 0366 83F87C21 		strb	r2, [r3, #380]
 423:..\..\src/mode.c **** 			scsiDev.data[idx+11] = sectorsPerTrack & 0xFF;
 998              		.loc 1 423 0
 999 036a 3B6A     		ldr	r3, [r7, #32]
 1000 036c 0B33     		adds	r3, r3, #11
 1001 036e 7A8D     		ldrh	r2, [r7, #42]	@ movhi
 1002 0370 D1B2     		uxtb	r1, r2
 1003 0372 684A     		ldr	r2, .L75+8
 1004 0374 1344     		add	r3, r3, r2
 1005 0376 0A46     		mov	r2, r1
 1006 0378 83F87C21 		strb	r2, [r3, #380]
 424:..\..\src/mode.c **** 
 425:..\..\src/mode.c **** 			// Fill out the configured bytes-per-sector
 426:..\..\src/mode.c **** 			uint32_t bytesPerSector = scsiDev.target->liveCfg.bytesPerSector;
 1007              		.loc 1 426 0
 1008 037c 654B     		ldr	r3, .L75+8
 1009 037e 1B6E     		ldr	r3, [r3, #96]
 1010 0380 1B89     		ldrh	r3, [r3, #8]
 1011 0382 7B62     		str	r3, [r7, #36]
 427:..\..\src/mode.c **** 			scsiDev.data[idx+12] = bytesPerSector >> 8;
 1012              		.loc 1 427 0
 1013 0384 3B6A     		ldr	r3, [r7, #32]
 1014 0386 0C33     		adds	r3, r3, #12
 1015 0388 7A6A     		ldr	r2, [r7, #36]
 1016 038a 120A     		lsrs	r2, r2, #8
 1017 038c D1B2     		uxtb	r1, r2
 1018 038e 614A     		ldr	r2, .L75+8
 1019 0390 1344     		add	r3, r3, r2
 1020 0392 0A46     		mov	r2, r1
 1021 0394 83F87C21 		strb	r2, [r3, #380]
 428:..\..\src/mode.c **** 			scsiDev.data[idx+13] = bytesPerSector & 0xFF;
 1022              		.loc 1 428 0
 1023 0398 3B6A     		ldr	r3, [r7, #32]
 1024 039a 0D33     		adds	r3, r3, #13
 1025 039c 7A6A     		ldr	r2, [r7, #36]
 1026 039e D1B2     		uxtb	r1, r2
 1027 03a0 5C4A     		ldr	r2, .L75+8
 1028 03a2 1344     		add	r3, r3, r2
 1029 03a4 0A46     		mov	r2, r1
 1030 03a6 83F87C21 		strb	r2, [r3, #380]
 1031              	.LBE5:
 1032 03aa 0DE0     		b	.L47
 1033              	.L46:
 429:..\..\src/mode.c **** 		}
ARM GAS  C:\Users\r\AppData\Local\Temp\cc0NugVx.s 			page 27


 430:..\..\src/mode.c **** 		else
 431:..\..\src/mode.c **** 		{
 432:..\..\src/mode.c **** 			// Set a mask for the changeable values.
 433:..\..\src/mode.c **** 			scsiDev.data[idx+12] = 0xFF;
 1034              		.loc 1 433 0
 1035 03ac 3B6A     		ldr	r3, [r7, #32]
 1036 03ae 0C33     		adds	r3, r3, #12
 1037 03b0 584A     		ldr	r2, .L75+8
 1038 03b2 1344     		add	r3, r3, r2
 1039 03b4 FF22     		movs	r2, #255
 1040 03b6 83F87C21 		strb	r2, [r3, #380]
 434:..\..\src/mode.c **** 			scsiDev.data[idx+13] = 0xFF;
 1041              		.loc 1 434 0
 1042 03ba 3B6A     		ldr	r3, [r7, #32]
 1043 03bc 0D33     		adds	r3, r3, #13
 1044 03be 554A     		ldr	r2, .L75+8
 1045 03c0 1344     		add	r3, r3, r2
 1046 03c2 FF22     		movs	r2, #255
 1047 03c4 83F87C21 		strb	r2, [r3, #380]
 1048              	.L47:
 435:..\..\src/mode.c **** 		}
 436:..\..\src/mode.c **** 
 437:..\..\src/mode.c **** 		idx += sizeof(FormatDevicePage);
 1049              		.loc 1 437 0
 1050 03c8 3B6A     		ldr	r3, [r7, #32]
 1051 03ca 1833     		adds	r3, r3, #24
 1052 03cc 3B62     		str	r3, [r7, #32]
 1053              	.L45:
 438:..\..\src/mode.c **** 	}
 439:..\..\src/mode.c **** 
 440:..\..\src/mode.c **** 	if (pageCode == 0x04 || pageCode == 0x3F)
 1054              		.loc 1 440 0
 1055 03ce 3B68     		ldr	r3, [r7]
 1056 03d0 042B     		cmp	r3, #4
 1057 03d2 03D0     		beq	.L48
 1058              		.loc 1 440 0 is_stmt 0 discriminator 1
 1059 03d4 3B68     		ldr	r3, [r7]
 1060 03d6 3F2B     		cmp	r3, #63
 1061 03d8 40F0A580 		bne	.L49
 1062              	.L48:
 441:..\..\src/mode.c **** 	{
 442:..\..\src/mode.c **** 		pageFound = 1;
 1063              		.loc 1 442 0 is_stmt 1
 1064 03dc 0123     		movs	r3, #1
 1065 03de 3B63     		str	r3, [r7, #48]
 443:..\..\src/mode.c **** 		if ((scsiDev.compatMode >= COMPAT_SCSI2))
 1066              		.loc 1 443 0
 1067 03e0 4C4B     		ldr	r3, .L75+8
 1068 03e2 03F58343 		add	r3, r3, #16768
 1069 03e6 1733     		adds	r3, r3, #23
 1070 03e8 1B78     		ldrb	r3, [r3]	@ zero_extendqisi2
 1071 03ea 022B     		cmp	r3, #2
 1072 03ec 06D9     		bls	.L50
 444:..\..\src/mode.c **** 		{
 445:..\..\src/mode.c **** 			pageIn(pc, idx, RigidDiskDriveGeometry, sizeof(RigidDiskDriveGeometry));
 1073              		.loc 1 445 0
 1074 03ee 396A     		ldr	r1, [r7, #32]
ARM GAS  C:\Users\r\AppData\Local\Temp\cc0NugVx.s 			page 28


 1075 03f0 1823     		movs	r3, #24
 1076 03f2 494A     		ldr	r2, .L75+12
 1077 03f4 7868     		ldr	r0, [r7, #4]
 1078 03f6 FFF7FEFF 		bl	pageIn
 1079 03fa 05E0     		b	.L51
 1080              	.L50:
 446:..\..\src/mode.c **** 		}
 447:..\..\src/mode.c **** 		else
 448:..\..\src/mode.c **** 		{
 449:..\..\src/mode.c **** 			pageIn(pc, idx, RigidDiskDriveGeometry_SCSI1, sizeof(RigidDiskDriveGeometry_SCSI1));
 1081              		.loc 1 449 0
 1082 03fc 396A     		ldr	r1, [r7, #32]
 1083 03fe 1423     		movs	r3, #20
 1084 0400 464A     		ldr	r2, .L75+16
 1085 0402 7868     		ldr	r0, [r7, #4]
 1086 0404 FFF7FEFF 		bl	pageIn
 1087              	.L51:
 450:..\..\src/mode.c **** 		}
 451:..\..\src/mode.c **** 
 452:..\..\src/mode.c **** 		if (pc != 0x01)
 1088              		.loc 1 452 0
 1089 0408 7B68     		ldr	r3, [r7, #4]
 1090 040a 012B     		cmp	r3, #1
 1091 040c 73D0     		beq	.L52
 1092              	.LBB6:
 453:..\..\src/mode.c **** 		{
 454:..\..\src/mode.c **** 			// Need to fill out the number of cylinders.
 455:..\..\src/mode.c **** 			uint32 cyl;
 456:..\..\src/mode.c **** 			uint8 head;
 457:..\..\src/mode.c **** 			uint32 sector;
 458:..\..\src/mode.c **** 			LBA2CHS(
 459:..\..\src/mode.c **** 				getScsiCapacity(
 460:..\..\src/mode.c **** 					scsiDev.target->cfg->sdSectorStart,
 1093              		.loc 1 460 0
 1094 040e 414B     		ldr	r3, .L75+8
 1095 0410 1B6E     		ldr	r3, [r3, #96]
 1096 0412 5B68     		ldr	r3, [r3, #4]
 458:..\..\src/mode.c **** 				getScsiCapacity(
 1097              		.loc 1 458 0
 1098 0414 5868     		ldr	r0, [r3, #4]	@ unaligned
 461:..\..\src/mode.c **** 					scsiDev.target->liveCfg.bytesPerSector,
 1099              		.loc 1 461 0
 1100 0416 3F4B     		ldr	r3, .L75+8
 1101 0418 1B6E     		ldr	r3, [r3, #96]
 458:..\..\src/mode.c **** 				getScsiCapacity(
 1102              		.loc 1 458 0
 1103 041a 1989     		ldrh	r1, [r3, #8]
 462:..\..\src/mode.c **** 					scsiDev.target->cfg->scsiSectors),
 1104              		.loc 1 462 0
 1105 041c 3D4B     		ldr	r3, .L75+8
 1106 041e 1B6E     		ldr	r3, [r3, #96]
 1107 0420 5B68     		ldr	r3, [r3, #4]
 458:..\..\src/mode.c **** 				getScsiCapacity(
 1108              		.loc 1 458 0
 1109 0422 9B68     		ldr	r3, [r3, #8]	@ unaligned
 1110 0424 1A46     		mov	r2, r3
 1111 0426 FFF7FEFF 		bl	getScsiCapacity
ARM GAS  C:\Users\r\AppData\Local\Temp\cc0NugVx.s 			page 29


 1112 042a 0546     		mov	r5, r0
 463:..\..\src/mode.c **** 				&cyl,
 464:..\..\src/mode.c **** 				&head,
 465:..\..\src/mode.c **** 				&sector,
 466:..\..\src/mode.c **** 				scsiDev.target->cfg->headsPerCylinder,
 1113              		.loc 1 466 0
 1114 042c 394B     		ldr	r3, .L75+8
 1115 042e 1B6E     		ldr	r3, [r3, #96]
 1116 0430 5B68     		ldr	r3, [r3, #4]
 458:..\..\src/mode.c **** 				getScsiCapacity(
 1117              		.loc 1 458 0
 1118 0432 1B8A     		ldrh	r3, [r3, #16]	@ unaligned
 1119 0434 9BB2     		uxth	r3, r3
 467:..\..\src/mode.c **** 				scsiDev.target->cfg->sectorsPerTrack);
 1120              		.loc 1 467 0
 1121 0436 374A     		ldr	r2, .L75+8
 1122 0438 126E     		ldr	r2, [r2, #96]
 1123 043a 5268     		ldr	r2, [r2, #4]
 458:..\..\src/mode.c **** 				getScsiCapacity(
 1124              		.loc 1 458 0
 1125 043c D289     		ldrh	r2, [r2, #14]	@ unaligned
 1126 043e 92B2     		uxth	r2, r2
 1127 0440 07F11404 		add	r4, r7, #20
 1128 0444 07F11B00 		add	r0, r7, #27
 1129 0448 07F11C01 		add	r1, r7, #28
 1130 044c 0192     		str	r2, [sp, #4]
 1131 044e 0093     		str	r3, [sp]
 1132 0450 2346     		mov	r3, r4
 1133 0452 0246     		mov	r2, r0
 1134 0454 2846     		mov	r0, r5
 1135 0456 FFF7FEFF 		bl	LBA2CHS
 468:..\..\src/mode.c **** 
 469:..\..\src/mode.c **** 			scsiDev.data[idx+2] = cyl >> 16;
 1136              		.loc 1 469 0
 1137 045a 3B6A     		ldr	r3, [r7, #32]
 1138 045c 0233     		adds	r3, r3, #2
 1139 045e FA69     		ldr	r2, [r7, #28]
 1140 0460 120C     		lsrs	r2, r2, #16
 1141 0462 D1B2     		uxtb	r1, r2
 1142 0464 2B4A     		ldr	r2, .L75+8
 1143 0466 1344     		add	r3, r3, r2
 1144 0468 0A46     		mov	r2, r1
 1145 046a 83F87C21 		strb	r2, [r3, #380]
 470:..\..\src/mode.c **** 			scsiDev.data[idx+3] = cyl >> 8;
 1146              		.loc 1 470 0
 1147 046e 3B6A     		ldr	r3, [r7, #32]
 1148 0470 0333     		adds	r3, r3, #3
 1149 0472 FA69     		ldr	r2, [r7, #28]
 1150 0474 120A     		lsrs	r2, r2, #8
 1151 0476 D1B2     		uxtb	r1, r2
 1152 0478 264A     		ldr	r2, .L75+8
 1153 047a 1344     		add	r3, r3, r2
 1154 047c 0A46     		mov	r2, r1
 1155 047e 83F87C21 		strb	r2, [r3, #380]
 471:..\..\src/mode.c **** 			scsiDev.data[idx+4] = cyl;
 1156              		.loc 1 471 0
 1157 0482 3B6A     		ldr	r3, [r7, #32]
ARM GAS  C:\Users\r\AppData\Local\Temp\cc0NugVx.s 			page 30


 1158 0484 0433     		adds	r3, r3, #4
 1159 0486 FA69     		ldr	r2, [r7, #28]
 1160 0488 D1B2     		uxtb	r1, r2
 1161 048a 224A     		ldr	r2, .L75+8
 1162 048c 1344     		add	r3, r3, r2
 1163 048e 0A46     		mov	r2, r1
 1164 0490 83F87C21 		strb	r2, [r3, #380]
 472:..\..\src/mode.c **** 
 473:..\..\src/mode.c **** 			memcpy(&scsiDev.data[idx+6], &scsiDev.data[idx+2], 3);
 1165              		.loc 1 473 0
 1166 0494 3B6A     		ldr	r3, [r7, #32]
 1167 0496 0633     		adds	r3, r3, #6
 1168 0498 03F5BC73 		add	r3, r3, #376
 1169 049c 1D4A     		ldr	r2, .L75+8
 1170 049e 1344     		add	r3, r3, r2
 1171 04a0 181D     		adds	r0, r3, #4
 1172 04a2 3B6A     		ldr	r3, [r7, #32]
 1173 04a4 0233     		adds	r3, r3, #2
 1174 04a6 03F5BC73 		add	r3, r3, #376
 1175 04aa 1A4A     		ldr	r2, .L75+8
 1176 04ac 1344     		add	r3, r3, r2
 1177 04ae 0433     		adds	r3, r3, #4
 1178 04b0 0322     		movs	r2, #3
 1179 04b2 1946     		mov	r1, r3
 1180 04b4 FFF7FEFF 		bl	memcpy
 474:..\..\src/mode.c **** 			memcpy(&scsiDev.data[idx+9], &scsiDev.data[idx+2], 3);
 1181              		.loc 1 474 0
 1182 04b8 3B6A     		ldr	r3, [r7, #32]
 1183 04ba 0933     		adds	r3, r3, #9
 1184 04bc 03F5BC73 		add	r3, r3, #376
 1185 04c0 144A     		ldr	r2, .L75+8
 1186 04c2 1344     		add	r3, r3, r2
 1187 04c4 181D     		adds	r0, r3, #4
 1188 04c6 3B6A     		ldr	r3, [r7, #32]
 1189 04c8 0233     		adds	r3, r3, #2
 1190 04ca 03F5BC73 		add	r3, r3, #376
 1191 04ce 114A     		ldr	r2, .L75+8
 1192 04d0 1344     		add	r3, r3, r2
 1193 04d2 0433     		adds	r3, r3, #4
 1194 04d4 0322     		movs	r2, #3
 1195 04d6 1946     		mov	r1, r3
 1196 04d8 FFF7FEFF 		bl	memcpy
 475:..\..\src/mode.c **** 
 476:..\..\src/mode.c **** 			scsiDev.data[idx+5] = scsiDev.target->cfg->headsPerCylinder;
 1197              		.loc 1 476 0
 1198 04dc 3B6A     		ldr	r3, [r7, #32]
 1199 04de 0533     		adds	r3, r3, #5
 1200 04e0 0C4A     		ldr	r2, .L75+8
 1201 04e2 126E     		ldr	r2, [r2, #96]
 1202 04e4 5268     		ldr	r2, [r2, #4]
 1203 04e6 128A     		ldrh	r2, [r2, #16]	@ unaligned
 1204 04e8 92B2     		uxth	r2, r2
 1205 04ea D1B2     		uxtb	r1, r2
 1206 04ec 094A     		ldr	r2, .L75+8
 1207 04ee 1344     		add	r3, r3, r2
 1208 04f0 0A46     		mov	r2, r1
 1209 04f2 83F87C21 		strb	r2, [r3, #380]
ARM GAS  C:\Users\r\AppData\Local\Temp\cc0NugVx.s 			page 31


 1210              	.L52:
 1211              	.LBE6:
 477:..\..\src/mode.c **** 		}
 478:..\..\src/mode.c **** 
 479:..\..\src/mode.c **** 		if ((scsiDev.compatMode >= COMPAT_SCSI2))
 1212              		.loc 1 479 0
 1213 04f6 074B     		ldr	r3, .L75+8
 1214 04f8 03F58343 		add	r3, r3, #16768
 1215 04fc 1733     		adds	r3, r3, #23
 1216 04fe 1B78     		ldrb	r3, [r3]	@ zero_extendqisi2
 1217 0500 022B     		cmp	r3, #2
 1218 0502 0DD9     		bls	.L53
 480:..\..\src/mode.c **** 		{
 481:..\..\src/mode.c **** 			idx += sizeof(RigidDiskDriveGeometry);
 1219              		.loc 1 481 0
 1220 0504 3B6A     		ldr	r3, [r7, #32]
 1221 0506 1833     		adds	r3, r3, #24
 1222 0508 3B62     		str	r3, [r7, #32]
 1223 050a 0CE0     		b	.L49
 1224              	.L76:
 1225              		.align	2
 1226              	.L75:
 1227 050c 28000000 		.word	DisconnectReconnectPage_SCSI1
 1228 0510 34000000 		.word	FormatDevicePage
 1229 0514 00000000 		.word	scsiDev
 1230 0518 4C000000 		.word	RigidDiskDriveGeometry
 1231 051c 84000000 		.word	RigidDiskDriveGeometry_SCSI1
 1232              	.L53:
 482:..\..\src/mode.c **** 		}
 483:..\..\src/mode.c **** 		else
 484:..\..\src/mode.c **** 		{
 485:..\..\src/mode.c **** 			idx += sizeof(RigidDiskDriveGeometry_SCSI1);
 1233              		.loc 1 485 0
 1234 0520 3B6A     		ldr	r3, [r7, #32]
 1235 0522 1433     		adds	r3, r3, #20
 1236 0524 3B62     		str	r3, [r7, #32]
 1237              	.L49:
 486:..\..\src/mode.c **** 		}
 487:..\..\src/mode.c **** 	}
 488:..\..\src/mode.c **** 
 489:..\..\src/mode.c ****     if (pageCode == 0x05 || pageCode == 0x3F)
 1238              		.loc 1 489 0
 1239 0526 3B68     		ldr	r3, [r7]
 1240 0528 052B     		cmp	r3, #5
 1241 052a 02D0     		beq	.L54
 1242              		.loc 1 489 0 is_stmt 0 discriminator 1
 1243 052c 3B68     		ldr	r3, [r7]
 1244 052e 3F2B     		cmp	r3, #63
 1245 0530 0AD1     		bne	.L55
 1246              	.L54:
 490:..\..\src/mode.c ****     {
 491:..\..\src/mode.c ****         pageFound = 1;
 1247              		.loc 1 491 0 is_stmt 1
 1248 0532 0123     		movs	r3, #1
 1249 0534 3B63     		str	r3, [r7, #48]
 492:..\..\src/mode.c ****         pageIn(pc, idx, FlexibleDiskDriveGeometry, sizeof(FlexibleDiskDriveGeometry));
 1250              		.loc 1 492 0
ARM GAS  C:\Users\r\AppData\Local\Temp\cc0NugVx.s 			page 32


 1251 0536 396A     		ldr	r1, [r7, #32]
 1252 0538 2023     		movs	r3, #32
 1253 053a 6B4A     		ldr	r2, .L77
 1254 053c 7868     		ldr	r0, [r7, #4]
 1255 053e FFF7FEFF 		bl	pageIn
 493:..\..\src/mode.c ****         idx += sizeof(FlexibleDiskDriveGeometry);
 1256              		.loc 1 493 0
 1257 0542 3B6A     		ldr	r3, [r7, #32]
 1258 0544 2033     		adds	r3, r3, #32
 1259 0546 3B62     		str	r3, [r7, #32]
 1260              	.L55:
 494:..\..\src/mode.c ****     }
 495:..\..\src/mode.c **** 
 496:..\..\src/mode.c **** 	// DON'T output the following pages for SCSI1 hosts. They get upset when
 497:..\..\src/mode.c **** 	// we have more data to send than the allocation length provided.
 498:..\..\src/mode.c **** 	// (ie. Try not to output any more pages below this comment)
 499:..\..\src/mode.c **** 
 500:..\..\src/mode.c **** 
 501:..\..\src/mode.c **** 	if ((scsiDev.compatMode >= COMPAT_SCSI2) &&
 1261              		.loc 1 501 0
 1262 0548 684B     		ldr	r3, .L77+4
 1263 054a 03F58343 		add	r3, r3, #16768
 1264 054e 1733     		adds	r3, r3, #23
 1265 0550 1B78     		ldrb	r3, [r3]	@ zero_extendqisi2
 1266 0552 022B     		cmp	r3, #2
 1267 0554 10D9     		bls	.L56
 1268              		.loc 1 501 0 is_stmt 0 discriminator 1
 1269 0556 3B68     		ldr	r3, [r7]
 1270 0558 082B     		cmp	r3, #8
 1271 055a 02D0     		beq	.L57
 502:..\..\src/mode.c **** 		(pageCode == 0x08 || pageCode == 0x3F))
 1272              		.loc 1 502 0 is_stmt 1
 1273 055c 3B68     		ldr	r3, [r7]
 1274 055e 3F2B     		cmp	r3, #63
 1275 0560 0AD1     		bne	.L56
 1276              	.L57:
 503:..\..\src/mode.c **** 	{
 504:..\..\src/mode.c **** 		pageFound = 1;
 1277              		.loc 1 504 0
 1278 0562 0123     		movs	r3, #1
 1279 0564 3B63     		str	r3, [r7, #48]
 505:..\..\src/mode.c **** 		pageIn(pc, idx, CachingPage, sizeof(CachingPage));
 1280              		.loc 1 505 0
 1281 0566 396A     		ldr	r1, [r7, #32]
 1282 0568 0C23     		movs	r3, #12
 1283 056a 614A     		ldr	r2, .L77+8
 1284 056c 7868     		ldr	r0, [r7, #4]
 1285 056e FFF7FEFF 		bl	pageIn
 506:..\..\src/mode.c **** 		idx += sizeof(CachingPage);
 1286              		.loc 1 506 0
 1287 0572 3B6A     		ldr	r3, [r7, #32]
 1288 0574 0C33     		adds	r3, r3, #12
 1289 0576 3B62     		str	r3, [r7, #32]
 1290              	.L56:
 507:..\..\src/mode.c **** 	}
 508:..\..\src/mode.c **** 
 509:..\..\src/mode.c **** 	if ((scsiDev.compatMode >= COMPAT_SCSI2)
ARM GAS  C:\Users\r\AppData\Local\Temp\cc0NugVx.s 			page 33


 1291              		.loc 1 509 0
 1292 0578 5C4B     		ldr	r3, .L77+4
 1293 057a 03F58343 		add	r3, r3, #16768
 1294 057e 1733     		adds	r3, r3, #23
 1295 0580 1B78     		ldrb	r3, [r3]	@ zero_extendqisi2
 1296 0582 022B     		cmp	r3, #2
 1297 0584 10D9     		bls	.L58
 510:..\..\src/mode.c **** 		&& (pageCode == 0x0A || pageCode == 0x3F))
 1298              		.loc 1 510 0
 1299 0586 3B68     		ldr	r3, [r7]
 1300 0588 0A2B     		cmp	r3, #10
 1301 058a 02D0     		beq	.L59
 1302              		.loc 1 510 0 is_stmt 0 discriminator 1
 1303 058c 3B68     		ldr	r3, [r7]
 1304 058e 3F2B     		cmp	r3, #63
 1305 0590 0AD1     		bne	.L58
 1306              	.L59:
 511:..\..\src/mode.c **** 	{
 512:..\..\src/mode.c **** 		pageFound = 1;
 1307              		.loc 1 512 0 is_stmt 1
 1308 0592 0123     		movs	r3, #1
 1309 0594 3B63     		str	r3, [r7, #48]
 513:..\..\src/mode.c **** 		pageIn(pc, idx, ControlModePage, sizeof(ControlModePage));
 1310              		.loc 1 513 0
 1311 0596 396A     		ldr	r1, [r7, #32]
 1312 0598 0823     		movs	r3, #8
 1313 059a 564A     		ldr	r2, .L77+12
 1314 059c 7868     		ldr	r0, [r7, #4]
 1315 059e FFF7FEFF 		bl	pageIn
 514:..\..\src/mode.c **** 		idx += sizeof(ControlModePage);
 1316              		.loc 1 514 0
 1317 05a2 3B6A     		ldr	r3, [r7, #32]
 1318 05a4 0833     		adds	r3, r3, #8
 1319 05a6 3B62     		str	r3, [r7, #32]
 1320              	.L58:
 515:..\..\src/mode.c **** 	}
 516:..\..\src/mode.c **** 
 517:..\..\src/mode.c **** 	if ((scsiDev.target->cfg->deviceType == CONFIG_SEQUENTIAL) &&
 1321              		.loc 1 517 0
 1322 05a8 504B     		ldr	r3, .L77+4
 1323 05aa 1B6E     		ldr	r3, [r3, #96]
 1324 05ac 5B68     		ldr	r3, [r3, #4]
 1325 05ae 5B78     		ldrb	r3, [r3, #1]	@ zero_extendqisi2
 1326 05b0 052B     		cmp	r3, #5
 1327 05b2 10D1     		bne	.L60
 1328              		.loc 1 517 0 is_stmt 0 discriminator 1
 1329 05b4 3B68     		ldr	r3, [r7]
 1330 05b6 102B     		cmp	r3, #16
 1331 05b8 02D0     		beq	.L61
 518:..\..\src/mode.c **** 		(pageCode == 0x10 || pageCode == 0x3F))
 1332              		.loc 1 518 0 is_stmt 1
 1333 05ba 3B68     		ldr	r3, [r7]
 1334 05bc 3F2B     		cmp	r3, #63
 1335 05be 0AD1     		bne	.L60
 1336              	.L61:
 519:..\..\src/mode.c **** 	{
 520:..\..\src/mode.c **** 		pageFound = 1;
ARM GAS  C:\Users\r\AppData\Local\Temp\cc0NugVx.s 			page 34


 1337              		.loc 1 520 0
 1338 05c0 0123     		movs	r3, #1
 1339 05c2 3B63     		str	r3, [r7, #48]
 521:..\..\src/mode.c **** 		pageIn(
 1340              		.loc 1 521 0
 1341 05c4 396A     		ldr	r1, [r7, #32]
 1342 05c6 0F23     		movs	r3, #15
 1343 05c8 4B4A     		ldr	r2, .L77+16
 1344 05ca 7868     		ldr	r0, [r7, #4]
 1345 05cc FFF7FEFF 		bl	pageIn
 522:..\..\src/mode.c **** 			pc,
 523:..\..\src/mode.c **** 			idx,
 524:..\..\src/mode.c **** 			SequentialDeviceConfigPage,
 525:..\..\src/mode.c **** 			sizeof(SequentialDeviceConfigPage));
 526:..\..\src/mode.c **** 		idx += sizeof(SequentialDeviceConfigPage);
 1346              		.loc 1 526 0
 1347 05d0 3B6A     		ldr	r3, [r7, #32]
 1348 05d2 0F33     		adds	r3, r3, #15
 1349 05d4 3B62     		str	r3, [r7, #32]
 1350              	.L60:
 527:..\..\src/mode.c **** 	}
 528:..\..\src/mode.c **** 
 529:..\..\src/mode.c **** 	if ((
 530:..\..\src/mode.c **** 			(scsiDev.target->cfg->quirks == CONFIG_QUIRKS_APPLE)
 1351              		.loc 1 530 0
 1352 05d6 454B     		ldr	r3, .L77+4
 1353 05d8 1B6E     		ldr	r3, [r3, #96]
 1354 05da 5B68     		ldr	r3, [r3, #4]
 1355 05dc DB8F     		ldrh	r3, [r3, #62]	@ unaligned
 1356 05de 9BB2     		uxth	r3, r3
 529:..\..\src/mode.c **** 			(scsiDev.target->cfg->quirks == CONFIG_QUIRKS_APPLE)
 1357              		.loc 1 529 0
 1358 05e0 012B     		cmp	r3, #1
 1359 05e2 10D1     		bne	.L62
 531:..\..\src/mode.c **** 		) &&
 1360              		.loc 1 531 0
 1361 05e4 3B68     		ldr	r3, [r7]
 1362 05e6 302B     		cmp	r3, #48
 1363 05e8 02D0     		beq	.L63
 532:..\..\src/mode.c **** 		(pageCode == 0x30 || pageCode == 0x3F))
 1364              		.loc 1 532 0
 1365 05ea 3B68     		ldr	r3, [r7]
 1366 05ec 3F2B     		cmp	r3, #63
 1367 05ee 0AD1     		bne	.L62
 1368              	.L63:
 533:..\..\src/mode.c **** 	{
 534:..\..\src/mode.c **** 		pageFound = 1;
 1369              		.loc 1 534 0
 1370 05f0 0123     		movs	r3, #1
 1371 05f2 3B63     		str	r3, [r7, #48]
 535:..\..\src/mode.c **** 		pageIn(pc, idx, AppleVendorPage, sizeof(AppleVendorPage));
 1372              		.loc 1 535 0
 1373 05f4 396A     		ldr	r1, [r7, #32]
 1374 05f6 1E23     		movs	r3, #30
 1375 05f8 404A     		ldr	r2, .L77+20
 1376 05fa 7868     		ldr	r0, [r7, #4]
 1377 05fc FFF7FEFF 		bl	pageIn
ARM GAS  C:\Users\r\AppData\Local\Temp\cc0NugVx.s 			page 35


 536:..\..\src/mode.c **** 		idx += sizeof(AppleVendorPage);
 1378              		.loc 1 536 0
 1379 0600 3B6A     		ldr	r3, [r7, #32]
 1380 0602 1E33     		adds	r3, r3, #30
 1381 0604 3B62     		str	r3, [r7, #32]
 1382              	.L62:
 537:..\..\src/mode.c **** 	}
 538:..\..\src/mode.c ****        // SCSI 2 standard says page 0 is always last.
 539:..\..\src/mode.c ****        if (pageCode == 0x00 || pageCode == 0x3F)
 1383              		.loc 1 539 0
 1384 0606 3B68     		ldr	r3, [r7]
 1385 0608 002B     		cmp	r3, #0
 1386 060a 02D0     		beq	.L64
 1387              		.loc 1 539 0 is_stmt 0 discriminator 1
 1388 060c 3B68     		ldr	r3, [r7]
 1389 060e 3F2B     		cmp	r3, #63
 1390 0610 25D1     		bne	.L65
 1391              	.L64:
 540:..\..\src/mode.c ****        {
 541:..\..\src/mode.c ****                pageFound = 1;
 1392              		.loc 1 541 0 is_stmt 1
 1393 0612 0123     		movs	r3, #1
 1394 0614 3B63     		str	r3, [r7, #48]
 542:..\..\src/mode.c ****                pageIn(pc, idx, OperatingPage, sizeof(OperatingPage));
 1395              		.loc 1 542 0
 1396 0616 396A     		ldr	r1, [r7, #32]
 1397 0618 0423     		movs	r3, #4
 1398 061a 394A     		ldr	r2, .L77+24
 1399 061c 7868     		ldr	r0, [r7, #4]
 1400 061e FFF7FEFF 		bl	pageIn
 543:..\..\src/mode.c **** 
 544:..\..\src/mode.c ****                // Note inverted logic for the flag.
 545:..\..\src/mode.c ****                scsiDev.data[idx+2] =
 1401              		.loc 1 545 0
 1402 0622 3B6A     		ldr	r3, [r7, #32]
 1403 0624 0233     		adds	r3, r3, #2
 546:..\..\src/mode.c ****                        (scsiDev.boardCfg.flags & CONFIG_ENABLE_UNIT_ATTENTION) ? 0x80 : 0x90;
 1404              		.loc 1 546 0
 1405 0626 314A     		ldr	r2, .L77+4
 1406 0628 92F86820 		ldrb	r2, [r2, #104]	@ zero_extendqisi2
 1407 062c 02F00102 		and	r2, r2, #1
 545:..\..\src/mode.c ****                        (scsiDev.boardCfg.flags & CONFIG_ENABLE_UNIT_ATTENTION) ? 0x80 : 0x90;
 1408              		.loc 1 545 0
 1409 0630 002A     		cmp	r2, #0
 1410 0632 01D0     		beq	.L66
 545:..\..\src/mode.c ****                        (scsiDev.boardCfg.flags & CONFIG_ENABLE_UNIT_ATTENTION) ? 0x80 : 0x90;
 1411              		.loc 1 545 0 is_stmt 0 discriminator 1
 1412 0634 8021     		movs	r1, #128
 1413 0636 00E0     		b	.L67
 1414              	.L66:
 545:..\..\src/mode.c ****                        (scsiDev.boardCfg.flags & CONFIG_ENABLE_UNIT_ATTENTION) ? 0x80 : 0x90;
 1415              		.loc 1 545 0 discriminator 2
 1416 0638 9021     		movs	r1, #144
 1417              	.L67:
 545:..\..\src/mode.c ****                        (scsiDev.boardCfg.flags & CONFIG_ENABLE_UNIT_ATTENTION) ? 0x80 : 0x90;
 1418              		.loc 1 545 0 discriminator 4
 1419 063a 2C4A     		ldr	r2, .L77+4
ARM GAS  C:\Users\r\AppData\Local\Temp\cc0NugVx.s 			page 36


 1420 063c 1344     		add	r3, r3, r2
 1421 063e 0A46     		mov	r2, r1
 1422 0640 83F87C21 		strb	r2, [r3, #380]
 547:..\..\src/mode.c **** 
 548:..\..\src/mode.c ****                scsiDev.data[idx+3] = getDeviceTypeQualifier();
 1423              		.loc 1 548 0 is_stmt 1 discriminator 4
 1424 0644 3B6A     		ldr	r3, [r7, #32]
 1425 0646 DC1C     		adds	r4, r3, #3
 1426 0648 FFF7FEFF 		bl	getDeviceTypeQualifier
 1427 064c 0346     		mov	r3, r0
 1428 064e 1A46     		mov	r2, r3
 1429 0650 264B     		ldr	r3, .L77+4
 1430 0652 2344     		add	r3, r3, r4
 1431 0654 83F87C21 		strb	r2, [r3, #380]
 549:..\..\src/mode.c **** 
 550:..\..\src/mode.c ****                idx += sizeof(OperatingPage);
 1432              		.loc 1 550 0 discriminator 4
 1433 0658 3B6A     		ldr	r3, [r7, #32]
 1434 065a 0433     		adds	r3, r3, #4
 1435 065c 3B62     		str	r3, [r7, #32]
 1436              	.L65:
 551:..\..\src/mode.c ****        }
 552:..\..\src/mode.c **** 
 553:..\..\src/mode.c **** 	if (!pageFound)
 1437              		.loc 1 553 0
 1438 065e 3B6B     		ldr	r3, [r7, #48]
 1439 0660 002B     		cmp	r3, #0
 1440 0662 15D1     		bne	.L68
 554:..\..\src/mode.c **** 	{
 555:..\..\src/mode.c **** 		// Unknown Page Code
 556:..\..\src/mode.c **** 		pageFound = 0;
 1441              		.loc 1 556 0
 1442 0664 0023     		movs	r3, #0
 1443 0666 3B63     		str	r3, [r7, #48]
 557:..\..\src/mode.c **** 		scsiDev.status = CHECK_CONDITION;
 1444              		.loc 1 557 0
 1445 0668 204B     		ldr	r3, .L77+4
 1446 066a 03F58343 		add	r3, r3, #16768
 1447 066e 1C33     		adds	r3, r3, #28
 1448 0670 0222     		movs	r2, #2
 1449 0672 1A70     		strb	r2, [r3]
 558:..\..\src/mode.c **** 		scsiDev.target->sense.code = ILLEGAL_REQUEST;
 1450              		.loc 1 558 0
 1451 0674 1D4B     		ldr	r3, .L77+4
 1452 0676 1B6E     		ldr	r3, [r3, #96]
 1453 0678 0522     		movs	r2, #5
 1454 067a 9A72     		strb	r2, [r3, #10]
 559:..\..\src/mode.c **** 		scsiDev.target->sense.asc = INVALID_FIELD_IN_CDB;
 1455              		.loc 1 559 0
 1456 067c 1B4B     		ldr	r3, .L77+4
 1457 067e 1B6E     		ldr	r3, [r3, #96]
 1458 0680 4FF41052 		mov	r2, #9216
 1459 0684 9A81     		strh	r2, [r3, #12]	@ movhi
 560:..\..\src/mode.c **** 		scsiDev.phase = STATUS;
 1460              		.loc 1 560 0
 1461 0686 194B     		ldr	r3, .L77+4
 1462 0688 0622     		movs	r2, #6
ARM GAS  C:\Users\r\AppData\Local\Temp\cc0NugVx.s 			page 37


 1463 068a C3F87821 		str	r2, [r3, #376]
 561:..\..\src/mode.c **** 	}
 562:..\..\src/mode.c **** 	else
 563:..\..\src/mode.c **** 	{
 564:..\..\src/mode.c **** 		// Go back and fill out the mode data length
 565:..\..\src/mode.c **** 		if (sixByteCmd)
 566:..\..\src/mode.c **** 		{
 567:..\..\src/mode.c **** 			// Cannot currently exceed limits. yay
 568:..\..\src/mode.c **** 			scsiDev.data[0] = idx - 1;
 569:..\..\src/mode.c **** 		}
 570:..\..\src/mode.c **** 		else
 571:..\..\src/mode.c **** 		{
 572:..\..\src/mode.c **** 			scsiDev.data[0] = ((idx - 2) >> 8);
 573:..\..\src/mode.c **** 			scsiDev.data[1] = (idx - 2);
 574:..\..\src/mode.c **** 		}
 575:..\..\src/mode.c **** 
 576:..\..\src/mode.c **** 		scsiDev.dataLen = idx > allocLength ? allocLength : idx;
 577:..\..\src/mode.c **** 		scsiDev.phase = DATA_IN;
 578:..\..\src/mode.c **** 	}
 579:..\..\src/mode.c **** }
 1464              		.loc 1 579 0
 1465 068e 26E0     		b	.L72
 1466              	.L68:
 565:..\..\src/mode.c **** 		{
 1467              		.loc 1 565 0
 1468 0690 FB68     		ldr	r3, [r7, #12]
 1469 0692 002B     		cmp	r3, #0
 1470 0694 07D0     		beq	.L70
 568:..\..\src/mode.c **** 		}
 1471              		.loc 1 568 0
 1472 0696 3B6A     		ldr	r3, [r7, #32]
 1473 0698 DBB2     		uxtb	r3, r3
 1474 069a 013B     		subs	r3, r3, #1
 1475 069c DAB2     		uxtb	r2, r3
 1476 069e 134B     		ldr	r3, .L77+4
 1477 06a0 83F87C21 		strb	r2, [r3, #380]
 1478 06a4 0DE0     		b	.L71
 1479              	.L70:
 572:..\..\src/mode.c **** 			scsiDev.data[1] = (idx - 2);
 1480              		.loc 1 572 0
 1481 06a6 3B6A     		ldr	r3, [r7, #32]
 1482 06a8 023B     		subs	r3, r3, #2
 1483 06aa 1B12     		asrs	r3, r3, #8
 1484 06ac DAB2     		uxtb	r2, r3
 1485 06ae 0F4B     		ldr	r3, .L77+4
 1486 06b0 83F87C21 		strb	r2, [r3, #380]
 573:..\..\src/mode.c **** 		}
 1487              		.loc 1 573 0
 1488 06b4 3B6A     		ldr	r3, [r7, #32]
 1489 06b6 DBB2     		uxtb	r3, r3
 1490 06b8 023B     		subs	r3, r3, #2
 1491 06ba DAB2     		uxtb	r2, r3
 1492 06bc 0B4B     		ldr	r3, .L77+4
 1493 06be 83F87D21 		strb	r2, [r3, #381]
 1494              	.L71:
 576:..\..\src/mode.c **** 		scsiDev.phase = DATA_IN;
 1495              		.loc 1 576 0
ARM GAS  C:\Users\r\AppData\Local\Temp\cc0NugVx.s 			page 38


 1496 06c2 3A6A     		ldr	r2, [r7, #32]
 1497 06c4 BB6C     		ldr	r3, [r7, #72]
 1498 06c6 9A42     		cmp	r2, r3
 1499 06c8 A8BF     		it	ge
 1500 06ca 1A46     		movge	r2, r3
 1501 06cc 074B     		ldr	r3, .L77+4
 1502 06ce 03F58343 		add	r3, r3, #16768
 1503 06d2 0433     		adds	r3, r3, #4
 1504 06d4 1A60     		str	r2, [r3]
 577:..\..\src/mode.c **** 	}
 1505              		.loc 1 577 0
 1506 06d6 054B     		ldr	r3, .L77+4
 1507 06d8 0422     		movs	r2, #4
 1508 06da C3F87821 		str	r2, [r3, #376]
 1509              	.L72:
 1510              		.loc 1 579 0
 1511 06de 00BF     		nop
 1512 06e0 3837     		adds	r7, r7, #56
 1513              		.cfi_def_cfa_offset 16
 1514 06e2 BD46     		mov	sp, r7
 1515              		.cfi_def_cfa_register 13
 1516              		@ sp needed
 1517 06e4 B0BD     		pop	{r4, r5, r7, pc}
 1518              	.L78:
 1519 06e6 00BF     		.align	2
 1520              	.L77:
 1521 06e8 64000000 		.word	FlexibleDiskDriveGeometry
 1522 06ec 00000000 		.word	scsiDev
 1523 06f0 98000000 		.word	CachingPage
 1524 06f4 A4000000 		.word	ControlModePage
 1525 06f8 AC000000 		.word	SequentialDeviceConfigPage
 1526 06fc BC000000 		.word	AppleVendorPage
 1527 0700 00000000 		.word	OperatingPage
 1528              		.cfi_endproc
 1529              	.LFE66:
 1530              		.size	doModeSense, .-doModeSense
 1531              		.section	.text.doModeSelect,"ax",%progbits
 1532              		.align	2
 1533              		.thumb
 1534              		.thumb_func
 1535              		.type	doModeSelect, %function
 1536              	doModeSelect:
 1537              	.LFB67:
 580:..\..\src/mode.c **** 
 581:..\..\src/mode.c **** 
 582:..\..\src/mode.c **** // Callback after the DATA OUT phase is complete.
 583:..\..\src/mode.c **** static void doModeSelect(void)
 584:..\..\src/mode.c **** {
 1538              		.loc 1 584 0
 1539              		.cfi_startproc
 1540              		@ args = 0, pretend = 0, frame = 24
 1541              		@ frame_needed = 1, uses_anonymous_args = 0
 1542 0000 80B5     		push	{r7, lr}
 1543              		.cfi_def_cfa_offset 8
 1544              		.cfi_offset 7, -8
 1545              		.cfi_offset 14, -4
 1546 0002 86B0     		sub	sp, sp, #24
ARM GAS  C:\Users\r\AppData\Local\Temp\cc0NugVx.s 			page 39


 1547              		.cfi_def_cfa_offset 32
 1548 0004 00AF     		add	r7, sp, #0
 1549              		.cfi_def_cfa_register 7
 585:..\..\src/mode.c **** 	if (scsiDev.status == GOOD) // skip if we've already encountered an error
 1550              		.loc 1 585 0
 1551 0006 6D4B     		ldr	r3, .L97
 1552 0008 03F58343 		add	r3, r3, #16768
 1553 000c 1C33     		adds	r3, r3, #28
 1554 000e 1B78     		ldrb	r3, [r3]	@ zero_extendqisi2
 1555 0010 002B     		cmp	r3, #0
 1556 0012 40F0CA80 		bne	.L93
 1557              	.LBB7:
 586:..\..\src/mode.c **** 	{
 587:..\..\src/mode.c **** 		// scsiDev.dataLen bytes are in scsiDev.data
 588:..\..\src/mode.c **** 
 589:..\..\src/mode.c **** 		int idx;
 590:..\..\src/mode.c **** 		int blockDescLen;
 591:..\..\src/mode.c **** 		if (scsiDev.cdb[0] == 0x55)
 1558              		.loc 1 591 0
 1559 0016 694B     		ldr	r3, .L97
 1560 0018 03F58343 		add	r3, r3, #16768
 1561 001c 0833     		adds	r3, r3, #8
 1562 001e 1B78     		ldrb	r3, [r3]	@ zero_extendqisi2
 1563 0020 552B     		cmp	r3, #85
 1564 0022 0BD1     		bne	.L81
 592:..\..\src/mode.c **** 		{
 593:..\..\src/mode.c **** 			blockDescLen =
 594:..\..\src/mode.c **** 				(((uint16_t)scsiDev.data[6]) << 8) |scsiDev.data[7];
 1565              		.loc 1 594 0
 1566 0024 654B     		ldr	r3, .L97
 1567 0026 93F88231 		ldrb	r3, [r3, #386]	@ zero_extendqisi2
 1568 002a 1B02     		lsls	r3, r3, #8
 1569 002c 634A     		ldr	r2, .L97
 1570 002e 92F88321 		ldrb	r2, [r2, #387]	@ zero_extendqisi2
 593:..\..\src/mode.c **** 				(((uint16_t)scsiDev.data[6]) << 8) |scsiDev.data[7];
 1571              		.loc 1 593 0
 1572 0032 1343     		orrs	r3, r3, r2
 1573 0034 3B61     		str	r3, [r7, #16]
 595:..\..\src/mode.c **** 			idx = 8;
 1574              		.loc 1 595 0
 1575 0036 0823     		movs	r3, #8
 1576 0038 7B61     		str	r3, [r7, #20]
 1577 003a 05E0     		b	.L82
 1578              	.L81:
 596:..\..\src/mode.c **** 		}
 597:..\..\src/mode.c **** 		else
 598:..\..\src/mode.c **** 		{
 599:..\..\src/mode.c **** 			blockDescLen = scsiDev.data[3];
 1579              		.loc 1 599 0
 1580 003c 5F4B     		ldr	r3, .L97
 1581 003e 93F87F31 		ldrb	r3, [r3, #383]	@ zero_extendqisi2
 1582 0042 3B61     		str	r3, [r7, #16]
 600:..\..\src/mode.c **** 			idx = 4;
 1583              		.loc 1 600 0
 1584 0044 0423     		movs	r3, #4
 1585 0046 7B61     		str	r3, [r7, #20]
 1586              	.L82:
ARM GAS  C:\Users\r\AppData\Local\Temp\cc0NugVx.s 			page 40


 601:..\..\src/mode.c **** 		}
 602:..\..\src/mode.c **** 
 603:..\..\src/mode.c **** 		// The unwritten rule.  Blocksizes are normally set using the
 604:..\..\src/mode.c **** 		// block descriptor value, not by changing page 0x03.
 605:..\..\src/mode.c **** 		if (blockDescLen >= 8)
 1587              		.loc 1 605 0
 1588 0048 3B69     		ldr	r3, [r7, #16]
 1589 004a 072B     		cmp	r3, #7
 1590 004c 36DD     		ble	.L83
 1591              	.LBB8:
 606:..\..\src/mode.c **** 		{
 607:..\..\src/mode.c **** 			uint32_t bytesPerSector =
 608:..\..\src/mode.c **** 				(((uint32_t)scsiDev.data[idx+5]) << 16) |
 1592              		.loc 1 608 0
 1593 004e 7B69     		ldr	r3, [r7, #20]
 1594 0050 0533     		adds	r3, r3, #5
 1595 0052 5A4A     		ldr	r2, .L97
 1596 0054 1344     		add	r3, r3, r2
 1597 0056 93F87C31 		ldrb	r3, [r3, #380]	@ zero_extendqisi2
 1598 005a 1A04     		lsls	r2, r3, #16
 609:..\..\src/mode.c **** 				(((uint32_t)scsiDev.data[idx+6]) << 8) |
 1599              		.loc 1 609 0
 1600 005c 7B69     		ldr	r3, [r7, #20]
 1601 005e 0633     		adds	r3, r3, #6
 1602 0060 5649     		ldr	r1, .L97
 1603 0062 0B44     		add	r3, r3, r1
 1604 0064 93F87C31 		ldrb	r3, [r3, #380]	@ zero_extendqisi2
 1605 0068 1B02     		lsls	r3, r3, #8
 608:..\..\src/mode.c **** 				(((uint32_t)scsiDev.data[idx+6]) << 8) |
 1606              		.loc 1 608 0
 1607 006a 1343     		orrs	r3, r3, r2
 610:..\..\src/mode.c **** 				scsiDev.data[idx+7];
 1608              		.loc 1 610 0
 1609 006c 7A69     		ldr	r2, [r7, #20]
 1610 006e 0732     		adds	r2, r2, #7
 1611 0070 5249     		ldr	r1, .L97
 1612 0072 0A44     		add	r2, r2, r1
 1613 0074 92F87C21 		ldrb	r2, [r2, #380]	@ zero_extendqisi2
 607:..\..\src/mode.c **** 				(((uint32_t)scsiDev.data[idx+5]) << 16) |
 1614              		.loc 1 607 0
 1615 0078 1343     		orrs	r3, r3, r2
 1616 007a FB60     		str	r3, [r7, #12]
 611:..\..\src/mode.c **** 			if ((bytesPerSector < MIN_SECTOR_SIZE) ||
 1617              		.loc 1 611 0
 1618 007c FB68     		ldr	r3, [r7, #12]
 1619 007e 3F2B     		cmp	r3, #63
 1620 0080 40F28380 		bls	.L84
 1621              		.loc 1 611 0 is_stmt 0 discriminator 1
 1622 0084 FB68     		ldr	r3, [r7, #12]
 1623 0086 B3F5005F 		cmp	r3, #8192
 1624 008a 7ED8     		bhi	.L84
 612:..\..\src/mode.c **** 				(bytesPerSector > MAX_SECTOR_SIZE))
 613:..\..\src/mode.c **** 			{
 614:..\..\src/mode.c **** 				goto bad;
 615:..\..\src/mode.c **** 			}
 616:..\..\src/mode.c **** 			else
 617:..\..\src/mode.c **** 			{
ARM GAS  C:\Users\r\AppData\Local\Temp\cc0NugVx.s 			page 41


 618:..\..\src/mode.c **** 				scsiDev.target->liveCfg.bytesPerSector = bytesPerSector;
 1625              		.loc 1 618 0 is_stmt 1
 1626 008c 4B4B     		ldr	r3, .L97
 1627 008e 1B6E     		ldr	r3, [r3, #96]
 1628 0090 FA68     		ldr	r2, [r7, #12]
 1629 0092 92B2     		uxth	r2, r2
 1630 0094 1A81     		strh	r2, [r3, #8]	@ movhi
 619:..\..\src/mode.c **** 				if (bytesPerSector != scsiDev.target->cfg->bytesPerSector)
 1631              		.loc 1 619 0
 1632 0096 494B     		ldr	r3, .L97
 1633 0098 1B6E     		ldr	r3, [r3, #96]
 1634 009a 5B68     		ldr	r3, [r3, #4]
 1635 009c 9B89     		ldrh	r3, [r3, #12]	@ unaligned
 1636 009e 9BB2     		uxth	r3, r3
 1637 00a0 1A46     		mov	r2, r3
 1638 00a2 FB68     		ldr	r3, [r7, #12]
 1639 00a4 9A42     		cmp	r2, r3
 1640 00a6 09D0     		beq	.L83
 620:..\..\src/mode.c **** 				{
 621:..\..\src/mode.c **** 					configSave(scsiDev.target->targetId, bytesPerSector);
 1641              		.loc 1 621 0
 1642 00a8 444B     		ldr	r3, .L97
 1643 00aa 1B6E     		ldr	r3, [r3, #96]
 1644 00ac 1B78     		ldrb	r3, [r3]	@ zero_extendqisi2
 1645 00ae 1A46     		mov	r2, r3
 1646 00b0 FB68     		ldr	r3, [r7, #12]
 1647 00b2 9BB2     		uxth	r3, r3
 1648 00b4 1946     		mov	r1, r3
 1649 00b6 1046     		mov	r0, r2
 1650 00b8 FFF7FEFF 		bl	configSave
 1651              	.L83:
 1652              	.LBE8:
 622:..\..\src/mode.c **** 				}
 623:..\..\src/mode.c **** 			}
 624:..\..\src/mode.c **** 		}
 625:..\..\src/mode.c **** 		idx += blockDescLen;
 1653              		.loc 1 625 0
 1654 00bc 7A69     		ldr	r2, [r7, #20]
 1655 00be 3B69     		ldr	r3, [r7, #16]
 1656 00c0 1344     		add	r3, r3, r2
 1657 00c2 7B61     		str	r3, [r7, #20]
 626:..\..\src/mode.c **** 
 627:..\..\src/mode.c **** 		while (idx < scsiDev.dataLen)
 1658              		.loc 1 627 0
 1659 00c4 55E0     		b	.L85
 1660              	.L91:
 1661              	.LBB9:
 628:..\..\src/mode.c **** 		{
 629:..\..\src/mode.c **** 			int pageLen = scsiDev.data[idx + 1];
 1662              		.loc 1 629 0
 1663 00c6 7B69     		ldr	r3, [r7, #20]
 1664 00c8 0133     		adds	r3, r3, #1
 1665 00ca 3C4A     		ldr	r2, .L97
 1666 00cc 1344     		add	r3, r3, r2
 1667 00ce 93F87C31 		ldrb	r3, [r3, #380]	@ zero_extendqisi2
 1668 00d2 BB60     		str	r3, [r7, #8]
 630:..\..\src/mode.c **** 			if (idx + 2 + pageLen > scsiDev.dataLen) goto bad;
ARM GAS  C:\Users\r\AppData\Local\Temp\cc0NugVx.s 			page 42


 1669              		.loc 1 630 0
 1670 00d4 7B69     		ldr	r3, [r7, #20]
 1671 00d6 9A1C     		adds	r2, r3, #2
 1672 00d8 BB68     		ldr	r3, [r7, #8]
 1673 00da 1A44     		add	r2, r2, r3
 1674 00dc 374B     		ldr	r3, .L97
 1675 00de 03F58343 		add	r3, r3, #16768
 1676 00e2 0433     		adds	r3, r3, #4
 1677 00e4 1B68     		ldr	r3, [r3]
 1678 00e6 9A42     		cmp	r2, r3
 1679 00e8 4CDC     		bgt	.L94
 631:..\..\src/mode.c **** 
 632:..\..\src/mode.c **** 			int pageCode = scsiDev.data[idx] & 0x3F;
 1680              		.loc 1 632 0
 1681 00ea 344A     		ldr	r2, .L97
 1682 00ec 7B69     		ldr	r3, [r7, #20]
 1683 00ee 1344     		add	r3, r3, r2
 1684 00f0 03F5BE73 		add	r3, r3, #380
 1685 00f4 1B78     		ldrb	r3, [r3]	@ zero_extendqisi2
 1686 00f6 03F03F03 		and	r3, r3, #63
 1687 00fa 7B60     		str	r3, [r7, #4]
 633:..\..\src/mode.c **** 			switch (pageCode)
 1688              		.loc 1 633 0
 1689 00fc 7B68     		ldr	r3, [r7, #4]
 1690 00fe 032B     		cmp	r3, #3
 1691 0100 32D1     		bne	.L87
 1692              	.LBB10:
 634:..\..\src/mode.c **** 			{
 635:..\..\src/mode.c **** 			case 0x03: // Format Device Page
 636:..\..\src/mode.c **** 			{
 637:..\..\src/mode.c **** 				if (pageLen != 0x16) goto bad;
 1693              		.loc 1 637 0
 1694 0102 BB68     		ldr	r3, [r7, #8]
 1695 0104 162B     		cmp	r3, #22
 1696 0106 3FD1     		bne	.L95
 638:..\..\src/mode.c **** 
 639:..\..\src/mode.c **** 				// Fill out the configured bytes-per-sector
 640:..\..\src/mode.c **** 				uint16_t bytesPerSector =
 641:..\..\src/mode.c **** 					(((uint16_t)scsiDev.data[idx+12]) << 8) |
 1697              		.loc 1 641 0
 1698 0108 7B69     		ldr	r3, [r7, #20]
 1699 010a 0C33     		adds	r3, r3, #12
 1700 010c 2B4A     		ldr	r2, .L97
 1701 010e 1344     		add	r3, r3, r2
 1702 0110 93F87C31 		ldrb	r3, [r3, #380]	@ zero_extendqisi2
 1703 0114 1B02     		lsls	r3, r3, #8
 640:..\..\src/mode.c **** 					(((uint16_t)scsiDev.data[idx+12]) << 8) |
 1704              		.loc 1 640 0
 1705 0116 1AB2     		sxth	r2, r3
 642:..\..\src/mode.c **** 					scsiDev.data[idx+13];
 1706              		.loc 1 642 0
 1707 0118 7B69     		ldr	r3, [r7, #20]
 1708 011a 0D33     		adds	r3, r3, #13
 1709 011c 2749     		ldr	r1, .L97
 1710 011e 0B44     		add	r3, r3, r1
 1711 0120 93F87C31 		ldrb	r3, [r3, #380]	@ zero_extendqisi2
 640:..\..\src/mode.c **** 					(((uint16_t)scsiDev.data[idx+12]) << 8) |
ARM GAS  C:\Users\r\AppData\Local\Temp\cc0NugVx.s 			page 43


 1712              		.loc 1 640 0
 1713 0124 1BB2     		sxth	r3, r3
 1714 0126 1343     		orrs	r3, r3, r2
 1715 0128 1BB2     		sxth	r3, r3
 1716 012a 7B80     		strh	r3, [r7, #2]	@ movhi
 643:..\..\src/mode.c **** 
 644:..\..\src/mode.c **** 				// Sane values only, ok ?
 645:..\..\src/mode.c **** 				if ((bytesPerSector < MIN_SECTOR_SIZE) ||
 1717              		.loc 1 645 0
 1718 012c 7B88     		ldrh	r3, [r7, #2]
 1719 012e 3F2B     		cmp	r3, #63
 1720 0130 2BD9     		bls	.L84
 1721              		.loc 1 645 0 is_stmt 0 discriminator 1
 1722 0132 7B88     		ldrh	r3, [r7, #2]
 1723 0134 B3F5005F 		cmp	r3, #8192
 1724 0138 27D8     		bhi	.L84
 646:..\..\src/mode.c **** 					(bytesPerSector > MAX_SECTOR_SIZE))
 647:..\..\src/mode.c **** 				{
 648:..\..\src/mode.c **** 					goto bad;
 649:..\..\src/mode.c **** 				}
 650:..\..\src/mode.c **** 
 651:..\..\src/mode.c **** 				scsiDev.target->liveCfg.bytesPerSector = bytesPerSector;
 1725              		.loc 1 651 0 is_stmt 1
 1726 013a 204B     		ldr	r3, .L97
 1727 013c 1B6E     		ldr	r3, [r3, #96]
 1728 013e 7A88     		ldrh	r2, [r7, #2]	@ movhi
 1729 0140 1A81     		strh	r2, [r3, #8]	@ movhi
 652:..\..\src/mode.c **** 				if (scsiDev.cdb[1] & 1) // SP Save Pages flag
 1730              		.loc 1 652 0
 1731 0142 1E4B     		ldr	r3, .L97
 1732 0144 03F58343 		add	r3, r3, #16768
 1733 0148 0933     		adds	r3, r3, #9
 1734 014a 1B78     		ldrb	r3, [r3]	@ zero_extendqisi2
 1735 014c 03F00103 		and	r3, r3, #1
 1736 0150 002B     		cmp	r3, #0
 1737 0152 08D0     		beq	.L96
 653:..\..\src/mode.c **** 				{
 654:..\..\src/mode.c **** 					configSave(scsiDev.target->targetId, bytesPerSector);
 1738              		.loc 1 654 0
 1739 0154 194B     		ldr	r3, .L97
 1740 0156 1B6E     		ldr	r3, [r3, #96]
 1741 0158 1B78     		ldrb	r3, [r3]	@ zero_extendqisi2
 1742 015a 1A46     		mov	r2, r3
 1743 015c 7B88     		ldrh	r3, [r7, #2]
 1744 015e 1946     		mov	r1, r3
 1745 0160 1046     		mov	r0, r2
 1746 0162 FFF7FEFF 		bl	configSave
 1747              	.L96:
 1748              	.LBE10:
 655:..\..\src/mode.c **** 				}
 656:..\..\src/mode.c **** 			}
 657:..\..\src/mode.c **** 			break;
 1749              		.loc 1 657 0
 1750 0166 00BF     		nop
 1751              	.L87:
 658:..\..\src/mode.c **** 			//default:
 659:..\..\src/mode.c **** 
ARM GAS  C:\Users\r\AppData\Local\Temp\cc0NugVx.s 			page 44


 660:..\..\src/mode.c **** 				// Easiest to just ignore for now. We'll get here when changing
 661:..\..\src/mode.c **** 				// the SCSI block size via the descriptor header.
 662:..\..\src/mode.c **** 			}
 663:..\..\src/mode.c **** 			idx += 2 + pageLen;
 1752              		.loc 1 663 0
 1753 0168 BB68     		ldr	r3, [r7, #8]
 1754 016a 0233     		adds	r3, r3, #2
 1755 016c 7A69     		ldr	r2, [r7, #20]
 1756 016e 1344     		add	r3, r3, r2
 1757 0170 7B61     		str	r3, [r7, #20]
 1758              	.L85:
 1759              	.LBE9:
 627:..\..\src/mode.c **** 		{
 1760              		.loc 1 627 0
 1761 0172 124B     		ldr	r3, .L97
 1762 0174 03F58343 		add	r3, r3, #16768
 1763 0178 0433     		adds	r3, r3, #4
 1764 017a 1A68     		ldr	r2, [r3]
 1765 017c 7B69     		ldr	r3, [r7, #20]
 1766 017e 9A42     		cmp	r2, r3
 1767 0180 A1DC     		bgt	.L91
 1768              	.LBE7:
 664:..\..\src/mode.c **** 		}
 665:..\..\src/mode.c **** 	}
 666:..\..\src/mode.c **** 
 667:..\..\src/mode.c **** 	goto out;
 1769              		.loc 1 667 0
 1770 0182 12E0     		b	.L93
 1771              	.L94:
 1772              	.LBB13:
 1773              	.LBB12:
 630:..\..\src/mode.c **** 
 1774              		.loc 1 630 0
 1775 0184 00BF     		nop
 1776 0186 00E0     		b	.L84
 1777              	.L95:
 1778              	.LBB11:
 637:..\..\src/mode.c **** 
 1779              		.loc 1 637 0
 1780 0188 00BF     		nop
 1781              	.L84:
 1782              	.LBE11:
 1783              	.LBE12:
 1784              	.LBE13:
 668:..\..\src/mode.c **** bad:
 669:..\..\src/mode.c **** 	scsiDev.status = CHECK_CONDITION;
 1785              		.loc 1 669 0
 1786 018a 0C4B     		ldr	r3, .L97
 1787 018c 03F58343 		add	r3, r3, #16768
 1788 0190 1C33     		adds	r3, r3, #28
 1789 0192 0222     		movs	r2, #2
 1790 0194 1A70     		strb	r2, [r3]
 670:..\..\src/mode.c **** 	scsiDev.target->sense.code = ILLEGAL_REQUEST;
 1791              		.loc 1 670 0
 1792 0196 094B     		ldr	r3, .L97
 1793 0198 1B6E     		ldr	r3, [r3, #96]
 1794 019a 0522     		movs	r2, #5
ARM GAS  C:\Users\r\AppData\Local\Temp\cc0NugVx.s 			page 45


 1795 019c 9A72     		strb	r2, [r3, #10]
 671:..\..\src/mode.c **** 	scsiDev.target->sense.asc = INVALID_FIELD_IN_PARAMETER_LIST;
 1796              		.loc 1 671 0
 1797 019e 074B     		ldr	r3, .L97
 1798 01a0 1B6E     		ldr	r3, [r3, #96]
 1799 01a2 4FF41852 		mov	r2, #9728
 1800 01a6 9A81     		strh	r2, [r3, #12]	@ movhi
 1801 01a8 00E0     		b	.L92
 1802              	.L93:
 667:..\..\src/mode.c **** bad:
 1803              		.loc 1 667 0
 1804 01aa 00BF     		nop
 1805              	.L92:
 672:..\..\src/mode.c **** 
 673:..\..\src/mode.c **** out:
 674:..\..\src/mode.c **** 	scsiDev.phase = STATUS;
 1806              		.loc 1 674 0
 1807 01ac 034B     		ldr	r3, .L97
 1808 01ae 0622     		movs	r2, #6
 1809 01b0 C3F87821 		str	r2, [r3, #376]
 675:..\..\src/mode.c **** }
 1810              		.loc 1 675 0
 1811 01b4 00BF     		nop
 1812 01b6 1837     		adds	r7, r7, #24
 1813              		.cfi_def_cfa_offset 8
 1814 01b8 BD46     		mov	sp, r7
 1815              		.cfi_def_cfa_register 13
 1816              		@ sp needed
 1817 01ba 80BD     		pop	{r7, pc}
 1818              	.L98:
 1819              		.align	2
 1820              	.L97:
 1821 01bc 00000000 		.word	scsiDev
 1822              		.cfi_endproc
 1823              	.LFE67:
 1824              		.size	doModeSelect, .-doModeSelect
 1825              		.section	.text.scsiModeCommand,"ax",%progbits
 1826              		.align	2
 1827              		.global	scsiModeCommand
 1828              		.thumb
 1829              		.thumb_func
 1830              		.type	scsiModeCommand, %function
 1831              	scsiModeCommand:
 1832              	.LFB68:
 676:..\..\src/mode.c **** 
 677:..\..\src/mode.c **** int scsiModeCommand()
 678:..\..\src/mode.c **** {
 1833              		.loc 1 678 0
 1834              		.cfi_startproc
 1835              		@ args = 0, pretend = 0, frame = 48
 1836              		@ frame_needed = 1, uses_anonymous_args = 0
 1837 0000 80B5     		push	{r7, lr}
 1838              		.cfi_def_cfa_offset 8
 1839              		.cfi_offset 7, -8
 1840              		.cfi_offset 14, -4
 1841 0002 8EB0     		sub	sp, sp, #56
 1842              		.cfi_def_cfa_offset 64
ARM GAS  C:\Users\r\AppData\Local\Temp\cc0NugVx.s 			page 46


 1843 0004 02AF     		add	r7, sp, #8
 1844              		.cfi_def_cfa 7, 56
 679:..\..\src/mode.c **** 	int commandHandled = 1;
 1845              		.loc 1 679 0
 1846 0006 0123     		movs	r3, #1
 1847 0008 FB62     		str	r3, [r7, #44]
 680:..\..\src/mode.c **** 
 681:..\..\src/mode.c **** 	uint8 command = scsiDev.cdb[0];
 1848              		.loc 1 681 0
 1849 000a 5C4B     		ldr	r3, .L110
 1850 000c 03F58343 		add	r3, r3, #16768
 1851 0010 0833     		adds	r3, r3, #8
 1852 0012 1B78     		ldrb	r3, [r3]
 1853 0014 87F82B30 		strb	r3, [r7, #43]
 682:..\..\src/mode.c **** 
 683:..\..\src/mode.c **** 	// We don't currently support the setting of any parameters.
 684:..\..\src/mode.c **** 	// (ie. no MODE SELECT(6) or MODE SELECT(10) commands)
 685:..\..\src/mode.c **** 
 686:..\..\src/mode.c **** 	if (command == 0x1A)
 1854              		.loc 1 686 0
 1855 0018 97F82B30 		ldrb	r3, [r7, #43]	@ zero_extendqisi2
 1856 001c 1A2B     		cmp	r3, #26
 1857 001e 26D1     		bne	.L100
 1858              	.LBB14:
 687:..\..\src/mode.c **** 	{
 688:..\..\src/mode.c **** 		// MODE SENSE(6)
 689:..\..\src/mode.c **** 		int dbd = scsiDev.cdb[1] & 0x08; // Disable block descriptors
 1859              		.loc 1 689 0
 1860 0020 564B     		ldr	r3, .L110
 1861 0022 03F58343 		add	r3, r3, #16768
 1862 0026 0933     		adds	r3, r3, #9
 1863 0028 1B78     		ldrb	r3, [r3]	@ zero_extendqisi2
 1864 002a 03F00803 		and	r3, r3, #8
 1865 002e 7B62     		str	r3, [r7, #36]
 690:..\..\src/mode.c **** 		int pc = scsiDev.cdb[2] >> 6; // Page Control
 1866              		.loc 1 690 0
 1867 0030 524B     		ldr	r3, .L110
 1868 0032 03F58343 		add	r3, r3, #16768
 1869 0036 0A33     		adds	r3, r3, #10
 1870 0038 1B78     		ldrb	r3, [r3]	@ zero_extendqisi2
 1871 003a 9B09     		lsrs	r3, r3, #6
 1872 003c DBB2     		uxtb	r3, r3
 1873 003e 3B62     		str	r3, [r7, #32]
 691:..\..\src/mode.c **** 		int pageCode = scsiDev.cdb[2] & 0x3F;
 1874              		.loc 1 691 0
 1875 0040 4E4B     		ldr	r3, .L110
 1876 0042 03F58343 		add	r3, r3, #16768
 1877 0046 0A33     		adds	r3, r3, #10
 1878 0048 1B78     		ldrb	r3, [r3]	@ zero_extendqisi2
 1879 004a 03F03F03 		and	r3, r3, #63
 1880 004e FB61     		str	r3, [r7, #28]
 692:..\..\src/mode.c **** 		int allocLength = scsiDev.cdb[4];
 1881              		.loc 1 692 0
 1882 0050 4A4B     		ldr	r3, .L110
 1883 0052 03F58343 		add	r3, r3, #16768
 1884 0056 0C33     		adds	r3, r3, #12
 1885 0058 1B78     		ldrb	r3, [r3]	@ zero_extendqisi2
ARM GAS  C:\Users\r\AppData\Local\Temp\cc0NugVx.s 			page 47


 1886 005a BB61     		str	r3, [r7, #24]
 693:..\..\src/mode.c **** 
 694:..\..\src/mode.c **** 		// SCSI1 standard: (CCS X3T9.2/86-52)
 695:..\..\src/mode.c **** 		// "An Allocation Length of zero indicates that no MODE SENSE data shall
 696:..\..\src/mode.c **** 		// be transferred. This condition shall not be considered as an error."
 697:..\..\src/mode.c **** 		doModeSense(1, dbd, pc, pageCode, allocLength);
 1887              		.loc 1 697 0
 1888 005c BB69     		ldr	r3, [r7, #24]
 1889 005e 0093     		str	r3, [sp]
 1890 0060 FB69     		ldr	r3, [r7, #28]
 1891 0062 3A6A     		ldr	r2, [r7, #32]
 1892 0064 796A     		ldr	r1, [r7, #36]
 1893 0066 0120     		movs	r0, #1
 1894 0068 FFF7FEFF 		bl	doModeSense
 1895              	.LBE14:
 1896 006c 80E0     		b	.L101
 1897              	.L100:
 698:..\..\src/mode.c **** 	}
 699:..\..\src/mode.c **** 	else if (command == 0x5A)
 1898              		.loc 1 699 0
 1899 006e 97F82B30 		ldrb	r3, [r7, #43]	@ zero_extendqisi2
 1900 0072 5A2B     		cmp	r3, #90
 1901 0074 2DD1     		bne	.L102
 1902              	.LBB15:
 700:..\..\src/mode.c **** 	{
 701:..\..\src/mode.c **** 		// MODE SENSE(10)
 702:..\..\src/mode.c **** 		int dbd = scsiDev.cdb[1] & 0x08; // Disable block descriptors
 1903              		.loc 1 702 0
 1904 0076 414B     		ldr	r3, .L110
 1905 0078 03F58343 		add	r3, r3, #16768
 1906 007c 0933     		adds	r3, r3, #9
 1907 007e 1B78     		ldrb	r3, [r3]	@ zero_extendqisi2
 1908 0080 03F00803 		and	r3, r3, #8
 1909 0084 7B61     		str	r3, [r7, #20]
 703:..\..\src/mode.c **** 		int pc = scsiDev.cdb[2] >> 6; // Page Control
 1910              		.loc 1 703 0
 1911 0086 3D4B     		ldr	r3, .L110
 1912 0088 03F58343 		add	r3, r3, #16768
 1913 008c 0A33     		adds	r3, r3, #10
 1914 008e 1B78     		ldrb	r3, [r3]	@ zero_extendqisi2
 1915 0090 9B09     		lsrs	r3, r3, #6
 1916 0092 DBB2     		uxtb	r3, r3
 1917 0094 3B61     		str	r3, [r7, #16]
 704:..\..\src/mode.c **** 		int pageCode = scsiDev.cdb[2] & 0x3F;
 1918              		.loc 1 704 0
 1919 0096 394B     		ldr	r3, .L110
 1920 0098 03F58343 		add	r3, r3, #16768
 1921 009c 0A33     		adds	r3, r3, #10
 1922 009e 1B78     		ldrb	r3, [r3]	@ zero_extendqisi2
 1923 00a0 03F03F03 		and	r3, r3, #63
 1924 00a4 FB60     		str	r3, [r7, #12]
 705:..\..\src/mode.c **** 		int allocLength =
 706:..\..\src/mode.c **** 			(((uint16) scsiDev.cdb[7]) << 8) +
 1925              		.loc 1 706 0
 1926 00a6 354B     		ldr	r3, .L110
 1927 00a8 03F58343 		add	r3, r3, #16768
 1928 00ac 0F33     		adds	r3, r3, #15
ARM GAS  C:\Users\r\AppData\Local\Temp\cc0NugVx.s 			page 48


 1929 00ae 1B78     		ldrb	r3, [r3]	@ zero_extendqisi2
 1930 00b0 1A02     		lsls	r2, r3, #8
 707:..\..\src/mode.c **** 			scsiDev.cdb[8];
 1931              		.loc 1 707 0
 1932 00b2 324B     		ldr	r3, .L110
 1933 00b4 03F58343 		add	r3, r3, #16768
 1934 00b8 1033     		adds	r3, r3, #16
 1935 00ba 1B78     		ldrb	r3, [r3]	@ zero_extendqisi2
 705:..\..\src/mode.c **** 		int allocLength =
 1936              		.loc 1 705 0
 1937 00bc 1344     		add	r3, r3, r2
 1938 00be BB60     		str	r3, [r7, #8]
 708:..\..\src/mode.c **** 		doModeSense(0, dbd, pc, pageCode, allocLength);
 1939              		.loc 1 708 0
 1940 00c0 BB68     		ldr	r3, [r7, #8]
 1941 00c2 0093     		str	r3, [sp]
 1942 00c4 FB68     		ldr	r3, [r7, #12]
 1943 00c6 3A69     		ldr	r2, [r7, #16]
 1944 00c8 7969     		ldr	r1, [r7, #20]
 1945 00ca 0020     		movs	r0, #0
 1946 00cc FFF7FEFF 		bl	doModeSense
 1947              	.LBE15:
 1948 00d0 4EE0     		b	.L101
 1949              	.L102:
 709:..\..\src/mode.c **** 	}
 710:..\..\src/mode.c **** 	else if (command == 0x15)
 1950              		.loc 1 710 0
 1951 00d2 97F82B30 		ldrb	r3, [r7, #43]	@ zero_extendqisi2
 1952 00d6 152B     		cmp	r3, #21
 1953 00d8 1ED1     		bne	.L103
 1954              	.LBB16:
 711:..\..\src/mode.c **** 	{
 712:..\..\src/mode.c **** 		// MODE SELECT(6)
 713:..\..\src/mode.c **** 		int len = scsiDev.cdb[4];
 1955              		.loc 1 713 0
 1956 00da 284B     		ldr	r3, .L110
 1957 00dc 03F58343 		add	r3, r3, #16768
 1958 00e0 0C33     		adds	r3, r3, #12
 1959 00e2 1B78     		ldrb	r3, [r3]	@ zero_extendqisi2
 1960 00e4 7B60     		str	r3, [r7, #4]
 714:..\..\src/mode.c **** 		if (len == 0)
 1961              		.loc 1 714 0
 1962 00e6 7B68     		ldr	r3, [r7, #4]
 1963 00e8 002B     		cmp	r3, #0
 1964 00ea 04D1     		bne	.L104
 715:..\..\src/mode.c **** 		{
 716:..\..\src/mode.c **** 			// If len == 0, then transfer no data. From the SCSI 2 standard:
 717:..\..\src/mode.c **** 			//      A parameter list length of zero indicates that no data shall
 718:..\..\src/mode.c **** 			//      be transferred. This condition shall not be considered as an
 719:..\..\src/mode.c **** 			//		error.
 720:..\..\src/mode.c **** 			scsiDev.phase = STATUS;
 1965              		.loc 1 720 0
 1966 00ec 234B     		ldr	r3, .L110
 1967 00ee 0622     		movs	r2, #6
 1968 00f0 C3F87821 		str	r2, [r3, #376]
 1969 00f4 3CE0     		b	.L101
 1970              	.L104:
ARM GAS  C:\Users\r\AppData\Local\Temp\cc0NugVx.s 			page 49


 721:..\..\src/mode.c **** 		}
 722:..\..\src/mode.c **** 		else
 723:..\..\src/mode.c **** 		{
 724:..\..\src/mode.c **** 			scsiDev.dataLen = len;
 1971              		.loc 1 724 0
 1972 00f6 214B     		ldr	r3, .L110
 1973 00f8 03F58343 		add	r3, r3, #16768
 1974 00fc 0433     		adds	r3, r3, #4
 1975 00fe 7A68     		ldr	r2, [r7, #4]
 1976 0100 1A60     		str	r2, [r3]
 725:..\..\src/mode.c **** 			scsiDev.phase = DATA_OUT;
 1977              		.loc 1 725 0
 1978 0102 1E4B     		ldr	r3, .L110
 1979 0104 0022     		movs	r2, #0
 1980 0106 C3F87821 		str	r2, [r3, #376]
 726:..\..\src/mode.c **** 			scsiDev.postDataOutHook = doModeSelect;
 1981              		.loc 1 726 0
 1982 010a 1C4B     		ldr	r3, .L110
 1983 010c 03F58343 		add	r3, r3, #16768
 1984 0110 2033     		adds	r3, r3, #32
 1985 0112 1B4A     		ldr	r2, .L110+4
 1986 0114 1A60     		str	r2, [r3]
 1987 0116 2BE0     		b	.L101
 1988              	.L103:
 1989              	.LBE16:
 727:..\..\src/mode.c **** 		}
 728:..\..\src/mode.c **** 	}
 729:..\..\src/mode.c **** 	else if (command == 0x55)
 1990              		.loc 1 729 0
 1991 0118 97F82B30 		ldrb	r3, [r7, #43]	@ zero_extendqisi2
 1992 011c 552B     		cmp	r3, #85
 1993 011e 25D1     		bne	.L106
 1994              	.LBB17:
 730:..\..\src/mode.c **** 	{
 731:..\..\src/mode.c **** 		// MODE SELECT(10)
 732:..\..\src/mode.c **** 		int allocLength = (((uint16) scsiDev.cdb[7]) << 8) + scsiDev.cdb[8];
 1995              		.loc 1 732 0
 1996 0120 164B     		ldr	r3, .L110
 1997 0122 03F58343 		add	r3, r3, #16768
 1998 0126 0F33     		adds	r3, r3, #15
 1999 0128 1B78     		ldrb	r3, [r3]	@ zero_extendqisi2
 2000 012a 1A02     		lsls	r2, r3, #8
 2001 012c 134B     		ldr	r3, .L110
 2002 012e 03F58343 		add	r3, r3, #16768
 2003 0132 1033     		adds	r3, r3, #16
 2004 0134 1B78     		ldrb	r3, [r3]	@ zero_extendqisi2
 2005 0136 1344     		add	r3, r3, r2
 2006 0138 3B60     		str	r3, [r7]
 733:..\..\src/mode.c **** 		if (allocLength == 0)
 2007              		.loc 1 733 0
 2008 013a 3B68     		ldr	r3, [r7]
 2009 013c 002B     		cmp	r3, #0
 2010 013e 04D1     		bne	.L107
 734:..\..\src/mode.c **** 		{
 735:..\..\src/mode.c **** 			// If len == 0, then transfer no data. From the SCSI 2 standard:
 736:..\..\src/mode.c **** 			//      A parameter list length of zero indicates that no data shall
 737:..\..\src/mode.c **** 			//      be transferred. This condition shall not be considered as an
ARM GAS  C:\Users\r\AppData\Local\Temp\cc0NugVx.s 			page 50


 738:..\..\src/mode.c **** 			//		error.
 739:..\..\src/mode.c **** 			scsiDev.phase = STATUS;
 2011              		.loc 1 739 0
 2012 0140 0E4B     		ldr	r3, .L110
 2013 0142 0622     		movs	r2, #6
 2014 0144 C3F87821 		str	r2, [r3, #376]
 2015 0148 12E0     		b	.L101
 2016              	.L107:
 740:..\..\src/mode.c **** 		}
 741:..\..\src/mode.c **** 		else
 742:..\..\src/mode.c **** 		{
 743:..\..\src/mode.c **** 			scsiDev.dataLen = allocLength;
 2017              		.loc 1 743 0
 2018 014a 0C4B     		ldr	r3, .L110
 2019 014c 03F58343 		add	r3, r3, #16768
 2020 0150 0433     		adds	r3, r3, #4
 2021 0152 3A68     		ldr	r2, [r7]
 2022 0154 1A60     		str	r2, [r3]
 744:..\..\src/mode.c **** 			scsiDev.phase = DATA_OUT;
 2023              		.loc 1 744 0
 2024 0156 094B     		ldr	r3, .L110
 2025 0158 0022     		movs	r2, #0
 2026 015a C3F87821 		str	r2, [r3, #376]
 745:..\..\src/mode.c **** 			scsiDev.postDataOutHook = doModeSelect;
 2027              		.loc 1 745 0
 2028 015e 074B     		ldr	r3, .L110
 2029 0160 03F58343 		add	r3, r3, #16768
 2030 0164 2033     		adds	r3, r3, #32
 2031 0166 064A     		ldr	r2, .L110+4
 2032 0168 1A60     		str	r2, [r3]
 2033 016a 01E0     		b	.L101
 2034              	.L106:
 2035              	.LBE17:
 746:..\..\src/mode.c **** 		}
 747:..\..\src/mode.c **** 	}
 748:..\..\src/mode.c **** 	else
 749:..\..\src/mode.c **** 	{
 750:..\..\src/mode.c **** 		commandHandled = 0;
 2036              		.loc 1 750 0
 2037 016c 0023     		movs	r3, #0
 2038 016e FB62     		str	r3, [r7, #44]
 2039              	.L101:
 751:..\..\src/mode.c **** 	}
 752:..\..\src/mode.c **** 
 753:..\..\src/mode.c **** 	return commandHandled;
 2040              		.loc 1 753 0
 2041 0170 FB6A     		ldr	r3, [r7, #44]
 754:..\..\src/mode.c **** }...
 2042              		.loc 1 754 0
 2043 0172 1846     		mov	r0, r3
 2044 0174 3037     		adds	r7, r7, #48
 2045              		.cfi_def_cfa_offset 8
 2046 0176 BD46     		mov	sp, r7
 2047              		.cfi_def_cfa_register 13
 2048              		@ sp needed
 2049 0178 80BD     		pop	{r7, pc}
 2050              	.L111:
ARM GAS  C:\Users\r\AppData\Local\Temp\cc0NugVx.s 			page 51


 2051 017a 00BF     		.align	2
 2052              	.L110:
 2053 017c 00000000 		.word	scsiDev
 2054 0180 00000000 		.word	doModeSelect
 2055              		.cfi_endproc
 2056              	.LFE68:
 2057              		.size	scsiModeCommand, .-scsiModeCommand
 2058              		.text
 2059              	.Letext0:
 2060              		.file 2 "c:\\program files (x86)\\cypress\\psoc creator\\4.2\\psoc creator\\import\\gnu\\arm\\5.4.
 2061              		.file 3 "c:\\program files (x86)\\cypress\\psoc creator\\4.2\\psoc creator\\import\\gnu\\arm\\5.4.
 2062              		.file 4 "Generated_Source\\PSoC5/cytypes.h"
 2063              		.file 5 "../../../include/scsi2sd.h"
 2064              		.file 6 "..\\..\\src\\sense.h"
 2065              		.file 7 "..\\..\\src\\scsi.h"
 2066              		.file 8 "..\\..\\src\\disk.h"
 2067              		.file 9 "Generated_Source\\PSoC5/core_cm3.h"
 2068              		.section	.debug_info,"",%progbits
 2069              	.Ldebug_info0:
 2070 0000 79100000 		.4byte	0x1079
 2071 0004 0400     		.2byte	0x4
 2072 0006 00000000 		.4byte	.Ldebug_abbrev0
 2073 000a 04       		.byte	0x4
 2074 000b 01       		.uleb128 0x1
 2075 000c 060B0000 		.4byte	.LASF316
 2076 0010 0C       		.byte	0xc
 2077 0011 A10F0000 		.4byte	.LASF317
 2078 0015 AC110000 		.4byte	.LASF318
 2079 0019 60000000 		.4byte	.Ldebug_ranges0+0x60
 2080 001d 00000000 		.4byte	0
 2081 0021 00000000 		.4byte	.Ldebug_line0
 2082 0025 02       		.uleb128 0x2
 2083 0026 01       		.byte	0x1
 2084 0027 06       		.byte	0x6
 2085 0028 05050000 		.4byte	.LASF0
 2086 002c 03       		.uleb128 0x3
 2087 002d 67030000 		.4byte	.LASF3
 2088 0031 02       		.byte	0x2
 2089 0032 1D       		.byte	0x1d
 2090 0033 37000000 		.4byte	0x37
 2091 0037 02       		.uleb128 0x2
 2092 0038 01       		.byte	0x1
 2093 0039 08       		.byte	0x8
 2094 003a 91050000 		.4byte	.LASF1
 2095 003e 02       		.uleb128 0x2
 2096 003f 02       		.byte	0x2
 2097 0040 05       		.byte	0x5
 2098 0041 D2140000 		.4byte	.LASF2
 2099 0045 03       		.uleb128 0x3
 2100 0046 D1060000 		.4byte	.LASF4
 2101 004a 02       		.byte	0x2
 2102 004b 2B       		.byte	0x2b
 2103 004c 50000000 		.4byte	0x50
 2104 0050 02       		.uleb128 0x2
 2105 0051 02       		.byte	0x2
 2106 0052 07       		.byte	0x7
 2107 0053 0E170000 		.4byte	.LASF5
ARM GAS  C:\Users\r\AppData\Local\Temp\cc0NugVx.s 			page 52


 2108 0057 03       		.uleb128 0x3
 2109 0058 B4170000 		.4byte	.LASF6
 2110 005c 02       		.byte	0x2
 2111 005d 3F       		.byte	0x3f
 2112 005e 62000000 		.4byte	0x62
 2113 0062 02       		.uleb128 0x2
 2114 0063 04       		.byte	0x4
 2115 0064 05       		.byte	0x5
 2116 0065 C8030000 		.4byte	.LASF7
 2117 0069 03       		.uleb128 0x3
 2118 006a 0B0C0000 		.4byte	.LASF8
 2119 006e 02       		.byte	0x2
 2120 006f 41       		.byte	0x41
 2121 0070 74000000 		.4byte	0x74
 2122 0074 02       		.uleb128 0x2
 2123 0075 04       		.byte	0x4
 2124 0076 07       		.byte	0x7
 2125 0077 4F090000 		.4byte	.LASF9
 2126 007b 02       		.uleb128 0x2
 2127 007c 08       		.byte	0x8
 2128 007d 05       		.byte	0x5
 2129 007e 4B0C0000 		.4byte	.LASF10
 2130 0082 02       		.uleb128 0x2
 2131 0083 08       		.byte	0x8
 2132 0084 07       		.byte	0x7
 2133 0085 FA110000 		.4byte	.LASF11
 2134 0089 04       		.uleb128 0x4
 2135 008a 04       		.byte	0x4
 2136 008b 05       		.byte	0x5
 2137 008c 696E7400 		.ascii	"int\000"
 2138 0090 02       		.uleb128 0x2
 2139 0091 04       		.byte	0x4
 2140 0092 07       		.byte	0x7
 2141 0093 0B0E0000 		.4byte	.LASF12
 2142 0097 03       		.uleb128 0x3
 2143 0098 11050000 		.4byte	.LASF13
 2144 009c 03       		.byte	0x3
 2145 009d 18       		.byte	0x18
 2146 009e 2C000000 		.4byte	0x2c
 2147 00a2 03       		.uleb128 0x3
 2148 00a3 39120000 		.4byte	.LASF14
 2149 00a7 03       		.byte	0x3
 2150 00a8 24       		.byte	0x24
 2151 00a9 45000000 		.4byte	0x45
 2152 00ad 03       		.uleb128 0x3
 2153 00ae DD000000 		.4byte	.LASF15
 2154 00b2 03       		.byte	0x3
 2155 00b3 2C       		.byte	0x2c
 2156 00b4 57000000 		.4byte	0x57
 2157 00b8 03       		.uleb128 0x3
 2158 00b9 BC160000 		.4byte	.LASF16
 2159 00bd 03       		.byte	0x3
 2160 00be 30       		.byte	0x30
 2161 00bf 69000000 		.4byte	0x69
 2162 00c3 05       		.uleb128 0x5
 2163 00c4 BB140000 		.4byte	.LASF17
 2164 00c8 04       		.byte	0x4
ARM GAS  C:\Users\r\AppData\Local\Temp\cc0NugVx.s 			page 53


 2165 00c9 E401     		.2byte	0x1e4
 2166 00cb 37000000 		.4byte	0x37
 2167 00cf 05       		.uleb128 0x5
 2168 00d0 92180000 		.4byte	.LASF18
 2169 00d4 04       		.byte	0x4
 2170 00d5 E501     		.2byte	0x1e5
 2171 00d7 50000000 		.4byte	0x50
 2172 00db 05       		.uleb128 0x5
 2173 00dc 5F010000 		.4byte	.LASF19
 2174 00e0 04       		.byte	0x4
 2175 00e1 E601     		.2byte	0x1e6
 2176 00e3 74000000 		.4byte	0x74
 2177 00e7 05       		.uleb128 0x5
 2178 00e8 C8020000 		.4byte	.LASF20
 2179 00ec 04       		.byte	0x4
 2180 00ed E701     		.2byte	0x1e7
 2181 00ef 25000000 		.4byte	0x25
 2182 00f3 02       		.uleb128 0x2
 2183 00f4 04       		.byte	0x4
 2184 00f5 04       		.byte	0x4
 2185 00f6 E20D0000 		.4byte	.LASF21
 2186 00fa 02       		.uleb128 0x2
 2187 00fb 08       		.byte	0x8
 2188 00fc 04       		.byte	0x4
 2189 00fd F70C0000 		.4byte	.LASF22
 2190 0101 02       		.uleb128 0x2
 2191 0102 01       		.byte	0x1
 2192 0103 08       		.byte	0x8
 2193 0104 24060000 		.4byte	.LASF23
 2194 0108 06       		.uleb128 0x6
 2195 0109 04       		.byte	0x4
 2196 010a 0E010000 		.4byte	0x10e
 2197 010e 07       		.uleb128 0x7
 2198 010f 02       		.uleb128 0x2
 2199 0110 08       		.byte	0x8
 2200 0111 04       		.byte	0x4
 2201 0112 A0100000 		.4byte	.LASF24
 2202 0116 02       		.uleb128 0x2
 2203 0117 04       		.byte	0x4
 2204 0118 07       		.byte	0x7
 2205 0119 12000000 		.4byte	.LASF25
 2206 011d 08       		.uleb128 0x8
 2207 011e 01010000 		.4byte	0x101
 2208 0122 2D010000 		.4byte	0x12d
 2209 0126 09       		.uleb128 0x9
 2210 0127 16010000 		.4byte	0x116
 2211 012b 07       		.byte	0x7
 2212 012c 00       		.byte	0
 2213 012d 0A       		.uleb128 0xa
 2214 012e 01       		.byte	0x1
 2215 012f 37000000 		.4byte	0x37
 2216 0133 05       		.byte	0x5
 2217 0134 66       		.byte	0x66
 2218 0135 6A010000 		.4byte	0x16a
 2219 0139 0B       		.uleb128 0xb
 2220 013a 9D070000 		.4byte	.LASF26
 2221 013e 01       		.byte	0x1
ARM GAS  C:\Users\r\AppData\Local\Temp\cc0NugVx.s 			page 54


 2222 013f 0B       		.uleb128 0xb
 2223 0140 DA160000 		.4byte	.LASF27
 2224 0144 02       		.byte	0x2
 2225 0145 0B       		.uleb128 0xb
 2226 0146 4E020000 		.4byte	.LASF28
 2227 014a 04       		.byte	0x4
 2228 014b 0B       		.uleb128 0xb
 2229 014c 4C110000 		.4byte	.LASF29
 2230 0150 08       		.byte	0x8
 2231 0151 0B       		.uleb128 0xb
 2232 0152 1F070000 		.4byte	.LASF30
 2233 0156 10       		.byte	0x10
 2234 0157 0B       		.uleb128 0xb
 2235 0158 DC060000 		.4byte	.LASF31
 2236 015c 20       		.byte	0x20
 2237 015d 0B       		.uleb128 0xb
 2238 015e CA0D0000 		.4byte	.LASF32
 2239 0162 40       		.byte	0x40
 2240 0163 0B       		.uleb128 0xb
 2241 0164 F0010000 		.4byte	.LASF33
 2242 0168 80       		.byte	0x80
 2243 0169 00       		.byte	0
 2244 016a 0A       		.uleb128 0xa
 2245 016b 01       		.byte	0x1
 2246 016c 37000000 		.4byte	0x37
 2247 0170 05       		.byte	0x5
 2248 0171 77       		.byte	0x77
 2249 0172 9B010000 		.4byte	0x19b
 2250 0176 0B       		.uleb128 0xb
 2251 0177 91010000 		.4byte	.LASF34
 2252 017b 00       		.byte	0
 2253 017c 0B       		.uleb128 0xb
 2254 017d 77120000 		.4byte	.LASF35
 2255 0181 01       		.byte	0x1
 2256 0182 0B       		.uleb128 0xb
 2257 0183 1A030000 		.4byte	.LASF36
 2258 0187 02       		.byte	0x2
 2259 0188 0B       		.uleb128 0xb
 2260 0189 790F0000 		.4byte	.LASF37
 2261 018d 03       		.byte	0x3
 2262 018e 0B       		.uleb128 0xb
 2263 018f E2100000 		.4byte	.LASF38
 2264 0193 04       		.byte	0x4
 2265 0194 0B       		.uleb128 0xb
 2266 0195 F8150000 		.4byte	.LASF39
 2267 0199 05       		.byte	0x5
 2268 019a 00       		.byte	0
 2269 019b 0A       		.uleb128 0xa
 2270 019c 01       		.byte	0x1
 2271 019d 37000000 		.4byte	0x37
 2272 01a1 05       		.byte	0x5
 2273 01a2 82       		.byte	0x82
 2274 01a3 C0010000 		.4byte	0x1c0
 2275 01a7 0B       		.uleb128 0xb
 2276 01a8 19050000 		.4byte	.LASF40
 2277 01ac 00       		.byte	0
 2278 01ad 0B       		.uleb128 0xb
ARM GAS  C:\Users\r\AppData\Local\Temp\cc0NugVx.s 			page 55


 2279 01ae D1030000 		.4byte	.LASF41
 2280 01b2 01       		.byte	0x1
 2281 01b3 0B       		.uleb128 0xb
 2282 01b4 980C0000 		.4byte	.LASF42
 2283 01b8 02       		.byte	0x2
 2284 01b9 0B       		.uleb128 0xb
 2285 01ba 7E180000 		.4byte	.LASF43
 2286 01be 04       		.byte	0x4
 2287 01bf 00       		.byte	0
 2288 01c0 0C       		.uleb128 0xc
 2289 01c1 0010     		.2byte	0x1000
 2290 01c3 05       		.byte	0x5
 2291 01c4 98       		.byte	0x98
 2292 01c5 A5020000 		.4byte	0x2a5
 2293 01c9 0D       		.uleb128 0xd
 2294 01ca 940B0000 		.4byte	.LASF44
 2295 01ce 05       		.byte	0x5
 2296 01cf 9C       		.byte	0x9c
 2297 01d0 97000000 		.4byte	0x97
 2298 01d4 00       		.byte	0
 2299 01d5 0D       		.uleb128 0xd
 2300 01d6 BA070000 		.4byte	.LASF45
 2301 01da 05       		.byte	0x5
 2302 01db 9E       		.byte	0x9e
 2303 01dc 97000000 		.4byte	0x97
 2304 01e0 01       		.byte	0x1
 2305 01e1 0D       		.uleb128 0xd
 2306 01e2 13160000 		.4byte	.LASF46
 2307 01e6 05       		.byte	0x5
 2308 01e7 9F       		.byte	0x9f
 2309 01e8 97000000 		.4byte	0x97
 2310 01ec 02       		.byte	0x2
 2311 01ed 0D       		.uleb128 0xd
 2312 01ee 25080000 		.4byte	.LASF47
 2313 01f2 05       		.byte	0x5
 2314 01f3 A0       		.byte	0xa0
 2315 01f4 97000000 		.4byte	0x97
 2316 01f8 03       		.byte	0x3
 2317 01f9 0D       		.uleb128 0xd
 2318 01fa 62110000 		.4byte	.LASF48
 2319 01fe 05       		.byte	0x5
 2320 01ff A2       		.byte	0xa2
 2321 0200 B8000000 		.4byte	0xb8
 2322 0204 04       		.byte	0x4
 2323 0205 0D       		.uleb128 0xd
 2324 0206 B3100000 		.4byte	.LASF49
 2325 020a 05       		.byte	0x5
 2326 020b A3       		.byte	0xa3
 2327 020c B8000000 		.4byte	0xb8
 2328 0210 08       		.byte	0x8
 2329 0211 0D       		.uleb128 0xd
 2330 0212 70110000 		.4byte	.LASF50
 2331 0216 05       		.byte	0x5
 2332 0217 A5       		.byte	0xa5
 2333 0218 A2000000 		.4byte	0xa2
 2334 021c 0C       		.byte	0xc
 2335 021d 0D       		.uleb128 0xd
ARM GAS  C:\Users\r\AppData\Local\Temp\cc0NugVx.s 			page 56


 2336 021e 690F0000 		.4byte	.LASF51
 2337 0222 05       		.byte	0x5
 2338 0223 A8       		.byte	0xa8
 2339 0224 A2000000 		.4byte	0xa2
 2340 0228 0E       		.byte	0xe
 2341 0229 0D       		.uleb128 0xd
 2342 022a 62020000 		.4byte	.LASF52
 2343 022e 05       		.byte	0x5
 2344 022f AB       		.byte	0xab
 2345 0230 A2000000 		.4byte	0xa2
 2346 0234 10       		.byte	0x10
 2347 0235 0D       		.uleb128 0xd
 2348 0236 A8010000 		.4byte	.LASF53
 2349 023a 05       		.byte	0x5
 2350 023b AE       		.byte	0xae
 2351 023c 1D010000 		.4byte	0x11d
 2352 0240 12       		.byte	0x12
 2353 0241 0D       		.uleb128 0xd
 2354 0242 BE170000 		.4byte	.LASF54
 2355 0246 05       		.byte	0x5
 2356 0247 AF       		.byte	0xaf
 2357 0248 A5020000 		.4byte	0x2a5
 2358 024c 1A       		.byte	0x1a
 2359 024d 0D       		.uleb128 0xd
 2360 024e F1110000 		.4byte	.LASF55
 2361 0252 05       		.byte	0x5
 2362 0253 B0       		.byte	0xb0
 2363 0254 B5020000 		.4byte	0x2b5
 2364 0258 2A       		.byte	0x2a
 2365 0259 0D       		.uleb128 0xd
 2366 025a A40A0000 		.4byte	.LASF56
 2367 025e 05       		.byte	0x5
 2368 025f B1       		.byte	0xb1
 2369 0260 A5020000 		.4byte	0x2a5
 2370 0264 2E       		.byte	0x2e
 2371 0265 0D       		.uleb128 0xd
 2372 0266 C5070000 		.4byte	.LASF57
 2373 026a 05       		.byte	0x5
 2374 026b B3       		.byte	0xb3
 2375 026c A2000000 		.4byte	0xa2
 2376 0270 3E       		.byte	0x3e
 2377 0271 0D       		.uleb128 0xd
 2378 0272 FE160000 		.4byte	.LASF58
 2379 0276 05       		.byte	0x5
 2380 0277 B5       		.byte	0xb5
 2381 0278 C5020000 		.4byte	0x2c5
 2382 027c 40       		.byte	0x40
 2383 027d 0E       		.uleb128 0xe
 2384 027e C8140000 		.4byte	.LASF59
 2385 0282 05       		.byte	0x5
 2386 0283 B7       		.byte	0xb7
 2387 0284 D6020000 		.4byte	0x2d6
 2388 0288 0004     		.2byte	0x400
 2389 028a 0F       		.uleb128 0xf
 2390 028b 76706400 		.ascii	"vpd\000"
 2391 028f 05       		.byte	0x5
 2392 0290 B8       		.byte	0xb8
ARM GAS  C:\Users\r\AppData\Local\Temp\cc0NugVx.s 			page 57


 2393 0291 D6020000 		.4byte	0x2d6
 2394 0295 0008     		.2byte	0x800
 2395 0297 0E       		.uleb128 0xe
 2396 0298 4C060000 		.4byte	.LASF60
 2397 029c 05       		.byte	0x5
 2398 029d B9       		.byte	0xb9
 2399 029e D6020000 		.4byte	0x2d6
 2400 02a2 000C     		.2byte	0xc00
 2401 02a4 00       		.byte	0
 2402 02a5 08       		.uleb128 0x8
 2403 02a6 01010000 		.4byte	0x101
 2404 02aa B5020000 		.4byte	0x2b5
 2405 02ae 09       		.uleb128 0x9
 2406 02af 16010000 		.4byte	0x116
 2407 02b3 0F       		.byte	0xf
 2408 02b4 00       		.byte	0
 2409 02b5 08       		.uleb128 0x8
 2410 02b6 01010000 		.4byte	0x101
 2411 02ba C5020000 		.4byte	0x2c5
 2412 02be 09       		.uleb128 0x9
 2413 02bf 16010000 		.4byte	0x116
 2414 02c3 03       		.byte	0x3
 2415 02c4 00       		.byte	0
 2416 02c5 08       		.uleb128 0x8
 2417 02c6 97000000 		.4byte	0x97
 2418 02ca D6020000 		.4byte	0x2d6
 2419 02ce 10       		.uleb128 0x10
 2420 02cf 16010000 		.4byte	0x116
 2421 02d3 BF03     		.2byte	0x3bf
 2422 02d5 00       		.byte	0
 2423 02d6 08       		.uleb128 0x8
 2424 02d7 97000000 		.4byte	0x97
 2425 02db E7020000 		.4byte	0x2e7
 2426 02df 10       		.uleb128 0x10
 2427 02e0 16010000 		.4byte	0x116
 2428 02e4 FF03     		.2byte	0x3ff
 2429 02e6 00       		.byte	0
 2430 02e7 03       		.uleb128 0x3
 2431 02e8 66010000 		.4byte	.LASF61
 2432 02ec 05       		.byte	0x5
 2433 02ed BA       		.byte	0xba
 2434 02ee C0010000 		.4byte	0x1c0
 2435 02f2 0C       		.uleb128 0xc
 2436 02f3 0001     		.2byte	0x100
 2437 02f5 05       		.byte	0x5
 2438 02f6 BC       		.byte	0xbc
 2439 02f7 50030000 		.4byte	0x350
 2440 02fb 0D       		.uleb128 0xd
 2441 02fc 21170000 		.4byte	.LASF62
 2442 0300 05       		.byte	0x5
 2443 0301 BE       		.byte	0xbe
 2444 0302 B5020000 		.4byte	0x2b5
 2445 0306 00       		.byte	0
 2446 0307 0D       		.uleb128 0xd
 2447 0308 0A070000 		.4byte	.LASF63
 2448 030c 05       		.byte	0x5
 2449 030d BF       		.byte	0xbf
ARM GAS  C:\Users\r\AppData\Local\Temp\cc0NugVx.s 			page 58


 2450 030e 97000000 		.4byte	0x97
 2451 0312 04       		.byte	0x4
 2452 0313 0D       		.uleb128 0xd
 2453 0314 0D030000 		.4byte	.LASF64
 2454 0318 05       		.byte	0x5
 2455 0319 C0       		.byte	0xc0
 2456 031a 97000000 		.4byte	0x97
 2457 031e 05       		.byte	0x5
 2458 031f 0D       		.uleb128 0xd
 2459 0320 B3050000 		.4byte	.LASF65
 2460 0324 05       		.byte	0x5
 2461 0325 C1       		.byte	0xc1
 2462 0326 97000000 		.4byte	0x97
 2463 032a 06       		.byte	0x6
 2464 032b 0D       		.uleb128 0xd
 2465 032c AC100000 		.4byte	.LASF66
 2466 0330 05       		.byte	0x5
 2467 0331 C2       		.byte	0xc2
 2468 0332 97000000 		.4byte	0x97
 2469 0336 07       		.byte	0x7
 2470 0337 0D       		.uleb128 0xd
 2471 0338 8E090000 		.4byte	.LASF67
 2472 033c 05       		.byte	0x5
 2473 033d C4       		.byte	0xc4
 2474 033e 97000000 		.4byte	0x97
 2475 0342 08       		.byte	0x8
 2476 0343 0D       		.uleb128 0xd
 2477 0344 FE160000 		.4byte	.LASF58
 2478 0348 05       		.byte	0x5
 2479 0349 C7       		.byte	0xc7
 2480 034a 50030000 		.4byte	0x350
 2481 034e 09       		.byte	0x9
 2482 034f 00       		.byte	0
 2483 0350 08       		.uleb128 0x8
 2484 0351 97000000 		.4byte	0x97
 2485 0355 60030000 		.4byte	0x360
 2486 0359 09       		.uleb128 0x9
 2487 035a 16010000 		.4byte	0x116
 2488 035e F6       		.byte	0xf6
 2489 035f 00       		.byte	0
 2490 0360 03       		.uleb128 0x3
 2491 0361 31010000 		.4byte	.LASF68
 2492 0365 05       		.byte	0x5
 2493 0366 C8       		.byte	0xc8
 2494 0367 F2020000 		.4byte	0x2f2
 2495 036b 0A       		.uleb128 0xa
 2496 036c 01       		.byte	0x1
 2497 036d 37000000 		.4byte	0x37
 2498 0371 06       		.byte	0x6
 2499 0372 15       		.byte	0x15
 2500 0373 D8030000 		.4byte	0x3d8
 2501 0377 0B       		.uleb128 0xb
 2502 0378 E8020000 		.4byte	.LASF69
 2503 037c 00       		.byte	0
 2504 037d 0B       		.uleb128 0xb
 2505 037e 38180000 		.4byte	.LASF70
 2506 0382 01       		.byte	0x1
ARM GAS  C:\Users\r\AppData\Local\Temp\cc0NugVx.s 			page 59


 2507 0383 0B       		.uleb128 0xb
 2508 0384 DC0F0000 		.4byte	.LASF71
 2509 0388 02       		.byte	0x2
 2510 0389 0B       		.uleb128 0xb
 2511 038a 1F040000 		.4byte	.LASF72
 2512 038e 03       		.byte	0x3
 2513 038f 0B       		.uleb128 0xb
 2514 0390 EF160000 		.4byte	.LASF73
 2515 0394 04       		.byte	0x4
 2516 0395 0B       		.uleb128 0xb
 2517 0396 FA060000 		.4byte	.LASF74
 2518 039a 05       		.byte	0x5
 2519 039b 0B       		.uleb128 0xb
 2520 039c B0150000 		.4byte	.LASF75
 2521 03a0 06       		.byte	0x6
 2522 03a1 0B       		.uleb128 0xb
 2523 03a2 18080000 		.4byte	.LASF76
 2524 03a6 07       		.byte	0x7
 2525 03a7 0B       		.uleb128 0xb
 2526 03a8 1B000000 		.4byte	.LASF77
 2527 03ac 08       		.byte	0x8
 2528 03ad 0B       		.uleb128 0xb
 2529 03ae 1F0E0000 		.4byte	.LASF78
 2530 03b2 09       		.byte	0x9
 2531 03b3 0B       		.uleb128 0xb
 2532 03b4 DC140000 		.4byte	.LASF79
 2533 03b8 0A       		.byte	0xa
 2534 03b9 0B       		.uleb128 0xb
 2535 03ba B90B0000 		.4byte	.LASF80
 2536 03be 0B       		.byte	0xb
 2537 03bf 0B       		.uleb128 0xb
 2538 03c0 73020000 		.4byte	.LASF81
 2539 03c4 0C       		.byte	0xc
 2540 03c5 0B       		.uleb128 0xb
 2541 03c6 2F0E0000 		.4byte	.LASF82
 2542 03ca 0D       		.byte	0xd
 2543 03cb 0B       		.uleb128 0xb
 2544 03cc 22110000 		.4byte	.LASF83
 2545 03d0 0E       		.byte	0xe
 2546 03d1 0B       		.uleb128 0xb
 2547 03d2 0F080000 		.4byte	.LASF84
 2548 03d6 0F       		.byte	0xf
 2549 03d7 00       		.byte	0
 2550 03d8 0A       		.uleb128 0xa
 2551 03d9 02       		.byte	0x2
 2552 03da 50000000 		.4byte	0x50
 2553 03de 06       		.byte	0x6
 2554 03df 2B       		.byte	0x2b
 2555 03e0 47070000 		.4byte	0x747
 2556 03e4 11       		.uleb128 0x11
 2557 03e5 AB0C0000 		.4byte	.LASF85
 2558 03e9 0013     		.2byte	0x1300
 2559 03eb 11       		.uleb128 0x11
 2560 03ec BE130000 		.4byte	.LASF86
 2561 03f0 0012     		.2byte	0x1200
 2562 03f2 11       		.uleb128 0x11
 2563 03f3 3F160000 		.4byte	.LASF87
ARM GAS  C:\Users\r\AppData\Local\Temp\cc0NugVx.s 			page 60


 2564 03f7 0230     		.2byte	0x3002
 2565 03f9 11       		.uleb128 0x11
 2566 03fa 3D010000 		.4byte	.LASF88
 2567 03fe 0130     		.2byte	0x3001
 2568 0400 11       		.uleb128 0x11
 2569 0401 F8090000 		.4byte	.LASF89
 2570 0405 023F     		.2byte	0x3f02
 2571 0407 11       		.uleb128 0x11
 2572 0408 E4090000 		.4byte	.LASF90
 2573 040c 004A     		.2byte	0x4a00
 2574 040e 11       		.uleb128 0x11
 2575 040f 38080000 		.4byte	.LASF91
 2576 0413 002C     		.2byte	0x2c00
 2577 0415 11       		.uleb128 0x11
 2578 0416 D10C0000 		.4byte	.LASF92
 2579 041a 002F     		.2byte	0x2f00
 2580 041c 11       		.uleb128 0x11
 2581 041d 460A0000 		.4byte	.LASF93
 2582 0421 002B     		.2byte	0x2b00
 2583 0423 11       		.uleb128 0x11
 2584 0424 320D0000 		.4byte	.LASF94
 2585 0428 0041     		.2byte	0x4100
 2586 042a 11       		.uleb128 0x11
 2587 042b 66160000 		.4byte	.LASF95
 2588 042f 004B     		.2byte	0x4b00
 2589 0431 11       		.uleb128 0x11
 2590 0432 780C0000 		.4byte	.LASF96
 2591 0436 0016     		.2byte	0x1600
 2592 0438 11       		.uleb128 0x11
 2593 0439 660C0000 		.4byte	.LASF97
 2594 043d 0019     		.2byte	0x1900
 2595 043f 11       		.uleb128 0x11
 2596 0440 71050000 		.4byte	.LASF98
 2597 0444 0319     		.2byte	0x1903
 2598 0446 11       		.uleb128 0x11
 2599 0447 16180000 		.4byte	.LASF99
 2600 044b 0219     		.2byte	0x1902
 2601 044d 11       		.uleb128 0x11
 2602 044e CC070000 		.4byte	.LASF100
 2603 0452 0119     		.2byte	0x1901
 2604 0454 11       		.uleb128 0x11
 2605 0455 EC100000 		.4byte	.LASF101
 2606 0459 001C     		.2byte	0x1c00
 2607 045b 11       		.uleb128 0x11
 2608 045c 48000000 		.4byte	.LASF102
 2609 0460 0132     		.2byte	0x3201
 2610 0462 11       		.uleb128 0x11
 2611 0463 AB040000 		.4byte	.LASF103
 2612 0467 000A     		.2byte	0xa00
 2613 0469 11       		.uleb128 0x11
 2614 046a 8D150000 		.4byte	.LASF104
 2615 046e 0211     		.2byte	0x1102
 2616 0470 11       		.uleb128 0x11
 2617 0471 01150000 		.4byte	.LASF105
 2618 0475 0131     		.2byte	0x3101
 2619 0477 11       		.uleb128 0x11
 2620 0478 90060000 		.4byte	.LASF106
ARM GAS  C:\Users\r\AppData\Local\Temp\cc0NugVx.s 			page 61


 2621 047c 021C     		.2byte	0x1c02
 2622 047e 0B       		.uleb128 0xb
 2623 047f 63000000 		.4byte	.LASF107
 2624 0483 06       		.byte	0x6
 2625 0484 11       		.uleb128 0x11
 2626 0485 9F050000 		.4byte	.LASF108
 2627 0489 0010     		.2byte	0x1000
 2628 048b 11       		.uleb128 0x11
 2629 048c 4E120000 		.4byte	.LASF109
 2630 0490 0022     		.2byte	0x2200
 2631 0492 11       		.uleb128 0x11
 2632 0493 73010000 		.4byte	.LASF110
 2633 0497 0030     		.2byte	0x3000
 2634 0499 11       		.uleb128 0x11
 2635 049a 81040000 		.4byte	.LASF111
 2636 049e 0048     		.2byte	0x4800
 2637 04a0 11       		.uleb128 0x11
 2638 04a1 8B170000 		.4byte	.LASF112
 2639 04a5 033F     		.2byte	0x3f03
 2640 04a7 11       		.uleb128 0x11
 2641 04a8 85070000 		.4byte	.LASF113
 2642 04ac 0044     		.2byte	0x4400
 2643 04ae 11       		.uleb128 0x11
 2644 04af 17150000 		.4byte	.LASF114
 2645 04b3 003D     		.2byte	0x3d00
 2646 04b5 11       		.uleb128 0x11
 2647 04b6 6C130000 		.4byte	.LASF115
 2648 04ba 0020     		.2byte	0x2000
 2649 04bc 11       		.uleb128 0x11
 2650 04bd B30A0000 		.4byte	.LASF116
 2651 04c1 0024     		.2byte	0x2400
 2652 04c3 11       		.uleb128 0x11
 2653 04c4 80140000 		.4byte	.LASF117
 2654 04c8 0026     		.2byte	0x2600
 2655 04ca 11       		.uleb128 0x11
 2656 04cb EB080000 		.4byte	.LASF118
 2657 04cf 0049     		.2byte	0x4900
 2658 04d1 11       		.uleb128 0x11
 2659 04d2 F10E0000 		.4byte	.LASF119
 2660 04d6 025B     		.2byte	0x5b02
 2661 04d8 11       		.uleb128 0x11
 2662 04d9 77160000 		.4byte	.LASF120
 2663 04dd 005B     		.2byte	0x5b00
 2664 04df 11       		.uleb128 0x11
 2665 04e0 EC040000 		.4byte	.LASF121
 2666 04e4 035B     		.2byte	0x5b03
 2667 04e6 11       		.uleb128 0x11
 2668 04e7 99180000 		.4byte	.LASF122
 2669 04eb 022A     		.2byte	0x2a02
 2670 04ed 11       		.uleb128 0x11
 2671 04ee BF100000 		.4byte	.LASF123
 2672 04f2 0021     		.2byte	0x2100
 2673 04f4 11       		.uleb128 0x11
 2674 04f5 40170000 		.4byte	.LASF124
 2675 04f9 0008     		.2byte	0x800
 2676 04fb 11       		.uleb128 0x11
 2677 04fc 410F0000 		.4byte	.LASF125
ARM GAS  C:\Users\r\AppData\Local\Temp\cc0NugVx.s 			page 62


 2678 0500 0208     		.2byte	0x802
 2679 0502 11       		.uleb128 0x11
 2680 0503 29060000 		.4byte	.LASF126
 2681 0507 0108     		.2byte	0x801
 2682 0509 11       		.uleb128 0x11
 2683 050a 0F140000 		.4byte	.LASF127
 2684 050e 0005     		.2byte	0x500
 2685 0510 11       		.uleb128 0x11
 2686 0511 8B130000 		.4byte	.LASF128
 2687 0515 004C     		.2byte	0x4c00
 2688 0517 11       		.uleb128 0x11
 2689 0518 440D0000 		.4byte	.LASF129
 2690 051c 003E     		.2byte	0x3e00
 2691 051e 11       		.uleb128 0x11
 2692 051f D2170000 		.4byte	.LASF130
 2693 0523 0104     		.2byte	0x401
 2694 0525 11       		.uleb128 0x11
 2695 0526 FE0C0000 		.4byte	.LASF131
 2696 052a 0004     		.2byte	0x400
 2697 052c 11       		.uleb128 0x11
 2698 052d BF150000 		.4byte	.LASF132
 2699 0531 0404     		.2byte	0x404
 2700 0533 11       		.uleb128 0x11
 2701 0534 A8000000 		.4byte	.LASF133
 2702 0538 0204     		.2byte	0x402
 2703 053a 11       		.uleb128 0x11
 2704 053b C2050000 		.4byte	.LASF134
 2705 053f 0304     		.2byte	0x403
 2706 0541 11       		.uleb128 0x11
 2707 0542 890A0000 		.4byte	.LASF135
 2708 0546 0025     		.2byte	0x2500
 2709 0548 11       		.uleb128 0x11
 2710 0549 53060000 		.4byte	.LASF136
 2711 054d 0115     		.2byte	0x1501
 2712 054f 11       		.uleb128 0x11
 2713 0550 F00D0000 		.4byte	.LASF137
 2714 0554 0053     		.2byte	0x5300
 2715 0556 11       		.uleb128 0x11
 2716 0557 E9140000 		.4byte	.LASF138
 2717 055b 0031     		.2byte	0x3100
 2718 055d 11       		.uleb128 0x11
 2719 055e 6D0D0000 		.4byte	.LASF139
 2720 0562 003A     		.2byte	0x3a00
 2721 0564 11       		.uleb128 0x11
 2722 0565 B20F0000 		.4byte	.LASF140
 2723 0569 0253     		.2byte	0x5302
 2724 056b 11       		.uleb128 0x11
 2725 056c 9A000000 		.4byte	.LASF141
 2726 0570 0043     		.2byte	0x4300
 2727 0572 11       		.uleb128 0x11
 2728 0573 FB120000 		.4byte	.LASF142
 2729 0577 013F     		.2byte	0x3f01
 2730 0579 11       		.uleb128 0x11
 2731 057a B8120000 		.4byte	.LASF143
 2732 057e 001D     		.2byte	0x1d00
 2733 0580 11       		.uleb128 0x11
 2734 0581 33070000 		.4byte	.LASF144
ARM GAS  C:\Users\r\AppData\Local\Temp\cc0NugVx.s 			page 63


 2735 0585 0A11     		.2byte	0x110a
 2736 0587 11       		.uleb128 0x11
 2737 0588 5F120000 		.4byte	.LASF145
 2738 058c 012A     		.2byte	0x2a01
 2739 058e 11       		.uleb128 0x11
 2740 058f BD080000 		.4byte	.LASF146
 2741 0593 0007     		.2byte	0x700
 2742 0595 11       		.uleb128 0x11
 2743 0596 8C0F0000 		.4byte	.LASF147
 2744 059a 0311     		.2byte	0x1103
 2745 059c 0B       		.uleb128 0xb
 2746 059d 91160000 		.4byte	.LASF148
 2747 05a1 00       		.byte	0
 2748 05a2 11       		.uleb128 0x11
 2749 05a3 19100000 		.4byte	.LASF149
 2750 05a7 0032     		.2byte	0x3200
 2751 05a9 11       		.uleb128 0x11
 2752 05aa 29030000 		.4byte	.LASF150
 2753 05ae 0001     		.2byte	0x100
 2754 05b0 11       		.uleb128 0x11
 2755 05b1 23160000 		.4byte	.LASF151
 2756 05b5 0006     		.2byte	0x600
 2757 05b7 11       		.uleb128 0x11
 2758 05b8 AA140000 		.4byte	.LASF152
 2759 05bc 0002     		.2byte	0x200
 2760 05be 11       		.uleb128 0x11
 2761 05bf 4B0E0000 		.4byte	.LASF153
 2762 05c3 0028     		.2byte	0x2800
 2763 05c5 11       		.uleb128 0x11
 2764 05c6 11120000 		.4byte	.LASF154
 2765 05ca 015A     		.2byte	0x5a01
 2766 05cc 11       		.uleb128 0x11
 2767 05cd 27020000 		.4byte	.LASF155
 2768 05d1 005A     		.2byte	0x5a00
 2769 05d3 11       		.uleb128 0x11
 2770 05d4 2D110000 		.4byte	.LASF156
 2771 05d8 035A     		.2byte	0x5a03
 2772 05da 11       		.uleb128 0x11
 2773 05db 70060000 		.4byte	.LASF157
 2774 05df 025A     		.2byte	0x5a02
 2775 05e1 11       		.uleb128 0x11
 2776 05e2 C80A0000 		.4byte	.LASF158
 2777 05e6 004E     		.2byte	0x4e00
 2778 05e8 11       		.uleb128 0x11
 2779 05e9 25130000 		.4byte	.LASF159
 2780 05ed 001A     		.2byte	0x1a00
 2781 05ef 11       		.uleb128 0x11
 2782 05f0 C40E0000 		.4byte	.LASF160
 2783 05f4 0126     		.2byte	0x2601
 2784 05f6 11       		.uleb128 0x11
 2785 05f7 0A110000 		.4byte	.LASF161
 2786 05fb 0226     		.2byte	0x2602
 2787 05fd 11       		.uleb128 0x11
 2788 05fe B5030000 		.4byte	.LASF162
 2789 0602 002A     		.2byte	0x2a00
 2790 0604 11       		.uleb128 0x11
 2791 0605 89120000 		.4byte	.LASF163
ARM GAS  C:\Users\r\AppData\Local\Temp\cc0NugVx.s 			page 64


 2792 0609 0003     		.2byte	0x300
 2793 060b 11       		.uleb128 0x11
 2794 060c 61090000 		.4byte	.LASF164
 2795 0610 0215     		.2byte	0x1502
 2796 0612 11       		.uleb128 0x11
 2797 0613 980E0000 		.4byte	.LASF165
 2798 0617 0029     		.2byte	0x2900
 2799 0619 11       		.uleb128 0x11
 2800 061a D5090000 		.4byte	.LASF166
 2801 061e 0129     		.2byte	0x2901
 2802 0620 11       		.uleb128 0x11
 2803 0621 53050000 		.4byte	.LASF167
 2804 0625 0042     		.2byte	0x4200
 2805 0627 11       		.uleb128 0x11
 2806 0628 E6070000 		.4byte	.LASF168
 2807 062c 011C     		.2byte	0x1c01
 2808 062e 11       		.uleb128 0x11
 2809 062f E50E0000 		.4byte	.LASF169
 2810 0633 0040     		.2byte	0x4000
 2811 0635 11       		.uleb128 0x11
 2812 0636 98090000 		.4byte	.LASF170
 2813 063a 0015     		.2byte	0x1500
 2814 063c 11       		.uleb128 0x11
 2815 063d E4120000 		.4byte	.LASF171
 2816 0641 0111     		.2byte	0x1101
 2817 0643 11       		.uleb128 0x11
 2818 0644 13060000 		.4byte	.LASF172
 2819 0648 0114     		.2byte	0x1401
 2820 064a 11       		.uleb128 0x11
 2821 064b E60F0000 		.4byte	.LASF173
 2822 064f 0014     		.2byte	0x1400
 2823 0651 11       		.uleb128 0x11
 2824 0652 AC060000 		.4byte	.LASF174
 2825 0656 0218     		.2byte	0x1802
 2826 0658 11       		.uleb128 0x11
 2827 0659 A2020000 		.4byte	.LASF175
 2828 065d 0518     		.2byte	0x1805
 2829 065f 11       		.uleb128 0x11
 2830 0660 79000000 		.4byte	.LASF176
 2831 0664 0618     		.2byte	0x1806
 2832 0666 11       		.uleb128 0x11
 2833 0667 E30B0000 		.4byte	.LASF177
 2834 066b 0517     		.2byte	0x1705
 2835 066d 11       		.uleb128 0x11
 2836 066e 160C0000 		.4byte	.LASF178
 2837 0672 0118     		.2byte	0x1801
 2838 0674 11       		.uleb128 0x11
 2839 0675 71030000 		.4byte	.LASF179
 2840 0679 0018     		.2byte	0x1800
 2841 067b 11       		.uleb128 0x11
 2842 067c C3040000 		.4byte	.LASF180
 2843 0680 0317     		.2byte	0x1703
 2844 0682 11       		.uleb128 0x11
 2845 0683 5D150000 		.4byte	.LASF181
 2846 0687 0017     		.2byte	0x1700
 2847 0689 11       		.uleb128 0x11
 2848 068a 79020000 		.4byte	.LASF182
ARM GAS  C:\Users\r\AppData\Local\Temp\cc0NugVx.s 			page 65


 2849 068e 0217     		.2byte	0x1702
 2850 0690 11       		.uleb128 0x11
 2851 0691 F1020000 		.4byte	.LASF183
 2852 0695 0117     		.2byte	0x1701
 2853 0697 11       		.uleb128 0x11
 2854 0698 150A0000 		.4byte	.LASF184
 2855 069c 0617     		.2byte	0x1706
 2856 069e 11       		.uleb128 0x11
 2857 069f 53070000 		.4byte	.LASF185
 2858 06a3 0717     		.2byte	0x1707
 2859 06a5 11       		.uleb128 0x11
 2860 06a6 7F110000 		.4byte	.LASF186
 2861 06aa 0817     		.2byte	0x1708
 2862 06ac 11       		.uleb128 0x11
 2863 06ad 6A170000 		.4byte	.LASF187
 2864 06b1 001E     		.2byte	0x1e00
 2865 06b3 11       		.uleb128 0x11
 2866 06b4 A70B0000 		.4byte	.LASF188
 2867 06b8 0037     		.2byte	0x3700
 2868 06ba 11       		.uleb128 0x11
 2869 06bb 00000000 		.4byte	.LASF189
 2870 06bf 005C     		.2byte	0x5c00
 2871 06c1 11       		.uleb128 0x11
 2872 06c2 44040000 		.4byte	.LASF190
 2873 06c6 0039     		.2byte	0x3900
 2874 06c8 11       		.uleb128 0x11
 2875 06c9 890E0000 		.4byte	.LASF191
 2876 06cd 0229     		.2byte	0x2902
 2877 06cf 11       		.uleb128 0x11
 2878 06d0 B80D0000 		.4byte	.LASF192
 2879 06d4 0047     		.2byte	0x4700
 2880 06d6 11       		.uleb128 0x11
 2881 06d7 CD020000 		.4byte	.LASF193
 2882 06db 0045     		.2byte	0x4500
 2883 06dd 11       		.uleb128 0x11
 2884 06de CC180000 		.4byte	.LASF194
 2885 06e2 025C     		.2byte	0x5c02
 2886 06e4 11       		.uleb128 0x11
 2887 06e5 38150000 		.4byte	.LASF195
 2888 06e9 015C     		.2byte	0x5c01
 2889 06eb 11       		.uleb128 0x11
 2890 06ec 980D0000 		.4byte	.LASF196
 2891 06f0 001B     		.2byte	0x1b00
 2892 06f2 11       		.uleb128 0x11
 2893 06f3 11090000 		.4byte	.LASF197
 2894 06f7 003F     		.2byte	0x3f00
 2895 06f9 11       		.uleb128 0x11
 2896 06fa 2C040000 		.4byte	.LASF198
 2897 06fe 015B     		.2byte	0x5b01
 2898 0700 11       		.uleb128 0x11
 2899 0701 48180000 		.4byte	.LASF199
 2900 0705 0326     		.2byte	0x2603
 2901 0707 11       		.uleb128 0x11
 2902 0708 B1090000 		.4byte	.LASF200
 2903 070c 0009     		.2byte	0x900
 2904 070e 11       		.uleb128 0x11
 2905 070f 150F0000 		.4byte	.LASF201
ARM GAS  C:\Users\r\AppData\Local\Temp\cc0NugVx.s 			page 66


 2906 0713 0011     		.2byte	0x1100
 2907 0715 11       		.uleb128 0x11
 2908 0716 E6180000 		.4byte	.LASF202
 2909 071a 0411     		.2byte	0x1104
 2910 071c 11       		.uleb128 0x11
 2911 071d 5D080000 		.4byte	.LASF203
 2912 0721 0B11     		.2byte	0x110b
 2913 0723 11       		.uleb128 0x11
 2914 0724 ED030000 		.4byte	.LASF204
 2915 0728 0C11     		.2byte	0x110c
 2916 072a 11       		.uleb128 0x11
 2917 072b 48130000 		.4byte	.LASF205
 2918 072f 0046     		.2byte	0x4600
 2919 0731 11       		.uleb128 0x11
 2920 0732 E5000000 		.4byte	.LASF206
 2921 0736 020C     		.2byte	0xc02
 2922 0738 11       		.uleb128 0x11
 2923 0739 E2130000 		.4byte	.LASF207
 2924 073d 010C     		.2byte	0xc01
 2925 073f 11       		.uleb128 0x11
 2926 0740 43140000 		.4byte	.LASF208
 2927 0744 0027     		.2byte	0x2700
 2928 0746 00       		.byte	0
 2929 0747 12       		.uleb128 0x12
 2930 0748 04       		.byte	0x4
 2931 0749 06       		.byte	0x6
 2932 074a AA       		.byte	0xaa
 2933 074b 68070000 		.4byte	0x768
 2934 074f 0D       		.uleb128 0xd
 2935 0750 67130000 		.4byte	.LASF209
 2936 0754 06       		.byte	0x6
 2937 0755 AC       		.byte	0xac
 2938 0756 C3000000 		.4byte	0xc3
 2939 075a 00       		.byte	0
 2940 075b 13       		.uleb128 0x13
 2941 075c 61736300 		.ascii	"asc\000"
 2942 0760 06       		.byte	0x6
 2943 0761 AD       		.byte	0xad
 2944 0762 CF000000 		.4byte	0xcf
 2945 0766 02       		.byte	0x2
 2946 0767 00       		.byte	0
 2947 0768 03       		.uleb128 0x3
 2948 0769 9E010000 		.4byte	.LASF210
 2949 076d 06       		.byte	0x6
 2950 076e AE       		.byte	0xae
 2951 076f 47070000 		.4byte	0x747
 2952 0773 0A       		.uleb128 0xa
 2953 0774 01       		.byte	0x1
 2954 0775 25000000 		.4byte	0x25
 2955 0779 07       		.byte	0x7
 2956 077a 18       		.byte	0x18
 2957 077b D4070000 		.4byte	0x7d4
 2958 077f 0B       		.uleb128 0xb
 2959 0780 CD010000 		.4byte	.LASF211
 2960 0784 01       		.byte	0x1
 2961 0785 0B       		.uleb128 0xb
 2962 0786 16130000 		.4byte	.LASF212
ARM GAS  C:\Users\r\AppData\Local\Temp\cc0NugVx.s 			page 67


 2963 078a 02       		.byte	0x2
 2964 078b 0B       		.uleb128 0xb
 2965 078c E9150000 		.4byte	.LASF213
 2966 0790 04       		.byte	0x4
 2967 0791 14       		.uleb128 0x14
 2968 0792 0D020000 		.4byte	.LASF214
 2969 0796 7F       		.sleb128 -1
 2970 0797 14       		.uleb128 0x14
 2971 0798 9E030000 		.4byte	.LASF215
 2972 079c 7E       		.sleb128 -2
 2973 079d 14       		.uleb128 0x14
 2974 079e B1080000 		.4byte	.LASF216
 2975 07a2 7D       		.sleb128 -3
 2976 07a3 14       		.uleb128 0x14
 2977 07a4 370F0000 		.4byte	.LASF217
 2978 07a8 7C       		.sleb128 -4
 2979 07a9 14       		.uleb128 0x14
 2980 07aa 2C050000 		.4byte	.LASF218
 2981 07ae 7B       		.sleb128 -5
 2982 07af 0B       		.uleb128 0xb
 2983 07b0 60130000 		.4byte	.LASF219
 2984 07b4 06       		.byte	0x6
 2985 07b5 0B       		.uleb128 0xb
 2986 07b6 53140000 		.4byte	.LASF220
 2987 07ba 02       		.byte	0x2
 2988 07bb 0B       		.uleb128 0xb
 2989 07bc 02110000 		.4byte	.LASF221
 2990 07c0 04       		.byte	0x4
 2991 07c1 0B       		.uleb128 0xb
 2992 07c2 A7150000 		.4byte	.LASF222
 2993 07c6 00       		.byte	0
 2994 07c7 0B       		.uleb128 0xb
 2995 07c8 56030000 		.4byte	.LASF223
 2996 07cc 07       		.byte	0x7
 2997 07cd 0B       		.uleb128 0xb
 2998 07ce 3F0E0000 		.4byte	.LASF224
 2999 07d2 03       		.byte	0x3
 3000 07d3 00       		.byte	0
 3001 07d4 0A       		.uleb128 0xa
 3002 07d5 01       		.byte	0x1
 3003 07d6 37000000 		.4byte	0x37
 3004 07da 07       		.byte	0x7
 3005 07db 2C       		.byte	0x2c
 3006 07dc FF070000 		.4byte	0x7ff
 3007 07e0 0B       		.uleb128 0xb
 3008 07e1 E60A0000 		.4byte	.LASF225
 3009 07e5 00       		.byte	0
 3010 07e6 0B       		.uleb128 0xb
 3011 07e7 A4170000 		.4byte	.LASF226
 3012 07eb 02       		.byte	0x2
 3013 07ec 0B       		.uleb128 0xb
 3014 07ed F5060000 		.4byte	.LASF227
 3015 07f1 08       		.byte	0x8
 3016 07f2 0B       		.uleb128 0xb
 3017 07f3 61100000 		.4byte	.LASF228
 3018 07f7 10       		.byte	0x10
 3019 07f8 0B       		.uleb128 0xb
ARM GAS  C:\Users\r\AppData\Local\Temp\cc0NugVx.s 			page 68


 3020 07f9 DB120000 		.4byte	.LASF229
 3021 07fd 18       		.byte	0x18
 3022 07fe 00       		.byte	0
 3023 07ff 0A       		.uleb128 0xa
 3024 0800 01       		.byte	0x1
 3025 0801 37000000 		.4byte	0x37
 3026 0805 07       		.byte	0x7
 3027 0806 3D       		.byte	0x3d
 3028 0807 24080000 		.4byte	0x824
 3029 080b 0B       		.uleb128 0xb
 3030 080c 38050000 		.4byte	.LASF230
 3031 0810 00       		.byte	0
 3032 0811 0B       		.uleb128 0xb
 3033 0812 E3010000 		.4byte	.LASF231
 3034 0816 01       		.byte	0x1
 3035 0817 0B       		.uleb128 0xb
 3036 0818 40030000 		.4byte	.LASF232
 3037 081c 02       		.byte	0x2
 3038 081d 0B       		.uleb128 0xb
 3039 081e 6E100000 		.4byte	.LASF233
 3040 0822 03       		.byte	0x3
 3041 0823 00       		.byte	0
 3042 0824 12       		.uleb128 0x12
 3043 0825 02       		.byte	0x2
 3044 0826 07       		.byte	0x7
 3045 0827 4E       		.byte	0x4e
 3046 0828 39080000 		.4byte	0x839
 3047 082c 0D       		.uleb128 0xd
 3048 082d 70110000 		.4byte	.LASF50
 3049 0831 07       		.byte	0x7
 3050 0832 50       		.byte	0x50
 3051 0833 A2000000 		.4byte	0xa2
 3052 0837 00       		.byte	0
 3053 0838 00       		.byte	0
 3054 0839 03       		.uleb128 0x3
 3055 083a AD030000 		.4byte	.LASF234
 3056 083e 07       		.byte	0x7
 3057 083f 51       		.byte	0x51
 3058 0840 24080000 		.4byte	0x824
 3059 0844 12       		.uleb128 0x12
 3060 0845 18       		.byte	0x18
 3061 0846 07       		.byte	0x7
 3062 0847 53       		.byte	0x53
 3063 0848 A1080000 		.4byte	0x8a1
 3064 084c 0D       		.uleb128 0xd
 3065 084d 6D040000 		.4byte	.LASF235
 3066 0851 07       		.byte	0x7
 3067 0852 55       		.byte	0x55
 3068 0853 97000000 		.4byte	0x97
 3069 0857 00       		.byte	0
 3070 0858 13       		.uleb128 0x13
 3071 0859 63666700 		.ascii	"cfg\000"
 3072 085d 07       		.byte	0x7
 3073 085e 57       		.byte	0x57
 3074 085f A1080000 		.4byte	0x8a1
 3075 0863 04       		.byte	0x4
 3076 0864 0D       		.uleb128 0xd
ARM GAS  C:\Users\r\AppData\Local\Temp\cc0NugVx.s 			page 69


 3077 0865 8B080000 		.4byte	.LASF236
 3078 0869 07       		.byte	0x7
 3079 086a 59       		.byte	0x59
 3080 086b 39080000 		.4byte	0x839
 3081 086f 08       		.byte	0x8
 3082 0870 0D       		.uleb128 0xd
 3083 0871 21020000 		.4byte	.LASF237
 3084 0875 07       		.byte	0x7
 3085 0876 5B       		.byte	0x5b
 3086 0877 68070000 		.4byte	0x768
 3087 087b 0A       		.byte	0xa
 3088 087c 0D       		.uleb128 0xd
 3089 087d 6B180000 		.4byte	.LASF238
 3090 0881 07       		.byte	0x7
 3091 0882 5D       		.byte	0x5d
 3092 0883 CF000000 		.4byte	0xcf
 3093 0887 0E       		.byte	0xe
 3094 0888 0D       		.uleb128 0xd
 3095 0889 04080000 		.4byte	.LASF239
 3096 088d 07       		.byte	0x7
 3097 088e 61       		.byte	0x61
 3098 088f 89000000 		.4byte	0x89
 3099 0893 10       		.byte	0x10
 3100 0894 0D       		.uleb128 0xd
 3101 0895 76040000 		.4byte	.LASF240
 3102 0899 07       		.byte	0x7
 3103 089a 62       		.byte	0x62
 3104 089b 89000000 		.4byte	0x89
 3105 089f 14       		.byte	0x14
 3106 08a0 00       		.byte	0
 3107 08a1 06       		.uleb128 0x6
 3108 08a2 04       		.byte	0x4
 3109 08a3 A7080000 		.4byte	0x8a7
 3110 08a7 15       		.uleb128 0x15
 3111 08a8 E7020000 		.4byte	0x2e7
 3112 08ac 03       		.uleb128 0x3
 3113 08ad 42120000 		.4byte	.LASF241
 3114 08b1 07       		.byte	0x7
 3115 08b2 63       		.byte	0x63
 3116 08b3 44080000 		.4byte	0x844
 3117 08b7 0C       		.uleb128 0xc
 3118 08b8 B041     		.2byte	0x41b0
 3119 08ba 07       		.byte	0x7
 3120 08bb 65       		.byte	0x65
 3121 08bc 510A0000 		.4byte	0xa51
 3122 08c0 0D       		.uleb128 0xd
 3123 08c1 E5030000 		.4byte	.LASF242
 3124 08c5 07       		.byte	0x7
 3125 08c6 67       		.byte	0x67
 3126 08c7 510A0000 		.4byte	0xa51
 3127 08cb 00       		.byte	0
 3128 08cc 0D       		.uleb128 0xd
 3129 08cd CE090000 		.4byte	.LASF243
 3130 08d1 07       		.byte	0x7
 3131 08d2 68       		.byte	0x68
 3132 08d3 610A0000 		.4byte	0xa61
 3133 08d7 60       		.byte	0x60
ARM GAS  C:\Users\r\AppData\Local\Temp\cc0NugVx.s 			page 70


 3134 08d8 0D       		.uleb128 0xd
 3135 08d9 0A160000 		.4byte	.LASF244
 3136 08dd 07       		.byte	0x7
 3137 08de 69       		.byte	0x69
 3138 08df 60030000 		.4byte	0x360
 3139 08e3 64       		.byte	0x64
 3140 08e4 0E       		.uleb128 0xe
 3141 08e5 38170000 		.4byte	.LASF245
 3142 08e9 07       		.byte	0x7
 3143 08ea 6E       		.byte	0x6e
 3144 08eb 89000000 		.4byte	0x89
 3145 08ef 6401     		.2byte	0x164
 3146 08f1 0E       		.uleb128 0xe
 3147 08f2 57100000 		.4byte	.LASF246
 3148 08f6 07       		.byte	0x7
 3149 08f7 71       		.byte	0x71
 3150 08f8 670A0000 		.4byte	0xa67
 3151 08fc 6801     		.2byte	0x168
 3152 08fe 0E       		.uleb128 0xe
 3153 08ff 30170000 		.4byte	.LASF247
 3154 0903 07       		.byte	0x7
 3155 0904 74       		.byte	0x74
 3156 0905 670A0000 		.4byte	0xa67
 3157 0909 6C01     		.2byte	0x16c
 3158 090b 0E       		.uleb128 0xe
 3159 090c 47050000 		.4byte	.LASF248
 3160 0910 07       		.byte	0x7
 3161 0911 77       		.byte	0x77
 3162 0912 89000000 		.4byte	0x89
 3163 0916 7001     		.2byte	0x170
 3164 0918 0E       		.uleb128 0xe
 3165 0919 63170000 		.4byte	.LASF249
 3166 091d 07       		.byte	0x7
 3167 091e 79       		.byte	0x79
 3168 091f 670A0000 		.4byte	0xa67
 3169 0923 7401     		.2byte	0x174
 3170 0925 0E       		.uleb128 0xe
 3171 0926 61030000 		.4byte	.LASF250
 3172 092a 07       		.byte	0x7
 3173 092b 7B       		.byte	0x7b
 3174 092c 89000000 		.4byte	0x89
 3175 0930 7801     		.2byte	0x178
 3176 0932 0E       		.uleb128 0xe
 3177 0933 79180000 		.4byte	.LASF251
 3178 0937 07       		.byte	0x7
 3179 0938 7D       		.byte	0x7d
 3180 0939 6C0A0000 		.4byte	0xa6c
 3181 093d 7C01     		.2byte	0x17c
 3182 093f 0E       		.uleb128 0xe
 3183 0940 AB0A0000 		.4byte	.LASF252
 3184 0944 07       		.byte	0x7
 3185 0945 7E       		.byte	0x7e
 3186 0946 89000000 		.4byte	0x89
 3187 094a 7C41     		.2byte	0x417c
 3188 094c 0E       		.uleb128 0xe
 3189 094d BF180000 		.4byte	.LASF253
 3190 0951 07       		.byte	0x7
ARM GAS  C:\Users\r\AppData\Local\Temp\cc0NugVx.s 			page 71


 3191 0952 7F       		.byte	0x7f
 3192 0953 89000000 		.4byte	0x89
 3193 0957 8041     		.2byte	0x4180
 3194 0959 0E       		.uleb128 0xe
 3195 095a D2160000 		.4byte	.LASF254
 3196 095e 07       		.byte	0x7
 3197 095f 80       		.byte	0x80
 3198 0960 89000000 		.4byte	0x89
 3199 0964 8441     		.2byte	0x4184
 3200 0966 0F       		.uleb128 0xf
 3201 0967 63646200 		.ascii	"cdb\000"
 3202 096b 07       		.byte	0x7
 3203 096c 82       		.byte	0x82
 3204 096d 7D0A0000 		.4byte	0xa7d
 3205 0971 8841     		.2byte	0x4188
 3206 0973 0E       		.uleb128 0xe
 3207 0974 10070000 		.4byte	.LASF255
 3208 0978 07       		.byte	0x7
 3209 0979 83       		.byte	0x83
 3210 097a C3000000 		.4byte	0xc3
 3211 097e 9441     		.2byte	0x4194
 3212 0980 0F       		.uleb128 0xf
 3213 0981 6C756E00 		.ascii	"lun\000"
 3214 0985 07       		.byte	0x7
 3215 0986 84       		.byte	0x84
 3216 0987 E7000000 		.4byte	0xe7
 3217 098b 9541     		.2byte	0x4195
 3218 098d 0E       		.uleb128 0xe
 3219 098e 10100000 		.4byte	.LASF256
 3220 0992 07       		.byte	0x7
 3221 0993 85       		.byte	0x85
 3222 0994 C3000000 		.4byte	0xc3
 3223 0998 9641     		.2byte	0x4196
 3224 099a 0E       		.uleb128 0xe
 3225 099b 800D0000 		.4byte	.LASF257
 3226 099f 07       		.byte	0x7
 3227 09a0 86       		.byte	0x86
 3228 09a1 97000000 		.4byte	0x97
 3229 09a5 9741     		.2byte	0x4197
 3230 09a7 0E       		.uleb128 0xe
 3231 09a8 3A090000 		.4byte	.LASF258
 3232 09ac 07       		.byte	0x7
 3233 09ad 8A       		.byte	0x8a
 3234 09ae 89000000 		.4byte	0x89
 3235 09b2 9841     		.2byte	0x4198
 3236 09b4 0E       		.uleb128 0xe
 3237 09b5 C7090000 		.4byte	.LASF259
 3238 09b9 07       		.byte	0x7
 3239 09ba 8E       		.byte	0x8e
 3240 09bb C3000000 		.4byte	0xc3
 3241 09bf 9C41     		.2byte	0x419c
 3242 09c1 0E       		.uleb128 0xe
 3243 09c2 A7030000 		.4byte	.LASF260
 3244 09c6 07       		.byte	0x7
 3245 09c7 90       		.byte	0x90
 3246 09c8 C3000000 		.4byte	0xc3
 3247 09cc 9D41     		.2byte	0x419d
ARM GAS  C:\Users\r\AppData\Local\Temp\cc0NugVx.s 			page 72


 3248 09ce 0E       		.uleb128 0xe
 3249 09cf C1140000 		.4byte	.LASF261
 3250 09d3 07       		.byte	0x7
 3251 09d4 91       		.byte	0x91
 3252 09d5 C3000000 		.4byte	0xc3
 3253 09d9 9E41     		.2byte	0x419e
 3254 09db 0E       		.uleb128 0xe
 3255 09dc 00100000 		.4byte	.LASF262
 3256 09e0 07       		.byte	0x7
 3257 09e1 93       		.byte	0x93
 3258 09e2 08010000 		.4byte	0x108
 3259 09e6 A041     		.2byte	0x41a0
 3260 09e8 0E       		.uleb128 0xe
 3261 09e9 770A0000 		.4byte	.LASF263
 3262 09ed 07       		.byte	0x7
 3263 09ee 95       		.byte	0x95
 3264 09ef C3000000 		.4byte	0xc3
 3265 09f3 A441     		.2byte	0x41a4
 3266 09f5 0E       		.uleb128 0xe
 3267 09f6 800A0000 		.4byte	.LASF264
 3268 09fa 07       		.byte	0x7
 3269 09fb 96       		.byte	0x96
 3270 09fc C3000000 		.4byte	0xc3
 3271 0a00 A541     		.2byte	0x41a5
 3272 0a02 0E       		.uleb128 0xe
 3273 0a03 46090000 		.4byte	.LASF265
 3274 0a07 07       		.byte	0x7
 3275 0a08 97       		.byte	0x97
 3276 0a09 C3000000 		.4byte	0xc3
 3277 0a0d A641     		.2byte	0x41a6
 3278 0a0f 0E       		.uleb128 0xe
 3279 0a10 27170000 		.4byte	.LASF266
 3280 0a14 07       		.byte	0x7
 3281 0a15 98       		.byte	0x98
 3282 0a16 C3000000 		.4byte	0xc3
 3283 0a1a A741     		.2byte	0x41a7
 3284 0a1c 0E       		.uleb128 0xe
 3285 0a1d 080F0000 		.4byte	.LASF267
 3286 0a21 07       		.byte	0x7
 3287 0a22 99       		.byte	0x99
 3288 0a23 C3000000 		.4byte	0xc3
 3289 0a27 A841     		.2byte	0x41a8
 3290 0a29 0E       		.uleb128 0xe
 3291 0a2a 2C0F0000 		.4byte	.LASF268
 3292 0a2e 07       		.byte	0x7
 3293 0a2f 9A       		.byte	0x9a
 3294 0a30 C3000000 		.4byte	0xc3
 3295 0a34 A941     		.2byte	0x41a9
 3296 0a36 0E       		.uleb128 0xe
 3297 0a37 93080000 		.4byte	.LASF269
 3298 0a3b 07       		.byte	0x7
 3299 0a3c 9B       		.byte	0x9b
 3300 0a3d C3000000 		.4byte	0xc3
 3301 0a41 AA41     		.2byte	0x41aa
 3302 0a43 0E       		.uleb128 0xe
 3303 0a44 93100000 		.4byte	.LASF270
 3304 0a48 07       		.byte	0x7
ARM GAS  C:\Users\r\AppData\Local\Temp\cc0NugVx.s 			page 73


 3305 0a49 9C       		.byte	0x9c
 3306 0a4a A2000000 		.4byte	0xa2
 3307 0a4e AC41     		.2byte	0x41ac
 3308 0a50 00       		.byte	0
 3309 0a51 08       		.uleb128 0x8
 3310 0a52 AC080000 		.4byte	0x8ac
 3311 0a56 610A0000 		.4byte	0xa61
 3312 0a5a 09       		.uleb128 0x9
 3313 0a5b 16010000 		.4byte	0x116
 3314 0a5f 03       		.byte	0x3
 3315 0a60 00       		.byte	0
 3316 0a61 06       		.uleb128 0x6
 3317 0a62 04       		.byte	0x4
 3318 0a63 AC080000 		.4byte	0x8ac
 3319 0a67 16       		.uleb128 0x16
 3320 0a68 89000000 		.4byte	0x89
 3321 0a6c 08       		.uleb128 0x8
 3322 0a6d C3000000 		.4byte	0xc3
 3323 0a71 7D0A0000 		.4byte	0xa7d
 3324 0a75 10       		.uleb128 0x10
 3325 0a76 16010000 		.4byte	0x116
 3326 0a7a FF3F     		.2byte	0x3fff
 3327 0a7c 00       		.byte	0
 3328 0a7d 08       		.uleb128 0x8
 3329 0a7e C3000000 		.4byte	0xc3
 3330 0a82 8D0A0000 		.4byte	0xa8d
 3331 0a86 09       		.uleb128 0x9
 3332 0a87 16010000 		.4byte	0x116
 3333 0a8b 0B       		.byte	0xb
 3334 0a8c 00       		.byte	0
 3335 0a8d 03       		.uleb128 0x3
 3336 0a8e B1160000 		.4byte	.LASF271
 3337 0a92 07       		.byte	0x7
 3338 0a93 9D       		.byte	0x9d
 3339 0a94 B7080000 		.4byte	0x8b7
 3340 0a98 0A       		.uleb128 0xa
 3341 0a99 01       		.byte	0x1
 3342 0a9a 37000000 		.4byte	0x37
 3343 0a9e 08       		.byte	0x8
 3344 0a9f 15       		.byte	0x15
 3345 0aa0 BD0A0000 		.4byte	0xabd
 3346 0aa4 0B       		.uleb128 0xb
 3347 0aa5 590C0000 		.4byte	.LASF272
 3348 0aa9 01       		.byte	0x1
 3349 0aaa 0B       		.uleb128 0xb
 3350 0aab C5170000 		.4byte	.LASF273
 3351 0aaf 02       		.byte	0x2
 3352 0ab0 0B       		.uleb128 0xb
 3353 0ab1 CB0F0000 		.4byte	.LASF274
 3354 0ab5 04       		.byte	0x4
 3355 0ab6 0B       		.uleb128 0xb
 3356 0ab7 E80D0000 		.4byte	.LASF275
 3357 0abb 08       		.byte	0x8
 3358 0abc 00       		.byte	0
 3359 0abd 12       		.uleb128 0x12
 3360 0abe 04       		.byte	0x4
 3361 0abf 08       		.byte	0x8
ARM GAS  C:\Users\r\AppData\Local\Temp\cc0NugVx.s 			page 74


 3362 0ac0 22       		.byte	0x22
 3363 0ac1 D20A0000 		.4byte	0xad2
 3364 0ac5 0D       		.uleb128 0xd
 3365 0ac6 DD010000 		.4byte	.LASF276
 3366 0aca 08       		.byte	0x8
 3367 0acb 24       		.byte	0x24
 3368 0acc 89000000 		.4byte	0x89
 3369 0ad0 00       		.byte	0
 3370 0ad1 00       		.byte	0
 3371 0ad2 03       		.uleb128 0x3
 3372 0ad3 B2130000 		.4byte	.LASF277
 3373 0ad7 08       		.byte	0x8
 3374 0ad8 25       		.byte	0x25
 3375 0ad9 BD0A0000 		.4byte	0xabd
 3376 0add 17       		.uleb128 0x17
 3377 0ade 41130000 		.4byte	.LASF286
 3378 0ae2 01       		.byte	0x1
 3379 0ae3 EA       		.byte	0xea
 3380 0ae4 00000000 		.4byte	.LFB64
 3381 0ae8 50000000 		.4byte	.LFE64-.LFB64
 3382 0aec 01       		.uleb128 0x1
 3383 0aed 9C       		.byte	0x9c
 3384 0aee 2A0B0000 		.4byte	0xb2a
 3385 0af2 18       		.uleb128 0x18
 3386 0af3 706300   		.ascii	"pc\000"
 3387 0af6 01       		.byte	0x1
 3388 0af7 EA       		.byte	0xea
 3389 0af8 89000000 		.4byte	0x89
 3390 0afc 02       		.uleb128 0x2
 3391 0afd 91       		.byte	0x91
 3392 0afe 74       		.sleb128 -12
 3393 0aff 19       		.uleb128 0x19
 3394 0b00 2A0D0000 		.4byte	.LASF278
 3395 0b04 01       		.byte	0x1
 3396 0b05 EA       		.byte	0xea
 3397 0b06 89000000 		.4byte	0x89
 3398 0b0a 02       		.uleb128 0x2
 3399 0b0b 91       		.byte	0x91
 3400 0b0c 70       		.sleb128 -16
 3401 0b0d 19       		.uleb128 0x19
 3402 0b0e 3A140000 		.4byte	.LASF279
 3403 0b12 01       		.byte	0x1
 3404 0b13 EA       		.byte	0xea
 3405 0b14 2A0B0000 		.4byte	0xb2a
 3406 0b18 02       		.uleb128 0x2
 3407 0b19 91       		.byte	0x91
 3408 0b1a 6C       		.sleb128 -20
 3409 0b1b 19       		.uleb128 0x19
 3410 0b1c 78140000 		.4byte	.LASF280
 3411 0b20 01       		.byte	0x1
 3412 0b21 EA       		.byte	0xea
 3413 0b22 89000000 		.4byte	0x89
 3414 0b26 02       		.uleb128 0x2
 3415 0b27 91       		.byte	0x91
 3416 0b28 68       		.sleb128 -24
 3417 0b29 00       		.byte	0
 3418 0b2a 06       		.uleb128 0x6
ARM GAS  C:\Users\r\AppData\Local\Temp\cc0NugVx.s 			page 75


 3419 0b2b 04       		.byte	0x4
 3420 0b2c 300B0000 		.4byte	0xb30
 3421 0b30 15       		.uleb128 0x15
 3422 0b31 C3000000 		.4byte	0xc3
 3423 0b35 1A       		.uleb128 0x1a
 3424 0b36 4E150000 		.4byte	.LASF319
 3425 0b3a 01       		.byte	0x1
 3426 0b3b F4       		.byte	0xf4
 3427 0b3c 89000000 		.4byte	0x89
 3428 0b40 00000000 		.4byte	.LFB65
 3429 0b44 A4000000 		.4byte	.LFE65-.LFB65
 3430 0b48 01       		.uleb128 0x1
 3431 0b49 9C       		.byte	0x9c
 3432 0b4a C40B0000 		.4byte	0xbc4
 3433 0b4e 18       		.uleb128 0x18
 3434 0b4f 63666700 		.ascii	"cfg\000"
 3435 0b53 01       		.byte	0x1
 3436 0b54 F4       		.byte	0xf4
 3437 0b55 A1080000 		.4byte	0x8a1
 3438 0b59 02       		.uleb128 0x2
 3439 0b5a 91       		.byte	0x91
 3440 0b5b 64       		.sleb128 -28
 3441 0b5c 18       		.uleb128 0x18
 3442 0b5d 706300   		.ascii	"pc\000"
 3443 0b60 01       		.byte	0x1
 3444 0b61 F4       		.byte	0xf4
 3445 0b62 89000000 		.4byte	0x89
 3446 0b66 02       		.uleb128 0x2
 3447 0b67 91       		.byte	0x91
 3448 0b68 60       		.sleb128 -32
 3449 0b69 19       		.uleb128 0x19
 3450 0b6a DC0E0000 		.4byte	.LASF281
 3451 0b6e 01       		.byte	0x1
 3452 0b6f F4       		.byte	0xf4
 3453 0b70 89000000 		.4byte	0x89
 3454 0b74 02       		.uleb128 0x2
 3455 0b75 91       		.byte	0x91
 3456 0b76 5C       		.sleb128 -36
 3457 0b77 18       		.uleb128 0x18
 3458 0b78 69647800 		.ascii	"idx\000"
 3459 0b7c 01       		.byte	0x1
 3460 0b7d F4       		.byte	0xf4
 3461 0b7e C40B0000 		.4byte	0xbc4
 3462 0b82 02       		.uleb128 0x2
 3463 0b83 91       		.byte	0x91
 3464 0b84 58       		.sleb128 -40
 3465 0b85 1B       		.uleb128 0x1b
 3466 0b86 07020000 		.4byte	.LASF282
 3467 0b8a 01       		.byte	0x1
 3468 0b8b F6       		.byte	0xf6
 3469 0b8c 89000000 		.4byte	0x89
 3470 0b90 02       		.uleb128 0x2
 3471 0b91 91       		.byte	0x91
 3472 0b92 74       		.sleb128 -12
 3473 0b93 1B       		.uleb128 0x1b
 3474 0b94 07170000 		.4byte	.LASF283
 3475 0b98 01       		.byte	0x1
ARM GAS  C:\Users\r\AppData\Local\Temp\cc0NugVx.s 			page 76


 3476 0b99 F7       		.byte	0xf7
 3477 0b9a 89000000 		.4byte	0x89
 3478 0b9e 02       		.uleb128 0x2
 3479 0b9f 91       		.byte	0x91
 3480 0ba0 70       		.sleb128 -16
 3481 0ba1 1C       		.uleb128 0x1c
 3482 0ba2 00000000 		.4byte	.Ldebug_ranges0+0
 3483 0ba6 1B       		.uleb128 0x1b
 3484 0ba7 64040000 		.4byte	.LASF284
 3485 0bab 01       		.byte	0x1
 3486 0bac FC       		.byte	0xfc
 3487 0bad 89000000 		.4byte	0x89
 3488 0bb1 02       		.uleb128 0x2
 3489 0bb2 91       		.byte	0x91
 3490 0bb3 6C       		.sleb128 -20
 3491 0bb4 1B       		.uleb128 0x1b
 3492 0bb5 C5160000 		.4byte	.LASF285
 3493 0bb9 01       		.byte	0x1
 3494 0bba FD       		.byte	0xfd
 3495 0bbb 89000000 		.4byte	0x89
 3496 0bbf 02       		.uleb128 0x2
 3497 0bc0 91       		.byte	0x91
 3498 0bc1 68       		.sleb128 -24
 3499 0bc2 00       		.byte	0
 3500 0bc3 00       		.byte	0
 3501 0bc4 06       		.uleb128 0x6
 3502 0bc5 04       		.byte	0x4
 3503 0bc6 89000000 		.4byte	0x89
 3504 0bca 1D       		.uleb128 0x1d
 3505 0bcb 9B0B0000 		.4byte	.LASF287
 3506 0bcf 01       		.byte	0x1
 3507 0bd0 0F01     		.2byte	0x10f
 3508 0bd2 00000000 		.4byte	.LFB66
 3509 0bd6 04070000 		.4byte	.LFE66-.LFB66
 3510 0bda 01       		.uleb128 0x1
 3511 0bdb 9C       		.byte	0x9c
 3512 0bdc F80C0000 		.4byte	0xcf8
 3513 0be0 1E       		.uleb128 0x1e
 3514 0be1 0B180000 		.4byte	.LASF288
 3515 0be5 01       		.byte	0x1
 3516 0be6 1001     		.2byte	0x110
 3517 0be8 89000000 		.4byte	0x89
 3518 0bec 02       		.uleb128 0x2
 3519 0bed 91       		.byte	0x91
 3520 0bee 44       		.sleb128 -60
 3521 0bef 1F       		.uleb128 0x1f
 3522 0bf0 64626400 		.ascii	"dbd\000"
 3523 0bf4 01       		.byte	0x1
 3524 0bf5 1001     		.2byte	0x110
 3525 0bf7 89000000 		.4byte	0x89
 3526 0bfb 02       		.uleb128 0x2
 3527 0bfc 91       		.byte	0x91
 3528 0bfd 40       		.sleb128 -64
 3529 0bfe 1F       		.uleb128 0x1f
 3530 0bff 706300   		.ascii	"pc\000"
 3531 0c02 01       		.byte	0x1
 3532 0c03 1001     		.2byte	0x110
ARM GAS  C:\Users\r\AppData\Local\Temp\cc0NugVx.s 			page 77


 3533 0c05 89000000 		.4byte	0x89
 3534 0c09 03       		.uleb128 0x3
 3535 0c0a 91       		.byte	0x91
 3536 0c0b BC7F     		.sleb128 -68
 3537 0c0d 1E       		.uleb128 0x1e
 3538 0c0e DC0E0000 		.4byte	.LASF281
 3539 0c12 01       		.byte	0x1
 3540 0c13 1001     		.2byte	0x110
 3541 0c15 89000000 		.4byte	0x89
 3542 0c19 03       		.uleb128 0x3
 3543 0c1a 91       		.byte	0x91
 3544 0c1b B87F     		.sleb128 -72
 3545 0c1d 1E       		.uleb128 0x1e
 3546 0c1e FF170000 		.4byte	.LASF289
 3547 0c22 01       		.byte	0x1
 3548 0c23 1001     		.2byte	0x110
 3549 0c25 89000000 		.4byte	0x89
 3550 0c29 02       		.uleb128 0x2
 3551 0c2a 91       		.byte	0x91
 3552 0c2b 00       		.sleb128 0
 3553 0c2c 20       		.uleb128 0x20
 3554 0c2d 69647800 		.ascii	"idx\000"
 3555 0c31 01       		.byte	0x1
 3556 0c32 1601     		.2byte	0x116
 3557 0c34 89000000 		.4byte	0x89
 3558 0c38 02       		.uleb128 0x2
 3559 0c39 91       		.byte	0x91
 3560 0c3a 58       		.sleb128 -40
 3561 0c3b 21       		.uleb128 0x21
 3562 0c3c 16020000 		.4byte	.LASF290
 3563 0c40 01       		.byte	0x1
 3564 0c41 1901     		.2byte	0x119
 3565 0c43 97000000 		.4byte	0x97
 3566 0c47 02       		.uleb128 0x2
 3567 0c48 91       		.byte	0x91
 3568 0c49 6F       		.sleb128 -17
 3569 0c4a 21       		.uleb128 0x21
 3570 0c4b 9D080000 		.4byte	.LASF291
 3571 0c4f 01       		.byte	0x1
 3572 0c50 1A01     		.2byte	0x11a
 3573 0c52 97000000 		.4byte	0x97
 3574 0c56 02       		.uleb128 0x2
 3575 0c57 91       		.byte	0x91
 3576 0c58 6E       		.sleb128 -18
 3577 0c59 21       		.uleb128 0x21
 3578 0c5a 17070000 		.4byte	.LASF292
 3579 0c5e 01       		.byte	0x1
 3580 0c5f 1B01     		.2byte	0x11b
 3581 0c61 97000000 		.4byte	0x97
 3582 0c65 02       		.uleb128 0x2
 3583 0c66 91       		.byte	0x91
 3584 0c67 6D       		.sleb128 -19
 3585 0c68 21       		.uleb128 0x21
 3586 0c69 A0140000 		.4byte	.LASF293
 3587 0c6d 01       		.byte	0x1
 3588 0c6e 7901     		.2byte	0x179
 3589 0c70 89000000 		.4byte	0x89
ARM GAS  C:\Users\r\AppData\Local\Temp\cc0NugVx.s 			page 78


 3590 0c74 02       		.uleb128 0x2
 3591 0c75 91       		.byte	0x91
 3592 0c76 68       		.sleb128 -24
 3593 0c77 22       		.uleb128 0x22
 3594 0c78 C2010000 		.4byte	.LBB4
 3595 0c7c 9A000000 		.4byte	.LBE4-.LBB4
 3596 0c80 940C0000 		.4byte	0xc94
 3597 0c84 21       		.uleb128 0x21
 3598 0c85 70110000 		.4byte	.LASF50
 3599 0c89 01       		.byte	0x1
 3600 0c8a 7301     		.2byte	0x173
 3601 0c8c B8000000 		.4byte	0xb8
 3602 0c90 02       		.uleb128 0x2
 3603 0c91 91       		.byte	0x91
 3604 0c92 64       		.sleb128 -28
 3605 0c93 00       		.byte	0
 3606 0c94 22       		.uleb128 0x22
 3607 0c95 44030000 		.4byte	.LBB5
 3608 0c99 66000000 		.4byte	.LBE5-.LBB5
 3609 0c9d C00C0000 		.4byte	0xcc0
 3610 0ca1 21       		.uleb128 0x21
 3611 0ca2 690F0000 		.4byte	.LASF51
 3612 0ca6 01       		.byte	0x1
 3613 0ca7 A501     		.2byte	0x1a5
 3614 0ca9 A2000000 		.4byte	0xa2
 3615 0cad 02       		.uleb128 0x2
 3616 0cae 91       		.byte	0x91
 3617 0caf 62       		.sleb128 -30
 3618 0cb0 21       		.uleb128 0x21
 3619 0cb1 70110000 		.4byte	.LASF50
 3620 0cb5 01       		.byte	0x1
 3621 0cb6 AA01     		.2byte	0x1aa
 3622 0cb8 B8000000 		.4byte	0xb8
 3623 0cbc 02       		.uleb128 0x2
 3624 0cbd 91       		.byte	0x91
 3625 0cbe 5C       		.sleb128 -36
 3626 0cbf 00       		.byte	0
 3627 0cc0 23       		.uleb128 0x23
 3628 0cc1 0E040000 		.4byte	.LBB6
 3629 0cc5 E8000000 		.4byte	.LBE6-.LBB6
 3630 0cc9 20       		.uleb128 0x20
 3631 0cca 63796C00 		.ascii	"cyl\000"
 3632 0cce 01       		.byte	0x1
 3633 0ccf C701     		.2byte	0x1c7
 3634 0cd1 DB000000 		.4byte	0xdb
 3635 0cd5 02       		.uleb128 0x2
 3636 0cd6 91       		.byte	0x91
 3637 0cd7 54       		.sleb128 -44
 3638 0cd8 21       		.uleb128 0x21
 3639 0cd9 BE040000 		.4byte	.LASF294
 3640 0cdd 01       		.byte	0x1
 3641 0cde C801     		.2byte	0x1c8
 3642 0ce0 C3000000 		.4byte	0xc3
 3643 0ce4 02       		.uleb128 0x2
 3644 0ce5 91       		.byte	0x91
 3645 0ce6 53       		.sleb128 -45
 3646 0ce7 21       		.uleb128 0x21
ARM GAS  C:\Users\r\AppData\Local\Temp\cc0NugVx.s 			page 79


 3647 0ce8 180E0000 		.4byte	.LASF295
 3648 0cec 01       		.byte	0x1
 3649 0ced C901     		.2byte	0x1c9
 3650 0cef DB000000 		.4byte	0xdb
 3651 0cf3 02       		.uleb128 0x2
 3652 0cf4 91       		.byte	0x91
 3653 0cf5 4C       		.sleb128 -52
 3654 0cf6 00       		.byte	0
 3655 0cf7 00       		.byte	0
 3656 0cf8 1D       		.uleb128 0x1d
 3657 0cf9 46070000 		.4byte	.LASF296
 3658 0cfd 01       		.byte	0x1
 3659 0cfe 4702     		.2byte	0x247
 3660 0d00 00000000 		.4byte	.LFB67
 3661 0d04 C0010000 		.4byte	.LFE67-.LFB67
 3662 0d08 01       		.uleb128 0x1
 3663 0d09 9C       		.byte	0x9c
 3664 0d0a A10D0000 		.4byte	0xda1
 3665 0d0e 24       		.uleb128 0x24
 3666 0d0f 62616400 		.ascii	"bad\000"
 3667 0d13 01       		.byte	0x1
 3668 0d14 9C02     		.2byte	0x29c
 3669 0d16 8A010000 		.4byte	.L84
 3670 0d1a 24       		.uleb128 0x24
 3671 0d1b 6F757400 		.ascii	"out\000"
 3672 0d1f 01       		.byte	0x1
 3673 0d20 A102     		.2byte	0x2a1
 3674 0d22 AC010000 		.4byte	.L92
 3675 0d26 1C       		.uleb128 0x1c
 3676 0d27 18000000 		.4byte	.Ldebug_ranges0+0x18
 3677 0d2b 20       		.uleb128 0x20
 3678 0d2c 69647800 		.ascii	"idx\000"
 3679 0d30 01       		.byte	0x1
 3680 0d31 4D02     		.2byte	0x24d
 3681 0d33 89000000 		.4byte	0x89
 3682 0d37 02       		.uleb128 0x2
 3683 0d38 91       		.byte	0x91
 3684 0d39 74       		.sleb128 -12
 3685 0d3a 21       		.uleb128 0x21
 3686 0d3b F6050000 		.4byte	.LASF297
 3687 0d3f 01       		.byte	0x1
 3688 0d40 4E02     		.2byte	0x24e
 3689 0d42 89000000 		.4byte	0x89
 3690 0d46 02       		.uleb128 0x2
 3691 0d47 91       		.byte	0x91
 3692 0d48 70       		.sleb128 -16
 3693 0d49 22       		.uleb128 0x22
 3694 0d4a 4E000000 		.4byte	.LBB8
 3695 0d4e 6E000000 		.4byte	.LBE8-.LBB8
 3696 0d52 660D0000 		.4byte	0xd66
 3697 0d56 21       		.uleb128 0x21
 3698 0d57 70110000 		.4byte	.LASF50
 3699 0d5b 01       		.byte	0x1
 3700 0d5c 5F02     		.2byte	0x25f
 3701 0d5e B8000000 		.4byte	0xb8
 3702 0d62 02       		.uleb128 0x2
 3703 0d63 91       		.byte	0x91
ARM GAS  C:\Users\r\AppData\Local\Temp\cc0NugVx.s 			page 80


 3704 0d64 6C       		.sleb128 -20
 3705 0d65 00       		.byte	0
 3706 0d66 1C       		.uleb128 0x1c
 3707 0d67 30000000 		.4byte	.Ldebug_ranges0+0x30
 3708 0d6b 21       		.uleb128 0x21
 3709 0d6c 78140000 		.4byte	.LASF280
 3710 0d70 01       		.byte	0x1
 3711 0d71 7502     		.2byte	0x275
 3712 0d73 89000000 		.4byte	0x89
 3713 0d77 02       		.uleb128 0x2
 3714 0d78 91       		.byte	0x91
 3715 0d79 68       		.sleb128 -24
 3716 0d7a 21       		.uleb128 0x21
 3717 0d7b DC0E0000 		.4byte	.LASF281
 3718 0d7f 01       		.byte	0x1
 3719 0d80 7802     		.2byte	0x278
 3720 0d82 89000000 		.4byte	0x89
 3721 0d86 02       		.uleb128 0x2
 3722 0d87 91       		.byte	0x91
 3723 0d88 64       		.sleb128 -28
 3724 0d89 1C       		.uleb128 0x1c
 3725 0d8a 48000000 		.4byte	.Ldebug_ranges0+0x48
 3726 0d8e 21       		.uleb128 0x21
 3727 0d8f 70110000 		.4byte	.LASF50
 3728 0d93 01       		.byte	0x1
 3729 0d94 8002     		.2byte	0x280
 3730 0d96 A2000000 		.4byte	0xa2
 3731 0d9a 02       		.uleb128 0x2
 3732 0d9b 91       		.byte	0x91
 3733 0d9c 62       		.sleb128 -30
 3734 0d9d 00       		.byte	0
 3735 0d9e 00       		.byte	0
 3736 0d9f 00       		.byte	0
 3737 0da0 00       		.byte	0
 3738 0da1 25       		.uleb128 0x25
 3739 0da2 0A010000 		.4byte	.LASF320
 3740 0da6 01       		.byte	0x1
 3741 0da7 A502     		.2byte	0x2a5
 3742 0da9 89000000 		.4byte	0x89
 3743 0dad 00000000 		.4byte	.LFB68
 3744 0db1 84010000 		.4byte	.LFE68-.LFB68
 3745 0db5 01       		.uleb128 0x1
 3746 0db6 9C       		.byte	0x9c
 3747 0db7 A20E0000 		.4byte	0xea2
 3748 0dbb 21       		.uleb128 0x21
 3749 0dbc B0180000 		.4byte	.LASF298
 3750 0dc0 01       		.byte	0x1
 3751 0dc1 A702     		.2byte	0x2a7
 3752 0dc3 89000000 		.4byte	0x89
 3753 0dc7 02       		.uleb128 0x2
 3754 0dc8 91       		.byte	0x91
 3755 0dc9 74       		.sleb128 -12
 3756 0dca 21       		.uleb128 0x21
 3757 0dcb 31120000 		.4byte	.LASF299
 3758 0dcf 01       		.byte	0x1
 3759 0dd0 A902     		.2byte	0x2a9
 3760 0dd2 C3000000 		.4byte	0xc3
ARM GAS  C:\Users\r\AppData\Local\Temp\cc0NugVx.s 			page 81


 3761 0dd6 02       		.uleb128 0x2
 3762 0dd7 91       		.byte	0x91
 3763 0dd8 73       		.sleb128 -13
 3764 0dd9 22       		.uleb128 0x22
 3765 0dda 20000000 		.4byte	.LBB14
 3766 0dde 4C000000 		.4byte	.LBE14-.LBB14
 3767 0de2 220E0000 		.4byte	0xe22
 3768 0de6 20       		.uleb128 0x20
 3769 0de7 64626400 		.ascii	"dbd\000"
 3770 0deb 01       		.byte	0x1
 3771 0dec B102     		.2byte	0x2b1
 3772 0dee 89000000 		.4byte	0x89
 3773 0df2 02       		.uleb128 0x2
 3774 0df3 91       		.byte	0x91
 3775 0df4 6C       		.sleb128 -20
 3776 0df5 20       		.uleb128 0x20
 3777 0df6 706300   		.ascii	"pc\000"
 3778 0df9 01       		.byte	0x1
 3779 0dfa B202     		.2byte	0x2b2
 3780 0dfc 89000000 		.4byte	0x89
 3781 0e00 02       		.uleb128 0x2
 3782 0e01 91       		.byte	0x91
 3783 0e02 68       		.sleb128 -24
 3784 0e03 21       		.uleb128 0x21
 3785 0e04 DC0E0000 		.4byte	.LASF281
 3786 0e08 01       		.byte	0x1
 3787 0e09 B302     		.2byte	0x2b3
 3788 0e0b 89000000 		.4byte	0x89
 3789 0e0f 02       		.uleb128 0x2
 3790 0e10 91       		.byte	0x91
 3791 0e11 64       		.sleb128 -28
 3792 0e12 21       		.uleb128 0x21
 3793 0e13 FF170000 		.4byte	.LASF289
 3794 0e17 01       		.byte	0x1
 3795 0e18 B402     		.2byte	0x2b4
 3796 0e1a 89000000 		.4byte	0x89
 3797 0e1e 02       		.uleb128 0x2
 3798 0e1f 91       		.byte	0x91
 3799 0e20 60       		.sleb128 -32
 3800 0e21 00       		.byte	0
 3801 0e22 22       		.uleb128 0x22
 3802 0e23 76000000 		.4byte	.LBB15
 3803 0e27 5A000000 		.4byte	.LBE15-.LBB15
 3804 0e2b 6B0E0000 		.4byte	0xe6b
 3805 0e2f 20       		.uleb128 0x20
 3806 0e30 64626400 		.ascii	"dbd\000"
 3807 0e34 01       		.byte	0x1
 3808 0e35 BE02     		.2byte	0x2be
 3809 0e37 89000000 		.4byte	0x89
 3810 0e3b 02       		.uleb128 0x2
 3811 0e3c 91       		.byte	0x91
 3812 0e3d 5C       		.sleb128 -36
 3813 0e3e 20       		.uleb128 0x20
 3814 0e3f 706300   		.ascii	"pc\000"
 3815 0e42 01       		.byte	0x1
 3816 0e43 BF02     		.2byte	0x2bf
 3817 0e45 89000000 		.4byte	0x89
ARM GAS  C:\Users\r\AppData\Local\Temp\cc0NugVx.s 			page 82


 3818 0e49 02       		.uleb128 0x2
 3819 0e4a 91       		.byte	0x91
 3820 0e4b 58       		.sleb128 -40
 3821 0e4c 21       		.uleb128 0x21
 3822 0e4d DC0E0000 		.4byte	.LASF281
 3823 0e51 01       		.byte	0x1
 3824 0e52 C002     		.2byte	0x2c0
 3825 0e54 89000000 		.4byte	0x89
 3826 0e58 02       		.uleb128 0x2
 3827 0e59 91       		.byte	0x91
 3828 0e5a 54       		.sleb128 -44
 3829 0e5b 21       		.uleb128 0x21
 3830 0e5c FF170000 		.4byte	.LASF289
 3831 0e60 01       		.byte	0x1
 3832 0e61 C102     		.2byte	0x2c1
 3833 0e63 89000000 		.4byte	0x89
 3834 0e67 02       		.uleb128 0x2
 3835 0e68 91       		.byte	0x91
 3836 0e69 50       		.sleb128 -48
 3837 0e6a 00       		.byte	0
 3838 0e6b 22       		.uleb128 0x22
 3839 0e6c DA000000 		.4byte	.LBB16
 3840 0e70 3E000000 		.4byte	.LBE16-.LBB16
 3841 0e74 880E0000 		.4byte	0xe88
 3842 0e78 20       		.uleb128 0x20
 3843 0e79 6C656E00 		.ascii	"len\000"
 3844 0e7d 01       		.byte	0x1
 3845 0e7e C902     		.2byte	0x2c9
 3846 0e80 89000000 		.4byte	0x89
 3847 0e84 02       		.uleb128 0x2
 3848 0e85 91       		.byte	0x91
 3849 0e86 4C       		.sleb128 -52
 3850 0e87 00       		.byte	0
 3851 0e88 23       		.uleb128 0x23
 3852 0e89 20010000 		.4byte	.LBB17
 3853 0e8d 4C000000 		.4byte	.LBE17-.LBB17
 3854 0e91 21       		.uleb128 0x21
 3855 0e92 FF170000 		.4byte	.LASF289
 3856 0e96 01       		.byte	0x1
 3857 0e97 DC02     		.2byte	0x2dc
 3858 0e99 89000000 		.4byte	0x89
 3859 0e9d 02       		.uleb128 0x2
 3860 0e9e 91       		.byte	0x91
 3861 0e9f 48       		.sleb128 -56
 3862 0ea0 00       		.byte	0
 3863 0ea1 00       		.byte	0
 3864 0ea2 08       		.uleb128 0x8
 3865 0ea3 300B0000 		.4byte	0xb30
 3866 0ea7 B20E0000 		.4byte	0xeb2
 3867 0eab 09       		.uleb128 0x9
 3868 0eac 16010000 		.4byte	0x116
 3869 0eb0 03       		.byte	0x3
 3870 0eb1 00       		.byte	0
 3871 0eb2 1B       		.uleb128 0x1b
 3872 0eb3 4F080000 		.4byte	.LASF300
 3873 0eb7 01       		.byte	0x1
 3874 0eb8 1D       		.byte	0x1d
ARM GAS  C:\Users\r\AppData\Local\Temp\cc0NugVx.s 			page 83


 3875 0eb9 C30E0000 		.4byte	0xec3
 3876 0ebd 05       		.uleb128 0x5
 3877 0ebe 03       		.byte	0x3
 3878 0ebf 00000000 		.4byte	OperatingPage
 3879 0ec3 15       		.uleb128 0x15
 3880 0ec4 A20E0000 		.4byte	0xea2
 3881 0ec8 08       		.uleb128 0x8
 3882 0ec9 300B0000 		.4byte	0xb30
 3883 0ecd D80E0000 		.4byte	0xed8
 3884 0ed1 09       		.uleb128 0x9
 3885 0ed2 16010000 		.4byte	0x116
 3886 0ed6 0B       		.byte	0xb
 3887 0ed7 00       		.byte	0
 3888 0ed8 1B       		.uleb128 0x1b
 3889 0ed9 EB0A0000 		.4byte	.LASF301
 3890 0edd 01       		.byte	0x1
 3891 0ede 2B       		.byte	0x2b
 3892 0edf E90E0000 		.4byte	0xee9
 3893 0ee3 05       		.uleb128 0x5
 3894 0ee4 03       		.byte	0x3
 3895 0ee5 04000000 		.4byte	ReadWriteErrorRecoveryPage
 3896 0ee9 15       		.uleb128 0x15
 3897 0eea C80E0000 		.4byte	0xec8
 3898 0eee 08       		.uleb128 0x8
 3899 0eef 300B0000 		.4byte	0xb30
 3900 0ef3 FE0E0000 		.4byte	0xefe
 3901 0ef7 09       		.uleb128 0x9
 3902 0ef8 16010000 		.4byte	0x116
 3903 0efc 07       		.byte	0x7
 3904 0efd 00       		.byte	0
 3905 0efe 1B       		.uleb128 0x1b
 3906 0eff 27000000 		.4byte	.LASF302
 3907 0f03 01       		.byte	0x1
 3908 0f04 45       		.byte	0x45
 3909 0f05 0F0F0000 		.4byte	0xf0f
 3910 0f09 05       		.uleb128 0x5
 3911 0f0a 03       		.byte	0x3
 3912 0f0b 10000000 		.4byte	ReadWriteErrorRecoveryPage_SCSI1
 3913 0f0f 15       		.uleb128 0x15
 3914 0f10 EE0E0000 		.4byte	0xeee
 3915 0f14 08       		.uleb128 0x8
 3916 0f15 300B0000 		.4byte	0xb30
 3917 0f19 240F0000 		.4byte	0xf24
 3918 0f1d 09       		.uleb128 0x9
 3919 0f1e 16010000 		.4byte	0x116
 3920 0f22 0F       		.byte	0xf
 3921 0f23 00       		.byte	0
 3922 0f24 1B       		.uleb128 0x1b
 3923 0f25 7B100000 		.4byte	.LASF303
 3924 0f29 01       		.byte	0x1
 3925 0f2a 51       		.byte	0x51
 3926 0f2b 350F0000 		.4byte	0xf35
 3927 0f2f 05       		.uleb128 0x5
 3928 0f30 03       		.byte	0x3
 3929 0f31 18000000 		.4byte	DisconnectReconnectPage
 3930 0f35 15       		.uleb128 0x15
 3931 0f36 140F0000 		.4byte	0xf14
ARM GAS  C:\Users\r\AppData\Local\Temp\cc0NugVx.s 			page 84


 3932 0f3a 1B       		.uleb128 0x1b
 3933 0f3b AF010000 		.4byte	.LASF304
 3934 0f3f 01       		.byte	0x1
 3935 0f40 5F       		.byte	0x5f
 3936 0f41 4B0F0000 		.4byte	0xf4b
 3937 0f45 05       		.uleb128 0x5
 3938 0f46 03       		.byte	0x3
 3939 0f47 28000000 		.4byte	DisconnectReconnectPage_SCSI1
 3940 0f4b 15       		.uleb128 0x15
 3941 0f4c C80E0000 		.4byte	0xec8
 3942 0f50 08       		.uleb128 0x8
 3943 0f51 300B0000 		.4byte	0xb30
 3944 0f55 600F0000 		.4byte	0xf60
 3945 0f59 09       		.uleb128 0x9
 3946 0f5a 16010000 		.4byte	0x116
 3947 0f5e 17       		.byte	0x17
 3948 0f5f 00       		.byte	0
 3949 0f60 1B       		.uleb128 0x1b
 3950 0f61 A7120000 		.4byte	.LASF305
 3951 0f65 01       		.byte	0x1
 3952 0f66 6B       		.byte	0x6b
 3953 0f67 710F0000 		.4byte	0xf71
 3954 0f6b 05       		.uleb128 0x5
 3955 0f6c 03       		.byte	0x3
 3956 0f6d 34000000 		.4byte	FormatDevicePage
 3957 0f71 15       		.uleb128 0x15
 3958 0f72 500F0000 		.4byte	0xf50
 3959 0f76 1B       		.uleb128 0x1b
 3960 0f77 1A010000 		.4byte	.LASF306
 3961 0f7b 01       		.byte	0x1
 3962 0f7c 7C       		.byte	0x7c
 3963 0f7d 870F0000 		.4byte	0xf87
 3964 0f81 05       		.uleb128 0x5
 3965 0f82 03       		.byte	0x3
 3966 0f83 4C000000 		.4byte	RigidDiskDriveGeometry
 3967 0f87 15       		.uleb128 0x15
 3968 0f88 500F0000 		.4byte	0xf50
 3969 0f8c 08       		.uleb128 0x8
 3970 0f8d 300B0000 		.4byte	0xb30
 3971 0f91 9C0F0000 		.4byte	0xf9c
 3972 0f95 09       		.uleb128 0x9
 3973 0f96 16010000 		.4byte	0x116
 3974 0f9a 1F       		.byte	0x1f
 3975 0f9b 00       		.byte	0
 3976 0f9c 1B       		.uleb128 0x1b
 3977 0f9d C90B0000 		.4byte	.LASF307
 3978 0fa1 01       		.byte	0x1
 3979 0fa2 8D       		.byte	0x8d
 3980 0fa3 AD0F0000 		.4byte	0xfad
 3981 0fa7 05       		.uleb128 0x5
 3982 0fa8 03       		.byte	0x3
 3983 0fa9 64000000 		.4byte	FlexibleDiskDriveGeometry
 3984 0fad 15       		.uleb128 0x15
 3985 0fae 8C0F0000 		.4byte	0xf8c
 3986 0fb2 08       		.uleb128 0x8
 3987 0fb3 300B0000 		.4byte	0xb30
 3988 0fb7 C20F0000 		.4byte	0xfc2
ARM GAS  C:\Users\r\AppData\Local\Temp\cc0NugVx.s 			page 85


 3989 0fbb 09       		.uleb128 0x9
 3990 0fbc 16010000 		.4byte	0x116
 3991 0fc0 13       		.byte	0x13
 3992 0fc1 00       		.byte	0
 3993 0fc2 1B       		.uleb128 0x1b
 3994 0fc3 5B140000 		.4byte	.LASF308
 3995 0fc7 01       		.byte	0x1
 3996 0fc8 AA       		.byte	0xaa
 3997 0fc9 D30F0000 		.4byte	0xfd3
 3998 0fcd 05       		.uleb128 0x5
 3999 0fce 03       		.byte	0x3
 4000 0fcf 84000000 		.4byte	RigidDiskDriveGeometry_SCSI1
 4001 0fd3 15       		.uleb128 0x15
 4002 0fd4 B20F0000 		.4byte	0xfb2
 4003 0fd8 1B       		.uleb128 0x1b
 4004 0fd9 85160000 		.4byte	.LASF309
 4005 0fdd 01       		.byte	0x1
 4006 0fde B9       		.byte	0xb9
 4007 0fdf E90F0000 		.4byte	0xfe9
 4008 0fe3 05       		.uleb128 0x5
 4009 0fe4 03       		.byte	0x3
 4010 0fe5 98000000 		.4byte	CachingPage
 4011 0fe9 15       		.uleb128 0x15
 4012 0fea C80E0000 		.4byte	0xec8
 4013 0fee 1B       		.uleb128 0x1b
 4014 0fef 03060000 		.4byte	.LASF310
 4015 0ff3 01       		.byte	0x1
 4016 0ff4 C5       		.byte	0xc5
 4017 0ff5 FF0F0000 		.4byte	0xfff
 4018 0ff9 05       		.uleb128 0x5
 4019 0ffa 03       		.byte	0x3
 4020 0ffb A4000000 		.4byte	ControlModePage
 4021 0fff 15       		.uleb128 0x15
 4022 1000 EE0E0000 		.4byte	0xeee
 4023 1004 08       		.uleb128 0x8
 4024 1005 14100000 		.4byte	0x1014
 4025 1009 14100000 		.4byte	0x1014
 4026 100d 09       		.uleb128 0x9
 4027 100e 16010000 		.4byte	0x116
 4028 1012 0E       		.byte	0xe
 4029 1013 00       		.byte	0
 4030 1014 15       		.uleb128 0x15
 4031 1015 97000000 		.4byte	0x97
 4032 1019 1B       		.uleb128 0x1b
 4033 101a 3C100000 		.4byte	.LASF311
 4034 101e 01       		.byte	0x1
 4035 101f D0       		.byte	0xd0
 4036 1020 2A100000 		.4byte	0x102a
 4037 1024 05       		.uleb128 0x5
 4038 1025 03       		.byte	0x3
 4039 1026 AC000000 		.4byte	SequentialDeviceConfigPage
 4040 102a 15       		.uleb128 0x15
 4041 102b 04100000 		.4byte	0x1004
 4042 102f 08       		.uleb128 0x8
 4043 1030 300B0000 		.4byte	0xb30
 4044 1034 3F100000 		.4byte	0x103f
 4045 1038 09       		.uleb128 0x9
ARM GAS  C:\Users\r\AppData\Local\Temp\cc0NugVx.s 			page 86


 4046 1039 16010000 		.4byte	0x116
 4047 103d 1D       		.byte	0x1d
 4048 103e 00       		.byte	0
 4049 103f 1B       		.uleb128 0x1b
 4050 1040 01090000 		.4byte	.LASF312
 4051 1044 01       		.byte	0x1
 4052 1045 E2       		.byte	0xe2
 4053 1046 50100000 		.4byte	0x1050
 4054 104a 05       		.uleb128 0x5
 4055 104b 03       		.byte	0x3
 4056 104c BC000000 		.4byte	AppleVendorPage
 4057 1050 15       		.uleb128 0x15
 4058 1051 2F100000 		.4byte	0x102f
 4059 1055 26       		.uleb128 0x26
 4060 1056 8B0D0000 		.4byte	.LASF313
 4061 105a 09       		.byte	0x9
 4062 105b 1207     		.2byte	0x712
 4063 105d 61100000 		.4byte	0x1061
 4064 1061 16       		.uleb128 0x16
 4065 1062 AD000000 		.4byte	0xad
 4066 1066 27       		.uleb128 0x27
 4067 1067 810E0000 		.4byte	.LASF314
 4068 106b 07       		.byte	0x7
 4069 106c 9F       		.byte	0x9f
 4070 106d 8D0A0000 		.4byte	0xa8d
 4071 1071 27       		.uleb128 0x27
 4072 1072 E2080000 		.4byte	.LASF315
 4073 1076 08       		.byte	0x8
 4074 1077 30       		.byte	0x30
 4075 1078 D20A0000 		.4byte	0xad2
 4076 107c 00       		.byte	0
 4077              		.section	.debug_abbrev,"",%progbits
 4078              	.Ldebug_abbrev0:
 4079 0000 01       		.uleb128 0x1
 4080 0001 11       		.uleb128 0x11
 4081 0002 01       		.byte	0x1
 4082 0003 25       		.uleb128 0x25
 4083 0004 0E       		.uleb128 0xe
 4084 0005 13       		.uleb128 0x13
 4085 0006 0B       		.uleb128 0xb
 4086 0007 03       		.uleb128 0x3
 4087 0008 0E       		.uleb128 0xe
 4088 0009 1B       		.uleb128 0x1b
 4089 000a 0E       		.uleb128 0xe
 4090 000b 55       		.uleb128 0x55
 4091 000c 17       		.uleb128 0x17
 4092 000d 11       		.uleb128 0x11
 4093 000e 01       		.uleb128 0x1
 4094 000f 10       		.uleb128 0x10
 4095 0010 17       		.uleb128 0x17
 4096 0011 00       		.byte	0
 4097 0012 00       		.byte	0
 4098 0013 02       		.uleb128 0x2
 4099 0014 24       		.uleb128 0x24
 4100 0015 00       		.byte	0
 4101 0016 0B       		.uleb128 0xb
 4102 0017 0B       		.uleb128 0xb
ARM GAS  C:\Users\r\AppData\Local\Temp\cc0NugVx.s 			page 87


 4103 0018 3E       		.uleb128 0x3e
 4104 0019 0B       		.uleb128 0xb
 4105 001a 03       		.uleb128 0x3
 4106 001b 0E       		.uleb128 0xe
 4107 001c 00       		.byte	0
 4108 001d 00       		.byte	0
 4109 001e 03       		.uleb128 0x3
 4110 001f 16       		.uleb128 0x16
 4111 0020 00       		.byte	0
 4112 0021 03       		.uleb128 0x3
 4113 0022 0E       		.uleb128 0xe
 4114 0023 3A       		.uleb128 0x3a
 4115 0024 0B       		.uleb128 0xb
 4116 0025 3B       		.uleb128 0x3b
 4117 0026 0B       		.uleb128 0xb
 4118 0027 49       		.uleb128 0x49
 4119 0028 13       		.uleb128 0x13
 4120 0029 00       		.byte	0
 4121 002a 00       		.byte	0
 4122 002b 04       		.uleb128 0x4
 4123 002c 24       		.uleb128 0x24
 4124 002d 00       		.byte	0
 4125 002e 0B       		.uleb128 0xb
 4126 002f 0B       		.uleb128 0xb
 4127 0030 3E       		.uleb128 0x3e
 4128 0031 0B       		.uleb128 0xb
 4129 0032 03       		.uleb128 0x3
 4130 0033 08       		.uleb128 0x8
 4131 0034 00       		.byte	0
 4132 0035 00       		.byte	0
 4133 0036 05       		.uleb128 0x5
 4134 0037 16       		.uleb128 0x16
 4135 0038 00       		.byte	0
 4136 0039 03       		.uleb128 0x3
 4137 003a 0E       		.uleb128 0xe
 4138 003b 3A       		.uleb128 0x3a
 4139 003c 0B       		.uleb128 0xb
 4140 003d 3B       		.uleb128 0x3b
 4141 003e 05       		.uleb128 0x5
 4142 003f 49       		.uleb128 0x49
 4143 0040 13       		.uleb128 0x13
 4144 0041 00       		.byte	0
 4145 0042 00       		.byte	0
 4146 0043 06       		.uleb128 0x6
 4147 0044 0F       		.uleb128 0xf
 4148 0045 00       		.byte	0
 4149 0046 0B       		.uleb128 0xb
 4150 0047 0B       		.uleb128 0xb
 4151 0048 49       		.uleb128 0x49
 4152 0049 13       		.uleb128 0x13
 4153 004a 00       		.byte	0
 4154 004b 00       		.byte	0
 4155 004c 07       		.uleb128 0x7
 4156 004d 15       		.uleb128 0x15
 4157 004e 00       		.byte	0
 4158 004f 27       		.uleb128 0x27
 4159 0050 19       		.uleb128 0x19
ARM GAS  C:\Users\r\AppData\Local\Temp\cc0NugVx.s 			page 88


 4160 0051 00       		.byte	0
 4161 0052 00       		.byte	0
 4162 0053 08       		.uleb128 0x8
 4163 0054 01       		.uleb128 0x1
 4164 0055 01       		.byte	0x1
 4165 0056 49       		.uleb128 0x49
 4166 0057 13       		.uleb128 0x13
 4167 0058 01       		.uleb128 0x1
 4168 0059 13       		.uleb128 0x13
 4169 005a 00       		.byte	0
 4170 005b 00       		.byte	0
 4171 005c 09       		.uleb128 0x9
 4172 005d 21       		.uleb128 0x21
 4173 005e 00       		.byte	0
 4174 005f 49       		.uleb128 0x49
 4175 0060 13       		.uleb128 0x13
 4176 0061 2F       		.uleb128 0x2f
 4177 0062 0B       		.uleb128 0xb
 4178 0063 00       		.byte	0
 4179 0064 00       		.byte	0
 4180 0065 0A       		.uleb128 0xa
 4181 0066 04       		.uleb128 0x4
 4182 0067 01       		.byte	0x1
 4183 0068 0B       		.uleb128 0xb
 4184 0069 0B       		.uleb128 0xb
 4185 006a 49       		.uleb128 0x49
 4186 006b 13       		.uleb128 0x13
 4187 006c 3A       		.uleb128 0x3a
 4188 006d 0B       		.uleb128 0xb
 4189 006e 3B       		.uleb128 0x3b
 4190 006f 0B       		.uleb128 0xb
 4191 0070 01       		.uleb128 0x1
 4192 0071 13       		.uleb128 0x13
 4193 0072 00       		.byte	0
 4194 0073 00       		.byte	0
 4195 0074 0B       		.uleb128 0xb
 4196 0075 28       		.uleb128 0x28
 4197 0076 00       		.byte	0
 4198 0077 03       		.uleb128 0x3
 4199 0078 0E       		.uleb128 0xe
 4200 0079 1C       		.uleb128 0x1c
 4201 007a 0B       		.uleb128 0xb
 4202 007b 00       		.byte	0
 4203 007c 00       		.byte	0
 4204 007d 0C       		.uleb128 0xc
 4205 007e 13       		.uleb128 0x13
 4206 007f 01       		.byte	0x1
 4207 0080 0B       		.uleb128 0xb
 4208 0081 05       		.uleb128 0x5
 4209 0082 3A       		.uleb128 0x3a
 4210 0083 0B       		.uleb128 0xb
 4211 0084 3B       		.uleb128 0x3b
 4212 0085 0B       		.uleb128 0xb
 4213 0086 01       		.uleb128 0x1
 4214 0087 13       		.uleb128 0x13
 4215 0088 00       		.byte	0
 4216 0089 00       		.byte	0
ARM GAS  C:\Users\r\AppData\Local\Temp\cc0NugVx.s 			page 89


 4217 008a 0D       		.uleb128 0xd
 4218 008b 0D       		.uleb128 0xd
 4219 008c 00       		.byte	0
 4220 008d 03       		.uleb128 0x3
 4221 008e 0E       		.uleb128 0xe
 4222 008f 3A       		.uleb128 0x3a
 4223 0090 0B       		.uleb128 0xb
 4224 0091 3B       		.uleb128 0x3b
 4225 0092 0B       		.uleb128 0xb
 4226 0093 49       		.uleb128 0x49
 4227 0094 13       		.uleb128 0x13
 4228 0095 38       		.uleb128 0x38
 4229 0096 0B       		.uleb128 0xb
 4230 0097 00       		.byte	0
 4231 0098 00       		.byte	0
 4232 0099 0E       		.uleb128 0xe
 4233 009a 0D       		.uleb128 0xd
 4234 009b 00       		.byte	0
 4235 009c 03       		.uleb128 0x3
 4236 009d 0E       		.uleb128 0xe
 4237 009e 3A       		.uleb128 0x3a
 4238 009f 0B       		.uleb128 0xb
 4239 00a0 3B       		.uleb128 0x3b
 4240 00a1 0B       		.uleb128 0xb
 4241 00a2 49       		.uleb128 0x49
 4242 00a3 13       		.uleb128 0x13
 4243 00a4 38       		.uleb128 0x38
 4244 00a5 05       		.uleb128 0x5
 4245 00a6 00       		.byte	0
 4246 00a7 00       		.byte	0
 4247 00a8 0F       		.uleb128 0xf
 4248 00a9 0D       		.uleb128 0xd
 4249 00aa 00       		.byte	0
 4250 00ab 03       		.uleb128 0x3
 4251 00ac 08       		.uleb128 0x8
 4252 00ad 3A       		.uleb128 0x3a
 4253 00ae 0B       		.uleb128 0xb
 4254 00af 3B       		.uleb128 0x3b
 4255 00b0 0B       		.uleb128 0xb
 4256 00b1 49       		.uleb128 0x49
 4257 00b2 13       		.uleb128 0x13
 4258 00b3 38       		.uleb128 0x38
 4259 00b4 05       		.uleb128 0x5
 4260 00b5 00       		.byte	0
 4261 00b6 00       		.byte	0
 4262 00b7 10       		.uleb128 0x10
 4263 00b8 21       		.uleb128 0x21
 4264 00b9 00       		.byte	0
 4265 00ba 49       		.uleb128 0x49
 4266 00bb 13       		.uleb128 0x13
 4267 00bc 2F       		.uleb128 0x2f
 4268 00bd 05       		.uleb128 0x5
 4269 00be 00       		.byte	0
 4270 00bf 00       		.byte	0
 4271 00c0 11       		.uleb128 0x11
 4272 00c1 28       		.uleb128 0x28
 4273 00c2 00       		.byte	0
ARM GAS  C:\Users\r\AppData\Local\Temp\cc0NugVx.s 			page 90


 4274 00c3 03       		.uleb128 0x3
 4275 00c4 0E       		.uleb128 0xe
 4276 00c5 1C       		.uleb128 0x1c
 4277 00c6 05       		.uleb128 0x5
 4278 00c7 00       		.byte	0
 4279 00c8 00       		.byte	0
 4280 00c9 12       		.uleb128 0x12
 4281 00ca 13       		.uleb128 0x13
 4282 00cb 01       		.byte	0x1
 4283 00cc 0B       		.uleb128 0xb
 4284 00cd 0B       		.uleb128 0xb
 4285 00ce 3A       		.uleb128 0x3a
 4286 00cf 0B       		.uleb128 0xb
 4287 00d0 3B       		.uleb128 0x3b
 4288 00d1 0B       		.uleb128 0xb
 4289 00d2 01       		.uleb128 0x1
 4290 00d3 13       		.uleb128 0x13
 4291 00d4 00       		.byte	0
 4292 00d5 00       		.byte	0
 4293 00d6 13       		.uleb128 0x13
 4294 00d7 0D       		.uleb128 0xd
 4295 00d8 00       		.byte	0
 4296 00d9 03       		.uleb128 0x3
 4297 00da 08       		.uleb128 0x8
 4298 00db 3A       		.uleb128 0x3a
 4299 00dc 0B       		.uleb128 0xb
 4300 00dd 3B       		.uleb128 0x3b
 4301 00de 0B       		.uleb128 0xb
 4302 00df 49       		.uleb128 0x49
 4303 00e0 13       		.uleb128 0x13
 4304 00e1 38       		.uleb128 0x38
 4305 00e2 0B       		.uleb128 0xb
 4306 00e3 00       		.byte	0
 4307 00e4 00       		.byte	0
 4308 00e5 14       		.uleb128 0x14
 4309 00e6 28       		.uleb128 0x28
 4310 00e7 00       		.byte	0
 4311 00e8 03       		.uleb128 0x3
 4312 00e9 0E       		.uleb128 0xe
 4313 00ea 1C       		.uleb128 0x1c
 4314 00eb 0D       		.uleb128 0xd
 4315 00ec 00       		.byte	0
 4316 00ed 00       		.byte	0
 4317 00ee 15       		.uleb128 0x15
 4318 00ef 26       		.uleb128 0x26
 4319 00f0 00       		.byte	0
 4320 00f1 49       		.uleb128 0x49
 4321 00f2 13       		.uleb128 0x13
 4322 00f3 00       		.byte	0
 4323 00f4 00       		.byte	0
 4324 00f5 16       		.uleb128 0x16
 4325 00f6 35       		.uleb128 0x35
 4326 00f7 00       		.byte	0
 4327 00f8 49       		.uleb128 0x49
 4328 00f9 13       		.uleb128 0x13
 4329 00fa 00       		.byte	0
 4330 00fb 00       		.byte	0
ARM GAS  C:\Users\r\AppData\Local\Temp\cc0NugVx.s 			page 91


 4331 00fc 17       		.uleb128 0x17
 4332 00fd 2E       		.uleb128 0x2e
 4333 00fe 01       		.byte	0x1
 4334 00ff 03       		.uleb128 0x3
 4335 0100 0E       		.uleb128 0xe
 4336 0101 3A       		.uleb128 0x3a
 4337 0102 0B       		.uleb128 0xb
 4338 0103 3B       		.uleb128 0x3b
 4339 0104 0B       		.uleb128 0xb
 4340 0105 27       		.uleb128 0x27
 4341 0106 19       		.uleb128 0x19
 4342 0107 11       		.uleb128 0x11
 4343 0108 01       		.uleb128 0x1
 4344 0109 12       		.uleb128 0x12
 4345 010a 06       		.uleb128 0x6
 4346 010b 40       		.uleb128 0x40
 4347 010c 18       		.uleb128 0x18
 4348 010d 9642     		.uleb128 0x2116
 4349 010f 19       		.uleb128 0x19
 4350 0110 01       		.uleb128 0x1
 4351 0111 13       		.uleb128 0x13
 4352 0112 00       		.byte	0
 4353 0113 00       		.byte	0
 4354 0114 18       		.uleb128 0x18
 4355 0115 05       		.uleb128 0x5
 4356 0116 00       		.byte	0
 4357 0117 03       		.uleb128 0x3
 4358 0118 08       		.uleb128 0x8
 4359 0119 3A       		.uleb128 0x3a
 4360 011a 0B       		.uleb128 0xb
 4361 011b 3B       		.uleb128 0x3b
 4362 011c 0B       		.uleb128 0xb
 4363 011d 49       		.uleb128 0x49
 4364 011e 13       		.uleb128 0x13
 4365 011f 02       		.uleb128 0x2
 4366 0120 18       		.uleb128 0x18
 4367 0121 00       		.byte	0
 4368 0122 00       		.byte	0
 4369 0123 19       		.uleb128 0x19
 4370 0124 05       		.uleb128 0x5
 4371 0125 00       		.byte	0
 4372 0126 03       		.uleb128 0x3
 4373 0127 0E       		.uleb128 0xe
 4374 0128 3A       		.uleb128 0x3a
 4375 0129 0B       		.uleb128 0xb
 4376 012a 3B       		.uleb128 0x3b
 4377 012b 0B       		.uleb128 0xb
 4378 012c 49       		.uleb128 0x49
 4379 012d 13       		.uleb128 0x13
 4380 012e 02       		.uleb128 0x2
 4381 012f 18       		.uleb128 0x18
 4382 0130 00       		.byte	0
 4383 0131 00       		.byte	0
 4384 0132 1A       		.uleb128 0x1a
 4385 0133 2E       		.uleb128 0x2e
 4386 0134 01       		.byte	0x1
 4387 0135 03       		.uleb128 0x3
ARM GAS  C:\Users\r\AppData\Local\Temp\cc0NugVx.s 			page 92


 4388 0136 0E       		.uleb128 0xe
 4389 0137 3A       		.uleb128 0x3a
 4390 0138 0B       		.uleb128 0xb
 4391 0139 3B       		.uleb128 0x3b
 4392 013a 0B       		.uleb128 0xb
 4393 013b 27       		.uleb128 0x27
 4394 013c 19       		.uleb128 0x19
 4395 013d 49       		.uleb128 0x49
 4396 013e 13       		.uleb128 0x13
 4397 013f 11       		.uleb128 0x11
 4398 0140 01       		.uleb128 0x1
 4399 0141 12       		.uleb128 0x12
 4400 0142 06       		.uleb128 0x6
 4401 0143 40       		.uleb128 0x40
 4402 0144 18       		.uleb128 0x18
 4403 0145 9642     		.uleb128 0x2116
 4404 0147 19       		.uleb128 0x19
 4405 0148 01       		.uleb128 0x1
 4406 0149 13       		.uleb128 0x13
 4407 014a 00       		.byte	0
 4408 014b 00       		.byte	0
 4409 014c 1B       		.uleb128 0x1b
 4410 014d 34       		.uleb128 0x34
 4411 014e 00       		.byte	0
 4412 014f 03       		.uleb128 0x3
 4413 0150 0E       		.uleb128 0xe
 4414 0151 3A       		.uleb128 0x3a
 4415 0152 0B       		.uleb128 0xb
 4416 0153 3B       		.uleb128 0x3b
 4417 0154 0B       		.uleb128 0xb
 4418 0155 49       		.uleb128 0x49
 4419 0156 13       		.uleb128 0x13
 4420 0157 02       		.uleb128 0x2
 4421 0158 18       		.uleb128 0x18
 4422 0159 00       		.byte	0
 4423 015a 00       		.byte	0
 4424 015b 1C       		.uleb128 0x1c
 4425 015c 0B       		.uleb128 0xb
 4426 015d 01       		.byte	0x1
 4427 015e 55       		.uleb128 0x55
 4428 015f 17       		.uleb128 0x17
 4429 0160 00       		.byte	0
 4430 0161 00       		.byte	0
 4431 0162 1D       		.uleb128 0x1d
 4432 0163 2E       		.uleb128 0x2e
 4433 0164 01       		.byte	0x1
 4434 0165 03       		.uleb128 0x3
 4435 0166 0E       		.uleb128 0xe
 4436 0167 3A       		.uleb128 0x3a
 4437 0168 0B       		.uleb128 0xb
 4438 0169 3B       		.uleb128 0x3b
 4439 016a 05       		.uleb128 0x5
 4440 016b 27       		.uleb128 0x27
 4441 016c 19       		.uleb128 0x19
 4442 016d 11       		.uleb128 0x11
 4443 016e 01       		.uleb128 0x1
 4444 016f 12       		.uleb128 0x12
ARM GAS  C:\Users\r\AppData\Local\Temp\cc0NugVx.s 			page 93


 4445 0170 06       		.uleb128 0x6
 4446 0171 40       		.uleb128 0x40
 4447 0172 18       		.uleb128 0x18
 4448 0173 9642     		.uleb128 0x2116
 4449 0175 19       		.uleb128 0x19
 4450 0176 01       		.uleb128 0x1
 4451 0177 13       		.uleb128 0x13
 4452 0178 00       		.byte	0
 4453 0179 00       		.byte	0
 4454 017a 1E       		.uleb128 0x1e
 4455 017b 05       		.uleb128 0x5
 4456 017c 00       		.byte	0
 4457 017d 03       		.uleb128 0x3
 4458 017e 0E       		.uleb128 0xe
 4459 017f 3A       		.uleb128 0x3a
 4460 0180 0B       		.uleb128 0xb
 4461 0181 3B       		.uleb128 0x3b
 4462 0182 05       		.uleb128 0x5
 4463 0183 49       		.uleb128 0x49
 4464 0184 13       		.uleb128 0x13
 4465 0185 02       		.uleb128 0x2
 4466 0186 18       		.uleb128 0x18
 4467 0187 00       		.byte	0
 4468 0188 00       		.byte	0
 4469 0189 1F       		.uleb128 0x1f
 4470 018a 05       		.uleb128 0x5
 4471 018b 00       		.byte	0
 4472 018c 03       		.uleb128 0x3
 4473 018d 08       		.uleb128 0x8
 4474 018e 3A       		.uleb128 0x3a
 4475 018f 0B       		.uleb128 0xb
 4476 0190 3B       		.uleb128 0x3b
 4477 0191 05       		.uleb128 0x5
 4478 0192 49       		.uleb128 0x49
 4479 0193 13       		.uleb128 0x13
 4480 0194 02       		.uleb128 0x2
 4481 0195 18       		.uleb128 0x18
 4482 0196 00       		.byte	0
 4483 0197 00       		.byte	0
 4484 0198 20       		.uleb128 0x20
 4485 0199 34       		.uleb128 0x34
 4486 019a 00       		.byte	0
 4487 019b 03       		.uleb128 0x3
 4488 019c 08       		.uleb128 0x8
 4489 019d 3A       		.uleb128 0x3a
 4490 019e 0B       		.uleb128 0xb
 4491 019f 3B       		.uleb128 0x3b
 4492 01a0 05       		.uleb128 0x5
 4493 01a1 49       		.uleb128 0x49
 4494 01a2 13       		.uleb128 0x13
 4495 01a3 02       		.uleb128 0x2
 4496 01a4 18       		.uleb128 0x18
 4497 01a5 00       		.byte	0
 4498 01a6 00       		.byte	0
 4499 01a7 21       		.uleb128 0x21
 4500 01a8 34       		.uleb128 0x34
 4501 01a9 00       		.byte	0
ARM GAS  C:\Users\r\AppData\Local\Temp\cc0NugVx.s 			page 94


 4502 01aa 03       		.uleb128 0x3
 4503 01ab 0E       		.uleb128 0xe
 4504 01ac 3A       		.uleb128 0x3a
 4505 01ad 0B       		.uleb128 0xb
 4506 01ae 3B       		.uleb128 0x3b
 4507 01af 05       		.uleb128 0x5
 4508 01b0 49       		.uleb128 0x49
 4509 01b1 13       		.uleb128 0x13
 4510 01b2 02       		.uleb128 0x2
 4511 01b3 18       		.uleb128 0x18
 4512 01b4 00       		.byte	0
 4513 01b5 00       		.byte	0
 4514 01b6 22       		.uleb128 0x22
 4515 01b7 0B       		.uleb128 0xb
 4516 01b8 01       		.byte	0x1
 4517 01b9 11       		.uleb128 0x11
 4518 01ba 01       		.uleb128 0x1
 4519 01bb 12       		.uleb128 0x12
 4520 01bc 06       		.uleb128 0x6
 4521 01bd 01       		.uleb128 0x1
 4522 01be 13       		.uleb128 0x13
 4523 01bf 00       		.byte	0
 4524 01c0 00       		.byte	0
 4525 01c1 23       		.uleb128 0x23
 4526 01c2 0B       		.uleb128 0xb
 4527 01c3 01       		.byte	0x1
 4528 01c4 11       		.uleb128 0x11
 4529 01c5 01       		.uleb128 0x1
 4530 01c6 12       		.uleb128 0x12
 4531 01c7 06       		.uleb128 0x6
 4532 01c8 00       		.byte	0
 4533 01c9 00       		.byte	0
 4534 01ca 24       		.uleb128 0x24
 4535 01cb 0A       		.uleb128 0xa
 4536 01cc 00       		.byte	0
 4537 01cd 03       		.uleb128 0x3
 4538 01ce 08       		.uleb128 0x8
 4539 01cf 3A       		.uleb128 0x3a
 4540 01d0 0B       		.uleb128 0xb
 4541 01d1 3B       		.uleb128 0x3b
 4542 01d2 05       		.uleb128 0x5
 4543 01d3 11       		.uleb128 0x11
 4544 01d4 01       		.uleb128 0x1
 4545 01d5 00       		.byte	0
 4546 01d6 00       		.byte	0
 4547 01d7 25       		.uleb128 0x25
 4548 01d8 2E       		.uleb128 0x2e
 4549 01d9 01       		.byte	0x1
 4550 01da 3F       		.uleb128 0x3f
 4551 01db 19       		.uleb128 0x19
 4552 01dc 03       		.uleb128 0x3
 4553 01dd 0E       		.uleb128 0xe
 4554 01de 3A       		.uleb128 0x3a
 4555 01df 0B       		.uleb128 0xb
 4556 01e0 3B       		.uleb128 0x3b
 4557 01e1 05       		.uleb128 0x5
 4558 01e2 27       		.uleb128 0x27
ARM GAS  C:\Users\r\AppData\Local\Temp\cc0NugVx.s 			page 95


 4559 01e3 19       		.uleb128 0x19
 4560 01e4 49       		.uleb128 0x49
 4561 01e5 13       		.uleb128 0x13
 4562 01e6 11       		.uleb128 0x11
 4563 01e7 01       		.uleb128 0x1
 4564 01e8 12       		.uleb128 0x12
 4565 01e9 06       		.uleb128 0x6
 4566 01ea 40       		.uleb128 0x40
 4567 01eb 18       		.uleb128 0x18
 4568 01ec 9642     		.uleb128 0x2116
 4569 01ee 19       		.uleb128 0x19
 4570 01ef 01       		.uleb128 0x1
 4571 01f0 13       		.uleb128 0x13
 4572 01f1 00       		.byte	0
 4573 01f2 00       		.byte	0
 4574 01f3 26       		.uleb128 0x26
 4575 01f4 34       		.uleb128 0x34
 4576 01f5 00       		.byte	0
 4577 01f6 03       		.uleb128 0x3
 4578 01f7 0E       		.uleb128 0xe
 4579 01f8 3A       		.uleb128 0x3a
 4580 01f9 0B       		.uleb128 0xb
 4581 01fa 3B       		.uleb128 0x3b
 4582 01fb 05       		.uleb128 0x5
 4583 01fc 49       		.uleb128 0x49
 4584 01fd 13       		.uleb128 0x13
 4585 01fe 3F       		.uleb128 0x3f
 4586 01ff 19       		.uleb128 0x19
 4587 0200 3C       		.uleb128 0x3c
 4588 0201 19       		.uleb128 0x19
 4589 0202 00       		.byte	0
 4590 0203 00       		.byte	0
 4591 0204 27       		.uleb128 0x27
 4592 0205 34       		.uleb128 0x34
 4593 0206 00       		.byte	0
 4594 0207 03       		.uleb128 0x3
 4595 0208 0E       		.uleb128 0xe
 4596 0209 3A       		.uleb128 0x3a
 4597 020a 0B       		.uleb128 0xb
 4598 020b 3B       		.uleb128 0x3b
 4599 020c 0B       		.uleb128 0xb
 4600 020d 49       		.uleb128 0x49
 4601 020e 13       		.uleb128 0x13
 4602 020f 3F       		.uleb128 0x3f
 4603 0210 19       		.uleb128 0x19
 4604 0211 3C       		.uleb128 0x3c
 4605 0212 19       		.uleb128 0x19
 4606 0213 00       		.byte	0
 4607 0214 00       		.byte	0
 4608 0215 00       		.byte	0
 4609              		.section	.debug_aranges,"",%progbits
 4610 0000 3C000000 		.4byte	0x3c
 4611 0004 0200     		.2byte	0x2
 4612 0006 00000000 		.4byte	.Ldebug_info0
 4613 000a 04       		.byte	0x4
 4614 000b 00       		.byte	0
 4615 000c 0000     		.2byte	0
ARM GAS  C:\Users\r\AppData\Local\Temp\cc0NugVx.s 			page 96


 4616 000e 0000     		.2byte	0
 4617 0010 00000000 		.4byte	.LFB64
 4618 0014 50000000 		.4byte	.LFE64-.LFB64
 4619 0018 00000000 		.4byte	.LFB65
 4620 001c A4000000 		.4byte	.LFE65-.LFB65
 4621 0020 00000000 		.4byte	.LFB66
 4622 0024 04070000 		.4byte	.LFE66-.LFB66
 4623 0028 00000000 		.4byte	.LFB67
 4624 002c C0010000 		.4byte	.LFE67-.LFB67
 4625 0030 00000000 		.4byte	.LFB68
 4626 0034 84010000 		.4byte	.LFE68-.LFB68
 4627 0038 00000000 		.4byte	0
 4628 003c 00000000 		.4byte	0
 4629              		.section	.debug_ranges,"",%progbits
 4630              	.Ldebug_ranges0:
 4631 0000 18000000 		.4byte	.LBB2
 4632 0004 7C000000 		.4byte	.LBE2
 4633 0008 98000000 		.4byte	.LBB3
 4634 000c 9A000000 		.4byte	.LBE3
 4635 0010 00000000 		.4byte	0
 4636 0014 00000000 		.4byte	0
 4637 0018 16000000 		.4byte	.LBB7
 4638 001c 82010000 		.4byte	.LBE7
 4639 0020 84010000 		.4byte	.LBB13
 4640 0024 8A010000 		.4byte	.LBE13
 4641 0028 00000000 		.4byte	0
 4642 002c 00000000 		.4byte	0
 4643 0030 C6000000 		.4byte	.LBB9
 4644 0034 72010000 		.4byte	.LBE9
 4645 0038 84010000 		.4byte	.LBB12
 4646 003c 8A010000 		.4byte	.LBE12
 4647 0040 00000000 		.4byte	0
 4648 0044 00000000 		.4byte	0
 4649 0048 02010000 		.4byte	.LBB10
 4650 004c 66010000 		.4byte	.LBE10
 4651 0050 88010000 		.4byte	.LBB11
 4652 0054 8A010000 		.4byte	.LBE11
 4653 0058 00000000 		.4byte	0
 4654 005c 00000000 		.4byte	0
 4655 0060 00000000 		.4byte	.LFB64
 4656 0064 50000000 		.4byte	.LFE64
 4657 0068 00000000 		.4byte	.LFB65
 4658 006c A4000000 		.4byte	.LFE65
 4659 0070 00000000 		.4byte	.LFB66
 4660 0074 04070000 		.4byte	.LFE66
 4661 0078 00000000 		.4byte	.LFB67
 4662 007c C0010000 		.4byte	.LFE67
 4663 0080 00000000 		.4byte	.LFB68
 4664 0084 84010000 		.4byte	.LFE68
 4665 0088 00000000 		.4byte	0
 4666 008c 00000000 		.4byte	0
 4667              		.section	.debug_line,"",%progbits
 4668              	.Ldebug_line0:
 4669 0000 E3030000 		.section	.debug_str,"MS",%progbits,1
 4669      02009301 
 4669      00000201 
 4669      FB0E0D00 
ARM GAS  C:\Users\r\AppData\Local\Temp\cc0NugVx.s 			page 97


 4669      01010101 
 4670              	.LASF189:
 4671 0000 52504C5F 		.ascii	"RPL_STATUS_CHANGE\000"
 4671      53544154 
 4671      55535F43 
 4671      48414E47 
 4671      4500
 4672              	.LASF25:
 4673 0012 73697A65 		.ascii	"sizetype\000"
 4673      74797065 
 4673      00
 4674              	.LASF77:
 4675 001b 424C414E 		.ascii	"BLANK_CHECK\000"
 4675      4B5F4348 
 4675      45434B00 
 4676              	.LASF302:
 4677 0027 52656164 		.ascii	"ReadWriteErrorRecoveryPage_SCSI1\000"
 4677      57726974 
 4677      65457272 
 4677      6F725265 
 4677      636F7665 
 4678              	.LASF102:
 4679 0048 44454645 		.ascii	"DEFECT_LIST_UPDATE_FAILURE\000"
 4679      43545F4C 
 4679      4953545F 
 4679      55504441 
 4679      54455F46 
 4680              	.LASF107:
 4681 0063 494F5F50 		.ascii	"IO_PROCESS_TERMINATED\000"
 4681      524F4345 
 4681      53535F54 
 4681      45524D49 
 4681      4E415445 
 4682              	.LASF176:
 4683 0079 5245434F 		.ascii	"RECOVERED_DATA_RECOMMEND_REWRITE\000"
 4683      56455245 
 4683      445F4441 
 4683      54415F52 
 4683      45434F4D 
 4684              	.LASF141:
 4685 009a 4D455353 		.ascii	"MESSAGE_ERROR\000"
 4685      4147455F 
 4685      4552524F 
 4685      5200
 4686              	.LASF133:
 4687 00a8 4C4F4749 		.ascii	"LOGICAL_UNIT_NOT_READY_INITIALIZING_COMMAND_REQUIRE"
 4687      43414C5F 
 4687      554E4954 
 4687      5F4E4F54 
 4687      5F524541 
 4688 00db 4400     		.ascii	"D\000"
 4689              	.LASF15:
 4690 00dd 696E7433 		.ascii	"int32_t\000"
 4690      325F7400 
 4691              	.LASF206:
 4692 00e5 57524954 		.ascii	"WRITE_ERROR_AUTO_REALLOCATION_FAILED\000"
 4692      455F4552 
ARM GAS  C:\Users\r\AppData\Local\Temp\cc0NugVx.s 			page 98


 4692      524F525F 
 4692      4155544F 
 4692      5F524541 
 4693              	.LASF320:
 4694 010a 73637369 		.ascii	"scsiModeCommand\000"
 4694      4D6F6465 
 4694      436F6D6D 
 4694      616E6400 
 4695              	.LASF306:
 4696 011a 52696769 		.ascii	"RigidDiskDriveGeometry\000"
 4696      64446973 
 4696      6B447269 
 4696      76654765 
 4696      6F6D6574 
 4697              	.LASF68:
 4698 0131 426F6172 		.ascii	"BoardConfig\000"
 4698      64436F6E 
 4698      66696700 
 4699              	.LASF88:
 4700 013d 43414E4E 		.ascii	"CANNOT_READ_MEDIUM_UNKNOWN_FORMAT\000"
 4700      4F545F52 
 4700      4541445F 
 4700      4D454449 
 4700      554D5F55 
 4701              	.LASF19:
 4702 015f 75696E74 		.ascii	"uint32\000"
 4702      333200
 4703              	.LASF61:
 4704 0166 54617267 		.ascii	"TargetConfig\000"
 4704      6574436F 
 4704      6E666967 
 4704      00
 4705              	.LASF110:
 4706 0173 494E434F 		.ascii	"INCOMPATIBLE_MEDIUM_INSTALLED\000"
 4706      4D504154 
 4706      49424C45 
 4706      5F4D4544 
 4706      49554D5F 
 4707              	.LASF34:
 4708 0191 434F4E46 		.ascii	"CONFIG_FIXED\000"
 4708      49475F46 
 4708      49584544 
 4708      00
 4709              	.LASF210:
 4710 019e 53637369 		.ascii	"ScsiSense\000"
 4710      53656E73 
 4710      6500
 4711              	.LASF53:
 4712 01a8 76656E64 		.ascii	"vendor\000"
 4712      6F7200
 4713              	.LASF304:
 4714 01af 44697363 		.ascii	"DisconnectReconnectPage_SCSI1\000"
 4714      6F6E6E65 
 4714      63745265 
 4714      636F6E6E 
 4714      65637450 
 4715              	.LASF211:
ARM GAS  C:\Users\r\AppData\Local\Temp\cc0NugVx.s 			page 99


 4716 01cd 5F5F7363 		.ascii	"__scsiphase_msg\000"
 4716      73697068 
 4716      6173655F 
 4716      6D736700 
 4717              	.LASF276:
 4718 01dd 73746174 		.ascii	"state\000"
 4718      6500
 4719              	.LASF231:
 4720 01e3 434F4D50 		.ascii	"COMPAT_SCSI1\000"
 4720      41545F53 
 4720      43534931 
 4720      00
 4721              	.LASF33:
 4722 01f0 434F4E46 		.ascii	"CONFIG_MAP_LUNS_TO_IDS\000"
 4722      49475F4D 
 4722      41505F4C 
 4722      554E535F 
 4722      544F5F49 
 4723              	.LASF282:
 4724 0207 666F756E 		.ascii	"found\000"
 4724      6400
 4725              	.LASF214:
 4726 020d 4255535F 		.ascii	"BUS_FREE\000"
 4726      46524545 
 4726      00
 4727              	.LASF290:
 4728 0216 6D656469 		.ascii	"mediumType\000"
 4728      756D5479 
 4728      706500
 4729              	.LASF237:
 4730 0221 73656E73 		.ascii	"sense\000"
 4730      6500
 4731              	.LASF155:
 4732 0227 4F504552 		.ascii	"OPERATOR_REQUEST_OR_STATE_CHANGE_INPUT\000"
 4732      41544F52 
 4732      5F524551 
 4732      55455354 
 4732      5F4F525F 
 4733              	.LASF28:
 4734 024e 434F4E46 		.ascii	"CONFIG_ENABLE_SCSI2\000"
 4734      49475F45 
 4734      4E41424C 
 4734      455F5343 
 4734      53493200 
 4735              	.LASF52:
 4736 0262 68656164 		.ascii	"headsPerCylinder\000"
 4736      73506572 
 4736      43796C69 
 4736      6E646572 
 4736      00
 4737              	.LASF81:
 4738 0273 45515541 		.ascii	"EQUAL\000"
 4738      4C00
 4739              	.LASF182:
 4740 0279 5245434F 		.ascii	"RECOVERED_DATA_WITH_POSITIVE_HEAD_OFFSET\000"
 4740      56455245 
 4740      445F4441 
ARM GAS  C:\Users\r\AppData\Local\Temp\cc0NugVx.s 			page 100


 4740      54415F57 
 4740      4954485F 
 4741              	.LASF175:
 4742 02a2 5245434F 		.ascii	"RECOVERED_DATA_RECOMMEND_REASSIGNMENT\000"
 4742      56455245 
 4742      445F4441 
 4742      54415F52 
 4742      45434F4D 
 4743              	.LASF20:
 4744 02c8 696E7438 		.ascii	"int8\000"
 4744      00
 4745              	.LASF193:
 4746 02cd 53454C45 		.ascii	"SELECT_OR_RESELECT_FAILURE\000"
 4746      43545F4F 
 4746      525F5245 
 4746      53454C45 
 4746      43545F46 
 4747              	.LASF69:
 4748 02e8 4E4F5F53 		.ascii	"NO_SENSE\000"
 4748      454E5345 
 4748      00
 4749              	.LASF183:
 4750 02f1 5245434F 		.ascii	"RECOVERED_DATA_WITH_RETRIES\000"
 4750      56455245 
 4750      445F4441 
 4750      54415F57 
 4750      4954485F 
 4751              	.LASF64:
 4752 030d 73746172 		.ascii	"startupDelay\000"
 4752      74757044 
 4752      656C6179 
 4752      00
 4753              	.LASF36:
 4754 031a 434F4E46 		.ascii	"CONFIG_OPTICAL\000"
 4754      49475F4F 
 4754      50544943 
 4754      414C00
 4755              	.LASF150:
 4756 0329 4E4F5F49 		.ascii	"NO_INDEX_SECTOR_SIGNAL\000"
 4756      4E444558 
 4756      5F534543 
 4756      544F525F 
 4756      5349474E 
 4757              	.LASF232:
 4758 0340 434F4D50 		.ascii	"COMPAT_SCSI2_DISABLED\000"
 4758      41545F53 
 4758      43534932 
 4758      5F444953 
 4758      41424C45 
 4759              	.LASF223:
 4760 0356 4D455353 		.ascii	"MESSAGE_IN\000"
 4760      4147455F 
 4760      494E00
 4761              	.LASF250:
 4762 0361 70686173 		.ascii	"phase\000"
 4762      6500
 4763              	.LASF3:
ARM GAS  C:\Users\r\AppData\Local\Temp\cc0NugVx.s 			page 101


 4764 0367 5F5F7569 		.ascii	"__uint8_t\000"
 4764      6E74385F 
 4764      7400
 4765              	.LASF179:
 4766 0371 5245434F 		.ascii	"RECOVERED_DATA_WITH_ERROR_CORRECTION_APPLIED\000"
 4766      56455245 
 4766      445F4441 
 4766      54415F57 
 4766      4954485F 
 4767              	.LASF215:
 4768 039e 4255535F 		.ascii	"BUS_BUSY\000"
 4768      42555359 
 4768      00
 4769              	.LASF260:
 4770 03a7 6D736749 		.ascii	"msgIn\000"
 4770      6E00
 4771              	.LASF234:
 4772 03ad 4C697665 		.ascii	"LiveCfg\000"
 4772      43666700 
 4773              	.LASF162:
 4774 03b5 50415241 		.ascii	"PARAMETERS_CHANGED\000"
 4774      4D455445 
 4774      52535F43 
 4774      48414E47 
 4774      454400
 4775              	.LASF7:
 4776 03c8 6C6F6E67 		.ascii	"long int\000"
 4776      20696E74 
 4776      00
 4777              	.LASF41:
 4778 03d1 434F4E46 		.ascii	"CONFIG_QUIRKS_APPLE\000"
 4778      49475F51 
 4778      5549524B 
 4778      535F4150 
 4778      504C4500 
 4779              	.LASF242:
 4780 03e5 74617267 		.ascii	"targets\000"
 4780      65747300 
 4781              	.LASF204:
 4782 03ed 554E5245 		.ascii	"UNRECOVERED_READ_ERROR_RECOMMEND_REWRITE_THE_DATA\000"
 4782      434F5645 
 4782      5245445F 
 4782      52454144 
 4782      5F455252 
 4783              	.LASF72:
 4784 041f 4D454449 		.ascii	"MEDIUM_ERROR\000"
 4784      554D5F45 
 4784      52524F52 
 4784      00
 4785              	.LASF198:
 4786 042c 54485245 		.ascii	"THRESHOLD_CONDITION_MET\000"
 4786      53484F4C 
 4786      445F434F 
 4786      4E444954 
 4786      494F4E5F 
 4787              	.LASF190:
 4788 0444 53415649 		.ascii	"SAVING_PARAMETERS_NOT_SUPPORTED\000"
ARM GAS  C:\Users\r\AppData\Local\Temp\cc0NugVx.s 			page 102


 4788      4E475F50 
 4788      4152414D 
 4788      45544552 
 4788      535F4E4F 
 4789              	.LASF284:
 4790 0464 70616765 		.ascii	"pageSize\000"
 4790      53697A65 
 4790      00
 4791              	.LASF235:
 4792 046d 74617267 		.ascii	"targetId\000"
 4792      65744964 
 4792      00
 4793              	.LASF240:
 4794 0476 72657365 		.ascii	"reserverId\000"
 4794      72766572 
 4794      496400
 4795              	.LASF111:
 4796 0481 494E4954 		.ascii	"INITIATOR_DETECTED_ERROR_MESSAGE_RECEIVED\000"
 4796      4941544F 
 4796      525F4445 
 4796      54454354 
 4796      45445F45 
 4797              	.LASF103:
 4798 04ab 4552524F 		.ascii	"ERROR_LOG_OVERFLOW\000"
 4798      525F4C4F 
 4798      475F4F56 
 4798      4552464C 
 4798      4F5700
 4799              	.LASF294:
 4800 04be 68656164 		.ascii	"head\000"
 4800      00
 4801              	.LASF180:
 4802 04c3 5245434F 		.ascii	"RECOVERED_DATA_WITH_NEGATIVE_HEAD_OFFSET\000"
 4802      56455245 
 4802      445F4441 
 4802      54415F57 
 4802      4954485F 
 4803              	.LASF121:
 4804 04ec 4C4F475F 		.ascii	"LOG_LIST_CODES_EXHAUSTED\000"
 4804      4C495354 
 4804      5F434F44 
 4804      45535F45 
 4804      58484155 
 4805              	.LASF0:
 4806 0505 7369676E 		.ascii	"signed char\000"
 4806      65642063 
 4806      68617200 
 4807              	.LASF13:
 4808 0511 75696E74 		.ascii	"uint8_t\000"
 4808      385F7400 
 4809              	.LASF40:
 4810 0519 434F4E46 		.ascii	"CONFIG_QUIRKS_NONE\000"
 4810      49475F51 
 4810      5549524B 
 4810      535F4E4F 
 4810      4E4500
 4811              	.LASF218:
ARM GAS  C:\Users\r\AppData\Local\Temp\cc0NugVx.s 			page 103


 4812 052c 52455345 		.ascii	"RESELECTION\000"
 4812      4C454354 
 4812      494F4E00 
 4813              	.LASF230:
 4814 0538 434F4D50 		.ascii	"COMPAT_UNKNOWN\000"
 4814      41545F55 
 4814      4E4B4E4F 
 4814      574E00
 4815              	.LASF248:
 4816 0547 70617269 		.ascii	"parityError\000"
 4816      74794572 
 4816      726F7200 
 4817              	.LASF167:
 4818 0553 504F5745 		.ascii	"POWER_ON_OR_SELF_TEST_FAILURE\000"
 4818      525F4F4E 
 4818      5F4F525F 
 4818      53454C46 
 4818      5F544553 
 4819              	.LASF98:
 4820 0571 44454645 		.ascii	"DEFECT_LIST_ERROR_IN_GROWN_LIST\000"
 4820      43545F4C 
 4820      4953545F 
 4820      4552524F 
 4820      525F494E 
 4821              	.LASF1:
 4822 0591 756E7369 		.ascii	"unsigned char\000"
 4822      676E6564 
 4822      20636861 
 4822      7200
 4823              	.LASF108:
 4824 059f 49445F43 		.ascii	"ID_CRC_OR_ECC_ERROR\000"
 4824      52435F4F 
 4824      525F4543 
 4824      435F4552 
 4824      524F5200 
 4825              	.LASF65:
 4826 05b3 73656C65 		.ascii	"selectionDelay\000"
 4826      6374696F 
 4826      6E44656C 
 4826      617900
 4827              	.LASF134:
 4828 05c2 4C4F4749 		.ascii	"LOGICAL_UNIT_NOT_READY_MANUAL_INTERVENTION_REQUIRED"
 4828      43414C5F 
 4828      554E4954 
 4828      5F4E4F54 
 4828      5F524541 
 4829 05f5 00       		.ascii	"\000"
 4830              	.LASF297:
 4831 05f6 626C6F63 		.ascii	"blockDescLen\000"
 4831      6B446573 
 4831      634C656E 
 4831      00
 4832              	.LASF310:
 4833 0603 436F6E74 		.ascii	"ControlModePage\000"
 4833      726F6C4D 
 4833      6F646550 
 4833      61676500 
ARM GAS  C:\Users\r\AppData\Local\Temp\cc0NugVx.s 			page 104


 4834              	.LASF172:
 4835 0613 5245434F 		.ascii	"RECORD_NOT_FOUND\000"
 4835      52445F4E 
 4835      4F545F46 
 4835      4F554E44 
 4835      00
 4836              	.LASF23:
 4837 0624 63686172 		.ascii	"char\000"
 4837      00
 4838              	.LASF126:
 4839 0629 4C4F4749 		.ascii	"LOGICAL_UNIT_COMMUNICATION_TIMEOUT\000"
 4839      43414C5F 
 4839      554E4954 
 4839      5F434F4D 
 4839      4D554E49 
 4840              	.LASF60:
 4841 064c 756E7573 		.ascii	"unused\000"
 4841      656400
 4842              	.LASF136:
 4843 0653 4D454348 		.ascii	"MECHANICAL_POSITIONING_ERROR\000"
 4843      414E4943 
 4843      414C5F50 
 4843      4F534954 
 4843      494F4E49 
 4844              	.LASF157:
 4845 0670 4F504552 		.ascii	"OPERATOR_SELECTED_WRITE_PROTECT\000"
 4845      41544F52 
 4845      5F53454C 
 4845      45435445 
 4845      445F5752 
 4846              	.LASF106:
 4847 0690 47524F57 		.ascii	"GROWN_DEFECT_LIST_NOT_FOUND\000"
 4847      4E5F4445 
 4847      46454354 
 4847      5F4C4953 
 4847      545F4E4F 
 4848              	.LASF174:
 4849 06ac 5245434F 		.ascii	"RECOVERED_DATA_DATA_AUTO_REALLOCATED\000"
 4849      56455245 
 4849      445F4441 
 4849      54415F44 
 4849      4154415F 
 4850              	.LASF4:
 4851 06d1 5F5F7569 		.ascii	"__uint16_t\000"
 4851      6E743136 
 4851      5F7400
 4852              	.LASF31:
 4853 06dc 434F4E46 		.ascii	"CONFIG_ENABLE_DISCONNECT\000"
 4853      49475F45 
 4853      4E41424C 
 4853      455F4449 
 4853      53434F4E 
 4854              	.LASF227:
 4855 06f5 42555359 		.ascii	"BUSY\000"
 4855      00
 4856              	.LASF74:
 4857 06fa 494C4C45 		.ascii	"ILLEGAL_REQUEST\000"
ARM GAS  C:\Users\r\AppData\Local\Temp\cc0NugVx.s 			page 105


 4857      47414C5F 
 4857      52455155 
 4857      45535400 
 4858              	.LASF63:
 4859 070a 666C6167 		.ascii	"flags\000"
 4859      7300
 4860              	.LASF255:
 4861 0710 6364624C 		.ascii	"cdbLen\000"
 4861      656E00
 4862              	.LASF292:
 4863 0717 64656E73 		.ascii	"density\000"
 4863      69747900 
 4864              	.LASF30:
 4865 071f 434F4E46 		.ascii	"CONFIG_ENABLE_CACHE\000"
 4865      49475F45 
 4865      4E41424C 
 4865      455F4341 
 4865      43484500 
 4866              	.LASF144:
 4867 0733 4D495343 		.ascii	"MISCORRECTED_ERROR\000"
 4867      4F525245 
 4867      43544544 
 4867      5F455252 
 4867      4F5200
 4868              	.LASF296:
 4869 0746 646F4D6F 		.ascii	"doModeSelect\000"
 4869      64655365 
 4869      6C656374 
 4869      00
 4870              	.LASF185:
 4871 0753 5245434F 		.ascii	"RECOVERED_DATA_WITHOUT_ECC_RECOMMEND_REASSIGNMENT\000"
 4871      56455245 
 4871      445F4441 
 4871      54415F57 
 4871      4954484F 
 4872              	.LASF113:
 4873 0785 494E5445 		.ascii	"INTERNAL_TARGET_FAILURE\000"
 4873      524E414C 
 4873      5F544152 
 4873      4745545F 
 4873      4641494C 
 4874              	.LASF26:
 4875 079d 434F4E46 		.ascii	"CONFIG_ENABLE_UNIT_ATTENTION\000"
 4875      49475F45 
 4875      4E41424C 
 4875      455F554E 
 4875      49545F41 
 4876              	.LASF45:
 4877 07ba 64657669 		.ascii	"deviceType\000"
 4877      63655479 
 4877      706500
 4878              	.LASF57:
 4879 07c5 71756972 		.ascii	"quirks\000"
 4879      6B7300
 4880              	.LASF100:
 4881 07cc 44454645 		.ascii	"DEFECT_LIST_NOT_AVAILABLE\000"
 4881      43545F4C 
ARM GAS  C:\Users\r\AppData\Local\Temp\cc0NugVx.s 			page 106


 4881      4953545F 
 4881      4E4F545F 
 4881      41564149 
 4882              	.LASF168:
 4883 07e6 5052494D 		.ascii	"PRIMARY_DEFECT_LIST_NOT_FOUND\000"
 4883      4152595F 
 4883      44454645 
 4883      43545F4C 
 4883      4953545F 
 4884              	.LASF239:
 4885 0804 72657365 		.ascii	"reservedId\000"
 4885      72766564 
 4885      496400
 4886              	.LASF84:
 4887 080f 52455345 		.ascii	"RESERVED\000"
 4887      52564544 
 4887      00
 4888              	.LASF76:
 4889 0818 44415441 		.ascii	"DATA_PROTECT\000"
 4889      5F50524F 
 4889      54454354 
 4889      00
 4890              	.LASF47:
 4891 0825 64657669 		.ascii	"deviceTypeModifier\000"
 4891      63655479 
 4891      70654D6F 
 4891      64696669 
 4891      657200
 4892              	.LASF91:
 4893 0838 434F4D4D 		.ascii	"COMMAND_SEQUENCE_ERROR\000"
 4893      414E445F 
 4893      53455155 
 4893      454E4345 
 4893      5F455252 
 4894              	.LASF300:
 4895 084f 4F706572 		.ascii	"OperatingPage\000"
 4895      6174696E 
 4895      67506167 
 4895      6500
 4896              	.LASF203:
 4897 085d 554E5245 		.ascii	"UNRECOVERED_READ_ERROR_RECOMMEND_REASSIGNMENT\000"
 4897      434F5645 
 4897      5245445F 
 4897      52454144 
 4897      5F455252 
 4898              	.LASF236:
 4899 088b 6C697665 		.ascii	"liveCfg\000"
 4899      43666700 
 4900              	.LASF269:
 4901 0893 6C617374 		.ascii	"lastSense\000"
 4901      53656E73 
 4901      6500
 4902              	.LASF291:
 4903 089d 64657669 		.ascii	"deviceSpecificParam\000"
 4903      63655370 
 4903      65636966 
 4903      69635061 
ARM GAS  C:\Users\r\AppData\Local\Temp\cc0NugVx.s 			page 107


 4903      72616D00 
 4904              	.LASF216:
 4905 08b1 41524249 		.ascii	"ARBITRATION\000"
 4905      54524154 
 4905      494F4E00 
 4906              	.LASF146:
 4907 08bd 4D554C54 		.ascii	"MULTIPLE_PERIPHERAL_DEVICES_SELECTED\000"
 4907      49504C45 
 4907      5F504552 
 4907      49504845 
 4907      52414C5F 
 4908              	.LASF315:
 4909 08e2 626C6F63 		.ascii	"blockDev\000"
 4909      6B446576 
 4909      00
 4910              	.LASF118:
 4911 08eb 494E5641 		.ascii	"INVALID_MESSAGE_ERROR\000"
 4911      4C49445F 
 4911      4D455353 
 4911      4147455F 
 4911      4552524F 
 4912              	.LASF312:
 4913 0901 4170706C 		.ascii	"AppleVendorPage\000"
 4913      6556656E 
 4913      646F7250 
 4913      61676500 
 4914              	.LASF197:
 4915 0911 54415247 		.ascii	"TARGET_OPERATING_CONDITIONS_HAVE_CHANGED\000"
 4915      45545F4F 
 4915      50455241 
 4915      54494E47 
 4915      5F434F4E 
 4916              	.LASF258:
 4917 093a 696E6974 		.ascii	"initiatorId\000"
 4917      6961746F 
 4917      72496400 
 4918              	.LASF265:
 4919 0946 72737443 		.ascii	"rstCount\000"
 4919      6F756E74 
 4919      00
 4920              	.LASF9:
 4921 094f 6C6F6E67 		.ascii	"long unsigned int\000"
 4921      20756E73 
 4921      69676E65 
 4921      6420696E 
 4921      7400
 4922              	.LASF164:
 4923 0961 504F5349 		.ascii	"POSITIONING_ERROR_DETECTED_BY_READ_OF_MEDIUM\000"
 4923      54494F4E 
 4923      494E475F 
 4923      4552524F 
 4923      525F4445 
 4924              	.LASF67:
 4925 098e 73637369 		.ascii	"scsiSpeed\000"
 4925      53706565 
 4925      6400
 4926              	.LASF170:
ARM GAS  C:\Users\r\AppData\Local\Temp\cc0NugVx.s 			page 108


 4927 0998 52414E44 		.ascii	"RANDOM_POSITIONING_ERROR\000"
 4927      4F4D5F50 
 4927      4F534954 
 4927      494F4E49 
 4927      4E475F45 
 4928              	.LASF200:
 4929 09b1 54524143 		.ascii	"TRACK_FOLLOWING_ERROR\000"
 4929      4B5F464F 
 4929      4C4C4F57 
 4929      494E475F 
 4929      4552524F 
 4930              	.LASF259:
 4931 09c7 73746174 		.ascii	"status\000"
 4931      757300
 4932              	.LASF243:
 4933 09ce 74617267 		.ascii	"target\000"
 4933      657400
 4934              	.LASF166:
 4935 09d5 504F5745 		.ascii	"POWER_ON_RESET\000"
 4935      525F4F4E 
 4935      5F524553 
 4935      455400
 4936              	.LASF90:
 4937 09e4 434F4D4D 		.ascii	"COMMAND_PHASE_ERROR\000"
 4937      414E445F 
 4937      50484153 
 4937      455F4552 
 4937      524F5200 
 4938              	.LASF89:
 4939 09f8 4348414E 		.ascii	"CHANGED_OPERATING_DEFINITION\000"
 4939      4745445F 
 4939      4F504552 
 4939      4154494E 
 4939      475F4445 
 4940              	.LASF184:
 4941 0a15 5245434F 		.ascii	"RECOVERED_DATA_WITHOUT_ECC_DATA_AUTO_REALLOCATED\000"
 4941      56455245 
 4941      445F4441 
 4941      54415F57 
 4941      4954484F 
 4942              	.LASF93:
 4943 0a46 434F5059 		.ascii	"COPY_CANNOT_EXECUTE_SINCE_HOST_CANNOT_DISCONNECT\000"
 4943      5F43414E 
 4943      4E4F545F 
 4943      45584543 
 4943      5554455F 
 4944              	.LASF263:
 4945 0a77 636D6443 		.ascii	"cmdCount\000"
 4945      6F756E74 
 4945      00
 4946              	.LASF264:
 4947 0a80 73656C43 		.ascii	"selCount\000"
 4947      6F756E74 
 4947      00
 4948              	.LASF135:
 4949 0a89 4C4F4749 		.ascii	"LOGICAL_UNIT_NOT_SUPPORTED\000"
 4949      43414C5F 
ARM GAS  C:\Users\r\AppData\Local\Temp\cc0NugVx.s 			page 109


 4949      554E4954 
 4949      5F4E4F54 
 4949      5F535550 
 4950              	.LASF56:
 4951 0aa4 73657269 		.ascii	"serial\000"
 4951      616C00
 4952              	.LASF252:
 4953 0aab 64617461 		.ascii	"dataPtr\000"
 4953      50747200 
 4954              	.LASF116:
 4955 0ab3 494E5641 		.ascii	"INVALID_FIELD_IN_CDB\000"
 4955      4C49445F 
 4955      4649454C 
 4955      445F494E 
 4955      5F434442 
 4956              	.LASF158:
 4957 0ac8 4F564552 		.ascii	"OVERLAPPED_COMMANDS_ATTEMPTED\000"
 4957      4C415050 
 4957      45445F43 
 4957      4F4D4D41 
 4957      4E44535F 
 4958              	.LASF225:
 4959 0ae6 474F4F44 		.ascii	"GOOD\000"
 4959      00
 4960              	.LASF301:
 4961 0aeb 52656164 		.ascii	"ReadWriteErrorRecoveryPage\000"
 4961      57726974 
 4961      65457272 
 4961      6F725265 
 4961      636F7665 
 4962              	.LASF316:
 4963 0b06 474E5520 		.ascii	"GNU C11 5.4.1 20160609 (release) [ARM/embedded-5-br"
 4963      43313120 
 4963      352E342E 
 4963      31203230 
 4963      31363036 
 4964 0b39 616E6368 		.ascii	"anch revision 237715] -mcpu=cortex-m3 -mthumb -g -O"
 4964      20726576 
 4964      6973696F 
 4964      6E203233 
 4964      37373135 
 4965 0b6c 30202D66 		.ascii	"0 -ffunction-sections -ffat-lto-objects\000"
 4965      66756E63 
 4965      74696F6E 
 4965      2D736563 
 4965      74696F6E 
 4966              	.LASF44:
 4967 0b94 73637369 		.ascii	"scsiId\000"
 4967      496400
 4968              	.LASF287:
 4969 0b9b 646F4D6F 		.ascii	"doModeSense\000"
 4969      64655365 
 4969      6E736500 
 4970              	.LASF188:
 4971 0ba7 524F554E 		.ascii	"ROUNDED_PARAMETER\000"
 4971      4445445F 
 4971      50415241 
ARM GAS  C:\Users\r\AppData\Local\Temp\cc0NugVx.s 			page 110


 4971      4D455445 
 4971      5200
 4972              	.LASF80:
 4973 0bb9 41424F52 		.ascii	"ABORTED_COMMAND\000"
 4973      5445445F 
 4973      434F4D4D 
 4973      414E4400 
 4974              	.LASF307:
 4975 0bc9 466C6578 		.ascii	"FlexibleDiskDriveGeometry\000"
 4975      69626C65 
 4975      4469736B 
 4975      44726976 
 4975      6547656F 
 4976              	.LASF177:
 4977 0be3 5245434F 		.ascii	"RECOVERED_DATA_USING_PREVIOUS_SECTOR_ID\000"
 4977      56455245 
 4977      445F4441 
 4977      54415F55 
 4977      53494E47 
 4978              	.LASF8:
 4979 0c0b 5F5F7569 		.ascii	"__uint32_t\000"
 4979      6E743332 
 4979      5F7400
 4980              	.LASF178:
 4981 0c16 5245434F 		.ascii	"RECOVERED_DATA_WITH_ERROR_CORRECTION_RETRIES_APPLIE"
 4981      56455245 
 4981      445F4441 
 4981      54415F57 
 4981      4954485F 
 4982 0c49 4400     		.ascii	"D\000"
 4983              	.LASF10:
 4984 0c4b 6C6F6E67 		.ascii	"long long int\000"
 4984      206C6F6E 
 4984      6720696E 
 4984      7400
 4985              	.LASF272:
 4986 0c59 4449534B 		.ascii	"DISK_STARTED\000"
 4986      5F535441 
 4986      52544544 
 4986      00
 4987              	.LASF97:
 4988 0c66 44454645 		.ascii	"DEFECT_LIST_ERROR\000"
 4988      43545F4C 
 4988      4953545F 
 4988      4552524F 
 4988      5200
 4989              	.LASF96:
 4990 0c78 44415441 		.ascii	"DATA_SYNCHRONIZATION_MARK_ERROR\000"
 4990      5F53594E 
 4990      4348524F 
 4990      4E495A41 
 4990      54494F4E 
 4991              	.LASF42:
 4992 0c98 434F4E46 		.ascii	"CONFIG_QUIRKS_OMTI\000"
 4992      49475F51 
 4992      5549524B 
 4992      535F4F4D 
ARM GAS  C:\Users\r\AppData\Local\Temp\cc0NugVx.s 			page 111


 4992      544900
 4993              	.LASF85:
 4994 0cab 41444452 		.ascii	"ADDRESS_MARK_NOT_FOUND_FOR_DATA_FIELD\000"
 4994      4553535F 
 4994      4D41524B 
 4994      5F4E4F54 
 4994      5F464F55 
 4995              	.LASF92:
 4996 0cd1 434F4D4D 		.ascii	"COMMANDS_CLEARED_BY_ANOTHER_INITIATOR\000"
 4996      414E4453 
 4996      5F434C45 
 4996      41524544 
 4996      5F42595F 
 4997              	.LASF22:
 4998 0cf7 646F7562 		.ascii	"double\000"
 4998      6C6500
 4999              	.LASF131:
 5000 0cfe 4C4F4749 		.ascii	"LOGICAL_UNIT_NOT_READY_CAUSE_NOT_REPORTABLE\000"
 5000      43414C5F 
 5000      554E4954 
 5000      5F4E4F54 
 5000      5F524541 
 5001              	.LASF278:
 5002 0d2a 64617461 		.ascii	"dataIdx\000"
 5002      49647800 
 5003              	.LASF94:
 5004 0d32 44415441 		.ascii	"DATA_PATH_FAILURE\000"
 5004      5F504154 
 5004      485F4641 
 5004      494C5552 
 5004      4500
 5005              	.LASF129:
 5006 0d44 4C4F4749 		.ascii	"LOGICAL_UNIT_HAS_NOT_SELF_CONFIGURED_YET\000"
 5006      43414C5F 
 5006      554E4954 
 5006      5F484153 
 5006      5F4E4F54 
 5007              	.LASF139:
 5008 0d6d 4D454449 		.ascii	"MEDIUM_NOT_PRESENT\000"
 5008      554D5F4E 
 5008      4F545F50 
 5008      52455345 
 5008      4E5400
 5009              	.LASF257:
 5010 0d80 636F6D70 		.ascii	"compatMode\000"
 5010      61744D6F 
 5010      646500
 5011              	.LASF313:
 5012 0d8b 49544D5F 		.ascii	"ITM_RxBuffer\000"
 5012      52784275 
 5012      66666572 
 5012      00
 5013              	.LASF196:
 5014 0d98 53594E43 		.ascii	"SYNCHRONOUS_DATA_TRANSFER_ERROR\000"
 5014      48524F4E 
 5014      4F55535F 
 5014      44415441 
ARM GAS  C:\Users\r\AppData\Local\Temp\cc0NugVx.s 			page 112


 5014      5F545241 
 5015              	.LASF192:
 5016 0db8 53435349 		.ascii	"SCSI_PARITY_ERROR\000"
 5016      5F504152 
 5016      4954595F 
 5016      4552524F 
 5016      5200
 5017              	.LASF32:
 5018 0dca 434F4E46 		.ascii	"CONFIG_ENABLE_SEL_LATCH\000"
 5018      49475F45 
 5018      4E41424C 
 5018      455F5345 
 5018      4C5F4C41 
 5019              	.LASF21:
 5020 0de2 666C6F61 		.ascii	"float\000"
 5020      7400
 5021              	.LASF275:
 5022 0de8 4449534B 		.ascii	"DISK_WP\000"
 5022      5F575000 
 5023              	.LASF137:
 5024 0df0 4D454449 		.ascii	"MEDIA_LOAD_OR_EJECT_FAILED\000"
 5024      415F4C4F 
 5024      41445F4F 
 5024      525F454A 
 5024      4543545F 
 5025              	.LASF12:
 5026 0e0b 756E7369 		.ascii	"unsigned int\000"
 5026      676E6564 
 5026      20696E74 
 5026      00
 5027              	.LASF295:
 5028 0e18 73656374 		.ascii	"sector\000"
 5028      6F7200
 5029              	.LASF78:
 5030 0e1f 56454E44 		.ascii	"VENDOR_SPECIFIC\000"
 5030      4F525F53 
 5030      50454349 
 5030      46494300 
 5031              	.LASF82:
 5032 0e2f 564F4C55 		.ascii	"VOLUME_OVERFLOW\000"
 5032      4D455F4F 
 5032      56455246 
 5032      4C4F5700 
 5033              	.LASF224:
 5034 0e3f 4D455353 		.ascii	"MESSAGE_OUT\000"
 5034      4147455F 
 5034      4F555400 
 5035              	.LASF153:
 5036 0e4b 4E4F545F 		.ascii	"NOT_READY_TO_READY_TRANSITION_MEDIUM_MAY_HAVE_CHANG"
 5036      52454144 
 5036      595F544F 
 5036      5F524541 
 5036      44595F54 
 5037 0e7e 454400   		.ascii	"ED\000"
 5038              	.LASF314:
 5039 0e81 73637369 		.ascii	"scsiDev\000"
 5039      44657600 
ARM GAS  C:\Users\r\AppData\Local\Temp\cc0NugVx.s 			page 113


 5040              	.LASF191:
 5041 0e89 53435349 		.ascii	"SCSI_BUS_RESET\000"
 5041      5F425553 
 5041      5F524553 
 5041      455400
 5042              	.LASF165:
 5043 0e98 504F5745 		.ascii	"POWER_ON_RESET_OR_BUS_DEVICE_RESET_OCCURRED\000"
 5043      525F4F4E 
 5043      5F524553 
 5043      45545F4F 
 5043      525F4255 
 5044              	.LASF160:
 5045 0ec4 50415241 		.ascii	"PARAMETER_NOT_SUPPORTED\000"
 5045      4D455445 
 5045      525F4E4F 
 5045      545F5355 
 5045      50504F52 
 5046              	.LASF281:
 5047 0edc 70616765 		.ascii	"pageCode\000"
 5047      436F6465 
 5047      00
 5048              	.LASF169:
 5049 0ee5 52414D5F 		.ascii	"RAM_FAILURE\000"
 5049      4641494C 
 5049      55524500 
 5050              	.LASF119:
 5051 0ef1 4C4F475F 		.ascii	"LOG_COUNTER_AT_MAXIMUM\000"
 5051      434F554E 
 5051      5445525F 
 5051      41545F4D 
 5051      4158494D 
 5052              	.LASF267:
 5053 0f08 77617463 		.ascii	"watchdogTick\000"
 5053      68646F67 
 5053      5469636B 
 5053      00
 5054              	.LASF201:
 5055 0f15 554E5245 		.ascii	"UNRECOVERED_READ_ERROR\000"
 5055      434F5645 
 5055      5245445F 
 5055      52454144 
 5055      5F455252 
 5056              	.LASF268:
 5057 0f2c 6C617374 		.ascii	"lastStatus\000"
 5057      53746174 
 5057      757300
 5058              	.LASF217:
 5059 0f37 53454C45 		.ascii	"SELECTION\000"
 5059      4354494F 
 5059      4E00
 5060              	.LASF125:
 5061 0f41 4C4F4749 		.ascii	"LOGICAL_UNIT_COMMUNICATION_PARITY_ERROR\000"
 5061      43414C5F 
 5061      554E4954 
 5061      5F434F4D 
 5061      4D554E49 
 5062              	.LASF51:
ARM GAS  C:\Users\r\AppData\Local\Temp\cc0NugVx.s 			page 114


 5063 0f69 73656374 		.ascii	"sectorsPerTrack\000"
 5063      6F727350 
 5063      65725472 
 5063      61636B00 
 5064              	.LASF37:
 5065 0f79 434F4E46 		.ascii	"CONFIG_FLOPPY_14MB\000"
 5065      49475F46 
 5065      4C4F5050 
 5065      595F3134 
 5065      4D4200
 5066              	.LASF147:
 5067 0f8c 4D554C54 		.ascii	"MULTIPLE_READ_ERRORS\000"
 5067      49504C45 
 5067      5F524541 
 5067      445F4552 
 5067      524F5253 
 5068              	.LASF317:
 5069 0fa1 2E2E5C2E 		.ascii	"..\\..\\src\\mode.c\000"
 5069      2E5C7372 
 5069      635C6D6F 
 5069      64652E63 
 5069      00
 5070              	.LASF140:
 5071 0fb2 4D454449 		.ascii	"MEDIUM_REMOVAL_PREVENTED\000"
 5071      554D5F52 
 5071      454D4F56 
 5071      414C5F50 
 5071      52455645 
 5072              	.LASF274:
 5073 0fcb 4449534B 		.ascii	"DISK_INITIALISED\000"
 5073      5F494E49 
 5073      5449414C 
 5073      49534544 
 5073      00
 5074              	.LASF71:
 5075 0fdc 4E4F545F 		.ascii	"NOT_READY\000"
 5075      52454144 
 5075      5900
 5076              	.LASF173:
 5077 0fe6 5245434F 		.ascii	"RECORDED_ENTITY_NOT_FOUND\000"
 5077      52444544 
 5077      5F454E54 
 5077      4954595F 
 5077      4E4F545F 
 5078              	.LASF262:
 5079 1000 706F7374 		.ascii	"postDataOutHook\000"
 5079      44617461 
 5079      4F757448 
 5079      6F6F6B00 
 5080              	.LASF256:
 5081 1010 64697363 		.ascii	"discPriv\000"
 5081      50726976 
 5081      00
 5082              	.LASF149:
 5083 1019 4E4F5F44 		.ascii	"NO_DEFECT_SPARE_LOCATION_AVAILABLE\000"
 5083      45464543 
 5083      545F5350 
ARM GAS  C:\Users\r\AppData\Local\Temp\cc0NugVx.s 			page 115


 5083      4152455F 
 5083      4C4F4341 
 5084              	.LASF311:
 5085 103c 53657175 		.ascii	"SequentialDeviceConfigPage\000"
 5085      656E7469 
 5085      616C4465 
 5085      76696365 
 5085      436F6E66 
 5086              	.LASF246:
 5087 1057 72657365 		.ascii	"resetFlag\000"
 5087      74466C61 
 5087      6700
 5088              	.LASF228:
 5089 1061 494E5445 		.ascii	"INTERMEDIATE\000"
 5089      524D4544 
 5089      49415445 
 5089      00
 5090              	.LASF233:
 5091 106e 434F4D50 		.ascii	"COMPAT_SCSI2\000"
 5091      41545F53 
 5091      43534932 
 5091      00
 5092              	.LASF303:
 5093 107b 44697363 		.ascii	"DisconnectReconnectPage\000"
 5093      6F6E6E65 
 5093      63745265 
 5093      636F6E6E 
 5093      65637450 
 5094              	.LASF270:
 5095 1093 6C617374 		.ascii	"lastSenseASC\000"
 5095      53656E73 
 5095      65415343 
 5095      00
 5096              	.LASF24:
 5097 10a0 6C6F6E67 		.ascii	"long double\000"
 5097      20646F75 
 5097      626C6500 
 5098              	.LASF66:
 5099 10ac 666C6167 		.ascii	"flags6\000"
 5099      733600
 5100              	.LASF49:
 5101 10b3 73637369 		.ascii	"scsiSectors\000"
 5101      53656374 
 5101      6F727300 
 5102              	.LASF123:
 5103 10bf 4C4F4749 		.ascii	"LOGICAL_BLOCK_ADDRESS_OUT_OF_RANGE\000"
 5103      43414C5F 
 5103      424C4F43 
 5103      4B5F4144 
 5103      44524553 
 5104              	.LASF38:
 5105 10e2 434F4E46 		.ascii	"CONFIG_MO\000"
 5105      49475F4D 
 5105      4F00
 5106              	.LASF101:
 5107 10ec 44454645 		.ascii	"DEFECT_LIST_NOT_FOUND\000"
 5107      43545F4C 
ARM GAS  C:\Users\r\AppData\Local\Temp\cc0NugVx.s 			page 116


 5107      4953545F 
 5107      4E4F545F 
 5107      464F554E 
 5108              	.LASF221:
 5109 1102 44415441 		.ascii	"DATA_IN\000"
 5109      5F494E00 
 5110              	.LASF161:
 5111 110a 50415241 		.ascii	"PARAMETER_VALUE_INVALID\000"
 5111      4D455445 
 5111      525F5641 
 5111      4C55455F 
 5111      494E5641 
 5112              	.LASF83:
 5113 1122 4D495343 		.ascii	"MISCOMPARE\000"
 5113      4F4D5041 
 5113      524500
 5114              	.LASF156:
 5115 112d 4F504552 		.ascii	"OPERATOR_SELECTED_WRITE_PERMIT\000"
 5115      41544F52 
 5115      5F53454C 
 5115      45435445 
 5115      445F5752 
 5116              	.LASF29:
 5117 114c 434F4E46 		.ascii	"CONFIG_DISABLE_GLITCH\000"
 5117      49475F44 
 5117      49534142 
 5117      4C455F47 
 5117      4C495443 
 5118              	.LASF48:
 5119 1162 73645365 		.ascii	"sdSectorStart\000"
 5119      63746F72 
 5119      53746172 
 5119      7400
 5120              	.LASF50:
 5121 1170 62797465 		.ascii	"bytesPerSector\000"
 5121      73506572 
 5121      53656374 
 5121      6F7200
 5122              	.LASF186:
 5123 117f 5245434F 		.ascii	"RECOVERED_DATA_WITHOUT_ECC_RECOMMEND_REWRITE\000"
 5123      56455245 
 5123      445F4441 
 5123      54415F57 
 5123      4954484F 
 5124              	.LASF318:
 5125 11ac 433A5C55 		.ascii	"C:\\Users\\r\\Documents\\Data Sheets\\apple\\SCSI2S"
 5125      73657273 
 5125      5C725C44 
 5125      6F63756D 
 5125      656E7473 
 5126 11d9 445C5343 		.ascii	"D\\SCSI2SD_Copy_01.cydsn\000"
 5126      53493253 
 5126      445F436F 
 5126      70795F30 
 5126      312E6379 
 5127              	.LASF55:
 5128 11f1 72657669 		.ascii	"revision\000"
ARM GAS  C:\Users\r\AppData\Local\Temp\cc0NugVx.s 			page 117


 5128      73696F6E 
 5128      00
 5129              	.LASF11:
 5130 11fa 6C6F6E67 		.ascii	"long long unsigned int\000"
 5130      206C6F6E 
 5130      6720756E 
 5130      7369676E 
 5130      65642069 
 5131              	.LASF154:
 5132 1211 4F504552 		.ascii	"OPERATOR_MEDIUM_REMOVAL_REQUEST\000"
 5132      41544F52 
 5132      5F4D4544 
 5132      49554D5F 
 5132      52454D4F 
 5133              	.LASF299:
 5134 1231 636F6D6D 		.ascii	"command\000"
 5134      616E6400 
 5135              	.LASF14:
 5136 1239 75696E74 		.ascii	"uint16_t\000"
 5136      31365F74 
 5136      00
 5137              	.LASF241:
 5138 1242 54617267 		.ascii	"TargetState\000"
 5138      65745374 
 5138      61746500 
 5139              	.LASF109:
 5140 124e 494C4C45 		.ascii	"ILLEGAL_FUNCTION\000"
 5140      47414C5F 
 5140      46554E43 
 5140      54494F4E 
 5140      00
 5141              	.LASF145:
 5142 125f 4D4F4445 		.ascii	"MODE_PARAMETERS_CHANGED\000"
 5142      5F504152 
 5142      414D4554 
 5142      4552535F 
 5142      4348414E 
 5143              	.LASF35:
 5144 1277 434F4E46 		.ascii	"CONFIG_REMOVEABLE\000"
 5144      49475F52 
 5144      454D4F56 
 5144      4541424C 
 5144      4500
 5145              	.LASF163:
 5146 1289 50455249 		.ascii	"PERIPHERAL_DEVICE_WRITE_FAULT\000"
 5146      50484552 
 5146      414C5F44 
 5146      45564943 
 5146      455F5752 
 5147              	.LASF305:
 5148 12a7 466F726D 		.ascii	"FormatDevicePage\000"
 5148      61744465 
 5148      76696365 
 5148      50616765 
 5148      00
 5149              	.LASF143:
 5150 12b8 4D495343 		.ascii	"MISCOMPARE_DURING_VERIFY_OPERATION\000"
ARM GAS  C:\Users\r\AppData\Local\Temp\cc0NugVx.s 			page 118


 5150      4F4D5041 
 5150      52455F44 
 5150      5552494E 
 5150      475F5645 
 5151              	.LASF229:
 5152 12db 434F4E46 		.ascii	"CONFLICT\000"
 5152      4C494354 
 5152      00
 5153              	.LASF171:
 5154 12e4 52454144 		.ascii	"READ_RETRIES_EXHAUSTED\000"
 5154      5F524554 
 5154      52494553 
 5154      5F455848 
 5154      41555354 
 5155              	.LASF142:
 5156 12fb 4D494352 		.ascii	"MICROCODE_HAS_BEEN_CHANGED\000"
 5156      4F434F44 
 5156      455F4841 
 5156      535F4245 
 5156      454E5F43 
 5157              	.LASF212:
 5158 1316 5F5F7363 		.ascii	"__scsiphase_cd\000"
 5158      73697068 
 5158      6173655F 
 5158      636400
 5159              	.LASF159:
 5160 1325 50415241 		.ascii	"PARAMETER_LIST_LENGTH_ERROR\000"
 5160      4D455445 
 5160      525F4C49 
 5160      53545F4C 
 5160      454E4754 
 5161              	.LASF286:
 5162 1341 70616765 		.ascii	"pageIn\000"
 5162      496E00
 5163              	.LASF205:
 5164 1348 554E5355 		.ascii	"UNSUCCESSFUL_SOFT_RESET\000"
 5164      43434553 
 5164      5346554C 
 5164      5F534F46 
 5164      545F5245 
 5165              	.LASF219:
 5166 1360 53544154 		.ascii	"STATUS\000"
 5166      555300
 5167              	.LASF209:
 5168 1367 636F6465 		.ascii	"code\000"
 5168      00
 5169              	.LASF115:
 5170 136c 494E5641 		.ascii	"INVALID_COMMAND_OPERATION_CODE\000"
 5170      4C49445F 
 5170      434F4D4D 
 5170      414E445F 
 5170      4F504552 
 5171              	.LASF128:
 5172 138b 4C4F4749 		.ascii	"LOGICAL_UNIT_FAILED_SELF_CONFIGURATION\000"
 5172      43414C5F 
 5172      554E4954 
 5172      5F464149 
ARM GAS  C:\Users\r\AppData\Local\Temp\cc0NugVx.s 			page 119


 5172      4C45445F 
 5173              	.LASF277:
 5174 13b2 426C6F63 		.ascii	"BlockDevice\000"
 5174      6B446576 
 5174      69636500 
 5175              	.LASF86:
 5176 13be 41444452 		.ascii	"ADDRESS_MARK_NOT_FOUND_FOR_ID_FIELD\000"
 5176      4553535F 
 5176      4D41524B 
 5176      5F4E4F54 
 5176      5F464F55 
 5177              	.LASF207:
 5178 13e2 57524954 		.ascii	"WRITE_ERROR_RECOVERED_WITH_AUTO_REALLOCATION\000"
 5178      455F4552 
 5178      524F525F 
 5178      5245434F 
 5178      56455245 
 5179              	.LASF127:
 5180 140f 4C4F4749 		.ascii	"LOGICAL_UNIT_DOES_NOT_RESPOND_TO_SELECTION\000"
 5180      43414C5F 
 5180      554E4954 
 5180      5F444F45 
 5180      535F4E4F 
 5181              	.LASF279:
 5182 143a 70616765 		.ascii	"pageData\000"
 5182      44617461 
 5182      00
 5183              	.LASF208:
 5184 1443 57524954 		.ascii	"WRITE_PROTECTED\000"
 5184      455F5052 
 5184      4F544543 
 5184      54454400 
 5185              	.LASF220:
 5186 1453 434F4D4D 		.ascii	"COMMAND\000"
 5186      414E4400 
 5187              	.LASF308:
 5188 145b 52696769 		.ascii	"RigidDiskDriveGeometry_SCSI1\000"
 5188      64446973 
 5188      6B447269 
 5188      76654765 
 5188      6F6D6574 
 5189              	.LASF280:
 5190 1478 70616765 		.ascii	"pageLen\000"
 5190      4C656E00 
 5191              	.LASF117:
 5192 1480 494E5641 		.ascii	"INVALID_FIELD_IN_PARAMETER_LIST\000"
 5192      4C49445F 
 5192      4649454C 
 5192      445F494E 
 5192      5F504152 
 5193              	.LASF293:
 5194 14a0 70616765 		.ascii	"pageFound\000"
 5194      466F756E 
 5194      6400
 5195              	.LASF152:
 5196 14aa 4E4F5F53 		.ascii	"NO_SEEK_COMPLETE\000"
 5196      45454B5F 
ARM GAS  C:\Users\r\AppData\Local\Temp\cc0NugVx.s 			page 120


 5196      434F4D50 
 5196      4C455445 
 5196      00
 5197              	.LASF17:
 5198 14bb 75696E74 		.ascii	"uint8\000"
 5198      3800
 5199              	.LASF261:
 5200 14c1 6D73674F 		.ascii	"msgOut\000"
 5200      757400
 5201              	.LASF59:
 5202 14c8 6D6F6465 		.ascii	"modePages\000"
 5202      50616765 
 5202      7300
 5203              	.LASF2:
 5204 14d2 73686F72 		.ascii	"short int\000"
 5204      7420696E 
 5204      7400
 5205              	.LASF79:
 5206 14dc 434F5059 		.ascii	"COPY_ABORTED\000"
 5206      5F41424F 
 5206      52544544 
 5206      00
 5207              	.LASF138:
 5208 14e9 4D454449 		.ascii	"MEDIUM_FORMAT_CORRUPTED\000"
 5208      554D5F46 
 5208      4F524D41 
 5208      545F434F 
 5208      52525550 
 5209              	.LASF105:
 5210 1501 464F524D 		.ascii	"FORMAT_COMMAND_FAILED\000"
 5210      41545F43 
 5210      4F4D4D41 
 5210      4E445F46 
 5210      41494C45 
 5211              	.LASF114:
 5212 1517 494E5641 		.ascii	"INVALID_BITS_IN_IDENTIFY_MESSAGE\000"
 5212      4C49445F 
 5212      42495453 
 5212      5F494E5F 
 5212      4944454E 
 5213              	.LASF195:
 5214 1538 5350494E 		.ascii	"SPINDLES_SYNCHRONIZED\000"
 5214      444C4553 
 5214      5F53594E 
 5214      4348524F 
 5214      4E495A45 
 5215              	.LASF319:
 5216 154e 75736543 		.ascii	"useCustomPages\000"
 5216      7573746F 
 5216      6D506167 
 5216      657300
 5217              	.LASF181:
 5218 155d 5245434F 		.ascii	"RECOVERED_DATA_WITH_NO_ERROR_CORRECTION_APPLIED\000"
 5218      56455245 
 5218      445F4441 
 5218      54415F57 
 5218      4954485F 
ARM GAS  C:\Users\r\AppData\Local\Temp\cc0NugVx.s 			page 121


 5219              	.LASF104:
 5220 158d 4552524F 		.ascii	"ERROR_TOO_LONG_TO_CORRECT\000"
 5220      525F544F 
 5220      4F5F4C4F 
 5220      4E475F54 
 5220      4F5F434F 
 5221              	.LASF222:
 5222 15a7 44415441 		.ascii	"DATA_OUT\000"
 5222      5F4F5554 
 5222      00
 5223              	.LASF75:
 5224 15b0 554E4954 		.ascii	"UNIT_ATTENTION\000"
 5224      5F415454 
 5224      454E5449 
 5224      4F4E00
 5225              	.LASF132:
 5226 15bf 4C4F4749 		.ascii	"LOGICAL_UNIT_NOT_READY_FORMAT_IN_PROGRESS\000"
 5226      43414C5F 
 5226      554E4954 
 5226      5F4E4F54 
 5226      5F524541 
 5227              	.LASF213:
 5228 15e9 5F5F7363 		.ascii	"__scsiphase_io\000"
 5228      73697068 
 5228      6173655F 
 5228      696F00
 5229              	.LASF39:
 5230 15f8 434F4E46 		.ascii	"CONFIG_SEQUENTIAL\000"
 5230      49475F53 
 5230      45515545 
 5230      4E544941 
 5230      4C00
 5231              	.LASF244:
 5232 160a 626F6172 		.ascii	"boardCfg\000"
 5232      64436667 
 5232      00
 5233              	.LASF46:
 5234 1613 666C6167 		.ascii	"flagsDEPRECATED\000"
 5234      73444550 
 5234      52454341 
 5234      54454400 
 5235              	.LASF151:
 5236 1623 4E4F5F52 		.ascii	"NO_REFERENCE_POSITION_FOUND\000"
 5236      45464552 
 5236      454E4345 
 5236      5F504F53 
 5236      4954494F 
 5237              	.LASF87:
 5238 163f 43414E4E 		.ascii	"CANNOT_READ_MEDIUM_INCOMPATIBLE_FORMAT\000"
 5238      4F545F52 
 5238      4541445F 
 5238      4D454449 
 5238      554D5F49 
 5239              	.LASF95:
 5240 1666 44415441 		.ascii	"DATA_PHASE_ERROR\000"
 5240      5F504841 
 5240      53455F45 
ARM GAS  C:\Users\r\AppData\Local\Temp\cc0NugVx.s 			page 122


 5240      52524F52 
 5240      00
 5241              	.LASF120:
 5242 1677 4C4F475F 		.ascii	"LOG_EXCEPTION\000"
 5242      45584345 
 5242      5054494F 
 5242      4E00
 5243              	.LASF309:
 5244 1685 43616368 		.ascii	"CachingPage\000"
 5244      696E6750 
 5244      61676500 
 5245              	.LASF148:
 5246 1691 4E4F5F41 		.ascii	"NO_ADDITIONAL_SENSE_INFORMATION\000"
 5246      44444954 
 5246      494F4E41 
 5246      4C5F5345 
 5246      4E53455F 
 5247              	.LASF271:
 5248 16b1 53637369 		.ascii	"ScsiDevice\000"
 5248      44657669 
 5248      636500
 5249              	.LASF16:
 5250 16bc 75696E74 		.ascii	"uint32_t\000"
 5250      33325F74 
 5250      00
 5251              	.LASF285:
 5252 16c5 64617461 		.ascii	"dataPageCode\000"
 5252      50616765 
 5252      436F6465 
 5252      00
 5253              	.LASF254:
 5254 16d2 64617461 		.ascii	"dataLen\000"
 5254      4C656E00 
 5255              	.LASF27:
 5256 16da 434F4E46 		.ascii	"CONFIG_ENABLE_PARITY\000"
 5256      49475F45 
 5256      4E41424C 
 5256      455F5041 
 5256      52495459 
 5257              	.LASF73:
 5258 16ef 48415244 		.ascii	"HARDWARE_ERROR\000"
 5258      57415245 
 5258      5F455252 
 5258      4F5200
 5259              	.LASF58:
 5260 16fe 72657365 		.ascii	"reserved\000"
 5260      72766564 
 5260      00
 5261              	.LASF283:
 5262 1707 63666749 		.ascii	"cfgIdx\000"
 5262      647800
 5263              	.LASF5:
 5264 170e 73686F72 		.ascii	"short unsigned int\000"
 5264      7420756E 
 5264      7369676E 
 5264      65642069 
 5264      6E7400
ARM GAS  C:\Users\r\AppData\Local\Temp\cc0NugVx.s 			page 123


 5265              	.LASF62:
 5266 1721 6D616769 		.ascii	"magic\000"
 5266      6300
 5267              	.LASF266:
 5268 1727 6D736743 		.ascii	"msgCount\000"
 5268      6F756E74 
 5268      00
 5269              	.LASF247:
 5270 1730 73656C46 		.ascii	"selFlag\000"
 5270      6C616700 
 5271              	.LASF245:
 5272 1738 61746E46 		.ascii	"atnFlag\000"
 5272      6C616700 
 5273              	.LASF124:
 5274 1740 4C4F4749 		.ascii	"LOGICAL_UNIT_COMMUNICATION_FAILURE\000"
 5274      43414C5F 
 5274      554E4954 
 5274      5F434F4D 
 5274      4D554E49 
 5275              	.LASF249:
 5276 1763 73656C44 		.ascii	"selDBX\000"
 5276      425800
 5277              	.LASF187:
 5278 176a 5245434F 		.ascii	"RECOVERED_ID_WITH_ECC_CORRECTION\000"
 5278      56455245 
 5278      445F4944 
 5278      5F574954 
 5278      485F4543 
 5279              	.LASF112:
 5280 178b 494E5155 		.ascii	"INQUIRY_DATA_HAS_CHANGED\000"
 5280      4952595F 
 5280      44415441 
 5280      5F484153 
 5280      5F434841 
 5281              	.LASF226:
 5282 17a4 43484543 		.ascii	"CHECK_CONDITION\000"
 5282      4B5F434F 
 5282      4E444954 
 5282      494F4E00 
 5283              	.LASF6:
 5284 17b4 5F5F696E 		.ascii	"__int32_t\000"
 5284      7433325F 
 5284      7400
 5285              	.LASF54:
 5286 17be 70726F64 		.ascii	"prodId\000"
 5286      496400
 5287              	.LASF273:
 5288 17c5 4449534B 		.ascii	"DISK_PRESENT\000"
 5288      5F505245 
 5288      53454E54 
 5288      00
 5289              	.LASF130:
 5290 17d2 4C4F4749 		.ascii	"LOGICAL_UNIT_IS_IN_PROCESS_OF_BECOMING_READY\000"
 5290      43414C5F 
 5290      554E4954 
 5290      5F49535F 
 5290      494E5F50 
ARM GAS  C:\Users\r\AppData\Local\Temp\cc0NugVx.s 			page 124


 5291              	.LASF289:
 5292 17ff 616C6C6F 		.ascii	"allocLength\000"
 5292      634C656E 
 5292      67746800 
 5293              	.LASF288:
 5294 180b 73697842 		.ascii	"sixByteCmd\000"
 5294      79746543 
 5294      6D6400
 5295              	.LASF99:
 5296 1816 44454645 		.ascii	"DEFECT_LIST_ERROR_IN_PRIMARY_LIST\000"
 5296      43545F4C 
 5296      4953545F 
 5296      4552524F 
 5296      525F494E 
 5297              	.LASF70:
 5298 1838 5245434F 		.ascii	"RECOVERED_ERROR\000"
 5298      56455245 
 5298      445F4552 
 5298      524F5200 
 5299              	.LASF199:
 5300 1848 54485245 		.ascii	"THRESHOLD_PARAMETERS_NOT_SUPPORTED\000"
 5300      53484F4C 
 5300      445F5041 
 5300      52414D45 
 5300      54455253 
 5301              	.LASF238:
 5302 186b 756E6974 		.ascii	"unitAttention\000"
 5302      41747465 
 5302      6E74696F 
 5302      6E00
 5303              	.LASF251:
 5304 1879 64617461 		.ascii	"data\000"
 5304      00
 5305              	.LASF43:
 5306 187e 434F4E46 		.ascii	"CONFIG_QUIRKS_XEBEC\000"
 5306      49475F51 
 5306      5549524B 
 5306      535F5845 
 5306      42454300 
 5307              	.LASF18:
 5308 1892 75696E74 		.ascii	"uint16\000"
 5308      313600
 5309              	.LASF122:
 5310 1899 4C4F475F 		.ascii	"LOG_PARAMETERS_CHANGED\000"
 5310      50415241 
 5310      4D455445 
 5310      52535F43 
 5310      48414E47 
 5311              	.LASF298:
 5312 18b0 636F6D6D 		.ascii	"commandHandled\000"
 5312      616E6448 
 5312      616E646C 
 5312      656400
 5313              	.LASF253:
 5314 18bf 73617665 		.ascii	"savedDataPtr\000"
 5314      64446174 
 5314      61507472 
ARM GAS  C:\Users\r\AppData\Local\Temp\cc0NugVx.s 			page 125


 5314      00
 5315              	.LASF194:
 5316 18cc 5350494E 		.ascii	"SPINDLES_NOT_SYNCHRONIZED\000"
 5316      444C4553 
 5316      5F4E4F54 
 5316      5F53594E 
 5316      4348524F 
 5317              	.LASF202:
 5318 18e6 554E5245 		.ascii	"UNRECOVERED_READ_ERROR_AUTO_REALLOCATE_FAILED\000"
 5318      434F5645 
 5318      5245445F 
 5318      52454144 
 5318      5F455252 
 5319              		.ident	"GCC: (GNU Tools for ARM Embedded Processors) 5.4.1 20160609 (release) [ARM/embedded-5-bran
