ARM GAS  C:\Users\r\AppData\Local\Temp\ccbXJ1Li.s 			page 1


   1              		.syntax unified
   2              		.cpu cortex-m3
   3              		.fpu softvfp
   4              		.eabi_attribute 20, 1
   5              		.eabi_attribute 21, 1
   6              		.eabi_attribute 23, 3
   7              		.eabi_attribute 24, 1
   8              		.eabi_attribute 25, 1
   9              		.eabi_attribute 26, 1
  10              		.eabi_attribute 30, 6
  11              		.eabi_attribute 34, 1
  12              		.eabi_attribute 18, 4
  13              		.thumb
  14              		.syntax unified
  15              		.file	"scsi.c"
  16              		.text
  17              	.Ltext0:
  18              		.cfi_sections	.debug_frame
  19              		.comm	scsiDev,16816,4
  20              		.section	.text.enter_BusFree,"ax",%progbits
  21              		.align	2
  22              		.global	enter_BusFree
  23              		.thumb
  24              		.thumb_func
  25              		.type	enter_BusFree, %function
  26              	enter_BusFree:
  27              	.LFB64:
  28              		.file 1 "..\\..\\src\\scsi.c"
   1:..\..\src/scsi.c **** //	Copyright (C) 2014 Michael McMaster <michael@codesrc.com>
   2:..\..\src/scsi.c **** //
   3:..\..\src/scsi.c **** //	This file is part of SCSI2SD.
   4:..\..\src/scsi.c **** //
   5:..\..\src/scsi.c **** //	SCSI2SD is free software: you can redistribute it and/or modify
   6:..\..\src/scsi.c **** //	it under the terms of the GNU General Public License as published by
   7:..\..\src/scsi.c **** //	the Free Software Foundation, either version 3 of the License, or
   8:..\..\src/scsi.c **** //	(at your option) any later version.
   9:..\..\src/scsi.c **** //
  10:..\..\src/scsi.c **** //	SCSI2SD is distributed in the hope that it will be useful,
  11:..\..\src/scsi.c **** //	but WITHOUT ANY WARRANTY; without even the implied warranty of
  12:..\..\src/scsi.c **** //	MERCHANTABILITY or FITNESS FOR A PARTICULAR PURPOSE.  See the
  13:..\..\src/scsi.c **** //	GNU General Public License for more details.
  14:..\..\src/scsi.c **** //
  15:..\..\src/scsi.c **** //	You should have received a copy of the GNU General Public License
  16:..\..\src/scsi.c **** //	along with SCSI2SD.  If not, see <http://www.gnu.org/licenses/>.
  17:..\..\src/scsi.c **** 
  18:..\..\src/scsi.c **** #include "device.h"
  19:..\..\src/scsi.c **** #include "scsi.h"
  20:..\..\src/scsi.c **** #include "scsiPhy.h"
  21:..\..\src/scsi.c **** #include "config.h"
  22:..\..\src/scsi.c **** #include "bits.h"
  23:..\..\src/scsi.c **** #include "diagnostic.h"
  24:..\..\src/scsi.c **** #include "disk.h"
  25:..\..\src/scsi.c **** #include "inquiry.h"
  26:..\..\src/scsi.c **** #include "led.h"
  27:..\..\src/scsi.c **** #include "mode.h"
  28:..\..\src/scsi.c **** #include "disk.h"
  29:..\..\src/scsi.c **** #include "time.h"
ARM GAS  C:\Users\r\AppData\Local\Temp\ccbXJ1Li.s 			page 2


  30:..\..\src/scsi.c **** #include "cdrom.h"
  31:..\..\src/scsi.c **** #include "debug.h"
  32:..\..\src/scsi.c **** #include "tape.h"
  33:..\..\src/scsi.c **** #include "mo.h"
  34:..\..\src/scsi.c **** #include "vendor.h"
  35:..\..\src/scsi.c **** 
  36:..\..\src/scsi.c **** #include <string.h>
  37:..\..\src/scsi.c **** 
  38:..\..\src/scsi.c **** // Global SCSI device state.
  39:..\..\src/scsi.c **** ScsiDevice scsiDev;
  40:..\..\src/scsi.c **** 
  41:..\..\src/scsi.c **** static void enter_SelectionPhase(void);
  42:..\..\src/scsi.c **** static void process_SelectionPhase(void);
  43:..\..\src/scsi.c **** static void enter_MessageIn(uint8 message);
  44:..\..\src/scsi.c **** static void enter_Status(uint8 status);
  45:..\..\src/scsi.c **** static void enter_DataIn(int len);
  46:..\..\src/scsi.c **** static void process_DataIn(void);
  47:..\..\src/scsi.c **** static void process_DataOut(void);
  48:..\..\src/scsi.c **** static void process_Command(void);
  49:..\..\src/scsi.c **** 
  50:..\..\src/scsi.c **** static void doReserveRelease(void);
  51:..\..\src/scsi.c **** 
  52:..\..\src/scsi.c **** void enter_BusFree()
  53:..\..\src/scsi.c **** {
  29              		.loc 1 53 0
  30              		.cfi_startproc
  31              		@ args = 0, pretend = 0, frame = 0
  32              		@ frame_needed = 1, uses_anonymous_args = 0
  33 0000 80B5     		push	{r7, lr}
  34              		.cfi_def_cfa_offset 8
  35              		.cfi_offset 7, -8
  36              		.cfi_offset 14, -4
  37 0002 00AF     		add	r7, sp, #0
  38              		.cfi_def_cfa_register 7
  54:..\..\src/scsi.c **** 	// This delay probably isn't needed for most SCSI hosts, but it won't
  55:..\..\src/scsi.c **** 	// hurt either. It's possible some of the samplers needed this delay.
  56:..\..\src/scsi.c **** 	if (scsiDev.compatMode < COMPAT_SCSI2)
  39              		.loc 1 56 0
  40 0004 194B     		ldr	r3, .L4
  41 0006 03F58343 		add	r3, r3, #16768
  42 000a 1733     		adds	r3, r3, #23
  43 000c 1B78     		ldrb	r3, [r3]	@ zero_extendqisi2
  44 000e 022B     		cmp	r3, #2
  45 0010 02D8     		bhi	.L2
  57:..\..\src/scsi.c **** 	{
  58:..\..\src/scsi.c **** 		CyDelayUs(2);
  46              		.loc 1 58 0
  47 0012 0220     		movs	r0, #2
  48 0014 FFF7FEFF 		bl	CyDelayUs
  49              	.L2:
  59:..\..\src/scsi.c **** 	}
  60:..\..\src/scsi.c **** 
  61:..\..\src/scsi.c **** 	if (scsiDev.status != GOOD && isDebugEnabled())
  50              		.loc 1 61 0
  51 0018 144B     		ldr	r3, .L4
  52 001a 03F58343 		add	r3, r3, #16768
  53 001e 1C33     		adds	r3, r3, #28
ARM GAS  C:\Users\r\AppData\Local\Temp\ccbXJ1Li.s 			page 3


  54 0020 1B78     		ldrb	r3, [r3]	@ zero_extendqisi2
  55 0022 002B     		cmp	r3, #0
  56 0024 07D0     		beq	.L3
  57              		.loc 1 61 0 is_stmt 0 discriminator 1
  58 0026 FFF7FEFF 		bl	isDebugEnabled
  59 002a 0346     		mov	r3, r0
  60 002c 002B     		cmp	r3, #0
  61 002e 02D0     		beq	.L3
  62:..\..\src/scsi.c **** 	{
  63:..\..\src/scsi.c **** 		// We want to capture debug information for failure cases.
  64:..\..\src/scsi.c **** 		CyDelay(64);
  62              		.loc 1 64 0 is_stmt 1
  63 0030 4020     		movs	r0, #64
  64 0032 FFF7FEFF 		bl	CyDelay
  65              	.L3:
  65:..\..\src/scsi.c **** 	}
  66:..\..\src/scsi.c **** 
  67:..\..\src/scsi.c **** 	SCSI_ClearPin(SCSI_Out_BSY);
  66              		.loc 1 67 0
  67 0036 0E4A     		ldr	r2, .L4+4
  68 0038 0D4B     		ldr	r3, .L4+4
  69 003a 1B78     		ldrb	r3, [r3]
  70 003c DBB2     		uxtb	r3, r3
  71 003e 23F00103 		bic	r3, r3, #1
  72 0042 DBB2     		uxtb	r3, r3
  73 0044 1370     		strb	r3, [r2]
  68:..\..\src/scsi.c **** 	// We now have a Bus Clear Delay of 800ns to release remaining signals.
  69:..\..\src/scsi.c **** 	SCSI_CTL_PHASE_Write(0);
  74              		.loc 1 69 0
  75 0046 0020     		movs	r0, #0
  76 0048 FFF7FEFF 		bl	SCSI_CTL_PHASE_Write
  70:..\..\src/scsi.c **** 
  71:..\..\src/scsi.c **** 	// Wait for the initiator to cease driving signals
  72:..\..\src/scsi.c **** 	// Bus settle delay + bus clear delay = 1200ns
  73:..\..\src/scsi.c **** 	CyDelayUs(2);
  77              		.loc 1 73 0
  78 004c 0220     		movs	r0, #2
  79 004e FFF7FEFF 		bl	CyDelayUs
  74:..\..\src/scsi.c **** 
  75:..\..\src/scsi.c **** 	ledOff();
  80              		.loc 1 75 0
  81 0052 FFF7FEFF 		bl	ledOff
  76:..\..\src/scsi.c **** 	scsiDev.phase = BUS_FREE;
  82              		.loc 1 76 0
  83 0056 054B     		ldr	r3, .L4
  84 0058 4FF0FF32 		mov	r2, #-1
  85 005c C3F87821 		str	r2, [r3, #376]
  77:..\..\src/scsi.c **** 	scsiDev.selFlag = 0;
  86              		.loc 1 77 0
  87 0060 024B     		ldr	r3, .L4
  88 0062 0022     		movs	r2, #0
  89 0064 C3F86C21 		str	r2, [r3, #364]
  78:..\..\src/scsi.c **** }
  90              		.loc 1 78 0
  91 0068 00BF     		nop
  92 006a 80BD     		pop	{r7, pc}
  93              	.L5:
ARM GAS  C:\Users\r\AppData\Local\Temp\ccbXJ1Li.s 			page 4


  94              		.align	2
  95              	.L4:
  96 006c 00000000 		.word	scsiDev
  97 0070 31500040 		.word	1073762353
  98              		.cfi_endproc
  99              	.LFE64:
 100              		.size	enter_BusFree, .-enter_BusFree
 101              		.section	.text.enter_MessageIn,"ax",%progbits
 102              		.align	2
 103              		.thumb
 104              		.thumb_func
 105              		.type	enter_MessageIn, %function
 106              	enter_MessageIn:
 107              	.LFB65:
  79:..\..\src/scsi.c **** 
  80:..\..\src/scsi.c **** static void enter_MessageIn(uint8 message)
  81:..\..\src/scsi.c **** {
 108              		.loc 1 81 0
 109              		.cfi_startproc
 110              		@ args = 0, pretend = 0, frame = 8
 111              		@ frame_needed = 1, uses_anonymous_args = 0
 112              		@ link register save eliminated.
 113 0000 80B4     		push	{r7}
 114              		.cfi_def_cfa_offset 4
 115              		.cfi_offset 7, -4
 116 0002 83B0     		sub	sp, sp, #12
 117              		.cfi_def_cfa_offset 16
 118 0004 00AF     		add	r7, sp, #0
 119              		.cfi_def_cfa_register 7
 120 0006 0346     		mov	r3, r0
 121 0008 FB71     		strb	r3, [r7, #7]
  82:..\..\src/scsi.c **** 	scsiDev.msgIn = message;
 122              		.loc 1 82 0
 123 000a 074B     		ldr	r3, .L7
 124 000c 03F58343 		add	r3, r3, #16768
 125 0010 1D33     		adds	r3, r3, #29
 126 0012 FA79     		ldrb	r2, [r7, #7]
 127 0014 1A70     		strb	r2, [r3]
  83:..\..\src/scsi.c **** 	scsiDev.phase = MESSAGE_IN;
 128              		.loc 1 83 0
 129 0016 044B     		ldr	r3, .L7
 130 0018 0722     		movs	r2, #7
 131 001a C3F87821 		str	r2, [r3, #376]
  84:..\..\src/scsi.c **** }
 132              		.loc 1 84 0
 133 001e 00BF     		nop
 134 0020 0C37     		adds	r7, r7, #12
 135              		.cfi_def_cfa_offset 4
 136 0022 BD46     		mov	sp, r7
 137              		.cfi_def_cfa_register 13
 138              		@ sp needed
 139 0024 80BC     		pop	{r7}
 140              		.cfi_restore 7
 141              		.cfi_def_cfa_offset 0
 142 0026 7047     		bx	lr
 143              	.L8:
 144              		.align	2
ARM GAS  C:\Users\r\AppData\Local\Temp\ccbXJ1Li.s 			page 5


 145              	.L7:
 146 0028 00000000 		.word	scsiDev
 147              		.cfi_endproc
 148              	.LFE65:
 149              		.size	enter_MessageIn, .-enter_MessageIn
 150              		.section	.text.process_MessageIn,"ax",%progbits
 151              		.align	2
 152              		.global	process_MessageIn
 153              		.thumb
 154              		.thumb_func
 155              		.type	process_MessageIn, %function
 156              	process_MessageIn:
 157              	.LFB66:
  85:..\..\src/scsi.c **** 
  86:..\..\src/scsi.c **** int process_MessageIn(int releaseBusFree)
  87:..\..\src/scsi.c **** {
 158              		.loc 1 87 0
 159              		.cfi_startproc
 160              		@ args = 0, pretend = 0, frame = 8
 161              		@ frame_needed = 1, uses_anonymous_args = 0
 162 0000 80B5     		push	{r7, lr}
 163              		.cfi_def_cfa_offset 8
 164              		.cfi_offset 7, -8
 165              		.cfi_offset 14, -4
 166 0002 82B0     		sub	sp, sp, #8
 167              		.cfi_def_cfa_offset 16
 168 0004 00AF     		add	r7, sp, #0
 169              		.cfi_def_cfa_register 7
 170 0006 7860     		str	r0, [r7, #4]
  88:..\..\src/scsi.c **** 	scsiEnterPhase(MESSAGE_IN);
 171              		.loc 1 88 0
 172 0008 0720     		movs	r0, #7
 173 000a FFF7FEFF 		bl	scsiEnterPhase
  89:..\..\src/scsi.c **** 	scsiWriteByte(scsiDev.msgIn);
 174              		.loc 1 89 0
 175 000e 2A4B     		ldr	r3, .L15
 176 0010 03F58343 		add	r3, r3, #16768
 177 0014 1D33     		adds	r3, r3, #29
 178 0016 1B78     		ldrb	r3, [r3]	@ zero_extendqisi2
 179 0018 1846     		mov	r0, r3
 180 001a FFF7FEFF 		bl	scsiWriteByte
  90:..\..\src/scsi.c **** 
  91:..\..\src/scsi.c **** 	if (unlikely(scsiDev.atnFlag))
 181              		.loc 1 91 0
 182 001e 264B     		ldr	r3, .L15
 183 0020 D3F86431 		ldr	r3, [r3, #356]
 184 0024 002B     		cmp	r3, #0
 185 0026 14BF     		ite	ne
 186 0028 0123     		movne	r3, #1
 187 002a 0023     		moveq	r3, #0
 188 002c DBB2     		uxtb	r3, r3
 189 002e 002B     		cmp	r3, #0
 190 0030 01D0     		beq	.L10
  92:..\..\src/scsi.c **** 	{
  93:..\..\src/scsi.c **** 		// If there was a parity error, we go
  94:..\..\src/scsi.c **** 		// back to MESSAGE_OUT first, get out parity error message, then come
  95:..\..\src/scsi.c **** 		// back here.
ARM GAS  C:\Users\r\AppData\Local\Temp\ccbXJ1Li.s 			page 6


  96:..\..\src/scsi.c **** 		return 0;
 191              		.loc 1 96 0
 192 0032 0023     		movs	r3, #0
 193 0034 3CE0     		b	.L11
 194              	.L10:
  97:..\..\src/scsi.c **** 	}
  98:..\..\src/scsi.c **** 	else if ((scsiDev.msgIn == MSG_LINKED_COMMAND_COMPLETE) ||
 195              		.loc 1 98 0
 196 0036 204B     		ldr	r3, .L15
 197 0038 03F58343 		add	r3, r3, #16768
 198 003c 1D33     		adds	r3, r3, #29
 199 003e 1B78     		ldrb	r3, [r3]	@ zero_extendqisi2
 200 0040 0A2B     		cmp	r3, #10
 201 0042 06D0     		beq	.L12
  99:..\..\src/scsi.c **** 		(scsiDev.msgIn == MSG_LINKED_COMMAND_COMPLETE_WITH_FLAG))
 202              		.loc 1 99 0 discriminator 1
 203 0044 1C4B     		ldr	r3, .L15
 204 0046 03F58343 		add	r3, r3, #16768
 205 004a 1D33     		adds	r3, r3, #29
 206 004c 1B78     		ldrb	r3, [r3]	@ zero_extendqisi2
  98:..\..\src/scsi.c **** 		(scsiDev.msgIn == MSG_LINKED_COMMAND_COMPLETE_WITH_FLAG))
 207              		.loc 1 98 0 discriminator 1
 208 004e 0B2B     		cmp	r3, #11
 209 0050 26D1     		bne	.L13
 210              	.L12:
 100:..\..\src/scsi.c **** 	{
 101:..\..\src/scsi.c **** 		// Go back to the command phase and start again.
 102:..\..\src/scsi.c **** 		scsiDev.phase = COMMAND;
 211              		.loc 1 102 0
 212 0052 194B     		ldr	r3, .L15
 213 0054 0222     		movs	r2, #2
 214 0056 C3F87821 		str	r2, [r3, #376]
 103:..\..\src/scsi.c **** 		scsiDev.parityError = 0;
 215              		.loc 1 103 0
 216 005a 174B     		ldr	r3, .L15
 217 005c 0022     		movs	r2, #0
 218 005e C3F87021 		str	r2, [r3, #368]
 104:..\..\src/scsi.c **** 		scsiDev.dataPtr = 0;
 219              		.loc 1 104 0
 220 0062 154B     		ldr	r3, .L15
 221 0064 03F58243 		add	r3, r3, #16640
 222 0068 7C33     		adds	r3, r3, #124
 223 006a 0022     		movs	r2, #0
 224 006c 1A60     		str	r2, [r3]
 105:..\..\src/scsi.c **** 		scsiDev.savedDataPtr = 0;
 225              		.loc 1 105 0
 226 006e 124B     		ldr	r3, .L15
 227 0070 03F58343 		add	r3, r3, #16768
 228 0074 0022     		movs	r2, #0
 229 0076 1A60     		str	r2, [r3]
 106:..\..\src/scsi.c **** 		scsiDev.dataLen = 0;
 230              		.loc 1 106 0
 231 0078 0F4B     		ldr	r3, .L15
 232 007a 03F58343 		add	r3, r3, #16768
 233 007e 0433     		adds	r3, r3, #4
 234 0080 0022     		movs	r2, #0
 235 0082 1A60     		str	r2, [r3]
ARM GAS  C:\Users\r\AppData\Local\Temp\ccbXJ1Li.s 			page 7


 107:..\..\src/scsi.c **** 		scsiDev.status = GOOD;
 236              		.loc 1 107 0
 237 0084 0C4B     		ldr	r3, .L15
 238 0086 03F58343 		add	r3, r3, #16768
 239 008a 1C33     		adds	r3, r3, #28
 240 008c 0022     		movs	r2, #0
 241 008e 1A70     		strb	r2, [r3]
 108:..\..\src/scsi.c **** 		transfer.blocks = 0;
 242              		.loc 1 108 0
 243 0090 0A4B     		ldr	r3, .L15+4
 244 0092 0022     		movs	r2, #0
 245 0094 9A60     		str	r2, [r3, #8]
 109:..\..\src/scsi.c **** 		transfer.currentBlock = 0;
 246              		.loc 1 109 0
 247 0096 094B     		ldr	r3, .L15+4
 248 0098 0022     		movs	r2, #0
 249 009a DA60     		str	r2, [r3, #12]
 110:..\..\src/scsi.c **** 		return 0;
 250              		.loc 1 110 0
 251 009c 0023     		movs	r3, #0
 252 009e 07E0     		b	.L11
 253              	.L13:
 111:..\..\src/scsi.c **** 	}
 112:..\..\src/scsi.c **** 	else if (releaseBusFree) /*if (scsiDev.msgIn == MSG_COMMAND_COMPLETE)*/
 254              		.loc 1 112 0
 255 00a0 7B68     		ldr	r3, [r7, #4]
 256 00a2 002B     		cmp	r3, #0
 257 00a4 03D0     		beq	.L14
 113:..\..\src/scsi.c **** 	{
 114:..\..\src/scsi.c **** 		enter_BusFree();
 258              		.loc 1 114 0
 259 00a6 FFF7FEFF 		bl	enter_BusFree
 115:..\..\src/scsi.c **** 		return 1;
 260              		.loc 1 115 0
 261 00aa 0123     		movs	r3, #1
 262 00ac 00E0     		b	.L11
 263              	.L14:
 116:..\..\src/scsi.c **** 	}
 117:..\..\src/scsi.c **** 	else
 118:..\..\src/scsi.c **** 	{
 119:..\..\src/scsi.c **** 		return 1;
 264              		.loc 1 119 0
 265 00ae 0123     		movs	r3, #1
 266              	.L11:
 120:..\..\src/scsi.c **** 	}
 121:..\..\src/scsi.c **** }
 267              		.loc 1 121 0
 268 00b0 1846     		mov	r0, r3
 269 00b2 0837     		adds	r7, r7, #8
 270              		.cfi_def_cfa_offset 8
 271 00b4 BD46     		mov	sp, r7
 272              		.cfi_def_cfa_register 13
 273              		@ sp needed
 274 00b6 80BD     		pop	{r7, pc}
 275              	.L16:
 276              		.align	2
 277              	.L15:
ARM GAS  C:\Users\r\AppData\Local\Temp\ccbXJ1Li.s 			page 8


 278 00b8 00000000 		.word	scsiDev
 279 00bc 00000000 		.word	transfer
 280              		.cfi_endproc
 281              	.LFE66:
 282              		.size	process_MessageIn, .-process_MessageIn
 283              		.section	.text.messageReject,"ax",%progbits
 284              		.align	2
 285              		.thumb
 286              		.thumb_func
 287              		.type	messageReject, %function
 288              	messageReject:
 289              	.LFB67:
 122:..\..\src/scsi.c **** 
 123:..\..\src/scsi.c **** static void messageReject()
 124:..\..\src/scsi.c **** {
 290              		.loc 1 124 0
 291              		.cfi_startproc
 292              		@ args = 0, pretend = 0, frame = 0
 293              		@ frame_needed = 1, uses_anonymous_args = 0
 294 0000 80B5     		push	{r7, lr}
 295              		.cfi_def_cfa_offset 8
 296              		.cfi_offset 7, -8
 297              		.cfi_offset 14, -4
 298 0002 00AF     		add	r7, sp, #0
 299              		.cfi_def_cfa_register 7
 125:..\..\src/scsi.c **** 	scsiEnterPhase(MESSAGE_IN);
 300              		.loc 1 125 0
 301 0004 0720     		movs	r0, #7
 302 0006 FFF7FEFF 		bl	scsiEnterPhase
 126:..\..\src/scsi.c **** 	scsiWriteByte(MSG_REJECT);
 303              		.loc 1 126 0
 304 000a 0720     		movs	r0, #7
 305 000c FFF7FEFF 		bl	scsiWriteByte
 127:..\..\src/scsi.c **** }
 306              		.loc 1 127 0
 307 0010 00BF     		nop
 308 0012 80BD     		pop	{r7, pc}
 309              		.cfi_endproc
 310              	.LFE67:
 311              		.size	messageReject, .-messageReject
 312              		.section	.text.enter_Status,"ax",%progbits
 313              		.align	2
 314              		.thumb
 315              		.thumb_func
 316              		.type	enter_Status, %function
 317              	enter_Status:
 318              	.LFB68:
 128:..\..\src/scsi.c **** 
 129:..\..\src/scsi.c **** static void enter_Status(uint8 status)
 130:..\..\src/scsi.c **** {
 319              		.loc 1 130 0
 320              		.cfi_startproc
 321              		@ args = 0, pretend = 0, frame = 8
 322              		@ frame_needed = 1, uses_anonymous_args = 0
 323              		@ link register save eliminated.
 324 0000 80B4     		push	{r7}
 325              		.cfi_def_cfa_offset 4
ARM GAS  C:\Users\r\AppData\Local\Temp\ccbXJ1Li.s 			page 9


 326              		.cfi_offset 7, -4
 327 0002 83B0     		sub	sp, sp, #12
 328              		.cfi_def_cfa_offset 16
 329 0004 00AF     		add	r7, sp, #0
 330              		.cfi_def_cfa_register 7
 331 0006 0346     		mov	r3, r0
 332 0008 FB71     		strb	r3, [r7, #7]
 131:..\..\src/scsi.c **** 	scsiDev.status = status;
 333              		.loc 1 131 0
 334 000a 144B     		ldr	r3, .L19
 335 000c 03F58343 		add	r3, r3, #16768
 336 0010 1C33     		adds	r3, r3, #28
 337 0012 FA79     		ldrb	r2, [r7, #7]
 338 0014 1A70     		strb	r2, [r3]
 132:..\..\src/scsi.c **** 	scsiDev.phase = STATUS;
 339              		.loc 1 132 0
 340 0016 114B     		ldr	r3, .L19
 341 0018 0622     		movs	r2, #6
 342 001a C3F87821 		str	r2, [r3, #376]
 133:..\..\src/scsi.c **** 
 134:..\..\src/scsi.c **** 	scsiDev.lastStatus = scsiDev.status;
 343              		.loc 1 134 0
 344 001e 0F4B     		ldr	r3, .L19
 345 0020 03F58343 		add	r3, r3, #16768
 346 0024 1C33     		adds	r3, r3, #28
 347 0026 1A78     		ldrb	r2, [r3]	@ zero_extendqisi2
 348 0028 0C4B     		ldr	r3, .L19
 349 002a 03F58343 		add	r3, r3, #16768
 350 002e 2933     		adds	r3, r3, #41
 351 0030 1A70     		strb	r2, [r3]
 135:..\..\src/scsi.c **** 	scsiDev.lastSense = scsiDev.target->sense.code;
 352              		.loc 1 135 0
 353 0032 0A4B     		ldr	r3, .L19
 354 0034 1B6E     		ldr	r3, [r3, #96]
 355 0036 9A7A     		ldrb	r2, [r3, #10]	@ zero_extendqisi2
 356 0038 084B     		ldr	r3, .L19
 357 003a 03F58343 		add	r3, r3, #16768
 358 003e 2A33     		adds	r3, r3, #42
 359 0040 1A70     		strb	r2, [r3]
 136:..\..\src/scsi.c **** 	scsiDev.lastSenseASC = scsiDev.target->sense.asc;
 360              		.loc 1 136 0
 361 0042 064B     		ldr	r3, .L19
 362 0044 1B6E     		ldr	r3, [r3, #96]
 363 0046 9A89     		ldrh	r2, [r3, #12]
 364 0048 044B     		ldr	r3, .L19
 365 004a 03F58343 		add	r3, r3, #16768
 366 004e 2C33     		adds	r3, r3, #44
 367 0050 1A80     		strh	r2, [r3]	@ movhi
 137:..\..\src/scsi.c **** }
 368              		.loc 1 137 0
 369 0052 00BF     		nop
 370 0054 0C37     		adds	r7, r7, #12
 371              		.cfi_def_cfa_offset 4
 372 0056 BD46     		mov	sp, r7
 373              		.cfi_def_cfa_register 13
 374              		@ sp needed
 375 0058 80BC     		pop	{r7}
ARM GAS  C:\Users\r\AppData\Local\Temp\ccbXJ1Li.s 			page 10


 376              		.cfi_restore 7
 377              		.cfi_def_cfa_offset 0
 378 005a 7047     		bx	lr
 379              	.L20:
 380              		.align	2
 381              	.L19:
 382 005c 00000000 		.word	scsiDev
 383              		.cfi_endproc
 384              	.LFE68:
 385              		.size	enter_Status, .-enter_Status
 386              		.section	.text.process_Status,"ax",%progbits
 387              		.align	2
 388              		.global	process_Status
 389              		.thumb
 390              		.thumb_func
 391              		.type	process_Status, %function
 392              	process_Status:
 393              	.LFB69:
 138:..\..\src/scsi.c **** 
 139:..\..\src/scsi.c **** void process_Status()
 140:..\..\src/scsi.c **** {
 394              		.loc 1 140 0
 395              		.cfi_startproc
 396              		@ args = 0, pretend = 0, frame = 8
 397              		@ frame_needed = 1, uses_anonymous_args = 0
 398 0000 80B5     		push	{r7, lr}
 399              		.cfi_def_cfa_offset 8
 400              		.cfi_offset 7, -8
 401              		.cfi_offset 14, -4
 402 0002 82B0     		sub	sp, sp, #8
 403              		.cfi_def_cfa_offset 16
 404 0004 00AF     		add	r7, sp, #0
 405              		.cfi_def_cfa_register 7
 141:..\..\src/scsi.c **** 	scsiEnterPhase(STATUS);
 406              		.loc 1 141 0
 407 0006 0620     		movs	r0, #6
 408 0008 FFF7FEFF 		bl	scsiEnterPhase
 142:..\..\src/scsi.c **** 
 143:..\..\src/scsi.c **** 	uint8 message;
 144:..\..\src/scsi.c **** 
 145:..\..\src/scsi.c **** 	uint8 control = scsiDev.cdb[scsiDev.cdbLen - 1];
 409              		.loc 1 145 0
 410 000c 604B     		ldr	r3, .L33
 411 000e 03F58343 		add	r3, r3, #16768
 412 0012 1433     		adds	r3, r3, #20
 413 0014 1B78     		ldrb	r3, [r3]	@ zero_extendqisi2
 414 0016 013B     		subs	r3, r3, #1
 415 0018 5D4A     		ldr	r2, .L33
 416 001a 1344     		add	r3, r3, r2
 417 001c 03F58343 		add	r3, r3, #16768
 418 0020 0833     		adds	r3, r3, #8
 419 0022 1B78     		ldrb	r3, [r3]
 420 0024 BB71     		strb	r3, [r7, #6]
 146:..\..\src/scsi.c **** 
 147:..\..\src/scsi.c **** 	if (scsiDev.target->cfg->quirks == CONFIG_QUIRKS_OMTI)
 421              		.loc 1 147 0
 422 0026 5A4B     		ldr	r3, .L33
ARM GAS  C:\Users\r\AppData\Local\Temp\ccbXJ1Li.s 			page 11


 423 0028 1B6E     		ldr	r3, [r3, #96]
 424 002a 5B68     		ldr	r3, [r3, #4]
 425 002c DB8F     		ldrh	r3, [r3, #62]	@ unaligned
 426 002e 9BB2     		uxth	r3, r3
 427 0030 022B     		cmp	r3, #2
 428 0032 09D1     		bne	.L22
 148:..\..\src/scsi.c **** 	{
 149:..\..\src/scsi.c **** 		// OMTI non-standard LINK control
 150:..\..\src/scsi.c **** 		if (control & 0x01)
 429              		.loc 1 150 0
 430 0034 BB79     		ldrb	r3, [r7, #6]	@ zero_extendqisi2
 431 0036 03F00103 		and	r3, r3, #1
 432 003a 002B     		cmp	r3, #0
 433 003c 04D0     		beq	.L22
 151:..\..\src/scsi.c **** 		{
 152:..\..\src/scsi.c **** 			scsiDev.phase = COMMAND;
 434              		.loc 1 152 0
 435 003e 544B     		ldr	r3, .L33
 436 0040 0222     		movs	r2, #2
 437 0042 C3F87821 		str	r2, [r3, #376]
 153:..\..\src/scsi.c **** 			return;
 438              		.loc 1 153 0
 439 0046 9FE0     		b	.L21
 440              	.L22:
 154:..\..\src/scsi.c **** 		}
 155:..\..\src/scsi.c **** 	}
 156:..\..\src/scsi.c **** 
 157:..\..\src/scsi.c **** 	if ((scsiDev.status == GOOD) && (control & 0x01) &&
 441              		.loc 1 157 0
 442 0048 514B     		ldr	r3, .L33
 443 004a 03F58343 		add	r3, r3, #16768
 444 004e 1C33     		adds	r3, r3, #28
 445 0050 1B78     		ldrb	r3, [r3]	@ zero_extendqisi2
 446 0052 002B     		cmp	r3, #0
 447 0054 1CD1     		bne	.L24
 448              		.loc 1 157 0 is_stmt 0 discriminator 1
 449 0056 BB79     		ldrb	r3, [r7, #6]	@ zero_extendqisi2
 450 0058 03F00103 		and	r3, r3, #1
 451 005c 002B     		cmp	r3, #0
 452 005e 17D0     		beq	.L24
 158:..\..\src/scsi.c **** 		scsiDev.target->cfg->quirks != CONFIG_QUIRKS_XEBEC)
 453              		.loc 1 158 0 is_stmt 1 discriminator 2
 454 0060 4B4B     		ldr	r3, .L33
 455 0062 1B6E     		ldr	r3, [r3, #96]
 456 0064 5B68     		ldr	r3, [r3, #4]
 457 0066 DB8F     		ldrh	r3, [r3, #62]	@ unaligned
 458 0068 9BB2     		uxth	r3, r3
 157:..\..\src/scsi.c **** 		scsiDev.target->cfg->quirks != CONFIG_QUIRKS_XEBEC)
 459              		.loc 1 157 0 discriminator 2
 460 006a 042B     		cmp	r3, #4
 461 006c 10D0     		beq	.L24
 159:..\..\src/scsi.c **** 	{
 160:..\..\src/scsi.c **** 		// Linked command.
 161:..\..\src/scsi.c **** 		scsiDev.status = INTERMEDIATE;
 462              		.loc 1 161 0
 463 006e 484B     		ldr	r3, .L33
 464 0070 03F58343 		add	r3, r3, #16768
ARM GAS  C:\Users\r\AppData\Local\Temp\ccbXJ1Li.s 			page 12


 465 0074 1C33     		adds	r3, r3, #28
 466 0076 1022     		movs	r2, #16
 467 0078 1A70     		strb	r2, [r3]
 162:..\..\src/scsi.c **** 		if (control & 0x02)
 468              		.loc 1 162 0
 469 007a BB79     		ldrb	r3, [r7, #6]	@ zero_extendqisi2
 470 007c 03F00203 		and	r3, r3, #2
 471 0080 002B     		cmp	r3, #0
 472 0082 02D0     		beq	.L25
 163:..\..\src/scsi.c **** 		{
 164:..\..\src/scsi.c **** 			message = MSG_LINKED_COMMAND_COMPLETE_WITH_FLAG;
 473              		.loc 1 164 0
 474 0084 0B23     		movs	r3, #11
 475 0086 FB71     		strb	r3, [r7, #7]
 162:..\..\src/scsi.c **** 		if (control & 0x02)
 476              		.loc 1 162 0
 477 0088 04E0     		b	.L27
 478              	.L25:
 165:..\..\src/scsi.c **** 		}
 166:..\..\src/scsi.c **** 		else
 167:..\..\src/scsi.c **** 		{
 168:..\..\src/scsi.c **** 			message = MSG_LINKED_COMMAND_COMPLETE;
 479              		.loc 1 168 0
 480 008a 0A23     		movs	r3, #10
 481 008c FB71     		strb	r3, [r7, #7]
 162:..\..\src/scsi.c **** 		{
 482              		.loc 1 162 0
 483 008e 01E0     		b	.L27
 484              	.L24:
 169:..\..\src/scsi.c **** 		}
 170:..\..\src/scsi.c **** 	}
 171:..\..\src/scsi.c **** 	else
 172:..\..\src/scsi.c **** 	{
 173:..\..\src/scsi.c **** 		message = MSG_COMMAND_COMPLETE;
 485              		.loc 1 173 0
 486 0090 0023     		movs	r3, #0
 487 0092 FB71     		strb	r3, [r7, #7]
 488              	.L27:
 174:..\..\src/scsi.c **** 	}
 175:..\..\src/scsi.c **** 
 176:..\..\src/scsi.c **** 
 177:..\..\src/scsi.c **** 	if (scsiDev.target->cfg->quirks == CONFIG_QUIRKS_XEBEC)
 489              		.loc 1 177 0
 490 0094 3E4B     		ldr	r3, .L33
 491 0096 1B6E     		ldr	r3, [r3, #96]
 492 0098 5B68     		ldr	r3, [r3, #4]
 493 009a DB8F     		ldrh	r3, [r3, #62]	@ unaligned
 494 009c 9BB2     		uxth	r3, r3
 495 009e 042B     		cmp	r3, #4
 496 00a0 26D1     		bne	.L28
 178:..\..\src/scsi.c **** 	{
 179:..\..\src/scsi.c **** 		// More non-standardness. Expects 2 status bytes (really status + msg)
 180:..\..\src/scsi.c **** 		// 00 d 000 err 0
 181:..\..\src/scsi.c **** 		// d == disk number
 182:..\..\src/scsi.c **** 		// ERR = 1 if error.
 183:..\..\src/scsi.c **** 		if (scsiDev.status == GOOD)
 497              		.loc 1 183 0
ARM GAS  C:\Users\r\AppData\Local\Temp\ccbXJ1Li.s 			page 13


 498 00a2 3B4B     		ldr	r3, .L33
 499 00a4 03F58343 		add	r3, r3, #16768
 500 00a8 1C33     		adds	r3, r3, #28
 501 00aa 1B78     		ldrb	r3, [r3]	@ zero_extendqisi2
 502 00ac 002B     		cmp	r3, #0
 503 00ae 0BD1     		bne	.L29
 184:..\..\src/scsi.c **** 		{
 185:..\..\src/scsi.c **** 			scsiWriteByte(scsiDev.cdb[1] & 0x20);
 504              		.loc 1 185 0
 505 00b0 374B     		ldr	r3, .L33
 506 00b2 03F58343 		add	r3, r3, #16768
 507 00b6 0933     		adds	r3, r3, #9
 508 00b8 1B78     		ldrb	r3, [r3]	@ zero_extendqisi2
 509 00ba 03F02003 		and	r3, r3, #32
 510 00be DBB2     		uxtb	r3, r3
 511 00c0 1846     		mov	r0, r3
 512 00c2 FFF7FEFF 		bl	scsiWriteByte
 513 00c6 0FE0     		b	.L30
 514              	.L29:
 186:..\..\src/scsi.c **** 		}
 187:..\..\src/scsi.c **** 		else
 188:..\..\src/scsi.c **** 		{
 189:..\..\src/scsi.c **** 			scsiWriteByte((scsiDev.cdb[1] & 0x20) | 0x2);
 515              		.loc 1 189 0
 516 00c8 314B     		ldr	r3, .L33
 517 00ca 03F58343 		add	r3, r3, #16768
 518 00ce 0933     		adds	r3, r3, #9
 519 00d0 1B78     		ldrb	r3, [r3]	@ zero_extendqisi2
 520 00d2 5BB2     		sxtb	r3, r3
 521 00d4 03F02003 		and	r3, r3, #32
 522 00d8 5BB2     		sxtb	r3, r3
 523 00da 43F00203 		orr	r3, r3, #2
 524 00de 5BB2     		sxtb	r3, r3
 525 00e0 DBB2     		uxtb	r3, r3
 526 00e2 1846     		mov	r0, r3
 527 00e4 FFF7FEFF 		bl	scsiWriteByte
 528              	.L30:
 190:..\..\src/scsi.c **** 		}
 191:..\..\src/scsi.c **** 		CyDelayUs(10); // Seems to need a delay before changing phase bits.
 529              		.loc 1 191 0
 530 00e8 0A20     		movs	r0, #10
 531 00ea FFF7FEFF 		bl	CyDelayUs
 532 00ee 2DE0     		b	.L31
 533              	.L28:
 192:..\..\src/scsi.c **** 	}
 193:..\..\src/scsi.c **** 	else if (scsiDev.target->cfg->quirks == CONFIG_QUIRKS_OMTI)
 534              		.loc 1 193 0
 535 00f0 274B     		ldr	r3, .L33
 536 00f2 1B6E     		ldr	r3, [r3, #96]
 537 00f4 5B68     		ldr	r3, [r3, #4]
 538 00f6 DB8F     		ldrh	r3, [r3, #62]	@ unaligned
 539 00f8 9BB2     		uxth	r3, r3
 540 00fa 022B     		cmp	r3, #2
 541 00fc 1ED1     		bne	.L32
 194:..\..\src/scsi.c **** 	{
 195:..\..\src/scsi.c **** 		scsiDev.status |= (scsiDev.target->targetId & 0x03) << 5;
 542              		.loc 1 195 0
ARM GAS  C:\Users\r\AppData\Local\Temp\ccbXJ1Li.s 			page 14


 543 00fe 244B     		ldr	r3, .L33
 544 0100 03F58343 		add	r3, r3, #16768
 545 0104 1C33     		adds	r3, r3, #28
 546 0106 1B78     		ldrb	r3, [r3]	@ zero_extendqisi2
 547 0108 5AB2     		sxtb	r2, r3
 548 010a 214B     		ldr	r3, .L33
 549 010c 1B6E     		ldr	r3, [r3, #96]
 550 010e 1B78     		ldrb	r3, [r3]	@ zero_extendqisi2
 551 0110 5B01     		lsls	r3, r3, #5
 552 0112 5BB2     		sxtb	r3, r3
 553 0114 03F06003 		and	r3, r3, #96
 554 0118 5BB2     		sxtb	r3, r3
 555 011a 1343     		orrs	r3, r3, r2
 556 011c 5BB2     		sxtb	r3, r3
 557 011e DAB2     		uxtb	r2, r3
 558 0120 1B4B     		ldr	r3, .L33
 559 0122 03F58343 		add	r3, r3, #16768
 560 0126 1C33     		adds	r3, r3, #28
 561 0128 1A70     		strb	r2, [r3]
 196:..\..\src/scsi.c **** 		scsiWriteByte(scsiDev.status);
 562              		.loc 1 196 0
 563 012a 194B     		ldr	r3, .L33
 564 012c 03F58343 		add	r3, r3, #16768
 565 0130 1C33     		adds	r3, r3, #28
 566 0132 1B78     		ldrb	r3, [r3]	@ zero_extendqisi2
 567 0134 1846     		mov	r0, r3
 568 0136 FFF7FEFF 		bl	scsiWriteByte
 569 013a 07E0     		b	.L31
 570              	.L32:
 197:..\..\src/scsi.c **** 	}
 198:..\..\src/scsi.c **** 	else
 199:..\..\src/scsi.c **** 	{
 200:..\..\src/scsi.c **** 		scsiWriteByte(scsiDev.status);
 571              		.loc 1 200 0
 572 013c 144B     		ldr	r3, .L33
 573 013e 03F58343 		add	r3, r3, #16768
 574 0142 1C33     		adds	r3, r3, #28
 575 0144 1B78     		ldrb	r3, [r3]	@ zero_extendqisi2
 576 0146 1846     		mov	r0, r3
 577 0148 FFF7FEFF 		bl	scsiWriteByte
 578              	.L31:
 201:..\..\src/scsi.c **** 	}
 202:..\..\src/scsi.c **** 
 203:..\..\src/scsi.c **** 	scsiDev.lastStatus = scsiDev.status;
 579              		.loc 1 203 0
 580 014c 104B     		ldr	r3, .L33
 581 014e 03F58343 		add	r3, r3, #16768
 582 0152 1C33     		adds	r3, r3, #28
 583 0154 1A78     		ldrb	r2, [r3]	@ zero_extendqisi2
 584 0156 0E4B     		ldr	r3, .L33
 585 0158 03F58343 		add	r3, r3, #16768
 586 015c 2933     		adds	r3, r3, #41
 587 015e 1A70     		strb	r2, [r3]
 204:..\..\src/scsi.c **** 	scsiDev.lastSense = scsiDev.target->sense.code;
 588              		.loc 1 204 0
 589 0160 0B4B     		ldr	r3, .L33
 590 0162 1B6E     		ldr	r3, [r3, #96]
ARM GAS  C:\Users\r\AppData\Local\Temp\ccbXJ1Li.s 			page 15


 591 0164 9A7A     		ldrb	r2, [r3, #10]	@ zero_extendqisi2
 592 0166 0A4B     		ldr	r3, .L33
 593 0168 03F58343 		add	r3, r3, #16768
 594 016c 2A33     		adds	r3, r3, #42
 595 016e 1A70     		strb	r2, [r3]
 205:..\..\src/scsi.c **** 	scsiDev.lastSenseASC = scsiDev.target->sense.asc;
 596              		.loc 1 205 0
 597 0170 074B     		ldr	r3, .L33
 598 0172 1B6E     		ldr	r3, [r3, #96]
 599 0174 9A89     		ldrh	r2, [r3, #12]
 600 0176 064B     		ldr	r3, .L33
 601 0178 03F58343 		add	r3, r3, #16768
 602 017c 2C33     		adds	r3, r3, #44
 603 017e 1A80     		strh	r2, [r3]	@ movhi
 206:..\..\src/scsi.c **** 
 207:..\..\src/scsi.c **** 
 208:..\..\src/scsi.c **** 	// Command Complete occurs AFTER a valid status has been
 209:..\..\src/scsi.c **** 	// sent. then we go bus-free.
 210:..\..\src/scsi.c **** 	enter_MessageIn(message);
 604              		.loc 1 210 0
 605 0180 FB79     		ldrb	r3, [r7, #7]	@ zero_extendqisi2
 606 0182 1846     		mov	r0, r3
 607 0184 FFF7FEFF 		bl	enter_MessageIn
 608              	.L21:
 211:..\..\src/scsi.c **** }
 609              		.loc 1 211 0
 610 0188 0837     		adds	r7, r7, #8
 611              		.cfi_def_cfa_offset 8
 612 018a BD46     		mov	sp, r7
 613              		.cfi_def_cfa_register 13
 614              		@ sp needed
 615 018c 80BD     		pop	{r7, pc}
 616              	.L34:
 617 018e 00BF     		.align	2
 618              	.L33:
 619 0190 00000000 		.word	scsiDev
 620              		.cfi_endproc
 621              	.LFE69:
 622              		.size	process_Status, .-process_Status
 623              		.section	.text.enter_DataIn,"ax",%progbits
 624              		.align	2
 625              		.thumb
 626              		.thumb_func
 627              		.type	enter_DataIn, %function
 628              	enter_DataIn:
 629              	.LFB70:
 212:..\..\src/scsi.c **** 
 213:..\..\src/scsi.c **** static void enter_DataIn(int len)
 214:..\..\src/scsi.c **** {
 630              		.loc 1 214 0
 631              		.cfi_startproc
 632              		@ args = 0, pretend = 0, frame = 8
 633              		@ frame_needed = 1, uses_anonymous_args = 0
 634              		@ link register save eliminated.
 635 0000 80B4     		push	{r7}
 636              		.cfi_def_cfa_offset 4
 637              		.cfi_offset 7, -4
ARM GAS  C:\Users\r\AppData\Local\Temp\ccbXJ1Li.s 			page 16


 638 0002 83B0     		sub	sp, sp, #12
 639              		.cfi_def_cfa_offset 16
 640 0004 00AF     		add	r7, sp, #0
 641              		.cfi_def_cfa_register 7
 642 0006 7860     		str	r0, [r7, #4]
 215:..\..\src/scsi.c **** 	scsiDev.dataLen = len;
 643              		.loc 1 215 0
 644 0008 074B     		ldr	r3, .L36
 645 000a 03F58343 		add	r3, r3, #16768
 646 000e 0433     		adds	r3, r3, #4
 647 0010 7A68     		ldr	r2, [r7, #4]
 648 0012 1A60     		str	r2, [r3]
 216:..\..\src/scsi.c **** 	scsiDev.phase = DATA_IN;
 649              		.loc 1 216 0
 650 0014 044B     		ldr	r3, .L36
 651 0016 0422     		movs	r2, #4
 652 0018 C3F87821 		str	r2, [r3, #376]
 217:..\..\src/scsi.c **** }
 653              		.loc 1 217 0
 654 001c 00BF     		nop
 655 001e 0C37     		adds	r7, r7, #12
 656              		.cfi_def_cfa_offset 4
 657 0020 BD46     		mov	sp, r7
 658              		.cfi_def_cfa_register 13
 659              		@ sp needed
 660 0022 80BC     		pop	{r7}
 661              		.cfi_restore 7
 662              		.cfi_def_cfa_offset 0
 663 0024 7047     		bx	lr
 664              	.L37:
 665 0026 00BF     		.align	2
 666              	.L36:
 667 0028 00000000 		.word	scsiDev
 668              		.cfi_endproc
 669              	.LFE70:
 670              		.size	enter_DataIn, .-enter_DataIn
 671              		.section	.text.process_DataIn,"ax",%progbits
 672              		.align	2
 673              		.thumb
 674              		.thumb_func
 675              		.type	process_DataIn, %function
 676              	process_DataIn:
 677              	.LFB71:
 218:..\..\src/scsi.c **** 
 219:..\..\src/scsi.c **** static void process_DataIn()
 220:..\..\src/scsi.c **** {
 678              		.loc 1 220 0
 679              		.cfi_startproc
 680              		@ args = 0, pretend = 0, frame = 8
 681              		@ frame_needed = 1, uses_anonymous_args = 0
 682 0000 80B5     		push	{r7, lr}
 683              		.cfi_def_cfa_offset 8
 684              		.cfi_offset 7, -8
 685              		.cfi_offset 14, -4
 686 0002 82B0     		sub	sp, sp, #8
 687              		.cfi_def_cfa_offset 16
 688 0004 00AF     		add	r7, sp, #0
ARM GAS  C:\Users\r\AppData\Local\Temp\ccbXJ1Li.s 			page 17


 689              		.cfi_def_cfa_register 7
 221:..\..\src/scsi.c **** 	uint32 len;
 222:..\..\src/scsi.c **** 
 223:..\..\src/scsi.c **** 	if (scsiDev.dataLen > sizeof(scsiDev.data))
 690              		.loc 1 223 0
 691 0006 2A4B     		ldr	r3, .L43
 692 0008 03F58343 		add	r3, r3, #16768
 693 000c 0433     		adds	r3, r3, #4
 694 000e 1B68     		ldr	r3, [r3]
 695 0010 B3F5804F 		cmp	r3, #16384
 696 0014 06D9     		bls	.L39
 224:..\..\src/scsi.c **** 	{
 225:..\..\src/scsi.c **** 		scsiDev.dataLen = sizeof(scsiDev.data);
 697              		.loc 1 225 0
 698 0016 264B     		ldr	r3, .L43
 699 0018 03F58343 		add	r3, r3, #16768
 700 001c 0433     		adds	r3, r3, #4
 701 001e 4FF48042 		mov	r2, #16384
 702 0022 1A60     		str	r2, [r3]
 703              	.L39:
 226:..\..\src/scsi.c **** 	}
 227:..\..\src/scsi.c **** 
 228:..\..\src/scsi.c **** 	len = scsiDev.dataLen - scsiDev.dataPtr;
 704              		.loc 1 228 0
 705 0024 224B     		ldr	r3, .L43
 706 0026 03F58343 		add	r3, r3, #16768
 707 002a 0433     		adds	r3, r3, #4
 708 002c 1A68     		ldr	r2, [r3]
 709 002e 204B     		ldr	r3, .L43
 710 0030 03F58243 		add	r3, r3, #16640
 711 0034 7C33     		adds	r3, r3, #124
 712 0036 1B68     		ldr	r3, [r3]
 713 0038 D31A     		subs	r3, r2, r3
 714 003a 7B60     		str	r3, [r7, #4]
 229:..\..\src/scsi.c **** 	if (len > 0)
 715              		.loc 1 229 0
 716 003c 7B68     		ldr	r3, [r7, #4]
 717 003e 002B     		cmp	r3, #0
 718 0040 1CD0     		beq	.L40
 230:..\..\src/scsi.c **** 	{
 231:..\..\src/scsi.c **** 		scsiEnterPhase(DATA_IN);
 719              		.loc 1 231 0
 720 0042 0420     		movs	r0, #4
 721 0044 FFF7FEFF 		bl	scsiEnterPhase
 232:..\..\src/scsi.c **** 		scsiWrite(scsiDev.data + scsiDev.dataPtr, len);
 722              		.loc 1 232 0
 723 0048 194B     		ldr	r3, .L43
 724 004a 03F58243 		add	r3, r3, #16640
 725 004e 7C33     		adds	r3, r3, #124
 726 0050 1B68     		ldr	r3, [r3]
 727 0052 1A46     		mov	r2, r3
 728 0054 174B     		ldr	r3, .L43+4
 729 0056 1344     		add	r3, r3, r2
 730 0058 7968     		ldr	r1, [r7, #4]
 731 005a 1846     		mov	r0, r3
 732 005c FFF7FEFF 		bl	scsiWrite
 233:..\..\src/scsi.c **** 		scsiDev.dataPtr += len;
ARM GAS  C:\Users\r\AppData\Local\Temp\ccbXJ1Li.s 			page 18


 733              		.loc 1 233 0
 734 0060 134B     		ldr	r3, .L43
 735 0062 03F58243 		add	r3, r3, #16640
 736 0066 7C33     		adds	r3, r3, #124
 737 0068 1B68     		ldr	r3, [r3]
 738 006a 1A46     		mov	r2, r3
 739 006c 7B68     		ldr	r3, [r7, #4]
 740 006e 1344     		add	r3, r3, r2
 741 0070 1A46     		mov	r2, r3
 742 0072 0F4B     		ldr	r3, .L43
 743 0074 03F58243 		add	r3, r3, #16640
 744 0078 7C33     		adds	r3, r3, #124
 745 007a 1A60     		str	r2, [r3]
 746              	.L40:
 234:..\..\src/scsi.c **** 	}
 235:..\..\src/scsi.c **** 
 236:..\..\src/scsi.c **** 	if ((scsiDev.dataPtr >= scsiDev.dataLen) &&
 747              		.loc 1 236 0
 748 007c 0C4B     		ldr	r3, .L43
 749 007e 03F58243 		add	r3, r3, #16640
 750 0082 7C33     		adds	r3, r3, #124
 751 0084 1A68     		ldr	r2, [r3]
 752 0086 0A4B     		ldr	r3, .L43
 753 0088 03F58343 		add	r3, r3, #16768
 754 008c 0433     		adds	r3, r3, #4
 755 008e 1B68     		ldr	r3, [r3]
 756 0090 9A42     		cmp	r2, r3
 757 0092 08DB     		blt	.L42
 237:..\..\src/scsi.c **** 		(transfer.currentBlock == transfer.blocks))
 758              		.loc 1 237 0 discriminator 1
 759 0094 084B     		ldr	r3, .L43+8
 760 0096 DA68     		ldr	r2, [r3, #12]
 761 0098 074B     		ldr	r3, .L43+8
 762 009a 9B68     		ldr	r3, [r3, #8]
 236:..\..\src/scsi.c **** 		(transfer.currentBlock == transfer.blocks))
 763              		.loc 1 236 0 discriminator 1
 764 009c 9A42     		cmp	r2, r3
 765 009e 02D1     		bne	.L42
 238:..\..\src/scsi.c **** 	{
 239:..\..\src/scsi.c **** 		enter_Status(GOOD);
 766              		.loc 1 239 0
 767 00a0 0020     		movs	r0, #0
 768 00a2 FFF7FEFF 		bl	enter_Status
 769              	.L42:
 240:..\..\src/scsi.c **** 	}
 241:..\..\src/scsi.c **** }
 770              		.loc 1 241 0
 771 00a6 00BF     		nop
 772 00a8 0837     		adds	r7, r7, #8
 773              		.cfi_def_cfa_offset 8
 774 00aa BD46     		mov	sp, r7
 775              		.cfi_def_cfa_register 13
 776              		@ sp needed
 777 00ac 80BD     		pop	{r7, pc}
 778              	.L44:
 779 00ae 00BF     		.align	2
 780              	.L43:
ARM GAS  C:\Users\r\AppData\Local\Temp\ccbXJ1Li.s 			page 19


 781 00b0 00000000 		.word	scsiDev
 782 00b4 7C010000 		.word	scsiDev+380
 783 00b8 00000000 		.word	transfer
 784              		.cfi_endproc
 785              	.LFE71:
 786              		.size	process_DataIn, .-process_DataIn
 787              		.section	.text.process_DataOut,"ax",%progbits
 788              		.align	2
 789              		.thumb
 790              		.thumb_func
 791              		.type	process_DataOut, %function
 792              	process_DataOut:
 793              	.LFB72:
 242:..\..\src/scsi.c **** 
 243:..\..\src/scsi.c **** static void process_DataOut()
 244:..\..\src/scsi.c **** {
 794              		.loc 1 244 0
 795              		.cfi_startproc
 796              		@ args = 0, pretend = 0, frame = 8
 797              		@ frame_needed = 1, uses_anonymous_args = 0
 798 0000 80B5     		push	{r7, lr}
 799              		.cfi_def_cfa_offset 8
 800              		.cfi_offset 7, -8
 801              		.cfi_offset 14, -4
 802 0002 82B0     		sub	sp, sp, #8
 803              		.cfi_def_cfa_offset 16
 804 0004 00AF     		add	r7, sp, #0
 805              		.cfi_def_cfa_register 7
 245:..\..\src/scsi.c **** 	uint32 len;
 246:..\..\src/scsi.c **** 
 247:..\..\src/scsi.c **** 	if (scsiDev.dataLen > sizeof(scsiDev.data))
 806              		.loc 1 247 0
 807 0006 424B     		ldr	r3, .L51
 808 0008 03F58343 		add	r3, r3, #16768
 809 000c 0433     		adds	r3, r3, #4
 810 000e 1B68     		ldr	r3, [r3]
 811 0010 B3F5804F 		cmp	r3, #16384
 812 0014 06D9     		bls	.L46
 248:..\..\src/scsi.c **** 	{
 249:..\..\src/scsi.c **** 		scsiDev.dataLen = sizeof(scsiDev.data);
 813              		.loc 1 249 0
 814 0016 3E4B     		ldr	r3, .L51
 815 0018 03F58343 		add	r3, r3, #16768
 816 001c 0433     		adds	r3, r3, #4
 817 001e 4FF48042 		mov	r2, #16384
 818 0022 1A60     		str	r2, [r3]
 819              	.L46:
 250:..\..\src/scsi.c **** 	}
 251:..\..\src/scsi.c **** 
 252:..\..\src/scsi.c **** 	scsiDev.parityError = 0;
 820              		.loc 1 252 0
 821 0024 3A4B     		ldr	r3, .L51
 822 0026 0022     		movs	r2, #0
 823 0028 C3F87021 		str	r2, [r3, #368]
 253:..\..\src/scsi.c **** 	len = scsiDev.dataLen - scsiDev.dataPtr;
 824              		.loc 1 253 0
 825 002c 384B     		ldr	r3, .L51
ARM GAS  C:\Users\r\AppData\Local\Temp\ccbXJ1Li.s 			page 20


 826 002e 03F58343 		add	r3, r3, #16768
 827 0032 0433     		adds	r3, r3, #4
 828 0034 1A68     		ldr	r2, [r3]
 829 0036 364B     		ldr	r3, .L51
 830 0038 03F58243 		add	r3, r3, #16640
 831 003c 7C33     		adds	r3, r3, #124
 832 003e 1B68     		ldr	r3, [r3]
 833 0040 D31A     		subs	r3, r2, r3
 834 0042 7B60     		str	r3, [r7, #4]
 254:..\..\src/scsi.c **** 	if (len > 0)
 835              		.loc 1 254 0
 836 0044 7B68     		ldr	r3, [r7, #4]
 837 0046 002B     		cmp	r3, #0
 838 0048 3BD0     		beq	.L47
 255:..\..\src/scsi.c **** 	{
 256:..\..\src/scsi.c **** 		scsiEnterPhase(DATA_OUT);
 839              		.loc 1 256 0
 840 004a 0020     		movs	r0, #0
 841 004c FFF7FEFF 		bl	scsiEnterPhase
 257:..\..\src/scsi.c **** 
 258:..\..\src/scsi.c **** 		scsiRead(scsiDev.data + scsiDev.dataPtr, len);
 842              		.loc 1 258 0
 843 0050 2F4B     		ldr	r3, .L51
 844 0052 03F58243 		add	r3, r3, #16640
 845 0056 7C33     		adds	r3, r3, #124
 846 0058 1B68     		ldr	r3, [r3]
 847 005a 1A46     		mov	r2, r3
 848 005c 2D4B     		ldr	r3, .L51+4
 849 005e 1344     		add	r3, r3, r2
 850 0060 7968     		ldr	r1, [r7, #4]
 851 0062 1846     		mov	r0, r3
 852 0064 FFF7FEFF 		bl	scsiRead
 259:..\..\src/scsi.c **** 		scsiDev.dataPtr += len;
 853              		.loc 1 259 0
 854 0068 294B     		ldr	r3, .L51
 855 006a 03F58243 		add	r3, r3, #16640
 856 006e 7C33     		adds	r3, r3, #124
 857 0070 1B68     		ldr	r3, [r3]
 858 0072 1A46     		mov	r2, r3
 859 0074 7B68     		ldr	r3, [r7, #4]
 860 0076 1344     		add	r3, r3, r2
 861 0078 1A46     		mov	r2, r3
 862 007a 254B     		ldr	r3, .L51
 863 007c 03F58243 		add	r3, r3, #16640
 864 0080 7C33     		adds	r3, r3, #124
 865 0082 1A60     		str	r2, [r3]
 260:..\..\src/scsi.c **** 
 261:..\..\src/scsi.c **** 		if (scsiDev.parityError &&
 866              		.loc 1 261 0
 867 0084 224B     		ldr	r3, .L51
 868 0086 D3F87031 		ldr	r3, [r3, #368]
 869 008a 002B     		cmp	r3, #0
 870 008c 19D0     		beq	.L47
 262:..\..\src/scsi.c **** 			(scsiDev.boardCfg.flags & CONFIG_ENABLE_PARITY) &&
 871              		.loc 1 262 0 discriminator 1
 872 008e 204B     		ldr	r3, .L51
 873 0090 93F86830 		ldrb	r3, [r3, #104]	@ zero_extendqisi2
ARM GAS  C:\Users\r\AppData\Local\Temp\ccbXJ1Li.s 			page 21


 874 0094 03F00203 		and	r3, r3, #2
 261:..\..\src/scsi.c **** 			(scsiDev.boardCfg.flags & CONFIG_ENABLE_PARITY) &&
 875              		.loc 1 261 0 discriminator 1
 876 0098 002B     		cmp	r3, #0
 877 009a 12D0     		beq	.L47
 263:..\..\src/scsi.c **** 			(scsiDev.compatMode >= COMPAT_SCSI2))
 878              		.loc 1 263 0
 879 009c 1C4B     		ldr	r3, .L51
 880 009e 03F58343 		add	r3, r3, #16768
 881 00a2 1733     		adds	r3, r3, #23
 882 00a4 1B78     		ldrb	r3, [r3]	@ zero_extendqisi2
 262:..\..\src/scsi.c **** 			(scsiDev.boardCfg.flags & CONFIG_ENABLE_PARITY) &&
 883              		.loc 1 262 0
 884 00a6 022B     		cmp	r3, #2
 885 00a8 0BD9     		bls	.L47
 264:..\..\src/scsi.c **** 		{
 265:..\..\src/scsi.c **** 			scsiDev.target->sense.code = ABORTED_COMMAND;
 886              		.loc 1 265 0
 887 00aa 194B     		ldr	r3, .L51
 888 00ac 1B6E     		ldr	r3, [r3, #96]
 889 00ae 0B22     		movs	r2, #11
 890 00b0 9A72     		strb	r2, [r3, #10]
 266:..\..\src/scsi.c **** 			scsiDev.target->sense.asc = SCSI_PARITY_ERROR;
 891              		.loc 1 266 0
 892 00b2 174B     		ldr	r3, .L51
 893 00b4 1B6E     		ldr	r3, [r3, #96]
 894 00b6 4FF48E42 		mov	r2, #18176
 895 00ba 9A81     		strh	r2, [r3, #12]	@ movhi
 267:..\..\src/scsi.c **** 			enter_Status(CHECK_CONDITION);
 896              		.loc 1 267 0
 897 00bc 0220     		movs	r0, #2
 898 00be FFF7FEFF 		bl	enter_Status
 899              	.L47:
 268:..\..\src/scsi.c **** 		}
 269:..\..\src/scsi.c **** 	}
 270:..\..\src/scsi.c **** 
 271:..\..\src/scsi.c **** 	if ((scsiDev.dataPtr >= scsiDev.dataLen) &&
 900              		.loc 1 271 0
 901 00c2 134B     		ldr	r3, .L51
 902 00c4 03F58243 		add	r3, r3, #16640
 903 00c8 7C33     		adds	r3, r3, #124
 904 00ca 1A68     		ldr	r2, [r3]
 905 00cc 104B     		ldr	r3, .L51
 906 00ce 03F58343 		add	r3, r3, #16768
 907 00d2 0433     		adds	r3, r3, #4
 908 00d4 1B68     		ldr	r3, [r3]
 909 00d6 9A42     		cmp	r2, r3
 910 00d8 16DB     		blt	.L50
 272:..\..\src/scsi.c **** 		(transfer.currentBlock == transfer.blocks))
 911              		.loc 1 272 0 discriminator 1
 912 00da 0F4B     		ldr	r3, .L51+8
 913 00dc DA68     		ldr	r2, [r3, #12]
 914 00de 0E4B     		ldr	r3, .L51+8
 915 00e0 9B68     		ldr	r3, [r3, #8]
 271:..\..\src/scsi.c **** 		(transfer.currentBlock == transfer.blocks))
 916              		.loc 1 271 0 discriminator 1
 917 00e2 9A42     		cmp	r2, r3
ARM GAS  C:\Users\r\AppData\Local\Temp\ccbXJ1Li.s 			page 22


 918 00e4 10D1     		bne	.L50
 273:..\..\src/scsi.c **** 	{
 274:..\..\src/scsi.c **** 		if (scsiDev.postDataOutHook != NULL)
 919              		.loc 1 274 0
 920 00e6 0A4B     		ldr	r3, .L51
 921 00e8 03F58343 		add	r3, r3, #16768
 922 00ec 2033     		adds	r3, r3, #32
 923 00ee 1B68     		ldr	r3, [r3]
 924 00f0 002B     		cmp	r3, #0
 925 00f2 06D0     		beq	.L49
 275:..\..\src/scsi.c **** 		{
 276:..\..\src/scsi.c **** 			scsiDev.postDataOutHook();
 926              		.loc 1 276 0
 927 00f4 064B     		ldr	r3, .L51
 928 00f6 03F58343 		add	r3, r3, #16768
 929 00fa 2033     		adds	r3, r3, #32
 930 00fc 1B68     		ldr	r3, [r3]
 931 00fe 9847     		blx	r3
 277:..\..\src/scsi.c **** 		}
 278:..\..\src/scsi.c **** 		else
 279:..\..\src/scsi.c **** 		{
 280:..\..\src/scsi.c **** 			enter_Status(GOOD);
 281:..\..\src/scsi.c **** 		}
 282:..\..\src/scsi.c **** 	}
 283:..\..\src/scsi.c **** }
 932              		.loc 1 283 0
 933 0100 02E0     		b	.L50
 934              	.L49:
 280:..\..\src/scsi.c **** 		}
 935              		.loc 1 280 0
 936 0102 0020     		movs	r0, #0
 937 0104 FFF7FEFF 		bl	enter_Status
 938              	.L50:
 939              		.loc 1 283 0
 940 0108 00BF     		nop
 941 010a 0837     		adds	r7, r7, #8
 942              		.cfi_def_cfa_offset 8
 943 010c BD46     		mov	sp, r7
 944              		.cfi_def_cfa_register 13
 945              		@ sp needed
 946 010e 80BD     		pop	{r7, pc}
 947              	.L52:
 948              		.align	2
 949              	.L51:
 950 0110 00000000 		.word	scsiDev
 951 0114 7C010000 		.word	scsiDev+380
 952 0118 00000000 		.word	transfer
 953              		.cfi_endproc
 954              	.LFE72:
 955              		.size	process_DataOut, .-process_DataOut
 956              		.section	.rodata
 957              		.align	2
 958              		.type	CmdGroupBytes, %object
 959              		.size	CmdGroupBytes, 8
 960              	CmdGroupBytes:
 961 0000 06       		.byte	6
 962 0001 0A       		.byte	10
ARM GAS  C:\Users\r\AppData\Local\Temp\ccbXJ1Li.s 			page 23


 963 0002 0A       		.byte	10
 964 0003 06       		.byte	6
 965 0004 06       		.byte	6
 966 0005 0C       		.byte	12
 967 0006 06       		.byte	6
 968 0007 06       		.byte	6
 969              		.section	.text.process_Command,"ax",%progbits
 970              		.align	2
 971              		.thumb
 972              		.thumb_func
 973              		.type	process_Command, %function
 974              	process_Command:
 975              	.LFB73:
 284:..\..\src/scsi.c **** 
 285:..\..\src/scsi.c **** static const uint8 CmdGroupBytes[8] = {6, 10, 10, 6, 6, 12, 6, 6};
 286:..\..\src/scsi.c **** static void process_Command()
 287:..\..\src/scsi.c **** {
 976              		.loc 1 287 0
 977              		.cfi_startproc
 978              		@ args = 0, pretend = 0, frame = 24
 979              		@ frame_needed = 1, uses_anonymous_args = 0
 980 0000 80B5     		push	{r7, lr}
 981              		.cfi_def_cfa_offset 8
 982              		.cfi_offset 7, -8
 983              		.cfi_offset 14, -4
 984 0002 86B0     		sub	sp, sp, #24
 985              		.cfi_def_cfa_offset 32
 986 0004 00AF     		add	r7, sp, #0
 987              		.cfi_def_cfa_register 7
 288:..\..\src/scsi.c **** 	int group;
 289:..\..\src/scsi.c **** 	uint8 command;
 290:..\..\src/scsi.c **** 	uint8 control;
 291:..\..\src/scsi.c **** 
 292:..\..\src/scsi.c **** 	scsiEnterPhase(COMMAND);
 988              		.loc 1 292 0
 989 0006 0220     		movs	r0, #2
 990 0008 FFF7FEFF 		bl	scsiEnterPhase
 293:..\..\src/scsi.c **** 	scsiDev.parityError = 0;
 991              		.loc 1 293 0
 992 000c A04B     		ldr	r3, .L88
 993 000e 0022     		movs	r2, #0
 994 0010 C3F87021 		str	r2, [r3, #368]
 294:..\..\src/scsi.c **** 
 295:..\..\src/scsi.c **** 	memset(scsiDev.cdb, 0, sizeof(scsiDev.cdb));
 995              		.loc 1 295 0
 996 0014 0C22     		movs	r2, #12
 997 0016 0021     		movs	r1, #0
 998 0018 9E48     		ldr	r0, .L88+4
 999 001a FFF7FEFF 		bl	memset
 296:..\..\src/scsi.c **** 	scsiDev.cdb[0] = scsiReadByte();
 1000              		.loc 1 296 0
 1001 001e FFF7FEFF 		bl	scsiReadByte
 1002 0022 0346     		mov	r3, r0
 1003 0024 1A46     		mov	r2, r3
 1004 0026 9A4B     		ldr	r3, .L88
 1005 0028 03F58343 		add	r3, r3, #16768
 1006 002c 0833     		adds	r3, r3, #8
ARM GAS  C:\Users\r\AppData\Local\Temp\ccbXJ1Li.s 			page 24


 1007 002e 1A70     		strb	r2, [r3]
 297:..\..\src/scsi.c **** 
 298:..\..\src/scsi.c **** 	group = scsiDev.cdb[0] >> 5;
 1008              		.loc 1 298 0
 1009 0030 974B     		ldr	r3, .L88
 1010 0032 03F58343 		add	r3, r3, #16768
 1011 0036 0833     		adds	r3, r3, #8
 1012 0038 1B78     		ldrb	r3, [r3]	@ zero_extendqisi2
 1013 003a 5B09     		lsrs	r3, r3, #5
 1014 003c DBB2     		uxtb	r3, r3
 1015 003e FB60     		str	r3, [r7, #12]
 299:..\..\src/scsi.c **** 	scsiDev.cdbLen = CmdGroupBytes[group];
 1016              		.loc 1 299 0
 1017 0040 954A     		ldr	r2, .L88+8
 1018 0042 FB68     		ldr	r3, [r7, #12]
 1019 0044 1344     		add	r3, r3, r2
 1020 0046 1A78     		ldrb	r2, [r3]	@ zero_extendqisi2
 1021 0048 914B     		ldr	r3, .L88
 1022 004a 03F58343 		add	r3, r3, #16768
 1023 004e 1433     		adds	r3, r3, #20
 1024 0050 1A70     		strb	r2, [r3]
 300:..\..\src/scsi.c **** 	scsiRead(scsiDev.cdb + 1, scsiDev.cdbLen - 1);
 1025              		.loc 1 300 0
 1026 0052 924A     		ldr	r2, .L88+12
 1027 0054 8E4B     		ldr	r3, .L88
 1028 0056 03F58343 		add	r3, r3, #16768
 1029 005a 1433     		adds	r3, r3, #20
 1030 005c 1B78     		ldrb	r3, [r3]	@ zero_extendqisi2
 1031 005e 013B     		subs	r3, r3, #1
 1032 0060 1946     		mov	r1, r3
 1033 0062 1046     		mov	r0, r2
 1034 0064 FFF7FEFF 		bl	scsiRead
 301:..\..\src/scsi.c **** 
 302:..\..\src/scsi.c **** 	command = scsiDev.cdb[0];
 1035              		.loc 1 302 0
 1036 0068 894B     		ldr	r3, .L88
 1037 006a 03F58343 		add	r3, r3, #16768
 1038 006e 0833     		adds	r3, r3, #8
 1039 0070 1B78     		ldrb	r3, [r3]
 1040 0072 FB72     		strb	r3, [r7, #11]
 303:..\..\src/scsi.c **** 
 304:..\..\src/scsi.c **** 	// Prefer LUN's set by IDENTIFY messages for newer hosts.
 305:..\..\src/scsi.c **** 	if (scsiDev.lun < 0)
 1041              		.loc 1 305 0
 1042 0074 864B     		ldr	r3, .L88
 1043 0076 03F58343 		add	r3, r3, #16768
 1044 007a 1533     		adds	r3, r3, #21
 1045 007c 93F90030 		ldrsb	r3, [r3]
 1046 0080 002B     		cmp	r3, #0
 1047 0082 19DA     		bge	.L54
 306:..\..\src/scsi.c **** 	{
 307:..\..\src/scsi.c **** 		if (command == 0xE0 || command == 0xE4) // XEBEC s1410
 1048              		.loc 1 307 0
 1049 0084 FB7A     		ldrb	r3, [r7, #11]	@ zero_extendqisi2
 1050 0086 E02B     		cmp	r3, #224
 1051 0088 02D0     		beq	.L55
 1052              		.loc 1 307 0 is_stmt 0 discriminator 1
ARM GAS  C:\Users\r\AppData\Local\Temp\ccbXJ1Li.s 			page 25


 1053 008a FB7A     		ldrb	r3, [r7, #11]	@ zero_extendqisi2
 1054 008c E42B     		cmp	r3, #228
 1055 008e 06D1     		bne	.L56
 1056              	.L55:
 308:..\..\src/scsi.c **** 		{
 309:..\..\src/scsi.c **** 			scsiDev.lun = 0;
 1057              		.loc 1 309 0 is_stmt 1
 1058 0090 7F4B     		ldr	r3, .L88
 1059 0092 03F58343 		add	r3, r3, #16768
 1060 0096 1533     		adds	r3, r3, #21
 1061 0098 0022     		movs	r2, #0
 1062 009a 1A70     		strb	r2, [r3]
 1063 009c 0CE0     		b	.L54
 1064              	.L56:
 310:..\..\src/scsi.c **** 		}
 311:..\..\src/scsi.c **** 		else
 312:..\..\src/scsi.c **** 		{
 313:..\..\src/scsi.c **** 			scsiDev.lun = scsiDev.cdb[1] >> 5;
 1065              		.loc 1 313 0
 1066 009e 7C4B     		ldr	r3, .L88
 1067 00a0 03F58343 		add	r3, r3, #16768
 1068 00a4 0933     		adds	r3, r3, #9
 1069 00a6 1B78     		ldrb	r3, [r3]	@ zero_extendqisi2
 1070 00a8 5B09     		lsrs	r3, r3, #5
 1071 00aa DBB2     		uxtb	r3, r3
 1072 00ac 5AB2     		sxtb	r2, r3
 1073 00ae 784B     		ldr	r3, .L88
 1074 00b0 03F58343 		add	r3, r3, #16768
 1075 00b4 1533     		adds	r3, r3, #21
 1076 00b6 1A70     		strb	r2, [r3]
 1077              	.L54:
 314:..\..\src/scsi.c **** 		}
 315:..\..\src/scsi.c **** 	}
 316:..\..\src/scsi.c **** 
 317:..\..\src/scsi.c **** 	// For Philips P2000C with Xebec S1410 SASI/MFM adapter
 318:..\..\src/scsi.c **** 	// http://bitsavers.trailing-edge.com/pdf/xebec/104524C_S1410Man_Aug83.pdf
 319:..\..\src/scsi.c **** 	if ((scsiDev.lun > 0) && (scsiDev.boardCfg.flags & CONFIG_MAP_LUNS_TO_IDS))
 1078              		.loc 1 319 0
 1079 00b8 754B     		ldr	r3, .L88
 1080 00ba 03F58343 		add	r3, r3, #16768
 1081 00be 1533     		adds	r3, r3, #21
 1082 00c0 93F90030 		ldrsb	r3, [r3]
 1083 00c4 002B     		cmp	r3, #0
 1084 00c6 2FDD     		ble	.L57
 1085              		.loc 1 319 0 is_stmt 0 discriminator 1
 1086 00c8 714B     		ldr	r3, .L88
 1087 00ca 93F86830 		ldrb	r3, [r3, #104]	@ zero_extendqisi2
 1088 00ce 5BB2     		sxtb	r3, r3
 1089 00d0 002B     		cmp	r3, #0
 1090 00d2 29DA     		bge	.L57
 1091              	.LBB2:
 320:..\..\src/scsi.c **** 	{
 321:..\..\src/scsi.c **** 		int tgtIndex;
 322:..\..\src/scsi.c **** 		for (tgtIndex = 0; tgtIndex < MAX_SCSI_TARGETS; ++tgtIndex)
 1092              		.loc 1 322 0 is_stmt 1
 1093 00d4 0023     		movs	r3, #0
 1094 00d6 7B61     		str	r3, [r7, #20]
ARM GAS  C:\Users\r\AppData\Local\Temp\ccbXJ1Li.s 			page 26


 1095 00d8 23E0     		b	.L58
 1096              	.L60:
 323:..\..\src/scsi.c **** 		{
 324:..\..\src/scsi.c **** 			if (scsiDev.targets[tgtIndex].targetId == scsiDev.lun)
 1097              		.loc 1 324 0
 1098 00da 6D49     		ldr	r1, .L88
 1099 00dc 7A69     		ldr	r2, [r7, #20]
 1100 00de 1346     		mov	r3, r2
 1101 00e0 5B00     		lsls	r3, r3, #1
 1102 00e2 1344     		add	r3, r3, r2
 1103 00e4 DB00     		lsls	r3, r3, #3
 1104 00e6 0B44     		add	r3, r3, r1
 1105 00e8 1B78     		ldrb	r3, [r3]	@ zero_extendqisi2
 1106 00ea 1A46     		mov	r2, r3
 1107 00ec 684B     		ldr	r3, .L88
 1108 00ee 03F58343 		add	r3, r3, #16768
 1109 00f2 1533     		adds	r3, r3, #21
 1110 00f4 93F90030 		ldrsb	r3, [r3]
 1111 00f8 9A42     		cmp	r2, r3
 1112 00fa 0FD1     		bne	.L59
 325:..\..\src/scsi.c **** 			{
 326:..\..\src/scsi.c **** 				scsiDev.target = &scsiDev.targets[tgtIndex];
 1113              		.loc 1 326 0
 1114 00fc 7A69     		ldr	r2, [r7, #20]
 1115 00fe 1346     		mov	r3, r2
 1116 0100 5B00     		lsls	r3, r3, #1
 1117 0102 1344     		add	r3, r3, r2
 1118 0104 DB00     		lsls	r3, r3, #3
 1119 0106 624A     		ldr	r2, .L88
 1120 0108 1344     		add	r3, r3, r2
 1121 010a 614A     		ldr	r2, .L88
 1122 010c 1366     		str	r3, [r2, #96]
 327:..\..\src/scsi.c **** 				scsiDev.lun = 0;
 1123              		.loc 1 327 0
 1124 010e 604B     		ldr	r3, .L88
 1125 0110 03F58343 		add	r3, r3, #16768
 1126 0114 1533     		adds	r3, r3, #21
 1127 0116 0022     		movs	r2, #0
 1128 0118 1A70     		strb	r2, [r3]
 328:..\..\src/scsi.c **** 				break;
 1129              		.loc 1 328 0
 1130 011a 05E0     		b	.L57
 1131              	.L59:
 322:..\..\src/scsi.c **** 		{
 1132              		.loc 1 322 0 discriminator 2
 1133 011c 7B69     		ldr	r3, [r7, #20]
 1134 011e 0133     		adds	r3, r3, #1
 1135 0120 7B61     		str	r3, [r7, #20]
 1136              	.L58:
 322:..\..\src/scsi.c **** 		{
 1137              		.loc 1 322 0 is_stmt 0 discriminator 1
 1138 0122 7B69     		ldr	r3, [r7, #20]
 1139 0124 032B     		cmp	r3, #3
 1140 0126 D8DD     		ble	.L60
 1141              	.L57:
 1142              	.LBE2:
 329:..\..\src/scsi.c **** 			}
ARM GAS  C:\Users\r\AppData\Local\Temp\ccbXJ1Li.s 			page 27


 330:..\..\src/scsi.c **** 		}
 331:..\..\src/scsi.c **** 	}
 332:..\..\src/scsi.c **** 
 333:..\..\src/scsi.c **** 
 334:..\..\src/scsi.c **** 	control = scsiDev.cdb[scsiDev.cdbLen - 1];
 1143              		.loc 1 334 0 is_stmt 1
 1144 0128 594B     		ldr	r3, .L88
 1145 012a 03F58343 		add	r3, r3, #16768
 1146 012e 1433     		adds	r3, r3, #20
 1147 0130 1B78     		ldrb	r3, [r3]	@ zero_extendqisi2
 1148 0132 013B     		subs	r3, r3, #1
 1149 0134 564A     		ldr	r2, .L88
 1150 0136 1344     		add	r3, r3, r2
 1151 0138 03F58343 		add	r3, r3, #16768
 1152 013c 0833     		adds	r3, r3, #8
 1153 013e 1B78     		ldrb	r3, [r3]
 1154 0140 BB72     		strb	r3, [r7, #10]
 335:..\..\src/scsi.c **** 
 336:..\..\src/scsi.c **** 	scsiDev.cmdCount++;
 1155              		.loc 1 336 0
 1156 0142 534B     		ldr	r3, .L88
 1157 0144 03F58343 		add	r3, r3, #16768
 1158 0148 2433     		adds	r3, r3, #36
 1159 014a 1B78     		ldrb	r3, [r3]	@ zero_extendqisi2
 1160 014c 0133     		adds	r3, r3, #1
 1161 014e DAB2     		uxtb	r2, r3
 1162 0150 4F4B     		ldr	r3, .L88
 1163 0152 03F58343 		add	r3, r3, #16768
 1164 0156 2433     		adds	r3, r3, #36
 1165 0158 1A70     		strb	r2, [r3]
 337:..\..\src/scsi.c **** 	const TargetConfig* cfg = scsiDev.target->cfg;
 1166              		.loc 1 337 0
 1167 015a 4D4B     		ldr	r3, .L88
 1168 015c 1B6E     		ldr	r3, [r3, #96]
 1169 015e 5B68     		ldr	r3, [r3, #4]
 1170 0160 7B60     		str	r3, [r7, #4]
 338:..\..\src/scsi.c **** 
 339:..\..\src/scsi.c **** 	if (unlikely(scsiDev.resetFlag))
 1171              		.loc 1 339 0
 1172 0162 4B4B     		ldr	r3, .L88
 1173 0164 D3F86831 		ldr	r3, [r3, #360]
 1174 0168 002B     		cmp	r3, #0
 1175 016a 14BF     		ite	ne
 1176 016c 0123     		movne	r3, #1
 1177 016e 0023     		moveq	r3, #0
 1178 0170 DBB2     		uxtb	r3, r3
 1179 0172 002B     		cmp	r3, #0
 1180 0174 11D0     		beq	.L61
 340:..\..\src/scsi.c **** 	{
 341:..\..\src/scsi.c **** 		// Don't log bogus commands
 342:..\..\src/scsi.c **** 		scsiDev.cmdCount--;
 1181              		.loc 1 342 0
 1182 0176 464B     		ldr	r3, .L88
 1183 0178 03F58343 		add	r3, r3, #16768
 1184 017c 2433     		adds	r3, r3, #36
 1185 017e 1B78     		ldrb	r3, [r3]	@ zero_extendqisi2
 1186 0180 013B     		subs	r3, r3, #1
ARM GAS  C:\Users\r\AppData\Local\Temp\ccbXJ1Li.s 			page 28


 1187 0182 DAB2     		uxtb	r2, r3
 1188 0184 424B     		ldr	r3, .L88
 1189 0186 03F58343 		add	r3, r3, #16768
 1190 018a 2433     		adds	r3, r3, #36
 1191 018c 1A70     		strb	r2, [r3]
 343:..\..\src/scsi.c **** 		memset(scsiDev.cdb, 0xff, sizeof(scsiDev.cdb));
 1192              		.loc 1 343 0
 1193 018e 0C22     		movs	r2, #12
 1194 0190 FF21     		movs	r1, #255
 1195 0192 4048     		ldr	r0, .L88+4
 1196 0194 FFF7FEFF 		bl	memset
 344:..\..\src/scsi.c **** 		return;
 1197              		.loc 1 344 0
 1198 0198 AEE1     		b	.L53
 1199              	.L61:
 345:..\..\src/scsi.c **** 	}
 346:..\..\src/scsi.c **** 	else if (scsiDev.parityError &&
 1200              		.loc 1 346 0
 1201 019a 3D4B     		ldr	r3, .L88
 1202 019c D3F87031 		ldr	r3, [r3, #368]
 1203 01a0 002B     		cmp	r3, #0
 1204 01a2 1AD0     		beq	.L63
 347:..\..\src/scsi.c **** 		(scsiDev.boardCfg.flags & CONFIG_ENABLE_PARITY) &&
 1205              		.loc 1 347 0 discriminator 1
 1206 01a4 3A4B     		ldr	r3, .L88
 1207 01a6 93F86830 		ldrb	r3, [r3, #104]	@ zero_extendqisi2
 1208 01aa 03F00203 		and	r3, r3, #2
 346:..\..\src/scsi.c **** 		(scsiDev.boardCfg.flags & CONFIG_ENABLE_PARITY) &&
 1209              		.loc 1 346 0 discriminator 1
 1210 01ae 002B     		cmp	r3, #0
 1211 01b0 13D0     		beq	.L63
 348:..\..\src/scsi.c **** 		(scsiDev.compatMode >= COMPAT_SCSI2))
 1212              		.loc 1 348 0
 1213 01b2 374B     		ldr	r3, .L88
 1214 01b4 03F58343 		add	r3, r3, #16768
 1215 01b8 1733     		adds	r3, r3, #23
 1216 01ba 1B78     		ldrb	r3, [r3]	@ zero_extendqisi2
 347:..\..\src/scsi.c **** 		(scsiDev.boardCfg.flags & CONFIG_ENABLE_PARITY) &&
 1217              		.loc 1 347 0
 1218 01bc 022B     		cmp	r3, #2
 1219 01be 0CD9     		bls	.L63
 349:..\..\src/scsi.c **** 	{
 350:..\..\src/scsi.c **** 		scsiDev.target->sense.code = ABORTED_COMMAND;
 1220              		.loc 1 350 0
 1221 01c0 334B     		ldr	r3, .L88
 1222 01c2 1B6E     		ldr	r3, [r3, #96]
 1223 01c4 0B22     		movs	r2, #11
 1224 01c6 9A72     		strb	r2, [r3, #10]
 351:..\..\src/scsi.c **** 		scsiDev.target->sense.asc = SCSI_PARITY_ERROR;
 1225              		.loc 1 351 0
 1226 01c8 314B     		ldr	r3, .L88
 1227 01ca 1B6E     		ldr	r3, [r3, #96]
 1228 01cc 4FF48E42 		mov	r2, #18176
 1229 01d0 9A81     		strh	r2, [r3, #12]	@ movhi
 352:..\..\src/scsi.c **** 		enter_Status(CHECK_CONDITION);
 1230              		.loc 1 352 0
 1231 01d2 0220     		movs	r0, #2
ARM GAS  C:\Users\r\AppData\Local\Temp\ccbXJ1Li.s 			page 29


 1232 01d4 FFF7FEFF 		bl	enter_Status
 1233 01d8 86E1     		b	.L64
 1234              	.L63:
 353:..\..\src/scsi.c **** 	}
 354:..\..\src/scsi.c **** 	else if ((control & 0x02) && ((control & 0x01) == 0) &&
 1235              		.loc 1 354 0
 1236 01da BB7A     		ldrb	r3, [r7, #10]	@ zero_extendqisi2
 1237 01dc 03F00203 		and	r3, r3, #2
 1238 01e0 002B     		cmp	r3, #0
 1239 01e2 1DD0     		beq	.L65
 1240              		.loc 1 354 0 is_stmt 0 discriminator 1
 1241 01e4 BB7A     		ldrb	r3, [r7, #10]	@ zero_extendqisi2
 1242 01e6 03F00103 		and	r3, r3, #1
 1243 01ea 002B     		cmp	r3, #0
 1244 01ec 18D1     		bne	.L65
 355:..\..\src/scsi.c **** 		// used for head step options on xebec.
 356:..\..\src/scsi.c **** 		likely(scsiDev.target->cfg->quirks != CONFIG_QUIRKS_XEBEC))
 1245              		.loc 1 356 0 is_stmt 1 discriminator 2
 1246 01ee 284B     		ldr	r3, .L88
 1247 01f0 1B6E     		ldr	r3, [r3, #96]
 1248 01f2 5B68     		ldr	r3, [r3, #4]
 1249 01f4 DB8F     		ldrh	r3, [r3, #62]	@ unaligned
 1250 01f6 9BB2     		uxth	r3, r3
 1251 01f8 042B     		cmp	r3, #4
 1252 01fa 14BF     		ite	ne
 1253 01fc 0123     		movne	r3, #1
 1254 01fe 0023     		moveq	r3, #0
 1255 0200 DBB2     		uxtb	r3, r3
 354:..\..\src/scsi.c **** 		// used for head step options on xebec.
 1256              		.loc 1 354 0 discriminator 2
 1257 0202 002B     		cmp	r3, #0
 1258 0204 0CD0     		beq	.L65
 357:..\..\src/scsi.c **** 	{
 358:..\..\src/scsi.c **** 		// FLAG set without LINK flag.
 359:..\..\src/scsi.c **** 		scsiDev.target->sense.code = ILLEGAL_REQUEST;
 1259              		.loc 1 359 0
 1260 0206 224B     		ldr	r3, .L88
 1261 0208 1B6E     		ldr	r3, [r3, #96]
 1262 020a 0522     		movs	r2, #5
 1263 020c 9A72     		strb	r2, [r3, #10]
 360:..\..\src/scsi.c **** 		scsiDev.target->sense.asc = INVALID_FIELD_IN_CDB;
 1264              		.loc 1 360 0
 1265 020e 204B     		ldr	r3, .L88
 1266 0210 1B6E     		ldr	r3, [r3, #96]
 1267 0212 4FF41052 		mov	r2, #9216
 1268 0216 9A81     		strh	r2, [r3, #12]	@ movhi
 361:..\..\src/scsi.c **** 		enter_Status(CHECK_CONDITION);
 1269              		.loc 1 361 0
 1270 0218 0220     		movs	r0, #2
 1271 021a FFF7FEFF 		bl	enter_Status
 1272 021e 63E1     		b	.L64
 1273              	.L65:
 362:..\..\src/scsi.c **** 	}
 363:..\..\src/scsi.c **** 	else if (command == 0x12)
 1274              		.loc 1 363 0
 1275 0220 FB7A     		ldrb	r3, [r7, #11]	@ zero_extendqisi2
 1276 0222 122B     		cmp	r3, #18
ARM GAS  C:\Users\r\AppData\Local\Temp\ccbXJ1Li.s 			page 30


 1277 0224 02D1     		bne	.L66
 364:..\..\src/scsi.c **** 	{
 365:..\..\src/scsi.c **** 		scsiInquiry();
 1278              		.loc 1 365 0
 1279 0226 FFF7FEFF 		bl	scsiInquiry
 1280 022a 5DE1     		b	.L64
 1281              	.L66:
 366:..\..\src/scsi.c **** 	}
 367:..\..\src/scsi.c **** 	else if (command == 0x03)
 1282              		.loc 1 367 0
 1283 022c FB7A     		ldrb	r3, [r7, #11]	@ zero_extendqisi2
 1284 022e 032B     		cmp	r3, #3
 1285 0230 40F0B080 		bne	.L67
 1286              	.LBB3:
 368:..\..\src/scsi.c **** 	{
 369:..\..\src/scsi.c **** 		// REQUEST SENSE
 370:..\..\src/scsi.c **** 		uint32 allocLength = scsiDev.cdb[4];
 1287              		.loc 1 370 0
 1288 0234 164B     		ldr	r3, .L88
 1289 0236 03F58343 		add	r3, r3, #16768
 1290 023a 0C33     		adds	r3, r3, #12
 1291 023c 1B78     		ldrb	r3, [r3]	@ zero_extendqisi2
 1292 023e 3B61     		str	r3, [r7, #16]
 371:..\..\src/scsi.c **** 
 372:..\..\src/scsi.c **** 		if (scsiDev.target->cfg->quirks == CONFIG_QUIRKS_XEBEC)
 1293              		.loc 1 372 0
 1294 0240 134B     		ldr	r3, .L88
 1295 0242 1B6E     		ldr	r3, [r3, #96]
 1296 0244 5B68     		ldr	r3, [r3, #4]
 1297 0246 DB8F     		ldrh	r3, [r3, #62]	@ unaligned
 1298 0248 9BB2     		uxth	r3, r3
 1299 024a 042B     		cmp	r3, #4
 1300 024c 4ED1     		bne	.L68
 373:..\..\src/scsi.c **** 		{
 374:..\..\src/scsi.c **** 			// Completely non-standard
 375:..\..\src/scsi.c **** 			allocLength = 4;
 1301              		.loc 1 375 0
 1302 024e 0423     		movs	r3, #4
 1303 0250 3B61     		str	r3, [r7, #16]
 376:..\..\src/scsi.c **** 			if (scsiDev.target->sense.code == NO_SENSE)
 1304              		.loc 1 376 0
 1305 0252 0F4B     		ldr	r3, .L88
 1306 0254 1B6E     		ldr	r3, [r3, #96]
 1307 0256 9B7A     		ldrb	r3, [r3, #10]	@ zero_extendqisi2
 1308 0258 002B     		cmp	r3, #0
 1309 025a 04D1     		bne	.L69
 377:..\..\src/scsi.c **** 				scsiDev.data[0] = 0;
 1310              		.loc 1 377 0
 1311 025c 0C4B     		ldr	r3, .L88
 1312 025e 0022     		movs	r2, #0
 1313 0260 83F87C21 		strb	r2, [r3, #380]
 1314 0264 20E0     		b	.L70
 1315              	.L69:
 378:..\..\src/scsi.c **** 			else if (scsiDev.target->sense.code == ILLEGAL_REQUEST)
 1316              		.loc 1 378 0
 1317 0266 0A4B     		ldr	r3, .L88
 1318 0268 1B6E     		ldr	r3, [r3, #96]
ARM GAS  C:\Users\r\AppData\Local\Temp\ccbXJ1Li.s 			page 31


 1319 026a 9B7A     		ldrb	r3, [r3, #10]	@ zero_extendqisi2
 1320 026c 052B     		cmp	r3, #5
 1321 026e 04D1     		bne	.L71
 379:..\..\src/scsi.c **** 				scsiDev.data[0] = 0x20; // Illegal command
 1322              		.loc 1 379 0
 1323 0270 074B     		ldr	r3, .L88
 1324 0272 2022     		movs	r2, #32
 1325 0274 83F87C21 		strb	r2, [r3, #380]
 1326 0278 16E0     		b	.L70
 1327              	.L71:
 380:..\..\src/scsi.c **** 			else if (scsiDev.target->sense.code == NOT_READY)
 1328              		.loc 1 380 0
 1329 027a 054B     		ldr	r3, .L88
 1330 027c 1B6E     		ldr	r3, [r3, #96]
 1331 027e 9B7A     		ldrb	r3, [r3, #10]	@ zero_extendqisi2
 1332 0280 022B     		cmp	r3, #2
 1333 0282 0DD1     		bne	.L72
 381:..\..\src/scsi.c **** 				scsiDev.data[0] = 0x04; // Drive not ready
 1334              		.loc 1 381 0
 1335 0284 024B     		ldr	r3, .L88
 1336 0286 0422     		movs	r2, #4
 1337 0288 83F87C21 		strb	r2, [r3, #380]
 1338 028c 0CE0     		b	.L70
 1339              	.L89:
 1340 028e 00BF     		.align	2
 1341              	.L88:
 1342 0290 00000000 		.word	scsiDev
 1343 0294 88410000 		.word	scsiDev+16776
 1344 0298 00000000 		.word	CmdGroupBytes
 1345 029c 89410000 		.word	scsiDev+16777
 1346              	.L72:
 382:..\..\src/scsi.c **** 			else
 383:..\..\src/scsi.c **** 				scsiDev.data[0] = 0x11;  // Uncorrectable data error
 1347              		.loc 1 383 0
 1348 02a0 974B     		ldr	r3, .L90
 1349 02a2 1122     		movs	r2, #17
 1350 02a4 83F87C21 		strb	r2, [r3, #380]
 1351              	.L70:
 384:..\..\src/scsi.c **** 
 385:..\..\src/scsi.c **** 			scsiDev.data[1] = (scsiDev.cdb[1] & 0x20) | ((transfer.lba >> 16) & 0x1F);
 1352              		.loc 1 385 0
 1353 02a8 954B     		ldr	r3, .L90
 1354 02aa 03F58343 		add	r3, r3, #16768
 1355 02ae 0933     		adds	r3, r3, #9
 1356 02b0 1B78     		ldrb	r3, [r3]	@ zero_extendqisi2
 1357 02b2 03F02003 		and	r3, r3, #32
 1358 02b6 DAB2     		uxtb	r2, r3
 1359 02b8 924B     		ldr	r3, .L90+4
 1360 02ba 5B68     		ldr	r3, [r3, #4]
 1361 02bc 1B0C     		lsrs	r3, r3, #16
 1362 02be DBB2     		uxtb	r3, r3
 1363 02c0 03F01F03 		and	r3, r3, #31
 1364 02c4 DBB2     		uxtb	r3, r3
 1365 02c6 1343     		orrs	r3, r3, r2
 1366 02c8 DAB2     		uxtb	r2, r3
 1367 02ca 8D4B     		ldr	r3, .L90
 1368 02cc 83F87D21 		strb	r2, [r3, #381]
ARM GAS  C:\Users\r\AppData\Local\Temp\ccbXJ1Li.s 			page 32


 386:..\..\src/scsi.c **** 			scsiDev.data[2] = transfer.lba >> 8;
 1369              		.loc 1 386 0
 1370 02d0 8C4B     		ldr	r3, .L90+4
 1371 02d2 5B68     		ldr	r3, [r3, #4]
 1372 02d4 1B0A     		lsrs	r3, r3, #8
 1373 02d6 DAB2     		uxtb	r2, r3
 1374 02d8 894B     		ldr	r3, .L90
 1375 02da 83F87E21 		strb	r2, [r3, #382]
 387:..\..\src/scsi.c **** 			scsiDev.data[3] = transfer.lba;
 1376              		.loc 1 387 0
 1377 02de 894B     		ldr	r3, .L90+4
 1378 02e0 5B68     		ldr	r3, [r3, #4]
 1379 02e2 DAB2     		uxtb	r2, r3
 1380 02e4 864B     		ldr	r3, .L90
 1381 02e6 83F87F21 		strb	r2, [r3, #383]
 1382 02ea 46E0     		b	.L73
 1383              	.L68:
 388:..\..\src/scsi.c **** 
 389:..\..\src/scsi.c **** 		}
 390:..\..\src/scsi.c **** 		else
 391:..\..\src/scsi.c **** 		{
 392:..\..\src/scsi.c **** 		// As specified by the SASI and SCSI1 standard.
 393:..\..\src/scsi.c **** 		// Newer initiators won't be specifying 0 anyway.
 394:..\..\src/scsi.c **** 		if (allocLength == 0) allocLength = 4;
 1384              		.loc 1 394 0
 1385 02ec 3B69     		ldr	r3, [r7, #16]
 1386 02ee 002B     		cmp	r3, #0
 1387 02f0 01D1     		bne	.L74
 1388              		.loc 1 394 0 is_stmt 0 discriminator 1
 1389 02f2 0423     		movs	r3, #4
 1390 02f4 3B61     		str	r3, [r7, #16]
 1391              	.L74:
 395:..\..\src/scsi.c **** 
 396:..\..\src/scsi.c **** 		memset(scsiDev.data, 0, 256); // Max possible alloc length
 1392              		.loc 1 396 0 is_stmt 1
 1393 02f6 4FF48072 		mov	r2, #256
 1394 02fa 0021     		movs	r1, #0
 1395 02fc 8248     		ldr	r0, .L90+8
 1396 02fe FFF7FEFF 		bl	memset
 397:..\..\src/scsi.c **** 		scsiDev.data[0] = 0xF0;
 1397              		.loc 1 397 0
 1398 0302 7F4B     		ldr	r3, .L90
 1399 0304 F022     		movs	r2, #240
 1400 0306 83F87C21 		strb	r2, [r3, #380]
 398:..\..\src/scsi.c **** 		scsiDev.data[2] = scsiDev.target->sense.code & 0x0F;
 1401              		.loc 1 398 0
 1402 030a 7D4B     		ldr	r3, .L90
 1403 030c 1B6E     		ldr	r3, [r3, #96]
 1404 030e 9B7A     		ldrb	r3, [r3, #10]	@ zero_extendqisi2
 1405 0310 03F00F03 		and	r3, r3, #15
 1406 0314 DAB2     		uxtb	r2, r3
 1407 0316 7A4B     		ldr	r3, .L90
 1408 0318 83F87E21 		strb	r2, [r3, #382]
 399:..\..\src/scsi.c **** 
 400:..\..\src/scsi.c **** 		scsiDev.data[3] = transfer.lba >> 24;
 1409              		.loc 1 400 0
 1410 031c 794B     		ldr	r3, .L90+4
ARM GAS  C:\Users\r\AppData\Local\Temp\ccbXJ1Li.s 			page 33


 1411 031e 5B68     		ldr	r3, [r3, #4]
 1412 0320 1B0E     		lsrs	r3, r3, #24
 1413 0322 DAB2     		uxtb	r2, r3
 1414 0324 764B     		ldr	r3, .L90
 1415 0326 83F87F21 		strb	r2, [r3, #383]
 401:..\..\src/scsi.c **** 		scsiDev.data[4] = transfer.lba >> 16;
 1416              		.loc 1 401 0
 1417 032a 764B     		ldr	r3, .L90+4
 1418 032c 5B68     		ldr	r3, [r3, #4]
 1419 032e 1B0C     		lsrs	r3, r3, #16
 1420 0330 DAB2     		uxtb	r2, r3
 1421 0332 734B     		ldr	r3, .L90
 1422 0334 83F88021 		strb	r2, [r3, #384]
 402:..\..\src/scsi.c **** 		scsiDev.data[5] = transfer.lba >> 8;
 1423              		.loc 1 402 0
 1424 0338 724B     		ldr	r3, .L90+4
 1425 033a 5B68     		ldr	r3, [r3, #4]
 1426 033c 1B0A     		lsrs	r3, r3, #8
 1427 033e DAB2     		uxtb	r2, r3
 1428 0340 6F4B     		ldr	r3, .L90
 1429 0342 83F88121 		strb	r2, [r3, #385]
 403:..\..\src/scsi.c **** 		scsiDev.data[6] = transfer.lba;
 1430              		.loc 1 403 0
 1431 0346 6F4B     		ldr	r3, .L90+4
 1432 0348 5B68     		ldr	r3, [r3, #4]
 1433 034a DAB2     		uxtb	r2, r3
 1434 034c 6C4B     		ldr	r3, .L90
 1435 034e 83F88221 		strb	r2, [r3, #386]
 404:..\..\src/scsi.c **** 
 405:..\..\src/scsi.c **** 		// Additional bytes if there are errors to report
 406:..\..\src/scsi.c **** 		scsiDev.data[7] = 10; // additional length
 1436              		.loc 1 406 0
 1437 0352 6B4B     		ldr	r3, .L90
 1438 0354 0A22     		movs	r2, #10
 1439 0356 83F88321 		strb	r2, [r3, #387]
 407:..\..\src/scsi.c **** 		scsiDev.data[12] = scsiDev.target->sense.asc >> 8;
 1440              		.loc 1 407 0
 1441 035a 694B     		ldr	r3, .L90
 1442 035c 1B6E     		ldr	r3, [r3, #96]
 1443 035e 9B89     		ldrh	r3, [r3, #12]
 1444 0360 1B0A     		lsrs	r3, r3, #8
 1445 0362 9BB2     		uxth	r3, r3
 1446 0364 DAB2     		uxtb	r2, r3
 1447 0366 664B     		ldr	r3, .L90
 1448 0368 83F88821 		strb	r2, [r3, #392]
 408:..\..\src/scsi.c **** 		scsiDev.data[13] = scsiDev.target->sense.asc;
 1449              		.loc 1 408 0
 1450 036c 644B     		ldr	r3, .L90
 1451 036e 1B6E     		ldr	r3, [r3, #96]
 1452 0370 9B89     		ldrh	r3, [r3, #12]
 1453 0372 DAB2     		uxtb	r2, r3
 1454 0374 624B     		ldr	r3, .L90
 1455 0376 83F88921 		strb	r2, [r3, #393]
 1456              	.L73:
 409:..\..\src/scsi.c **** 		}
 410:..\..\src/scsi.c **** 
 411:..\..\src/scsi.c **** 		// Silently truncate results. SCSI-2 spec 8.2.14.
ARM GAS  C:\Users\r\AppData\Local\Temp\ccbXJ1Li.s 			page 34


 412:..\..\src/scsi.c **** 		enter_DataIn(allocLength);
 1457              		.loc 1 412 0
 1458 037a 3B69     		ldr	r3, [r7, #16]
 1459 037c 1846     		mov	r0, r3
 1460 037e FFF7FEFF 		bl	enter_DataIn
 413:..\..\src/scsi.c **** 
 414:..\..\src/scsi.c **** 		// This is a good time to clear out old sense information.
 415:..\..\src/scsi.c **** 		scsiDev.target->sense.code = NO_SENSE;
 1461              		.loc 1 415 0
 1462 0382 5F4B     		ldr	r3, .L90
 1463 0384 1B6E     		ldr	r3, [r3, #96]
 1464 0386 0022     		movs	r2, #0
 1465 0388 9A72     		strb	r2, [r3, #10]
 416:..\..\src/scsi.c **** 		scsiDev.target->sense.asc = NO_ADDITIONAL_SENSE_INFORMATION;
 1466              		.loc 1 416 0
 1467 038a 5D4B     		ldr	r3, .L90
 1468 038c 1B6E     		ldr	r3, [r3, #96]
 1469 038e 0022     		movs	r2, #0
 1470 0390 9A81     		strh	r2, [r3, #12]	@ movhi
 1471              	.LBE3:
 1472 0392 A9E0     		b	.L64
 1473              	.L67:
 417:..\..\src/scsi.c **** 	}
 418:..\..\src/scsi.c **** 	// Some old SCSI drivers do NOT properly support
 419:..\..\src/scsi.c **** 	// unitAttention. eg. the Mac Plus would trigger a SCSI reset
 420:..\..\src/scsi.c **** 	// on receiving the unit attention response on boot, thus
 421:..\..\src/scsi.c **** 	// triggering another unit attention condition.
 422:..\..\src/scsi.c **** 	else if (scsiDev.target->unitAttention &&
 1474              		.loc 1 422 0
 1475 0394 5A4B     		ldr	r3, .L90
 1476 0396 1B6E     		ldr	r3, [r3, #96]
 1477 0398 DB89     		ldrh	r3, [r3, #14]
 1478 039a 002B     		cmp	r3, #0
 1479 039c 18D0     		beq	.L75
 423:..\..\src/scsi.c **** 		(scsiDev.boardCfg.flags & CONFIG_ENABLE_UNIT_ATTENTION))
 1480              		.loc 1 423 0 discriminator 1
 1481 039e 584B     		ldr	r3, .L90
 1482 03a0 93F86830 		ldrb	r3, [r3, #104]	@ zero_extendqisi2
 1483 03a4 03F00103 		and	r3, r3, #1
 422:..\..\src/scsi.c **** 		(scsiDev.boardCfg.flags & CONFIG_ENABLE_UNIT_ATTENTION))
 1484              		.loc 1 422 0 discriminator 1
 1485 03a8 002B     		cmp	r3, #0
 1486 03aa 11D0     		beq	.L75
 424:..\..\src/scsi.c **** 	{
 425:..\..\src/scsi.c **** 		scsiDev.target->sense.code = UNIT_ATTENTION;
 1487              		.loc 1 425 0
 1488 03ac 544B     		ldr	r3, .L90
 1489 03ae 1B6E     		ldr	r3, [r3, #96]
 1490 03b0 0622     		movs	r2, #6
 1491 03b2 9A72     		strb	r2, [r3, #10]
 426:..\..\src/scsi.c **** 		scsiDev.target->sense.asc = scsiDev.target->unitAttention;
 1492              		.loc 1 426 0
 1493 03b4 524B     		ldr	r3, .L90
 1494 03b6 1B6E     		ldr	r3, [r3, #96]
 1495 03b8 514A     		ldr	r2, .L90
 1496 03ba 126E     		ldr	r2, [r2, #96]
 1497 03bc D289     		ldrh	r2, [r2, #14]
ARM GAS  C:\Users\r\AppData\Local\Temp\ccbXJ1Li.s 			page 35


 1498 03be 9A81     		strh	r2, [r3, #12]	@ movhi
 427:..\..\src/scsi.c **** 
 428:..\..\src/scsi.c **** 		// If initiator doesn't do REQUEST SENSE for the next command, then
 429:..\..\src/scsi.c **** 		// data is lost.
 430:..\..\src/scsi.c **** 		scsiDev.target->unitAttention = 0;
 1499              		.loc 1 430 0
 1500 03c0 4F4B     		ldr	r3, .L90
 1501 03c2 1B6E     		ldr	r3, [r3, #96]
 1502 03c4 0022     		movs	r2, #0
 1503 03c6 DA81     		strh	r2, [r3, #14]	@ movhi
 431:..\..\src/scsi.c **** 
 432:..\..\src/scsi.c **** 		enter_Status(CHECK_CONDITION);
 1504              		.loc 1 432 0
 1505 03c8 0220     		movs	r0, #2
 1506 03ca FFF7FEFF 		bl	enter_Status
 1507 03ce 8BE0     		b	.L64
 1508              	.L75:
 433:..\..\src/scsi.c **** 	}
 434:..\..\src/scsi.c **** 	else if (scsiDev.lun)
 1509              		.loc 1 434 0
 1510 03d0 4B4B     		ldr	r3, .L90
 1511 03d2 03F58343 		add	r3, r3, #16768
 1512 03d6 1533     		adds	r3, r3, #21
 1513 03d8 93F90030 		ldrsb	r3, [r3]
 1514 03dc 002B     		cmp	r3, #0
 1515 03de 0CD0     		beq	.L76
 435:..\..\src/scsi.c **** 	{
 436:..\..\src/scsi.c **** 		scsiDev.target->sense.code = ILLEGAL_REQUEST;
 1516              		.loc 1 436 0
 1517 03e0 474B     		ldr	r3, .L90
 1518 03e2 1B6E     		ldr	r3, [r3, #96]
 1519 03e4 0522     		movs	r2, #5
 1520 03e6 9A72     		strb	r2, [r3, #10]
 437:..\..\src/scsi.c **** 		scsiDev.target->sense.asc = LOGICAL_UNIT_NOT_SUPPORTED;
 1521              		.loc 1 437 0
 1522 03e8 454B     		ldr	r3, .L90
 1523 03ea 1B6E     		ldr	r3, [r3, #96]
 1524 03ec 4FF41452 		mov	r2, #9472
 1525 03f0 9A81     		strh	r2, [r3, #12]	@ movhi
 438:..\..\src/scsi.c **** 		enter_Status(CHECK_CONDITION);
 1526              		.loc 1 438 0
 1527 03f2 0220     		movs	r0, #2
 1528 03f4 FFF7FEFF 		bl	enter_Status
 1529 03f8 76E0     		b	.L64
 1530              	.L76:
 439:..\..\src/scsi.c **** 	}
 440:..\..\src/scsi.c **** 	else if (command == 0x17 || command == 0x16)
 1531              		.loc 1 440 0
 1532 03fa FB7A     		ldrb	r3, [r7, #11]	@ zero_extendqisi2
 1533 03fc 172B     		cmp	r3, #23
 1534 03fe 02D0     		beq	.L77
 1535              		.loc 1 440 0 is_stmt 0 discriminator 1
 1536 0400 FB7A     		ldrb	r3, [r7, #11]	@ zero_extendqisi2
 1537 0402 162B     		cmp	r3, #22
 1538 0404 02D1     		bne	.L78
 1539              	.L77:
 441:..\..\src/scsi.c **** 	{
ARM GAS  C:\Users\r\AppData\Local\Temp\ccbXJ1Li.s 			page 36


 442:..\..\src/scsi.c **** 		doReserveRelease();
 1540              		.loc 1 442 0 is_stmt 1
 1541 0406 FFF7FEFF 		bl	doReserveRelease
 1542 040a 6DE0     		b	.L64
 1543              	.L78:
 443:..\..\src/scsi.c **** 	}
 444:..\..\src/scsi.c **** 	else if ((scsiDev.target->reservedId >= 0) &&
 1544              		.loc 1 444 0
 1545 040c 3C4B     		ldr	r3, .L90
 1546 040e 1B6E     		ldr	r3, [r3, #96]
 1547 0410 1B69     		ldr	r3, [r3, #16]
 1548 0412 002B     		cmp	r3, #0
 1549 0414 0DDB     		blt	.L79
 445:..\..\src/scsi.c **** 		(scsiDev.target->reservedId != scsiDev.initiatorId))
 1550              		.loc 1 445 0 discriminator 1
 1551 0416 3A4B     		ldr	r3, .L90
 1552 0418 1B6E     		ldr	r3, [r3, #96]
 1553 041a 1A69     		ldr	r2, [r3, #16]
 1554 041c 384B     		ldr	r3, .L90
 1555 041e 03F58343 		add	r3, r3, #16768
 1556 0422 1833     		adds	r3, r3, #24
 1557 0424 1B68     		ldr	r3, [r3]
 444:..\..\src/scsi.c **** 		(scsiDev.target->reservedId != scsiDev.initiatorId))
 1558              		.loc 1 444 0 discriminator 1
 1559 0426 9A42     		cmp	r2, r3
 1560 0428 03D0     		beq	.L79
 446:..\..\src/scsi.c **** 	{
 447:..\..\src/scsi.c **** 		enter_Status(CONFLICT);
 1561              		.loc 1 447 0
 1562 042a 1820     		movs	r0, #24
 1563 042c FFF7FEFF 		bl	enter_Status
 1564 0430 5AE0     		b	.L64
 1565              	.L79:
 448:..\..\src/scsi.c **** 	}
 449:..\..\src/scsi.c **** 	// Handle odd device types first that may override basic read and
 450:..\..\src/scsi.c **** 	// write commands. Will fall-through to generic disk handling.
 451:..\..\src/scsi.c **** 	else if (((cfg->deviceType == CONFIG_OPTICAL) && scsiCDRomCommand()) ||
 1566              		.loc 1 451 0
 1567 0432 7B68     		ldr	r3, [r7, #4]
 1568 0434 5B78     		ldrb	r3, [r3, #1]	@ zero_extendqisi2
 1569 0436 022B     		cmp	r3, #2
 1570 0438 04D1     		bne	.L80
 1571              		.loc 1 451 0 is_stmt 0 discriminator 1
 1572 043a FFF7FEFF 		bl	scsiCDRomCommand
 1573 043e 0346     		mov	r3, r0
 1574 0440 002B     		cmp	r3, #0
 1575 0442 51D1     		bne	.L64
 1576              	.L80:
 452:..\..\src/scsi.c **** 		((cfg->deviceType == CONFIG_SEQUENTIAL) && scsiTapeCommand()) ||
 1577              		.loc 1 452 0 is_stmt 1 discriminator 3
 1578 0444 7B68     		ldr	r3, [r7, #4]
 1579 0446 5B78     		ldrb	r3, [r3, #1]	@ zero_extendqisi2
 451:..\..\src/scsi.c **** 		((cfg->deviceType == CONFIG_SEQUENTIAL) && scsiTapeCommand()) ||
 1580              		.loc 1 451 0 discriminator 3
 1581 0448 052B     		cmp	r3, #5
 1582 044a 04D1     		bne	.L81
 1583              		.loc 1 452 0
ARM GAS  C:\Users\r\AppData\Local\Temp\ccbXJ1Li.s 			page 37


 1584 044c FFF7FEFF 		bl	scsiTapeCommand
 1585 0450 0346     		mov	r3, r0
 1586 0452 002B     		cmp	r3, #0
 1587 0454 48D1     		bne	.L64
 1588              	.L81:
 453:..\..\src/scsi.c **** 		((cfg->deviceType == CONFIG_MO) && scsiMOCommand()))
 1589              		.loc 1 453 0 discriminator 1
 1590 0456 7B68     		ldr	r3, [r7, #4]
 1591 0458 5B78     		ldrb	r3, [r3, #1]	@ zero_extendqisi2
 452:..\..\src/scsi.c **** 		((cfg->deviceType == CONFIG_SEQUENTIAL) && scsiTapeCommand()) ||
 1592              		.loc 1 452 0 discriminator 1
 1593 045a 042B     		cmp	r3, #4
 1594 045c 04D1     		bne	.L82
 1595              		.loc 1 453 0
 1596 045e FFF7FEFF 		bl	scsiMOCommand
 1597 0462 0346     		mov	r3, r0
 1598 0464 002B     		cmp	r3, #0
 1599 0466 3FD1     		bne	.L64
 1600              	.L82:
 454:..\..\src/scsi.c **** 	{
 455:..\..\src/scsi.c **** 		// Already handled.
 456:..\..\src/scsi.c **** 	}
 457:..\..\src/scsi.c **** 	else if (scsiDiskCommand())
 1601              		.loc 1 457 0
 1602 0468 FFF7FEFF 		bl	scsiDiskCommand
 1603 046c 0346     		mov	r3, r0
 1604 046e 002B     		cmp	r3, #0
 1605 0470 3AD1     		bne	.L64
 458:..\..\src/scsi.c **** 	{
 459:..\..\src/scsi.c **** 		// Already handled.
 460:..\..\src/scsi.c **** 		// check for the performance-critical read/write
 461:..\..\src/scsi.c **** 		// commands ASAP.
 462:..\..\src/scsi.c **** 	}
 463:..\..\src/scsi.c **** 	else if (command == 0x1C)
 1606              		.loc 1 463 0
 1607 0472 FB7A     		ldrb	r3, [r7, #11]	@ zero_extendqisi2
 1608 0474 1C2B     		cmp	r3, #28
 1609 0476 02D1     		bne	.L83
 464:..\..\src/scsi.c **** 	{
 465:..\..\src/scsi.c **** 		scsiReceiveDiagnostic();
 1610              		.loc 1 465 0
 1611 0478 FFF7FEFF 		bl	scsiReceiveDiagnostic
 1612 047c 34E0     		b	.L64
 1613              	.L83:
 466:..\..\src/scsi.c **** 	}
 467:..\..\src/scsi.c **** 	else if (command == 0x1D)
 1614              		.loc 1 467 0
 1615 047e FB7A     		ldrb	r3, [r7, #11]	@ zero_extendqisi2
 1616 0480 1D2B     		cmp	r3, #29
 1617 0482 02D1     		bne	.L84
 468:..\..\src/scsi.c **** 	{
 469:..\..\src/scsi.c **** 		scsiSendDiagnostic();
 1618              		.loc 1 469 0
 1619 0484 FFF7FEFF 		bl	scsiSendDiagnostic
 1620 0488 2EE0     		b	.L64
 1621              	.L84:
 470:..\..\src/scsi.c **** 	}
ARM GAS  C:\Users\r\AppData\Local\Temp\ccbXJ1Li.s 			page 38


 471:..\..\src/scsi.c **** 	else if (command == 0x3B)
 1622              		.loc 1 471 0
 1623 048a FB7A     		ldrb	r3, [r7, #11]	@ zero_extendqisi2
 1624 048c 3B2B     		cmp	r3, #59
 1625 048e 02D1     		bne	.L85
 472:..\..\src/scsi.c **** 	{
 473:..\..\src/scsi.c **** 		scsiWriteBuffer();
 1626              		.loc 1 473 0
 1627 0490 FFF7FEFF 		bl	scsiWriteBuffer
 1628 0494 28E0     		b	.L64
 1629              	.L85:
 474:..\..\src/scsi.c **** 	}
 475:..\..\src/scsi.c ****     else if (command == 0x0f &&
 1630              		.loc 1 475 0
 1631 0496 FB7A     		ldrb	r3, [r7, #11]	@ zero_extendqisi2
 1632 0498 0F2B     		cmp	r3, #15
 1633 049a 09D1     		bne	.L86
 476:..\..\src/scsi.c ****             scsiDev.target->cfg->quirks == CONFIG_QUIRKS_XEBEC)
 1634              		.loc 1 476 0 discriminator 1
 1635 049c 184B     		ldr	r3, .L90
 1636 049e 1B6E     		ldr	r3, [r3, #96]
 1637 04a0 5B68     		ldr	r3, [r3, #4]
 1638 04a2 DB8F     		ldrh	r3, [r3, #62]	@ unaligned
 1639 04a4 9BB2     		uxth	r3, r3
 475:..\..\src/scsi.c ****             scsiDev.target->cfg->quirks == CONFIG_QUIRKS_XEBEC)
 1640              		.loc 1 475 0 discriminator 1
 1641 04a6 042B     		cmp	r3, #4
 1642 04a8 02D1     		bne	.L86
 477:..\..\src/scsi.c ****     {
 478:..\..\src/scsi.c ****             scsiWriteSectorBuffer();
 1643              		.loc 1 478 0
 1644 04aa FFF7FEFF 		bl	scsiWriteSectorBuffer
 1645 04ae 1BE0     		b	.L64
 1646              	.L86:
 479:..\..\src/scsi.c ****     }
 480:..\..\src/scsi.c **** 	else if (command == 0x3C)
 1647              		.loc 1 480 0
 1648 04b0 FB7A     		ldrb	r3, [r7, #11]	@ zero_extendqisi2
 1649 04b2 3C2B     		cmp	r3, #60
 1650 04b4 02D1     		bne	.L87
 481:..\..\src/scsi.c **** 	{
 482:..\..\src/scsi.c **** 		scsiReadBuffer();
 1651              		.loc 1 482 0
 1652 04b6 FFF7FEFF 		bl	scsiReadBuffer
 1653 04ba 15E0     		b	.L64
 1654              	.L87:
 483:..\..\src/scsi.c **** 	}
 484:..\..\src/scsi.c **** 	else if (!scsiModeCommand() && !scsiVendorCommand())
 1655              		.loc 1 484 0
 1656 04bc FFF7FEFF 		bl	scsiModeCommand
 1657 04c0 0346     		mov	r3, r0
 1658 04c2 002B     		cmp	r3, #0
 1659 04c4 10D1     		bne	.L64
 1660              		.loc 1 484 0 is_stmt 0 discriminator 1
 1661 04c6 FFF7FEFF 		bl	scsiVendorCommand
 1662 04ca 0346     		mov	r3, r0
 1663 04cc 002B     		cmp	r3, #0
ARM GAS  C:\Users\r\AppData\Local\Temp\ccbXJ1Li.s 			page 39


 1664 04ce 0BD1     		bne	.L64
 485:..\..\src/scsi.c **** 	{
 486:..\..\src/scsi.c **** 		scsiDev.target->sense.code = ILLEGAL_REQUEST;
 1665              		.loc 1 486 0 is_stmt 1
 1666 04d0 0B4B     		ldr	r3, .L90
 1667 04d2 1B6E     		ldr	r3, [r3, #96]
 1668 04d4 0522     		movs	r2, #5
 1669 04d6 9A72     		strb	r2, [r3, #10]
 487:..\..\src/scsi.c **** 		scsiDev.target->sense.asc = INVALID_COMMAND_OPERATION_CODE;
 1670              		.loc 1 487 0
 1671 04d8 094B     		ldr	r3, .L90
 1672 04da 1B6E     		ldr	r3, [r3, #96]
 1673 04dc 4FF40052 		mov	r2, #8192
 1674 04e0 9A81     		strh	r2, [r3, #12]	@ movhi
 488:..\..\src/scsi.c **** 		enter_Status(CHECK_CONDITION);
 1675              		.loc 1 488 0
 1676 04e2 0220     		movs	r0, #2
 1677 04e4 FFF7FEFF 		bl	enter_Status
 1678              	.L64:
 489:..\..\src/scsi.c **** 	}
 490:..\..\src/scsi.c **** 
 491:..\..\src/scsi.c **** 	// Successful
 492:..\..\src/scsi.c **** 	if (scsiDev.phase == COMMAND) // No status set, and not in DATA_IN
 1679              		.loc 1 492 0
 1680 04e8 054B     		ldr	r3, .L90
 1681 04ea D3F87831 		ldr	r3, [r3, #376]
 1682 04ee 022B     		cmp	r3, #2
 1683 04f0 02D1     		bne	.L53
 493:..\..\src/scsi.c **** 	{
 494:..\..\src/scsi.c **** 		enter_Status(GOOD);
 1684              		.loc 1 494 0
 1685 04f2 0020     		movs	r0, #0
 1686 04f4 FFF7FEFF 		bl	enter_Status
 1687              	.L53:
 495:..\..\src/scsi.c **** 	}
 496:..\..\src/scsi.c **** 
 497:..\..\src/scsi.c **** }
 1688              		.loc 1 497 0
 1689 04f8 1837     		adds	r7, r7, #24
 1690              		.cfi_def_cfa_offset 8
 1691 04fa BD46     		mov	sp, r7
 1692              		.cfi_def_cfa_register 13
 1693              		@ sp needed
 1694 04fc 80BD     		pop	{r7, pc}
 1695              	.L91:
 1696 04fe 00BF     		.align	2
 1697              	.L90:
 1698 0500 00000000 		.word	scsiDev
 1699 0504 00000000 		.word	transfer
 1700 0508 7C010000 		.word	scsiDev+380
 1701              		.cfi_endproc
 1702              	.LFE73:
 1703              		.size	process_Command, .-process_Command
 1704              		.section	.text.doReserveRelease,"ax",%progbits
 1705              		.align	2
 1706              		.thumb
 1707              		.thumb_func
ARM GAS  C:\Users\r\AppData\Local\Temp\ccbXJ1Li.s 			page 40


 1708              		.type	doReserveRelease, %function
 1709              	doReserveRelease:
 1710              	.LFB74:
 498:..\..\src/scsi.c **** 
 499:..\..\src/scsi.c **** static void doReserveRelease()
 500:..\..\src/scsi.c **** {
 1711              		.loc 1 500 0
 1712              		.cfi_startproc
 1713              		@ args = 0, pretend = 0, frame = 24
 1714              		@ frame_needed = 1, uses_anonymous_args = 0
 1715 0000 80B5     		push	{r7, lr}
 1716              		.cfi_def_cfa_offset 8
 1717              		.cfi_offset 7, -8
 1718              		.cfi_offset 14, -4
 1719 0002 86B0     		sub	sp, sp, #24
 1720              		.cfi_def_cfa_offset 32
 1721 0004 00AF     		add	r7, sp, #0
 1722              		.cfi_def_cfa_register 7
 501:..\..\src/scsi.c **** 	int extentReservation = scsiDev.cdb[1] & 1;
 1723              		.loc 1 501 0
 1724 0006 4B4B     		ldr	r3, .L108
 1725 0008 03F58343 		add	r3, r3, #16768
 1726 000c 0933     		adds	r3, r3, #9
 1727 000e 1B78     		ldrb	r3, [r3]	@ zero_extendqisi2
 1728 0010 03F00103 		and	r3, r3, #1
 1729 0014 7B61     		str	r3, [r7, #20]
 502:..\..\src/scsi.c **** 	int thirdPty = scsiDev.cdb[1] & 0x10;
 1730              		.loc 1 502 0
 1731 0016 474B     		ldr	r3, .L108
 1732 0018 03F58343 		add	r3, r3, #16768
 1733 001c 0933     		adds	r3, r3, #9
 1734 001e 1B78     		ldrb	r3, [r3]	@ zero_extendqisi2
 1735 0020 03F01003 		and	r3, r3, #16
 1736 0024 3B61     		str	r3, [r7, #16]
 503:..\..\src/scsi.c **** 	int thirdPtyId = (scsiDev.cdb[1] >> 1) & 0x7;
 1737              		.loc 1 503 0
 1738 0026 434B     		ldr	r3, .L108
 1739 0028 03F58343 		add	r3, r3, #16768
 1740 002c 0933     		adds	r3, r3, #9
 1741 002e 1B78     		ldrb	r3, [r3]	@ zero_extendqisi2
 1742 0030 5B08     		lsrs	r3, r3, #1
 1743 0032 DBB2     		uxtb	r3, r3
 1744 0034 03F00703 		and	r3, r3, #7
 1745 0038 FB60     		str	r3, [r7, #12]
 504:..\..\src/scsi.c **** 	uint8 command = scsiDev.cdb[0];
 1746              		.loc 1 504 0
 1747 003a 3E4B     		ldr	r3, .L108
 1748 003c 03F58343 		add	r3, r3, #16768
 1749 0040 0833     		adds	r3, r3, #8
 1750 0042 1B78     		ldrb	r3, [r3]
 1751 0044 FB72     		strb	r3, [r7, #11]
 505:..\..\src/scsi.c **** 
 506:..\..\src/scsi.c **** 	int canRelease =
 507:..\..\src/scsi.c **** 		(!thirdPty && (scsiDev.initiatorId == scsiDev.target->reservedId)) ||
 1752              		.loc 1 507 0
 1753 0046 3B69     		ldr	r3, [r7, #16]
 1754 0048 002B     		cmp	r3, #0
ARM GAS  C:\Users\r\AppData\Local\Temp\ccbXJ1Li.s 			page 41


 1755 004a 09D1     		bne	.L93
 1756              		.loc 1 507 0 is_stmt 0 discriminator 1
 1757 004c 394B     		ldr	r3, .L108
 1758 004e 03F58343 		add	r3, r3, #16768
 1759 0052 1833     		adds	r3, r3, #24
 1760 0054 1A68     		ldr	r2, [r3]
 1761 0056 374B     		ldr	r3, .L108
 1762 0058 1B6E     		ldr	r3, [r3, #96]
 1763 005a 1B69     		ldr	r3, [r3, #16]
 1764 005c 9A42     		cmp	r2, r3
 1765 005e 12D0     		beq	.L94
 1766              	.L93:
 1767              		.loc 1 507 0 discriminator 4
 1768 0060 3B69     		ldr	r3, [r7, #16]
 1769 0062 002B     		cmp	r3, #0
 1770 0064 11D0     		beq	.L95
 508:..\..\src/scsi.c **** 			(thirdPty &&
 509:..\..\src/scsi.c **** 				(scsiDev.target->reserverId == scsiDev.initiatorId) &&
 1771              		.loc 1 509 0 is_stmt 1
 1772 0066 334B     		ldr	r3, .L108
 1773 0068 1B6E     		ldr	r3, [r3, #96]
 1774 006a 5A69     		ldr	r2, [r3, #20]
 1775 006c 314B     		ldr	r3, .L108
 1776 006e 03F58343 		add	r3, r3, #16768
 1777 0072 1833     		adds	r3, r3, #24
 1778 0074 1B68     		ldr	r3, [r3]
 508:..\..\src/scsi.c **** 			(thirdPty &&
 1779              		.loc 1 508 0
 1780 0076 9A42     		cmp	r2, r3
 1781 0078 07D1     		bne	.L95
 510:..\..\src/scsi.c **** 				(scsiDev.target->reservedId == thirdPtyId)
 1782              		.loc 1 510 0
 1783 007a 2E4B     		ldr	r3, .L108
 1784 007c 1B6E     		ldr	r3, [r3, #96]
 1785 007e 1A69     		ldr	r2, [r3, #16]
 509:..\..\src/scsi.c **** 				(scsiDev.target->reservedId == thirdPtyId)
 1786              		.loc 1 509 0
 1787 0080 FB68     		ldr	r3, [r7, #12]
 1788 0082 9A42     		cmp	r2, r3
 1789 0084 01D1     		bne	.L95
 1790              	.L94:
 507:..\..\src/scsi.c **** 			(thirdPty &&
 1791              		.loc 1 507 0 discriminator 3
 1792 0086 0123     		movs	r3, #1
 1793 0088 00E0     		b	.L96
 1794              	.L95:
 507:..\..\src/scsi.c **** 			(thirdPty &&
 1795              		.loc 1 507 0 is_stmt 0 discriminator 5
 1796 008a 0023     		movs	r3, #0
 1797              	.L96:
 506:..\..\src/scsi.c **** 		(!thirdPty && (scsiDev.initiatorId == scsiDev.target->reservedId)) ||
 1798              		.loc 1 506 0 is_stmt 1
 1799 008c 7B60     		str	r3, [r7, #4]
 511:..\..\src/scsi.c **** 			);
 512:..\..\src/scsi.c **** 
 513:..\..\src/scsi.c **** 	if (extentReservation)
 1800              		.loc 1 513 0
ARM GAS  C:\Users\r\AppData\Local\Temp\ccbXJ1Li.s 			page 42


 1801 008e 7B69     		ldr	r3, [r7, #20]
 1802 0090 002B     		cmp	r3, #0
 1803 0092 0CD0     		beq	.L97
 514:..\..\src/scsi.c **** 	{
 515:..\..\src/scsi.c **** 		// Not supported.
 516:..\..\src/scsi.c **** 		scsiDev.target->sense.code = ILLEGAL_REQUEST;
 1804              		.loc 1 516 0
 1805 0094 274B     		ldr	r3, .L108
 1806 0096 1B6E     		ldr	r3, [r3, #96]
 1807 0098 0522     		movs	r2, #5
 1808 009a 9A72     		strb	r2, [r3, #10]
 517:..\..\src/scsi.c **** 		scsiDev.target->sense.asc = INVALID_FIELD_IN_CDB;
 1809              		.loc 1 517 0
 1810 009c 254B     		ldr	r3, .L108
 1811 009e 1B6E     		ldr	r3, [r3, #96]
 1812 00a0 4FF41052 		mov	r2, #9216
 1813 00a4 9A81     		strh	r2, [r3, #12]	@ movhi
 518:..\..\src/scsi.c **** 		enter_Status(CHECK_CONDITION);
 1814              		.loc 1 518 0
 1815 00a6 0220     		movs	r0, #2
 1816 00a8 FFF7FEFF 		bl	enter_Status
 519:..\..\src/scsi.c **** 	}
 520:..\..\src/scsi.c **** 	else if (command == 0x17) // release
 521:..\..\src/scsi.c **** 	{
 522:..\..\src/scsi.c **** 		if ((scsiDev.target->reservedId < 0) || canRelease)
 523:..\..\src/scsi.c **** 		{
 524:..\..\src/scsi.c **** 			scsiDev.target->reservedId = -1;
 525:..\..\src/scsi.c **** 			scsiDev.target->reserverId = -1;
 526:..\..\src/scsi.c **** 		}
 527:..\..\src/scsi.c **** 		else
 528:..\..\src/scsi.c **** 		{
 529:..\..\src/scsi.c **** 			enter_Status(CONFLICT);
 530:..\..\src/scsi.c **** 		}
 531:..\..\src/scsi.c **** 	}
 532:..\..\src/scsi.c **** 	else // assume reserve.
 533:..\..\src/scsi.c **** 	{
 534:..\..\src/scsi.c **** 		if ((scsiDev.target->reservedId < 0) || canRelease)
 535:..\..\src/scsi.c **** 		{
 536:..\..\src/scsi.c **** 			scsiDev.target->reserverId = scsiDev.initiatorId;
 537:..\..\src/scsi.c **** 			if (thirdPty)
 538:..\..\src/scsi.c **** 			{
 539:..\..\src/scsi.c **** 				scsiDev.target->reservedId = thirdPtyId;
 540:..\..\src/scsi.c **** 			}
 541:..\..\src/scsi.c **** 			else
 542:..\..\src/scsi.c **** 			{
 543:..\..\src/scsi.c **** 				scsiDev.target->reservedId = scsiDev.initiatorId;
 544:..\..\src/scsi.c **** 			}
 545:..\..\src/scsi.c **** 		}
 546:..\..\src/scsi.c **** 		else
 547:..\..\src/scsi.c **** 		{
 548:..\..\src/scsi.c **** 			// Already reserved by someone else!
 549:..\..\src/scsi.c **** 			enter_Status(CONFLICT);
 550:..\..\src/scsi.c **** 		}
 551:..\..\src/scsi.c **** 	}
 552:..\..\src/scsi.c **** }
 1817              		.loc 1 552 0
 1818 00ac 3EE0     		b	.L107
ARM GAS  C:\Users\r\AppData\Local\Temp\ccbXJ1Li.s 			page 43


 1819              	.L97:
 520:..\..\src/scsi.c **** 	{
 1820              		.loc 1 520 0
 1821 00ae FB7A     		ldrb	r3, [r7, #11]	@ zero_extendqisi2
 1822 00b0 172B     		cmp	r3, #23
 1823 00b2 16D1     		bne	.L99
 522:..\..\src/scsi.c **** 		{
 1824              		.loc 1 522 0
 1825 00b4 1F4B     		ldr	r3, .L108
 1826 00b6 1B6E     		ldr	r3, [r3, #96]
 1827 00b8 1B69     		ldr	r3, [r3, #16]
 1828 00ba 002B     		cmp	r3, #0
 1829 00bc 02DB     		blt	.L100
 522:..\..\src/scsi.c **** 		{
 1830              		.loc 1 522 0 is_stmt 0 discriminator 1
 1831 00be 7B68     		ldr	r3, [r7, #4]
 1832 00c0 002B     		cmp	r3, #0
 1833 00c2 0AD0     		beq	.L101
 1834              	.L100:
 524:..\..\src/scsi.c **** 			scsiDev.target->reserverId = -1;
 1835              		.loc 1 524 0 is_stmt 1
 1836 00c4 1B4B     		ldr	r3, .L108
 1837 00c6 1B6E     		ldr	r3, [r3, #96]
 1838 00c8 4FF0FF32 		mov	r2, #-1
 1839 00cc 1A61     		str	r2, [r3, #16]
 525:..\..\src/scsi.c **** 		}
 1840              		.loc 1 525 0
 1841 00ce 194B     		ldr	r3, .L108
 1842 00d0 1B6E     		ldr	r3, [r3, #96]
 1843 00d2 4FF0FF32 		mov	r2, #-1
 1844 00d6 5A61     		str	r2, [r3, #20]
 1845 00d8 28E0     		b	.L98
 1846              	.L101:
 529:..\..\src/scsi.c **** 		}
 1847              		.loc 1 529 0
 1848 00da 1820     		movs	r0, #24
 1849 00dc FFF7FEFF 		bl	enter_Status
 1850              		.loc 1 552 0
 1851 00e0 24E0     		b	.L107
 1852              	.L99:
 534:..\..\src/scsi.c **** 		{
 1853              		.loc 1 534 0
 1854 00e2 144B     		ldr	r3, .L108
 1855 00e4 1B6E     		ldr	r3, [r3, #96]
 1856 00e6 1B69     		ldr	r3, [r3, #16]
 1857 00e8 002B     		cmp	r3, #0
 1858 00ea 02DB     		blt	.L103
 534:..\..\src/scsi.c **** 		{
 1859              		.loc 1 534 0 is_stmt 0 discriminator 1
 1860 00ec 7B68     		ldr	r3, [r7, #4]
 1861 00ee 002B     		cmp	r3, #0
 1862 00f0 18D0     		beq	.L104
 1863              	.L103:
 536:..\..\src/scsi.c **** 			if (thirdPty)
 1864              		.loc 1 536 0 is_stmt 1
 1865 00f2 104B     		ldr	r3, .L108
 1866 00f4 1A6E     		ldr	r2, [r3, #96]
ARM GAS  C:\Users\r\AppData\Local\Temp\ccbXJ1Li.s 			page 44


 1867 00f6 0F4B     		ldr	r3, .L108
 1868 00f8 03F58343 		add	r3, r3, #16768
 1869 00fc 1833     		adds	r3, r3, #24
 1870 00fe 1B68     		ldr	r3, [r3]
 1871 0100 5361     		str	r3, [r2, #20]
 537:..\..\src/scsi.c **** 			{
 1872              		.loc 1 537 0
 1873 0102 3B69     		ldr	r3, [r7, #16]
 1874 0104 002B     		cmp	r3, #0
 1875 0106 04D0     		beq	.L105
 539:..\..\src/scsi.c **** 			}
 1876              		.loc 1 539 0
 1877 0108 0A4B     		ldr	r3, .L108
 1878 010a 1B6E     		ldr	r3, [r3, #96]
 1879 010c FA68     		ldr	r2, [r7, #12]
 1880 010e 1A61     		str	r2, [r3, #16]
 537:..\..\src/scsi.c **** 			{
 1881              		.loc 1 537 0
 1882 0110 0CE0     		b	.L98
 1883              	.L105:
 543:..\..\src/scsi.c **** 			}
 1884              		.loc 1 543 0
 1885 0112 084B     		ldr	r3, .L108
 1886 0114 1A6E     		ldr	r2, [r3, #96]
 1887 0116 074B     		ldr	r3, .L108
 1888 0118 03F58343 		add	r3, r3, #16768
 1889 011c 1833     		adds	r3, r3, #24
 1890 011e 1B68     		ldr	r3, [r3]
 1891 0120 1361     		str	r3, [r2, #16]
 537:..\..\src/scsi.c **** 			{
 1892              		.loc 1 537 0
 1893 0122 03E0     		b	.L98
 1894              	.L104:
 549:..\..\src/scsi.c **** 		}
 1895              		.loc 1 549 0
 1896 0124 1820     		movs	r0, #24
 1897 0126 FFF7FEFF 		bl	enter_Status
 1898              		.loc 1 552 0
 1899 012a FFE7     		b	.L107
 1900              	.L98:
 1901              	.L107:
 1902 012c 00BF     		nop
 1903 012e 1837     		adds	r7, r7, #24
 1904              		.cfi_def_cfa_offset 8
 1905 0130 BD46     		mov	sp, r7
 1906              		.cfi_def_cfa_register 13
 1907              		@ sp needed
 1908 0132 80BD     		pop	{r7, pc}
 1909              	.L109:
 1910              		.align	2
 1911              	.L108:
 1912 0134 00000000 		.word	scsiDev
 1913              		.cfi_endproc
 1914              	.LFE74:
 1915              		.size	doReserveRelease, .-doReserveRelease
 1916              		.section	.text.scsiReset,"ax",%progbits
 1917              		.align	2
ARM GAS  C:\Users\r\AppData\Local\Temp\ccbXJ1Li.s 			page 45


 1918              		.thumb
 1919              		.thumb_func
 1920              		.type	scsiReset, %function
 1921              	scsiReset:
 1922              	.LFB75:
 553:..\..\src/scsi.c **** 
 554:..\..\src/scsi.c **** static void scsiReset()
 555:..\..\src/scsi.c **** {
 1923              		.loc 1 555 0
 1924              		.cfi_startproc
 1925              		@ args = 0, pretend = 0, frame = 8
 1926              		@ frame_needed = 1, uses_anonymous_args = 0
 1927 0000 80B5     		push	{r7, lr}
 1928              		.cfi_def_cfa_offset 8
 1929              		.cfi_offset 7, -8
 1930              		.cfi_offset 14, -4
 1931 0002 82B0     		sub	sp, sp, #8
 1932              		.cfi_def_cfa_offset 16
 1933 0004 00AF     		add	r7, sp, #0
 1934              		.cfi_def_cfa_register 7
 556:..\..\src/scsi.c **** 	scsiDev.rstCount++;
 1935              		.loc 1 556 0
 1936 0006 3C4B     		ldr	r3, .L117
 1937 0008 03F58343 		add	r3, r3, #16768
 1938 000c 2633     		adds	r3, r3, #38
 1939 000e 1B78     		ldrb	r3, [r3]	@ zero_extendqisi2
 1940 0010 0133     		adds	r3, r3, #1
 1941 0012 DAB2     		uxtb	r2, r3
 1942 0014 384B     		ldr	r3, .L117
 1943 0016 03F58343 		add	r3, r3, #16768
 1944 001a 2633     		adds	r3, r3, #38
 1945 001c 1A70     		strb	r2, [r3]
 557:..\..\src/scsi.c **** 	ledOff();
 1946              		.loc 1 557 0
 1947 001e FFF7FEFF 		bl	ledOff
 558:..\..\src/scsi.c **** 
 559:..\..\src/scsi.c **** 	scsiPhyReset();
 1948              		.loc 1 559 0
 1949 0022 FFF7FEFF 		bl	scsiPhyReset
 560:..\..\src/scsi.c **** 	SCSI_Out_Ctl_Write(0);
 1950              		.loc 1 560 0
 1951 0026 0020     		movs	r0, #0
 1952 0028 FFF7FEFF 		bl	SCSI_Out_Ctl_Write
 561:..\..\src/scsi.c **** 
 562:..\..\src/scsi.c **** 	scsiDev.parityError = 0;
 1953              		.loc 1 562 0
 1954 002c 324B     		ldr	r3, .L117
 1955 002e 0022     		movs	r2, #0
 1956 0030 C3F87021 		str	r2, [r3, #368]
 563:..\..\src/scsi.c **** 	scsiDev.phase = BUS_FREE;
 1957              		.loc 1 563 0
 1958 0034 304B     		ldr	r3, .L117
 1959 0036 4FF0FF32 		mov	r2, #-1
 1960 003a C3F87821 		str	r2, [r3, #376]
 564:..\..\src/scsi.c **** 	scsiDev.atnFlag = 0;
 1961              		.loc 1 564 0
 1962 003e 2E4B     		ldr	r3, .L117
ARM GAS  C:\Users\r\AppData\Local\Temp\ccbXJ1Li.s 			page 46


 1963 0040 0022     		movs	r2, #0
 1964 0042 C3F86421 		str	r2, [r3, #356]
 565:..\..\src/scsi.c **** 	scsiDev.resetFlag = 0;
 1965              		.loc 1 565 0
 1966 0046 2C4B     		ldr	r3, .L117
 1967 0048 0022     		movs	r2, #0
 1968 004a C3F86821 		str	r2, [r3, #360]
 566:..\..\src/scsi.c **** 	scsiDev.selFlag = 0;
 1969              		.loc 1 566 0
 1970 004e 2A4B     		ldr	r3, .L117
 1971 0050 0022     		movs	r2, #0
 1972 0052 C3F86C21 		str	r2, [r3, #364]
 567:..\..\src/scsi.c **** 	scsiDev.lun = -1;
 1973              		.loc 1 567 0
 1974 0056 284B     		ldr	r3, .L117
 1975 0058 03F58343 		add	r3, r3, #16768
 1976 005c 1533     		adds	r3, r3, #21
 1977 005e FF22     		movs	r2, #255
 1978 0060 1A70     		strb	r2, [r3]
 568:..\..\src/scsi.c **** 	scsiDev.compatMode = COMPAT_UNKNOWN;
 1979              		.loc 1 568 0
 1980 0062 254B     		ldr	r3, .L117
 1981 0064 03F58343 		add	r3, r3, #16768
 1982 0068 1733     		adds	r3, r3, #23
 1983 006a 0022     		movs	r2, #0
 1984 006c 1A70     		strb	r2, [r3]
 569:..\..\src/scsi.c **** 
 570:..\..\src/scsi.c **** 	if (scsiDev.target)
 1985              		.loc 1 570 0
 1986 006e 224B     		ldr	r3, .L117
 1987 0070 1B6E     		ldr	r3, [r3, #96]
 1988 0072 002B     		cmp	r3, #0
 1989 0074 1DD0     		beq	.L111
 571:..\..\src/scsi.c **** 	{
 572:..\..\src/scsi.c **** 		if (scsiDev.target->unitAttention != POWER_ON_RESET)
 1990              		.loc 1 572 0
 1991 0076 204B     		ldr	r3, .L117
 1992 0078 1B6E     		ldr	r3, [r3, #96]
 1993 007a DB89     		ldrh	r3, [r3, #14]
 1994 007c 42F60112 		movw	r2, #10497
 1995 0080 9342     		cmp	r3, r2
 1996 0082 04D0     		beq	.L112
 573:..\..\src/scsi.c **** 		{
 574:..\..\src/scsi.c **** 			scsiDev.target->unitAttention = SCSI_BUS_RESET;
 1997              		.loc 1 574 0
 1998 0084 1C4B     		ldr	r3, .L117
 1999 0086 1B6E     		ldr	r3, [r3, #96]
 2000 0088 42F60212 		movw	r2, #10498
 2001 008c DA81     		strh	r2, [r3, #14]	@ movhi
 2002              	.L112:
 575:..\..\src/scsi.c **** 		}
 576:..\..\src/scsi.c **** 		scsiDev.target->reservedId = -1;
 2003              		.loc 1 576 0
 2004 008e 1A4B     		ldr	r3, .L117
 2005 0090 1B6E     		ldr	r3, [r3, #96]
 2006 0092 4FF0FF32 		mov	r2, #-1
 2007 0096 1A61     		str	r2, [r3, #16]
ARM GAS  C:\Users\r\AppData\Local\Temp\ccbXJ1Li.s 			page 47


 577:..\..\src/scsi.c **** 		scsiDev.target->reserverId = -1;
 2008              		.loc 1 577 0
 2009 0098 174B     		ldr	r3, .L117
 2010 009a 1B6E     		ldr	r3, [r3, #96]
 2011 009c 4FF0FF32 		mov	r2, #-1
 2012 00a0 5A61     		str	r2, [r3, #20]
 578:..\..\src/scsi.c **** 		scsiDev.target->sense.code = NO_SENSE;
 2013              		.loc 1 578 0
 2014 00a2 154B     		ldr	r3, .L117
 2015 00a4 1B6E     		ldr	r3, [r3, #96]
 2016 00a6 0022     		movs	r2, #0
 2017 00a8 9A72     		strb	r2, [r3, #10]
 579:..\..\src/scsi.c **** 		scsiDev.target->sense.asc = NO_ADDITIONAL_SENSE_INFORMATION;
 2018              		.loc 1 579 0
 2019 00aa 134B     		ldr	r3, .L117
 2020 00ac 1B6E     		ldr	r3, [r3, #96]
 2021 00ae 0022     		movs	r2, #0
 2022 00b0 9A81     		strh	r2, [r3, #12]	@ movhi
 2023              	.L111:
 580:..\..\src/scsi.c **** 	}
 581:..\..\src/scsi.c **** 	scsiDev.target = NULL;
 2024              		.loc 1 581 0
 2025 00b2 114B     		ldr	r3, .L117
 2026 00b4 0022     		movs	r2, #0
 2027 00b6 1A66     		str	r2, [r3, #96]
 582:..\..\src/scsi.c **** 	scsiDiskReset();
 2028              		.loc 1 582 0
 2029 00b8 FFF7FEFF 		bl	scsiDiskReset
 583:..\..\src/scsi.c **** 
 584:..\..\src/scsi.c **** 	scsiDev.postDataOutHook = NULL;
 2030              		.loc 1 584 0
 2031 00bc 0E4B     		ldr	r3, .L117
 2032 00be 03F58343 		add	r3, r3, #16768
 2033 00c2 2033     		adds	r3, r3, #32
 2034 00c4 0022     		movs	r2, #0
 2035 00c6 1A60     		str	r2, [r3]
 585:..\..\src/scsi.c **** 
 586:..\..\src/scsi.c **** 	// Sleep to allow the bus to settle down a bit.
 587:..\..\src/scsi.c **** 	// We must be ready again within the "Reset to selection time" of
 588:..\..\src/scsi.c **** 	// 250ms.
 589:..\..\src/scsi.c **** 	// There is no guarantee that the RST line will be negated by then.
 590:..\..\src/scsi.c **** 	// NOTE: We could be connected and powered by USB for configuration,
 591:..\..\src/scsi.c **** 	// in which case TERMPWR cannot be supplied, and reset will ALWAYS
 592:..\..\src/scsi.c **** 	// be true. Therefore, the sleep here must be slow to avoid slowing
 593:..\..\src/scsi.c **** 	// USB comms
 594:..\..\src/scsi.c ****     // Also, need to exit quickly for XEBEC controllers which may
 595:..\..\src/scsi.c ****     // assert RST immediately before pulsing a SEL.
 596:..\..\src/scsi.c ****     uint32_t rstTimerBegin = getTime_ms();
 2036              		.loc 1 596 0
 2037 00c8 FFF7FEFF 		bl	getTime_ms
 2038 00cc 7860     		str	r0, [r7, #4]
 597:..\..\src/scsi.c ****     while (SCSI_ReadFilt(SCSI_Filt_RST))
 2039              		.loc 1 597 0
 2040 00ce 05E0     		b	.L113
 2041              	.L115:
 598:..\..\src/scsi.c ****     {
 599:..\..\src/scsi.c ****             if (elapsedTime_ms(rstTimerBegin) >= 1)
ARM GAS  C:\Users\r\AppData\Local\Temp\ccbXJ1Li.s 			page 48


 2042              		.loc 1 599 0
 2043 00d0 7868     		ldr	r0, [r7, #4]
 2044 00d2 FFF7FEFF 		bl	elapsedTime_ms
 2045 00d6 0346     		mov	r3, r0
 2046 00d8 002B     		cmp	r3, #0
 2047 00da 07D1     		bne	.L116
 2048              	.L113:
 597:..\..\src/scsi.c ****     while (SCSI_ReadFilt(SCSI_Filt_RST))
 2049              		.loc 1 597 0
 2050 00dc FFF7FEFF 		bl	SCSI_Filtered_Read
 2051 00e0 0346     		mov	r3, r0
 2052 00e2 03F00803 		and	r3, r3, #8
 2053 00e6 002B     		cmp	r3, #0
 2054 00e8 F2D0     		beq	.L115
 600:..\..\src/scsi.c ****             {
 601:..\..\src/scsi.c ****                     break;
 602:..\..\src/scsi.c ****             }
 603:..\..\src/scsi.c ****     }
 604:..\..\src/scsi.c **** }
 2055              		.loc 1 604 0
 2056 00ea 00E0     		b	.L114
 2057              	.L116:
 601:..\..\src/scsi.c ****             }
 2058              		.loc 1 601 0
 2059 00ec 00BF     		nop
 2060              	.L114:
 2061              		.loc 1 604 0
 2062 00ee 00BF     		nop
 2063 00f0 0837     		adds	r7, r7, #8
 2064              		.cfi_def_cfa_offset 8
 2065 00f2 BD46     		mov	sp, r7
 2066              		.cfi_def_cfa_register 13
 2067              		@ sp needed
 2068 00f4 80BD     		pop	{r7, pc}
 2069              	.L118:
 2070 00f6 00BF     		.align	2
 2071              	.L117:
 2072 00f8 00000000 		.word	scsiDev
 2073              		.cfi_endproc
 2074              	.LFE75:
 2075              		.size	scsiReset, .-scsiReset
 2076              		.section	.text.enter_SelectionPhase,"ax",%progbits
 2077              		.align	2
 2078              		.thumb
 2079              		.thumb_func
 2080              		.type	enter_SelectionPhase, %function
 2081              	enter_SelectionPhase:
 2082              	.LFB76:
 605:..\..\src/scsi.c **** 
 606:..\..\src/scsi.c **** static void enter_SelectionPhase()
 607:..\..\src/scsi.c **** {
 2083              		.loc 1 607 0
 2084              		.cfi_startproc
 2085              		@ args = 0, pretend = 0, frame = 0
 2086              		@ frame_needed = 1, uses_anonymous_args = 0
 2087              		@ link register save eliminated.
 2088 0000 80B4     		push	{r7}
ARM GAS  C:\Users\r\AppData\Local\Temp\ccbXJ1Li.s 			page 49


 2089              		.cfi_def_cfa_offset 4
 2090              		.cfi_offset 7, -4
 2091 0002 00AF     		add	r7, sp, #0
 2092              		.cfi_def_cfa_register 7
 608:..\..\src/scsi.c **** 	// Ignore stale versions of this flag, but ensure we know the
 609:..\..\src/scsi.c **** 	// current value if the flag is still set.
 610:..\..\src/scsi.c **** 	scsiDev.atnFlag = 0;
 2093              		.loc 1 610 0
 2094 0004 244B     		ldr	r3, .L120
 2095 0006 0022     		movs	r2, #0
 2096 0008 C3F86421 		str	r2, [r3, #356]
 611:..\..\src/scsi.c **** 	scsiDev.parityError = 0;
 2097              		.loc 1 611 0
 2098 000c 224B     		ldr	r3, .L120
 2099 000e 0022     		movs	r2, #0
 2100 0010 C3F87021 		str	r2, [r3, #368]
 612:..\..\src/scsi.c **** 	scsiDev.dataPtr = 0;
 2101              		.loc 1 612 0
 2102 0014 204B     		ldr	r3, .L120
 2103 0016 03F58243 		add	r3, r3, #16640
 2104 001a 7C33     		adds	r3, r3, #124
 2105 001c 0022     		movs	r2, #0
 2106 001e 1A60     		str	r2, [r3]
 613:..\..\src/scsi.c **** 	scsiDev.savedDataPtr = 0;
 2107              		.loc 1 613 0
 2108 0020 1D4B     		ldr	r3, .L120
 2109 0022 03F58343 		add	r3, r3, #16768
 2110 0026 0022     		movs	r2, #0
 2111 0028 1A60     		str	r2, [r3]
 614:..\..\src/scsi.c **** 	scsiDev.dataLen = 0;
 2112              		.loc 1 614 0
 2113 002a 1B4B     		ldr	r3, .L120
 2114 002c 03F58343 		add	r3, r3, #16768
 2115 0030 0433     		adds	r3, r3, #4
 2116 0032 0022     		movs	r2, #0
 2117 0034 1A60     		str	r2, [r3]
 615:..\..\src/scsi.c **** 	scsiDev.status = GOOD;
 2118              		.loc 1 615 0
 2119 0036 184B     		ldr	r3, .L120
 2120 0038 03F58343 		add	r3, r3, #16768
 2121 003c 1C33     		adds	r3, r3, #28
 2122 003e 0022     		movs	r2, #0
 2123 0040 1A70     		strb	r2, [r3]
 616:..\..\src/scsi.c **** 	scsiDev.phase = SELECTION;
 2124              		.loc 1 616 0
 2125 0042 154B     		ldr	r3, .L120
 2126 0044 6FF00302 		mvn	r2, #3
 2127 0048 C3F87821 		str	r2, [r3, #376]
 617:..\..\src/scsi.c **** 	scsiDev.lun = -1;
 2128              		.loc 1 617 0
 2129 004c 124B     		ldr	r3, .L120
 2130 004e 03F58343 		add	r3, r3, #16768
 2131 0052 1533     		adds	r3, r3, #21
 2132 0054 FF22     		movs	r2, #255
 2133 0056 1A70     		strb	r2, [r3]
 618:..\..\src/scsi.c **** 	scsiDev.discPriv = 0;
 2134              		.loc 1 618 0
ARM GAS  C:\Users\r\AppData\Local\Temp\ccbXJ1Li.s 			page 50


 2135 0058 0F4B     		ldr	r3, .L120
 2136 005a 03F58343 		add	r3, r3, #16768
 2137 005e 1633     		adds	r3, r3, #22
 2138 0060 0022     		movs	r2, #0
 2139 0062 1A70     		strb	r2, [r3]
 619:..\..\src/scsi.c **** 
 620:..\..\src/scsi.c **** 	scsiDev.initiatorId = -1;
 2140              		.loc 1 620 0
 2141 0064 0C4B     		ldr	r3, .L120
 2142 0066 03F58343 		add	r3, r3, #16768
 2143 006a 1833     		adds	r3, r3, #24
 2144 006c 4FF0FF32 		mov	r2, #-1
 2145 0070 1A60     		str	r2, [r3]
 621:..\..\src/scsi.c **** 	scsiDev.target = NULL;
 2146              		.loc 1 621 0
 2147 0072 094B     		ldr	r3, .L120
 2148 0074 0022     		movs	r2, #0
 2149 0076 1A66     		str	r2, [r3, #96]
 622:..\..\src/scsi.c **** 
 623:..\..\src/scsi.c **** 	transfer.blocks = 0;
 2150              		.loc 1 623 0
 2151 0078 084B     		ldr	r3, .L120+4
 2152 007a 0022     		movs	r2, #0
 2153 007c 9A60     		str	r2, [r3, #8]
 624:..\..\src/scsi.c **** 	transfer.currentBlock = 0;
 2154              		.loc 1 624 0
 2155 007e 074B     		ldr	r3, .L120+4
 2156 0080 0022     		movs	r2, #0
 2157 0082 DA60     		str	r2, [r3, #12]
 625:..\..\src/scsi.c **** 
 626:..\..\src/scsi.c **** 	scsiDev.postDataOutHook = NULL;
 2158              		.loc 1 626 0
 2159 0084 044B     		ldr	r3, .L120
 2160 0086 03F58343 		add	r3, r3, #16768
 2161 008a 2033     		adds	r3, r3, #32
 2162 008c 0022     		movs	r2, #0
 2163 008e 1A60     		str	r2, [r3]
 627:..\..\src/scsi.c **** }
 2164              		.loc 1 627 0
 2165 0090 00BF     		nop
 2166 0092 BD46     		mov	sp, r7
 2167              		.cfi_def_cfa_register 13
 2168              		@ sp needed
 2169 0094 80BC     		pop	{r7}
 2170              		.cfi_restore 7
 2171              		.cfi_def_cfa_offset 0
 2172 0096 7047     		bx	lr
 2173              	.L121:
 2174              		.align	2
 2175              	.L120:
 2176 0098 00000000 		.word	scsiDev
 2177 009c 00000000 		.word	transfer
 2178              		.cfi_endproc
 2179              	.LFE76:
 2180              		.size	enter_SelectionPhase, .-enter_SelectionPhase
 2181              		.section	.text.process_SelectionPhase,"ax",%progbits
 2182              		.align	2
ARM GAS  C:\Users\r\AppData\Local\Temp\ccbXJ1Li.s 			page 51


 2183              		.thumb
 2184              		.thumb_func
 2185              		.type	process_SelectionPhase, %function
 2186              	process_SelectionPhase:
 2187              	.LFB77:
 628:..\..\src/scsi.c **** 
 629:..\..\src/scsi.c **** static void process_SelectionPhase()
 630:..\..\src/scsi.c **** {
 2188              		.loc 1 630 0
 2189              		.cfi_startproc
 2190              		@ args = 0, pretend = 0, frame = 56
 2191              		@ frame_needed = 1, uses_anonymous_args = 0
 2192 0000 80B5     		push	{r7, lr}
 2193              		.cfi_def_cfa_offset 8
 2194              		.cfi_offset 7, -8
 2195              		.cfi_offset 14, -4
 2196 0002 8EB0     		sub	sp, sp, #56
 2197              		.cfi_def_cfa_offset 64
 2198 0004 00AF     		add	r7, sp, #0
 2199              		.cfi_def_cfa_register 7
 631:..\..\src/scsi.c **** 	// Selection delays.
 632:..\..\src/scsi.c **** 	// Many SCSI1 samplers that use a 5380 chip need a delay of at least 1ms.
 633:..\..\src/scsi.c **** 	// The Mac Plus boot-time (ie. rom code) selection abort time
 634:..\..\src/scsi.c **** 	// is < 1ms and must have no delay (standard suggests 250ms abort time)
 635:..\..\src/scsi.c **** 	// Most newer SCSI2 hosts don't care either way.
 636:..\..\src/scsi.c **** 	if (scsiDev.target->cfg->quirks == CONFIG_QUIRKS_XEBEC)
 2200              		.loc 1 636 0
 2201 0006 AD4B     		ldr	r3, .L157
 2202 0008 1B6E     		ldr	r3, [r3, #96]
 2203 000a 5B68     		ldr	r3, [r3, #4]
 2204 000c DB8F     		ldrh	r3, [r3, #62]	@ unaligned
 2205 000e 9BB2     		uxth	r3, r3
 2206 0010 042B     		cmp	r3, #4
 2207 0012 03D1     		bne	.L123
 637:..\..\src/scsi.c **** 	{
 638:..\..\src/scsi.c **** 		CyDelay(1); // Simply won't work if set to 0.
 2208              		.loc 1 638 0
 2209 0014 0120     		movs	r0, #1
 2210 0016 FFF7FEFF 		bl	CyDelay
 2211 001a 1AE0     		b	.L124
 2212              	.L123:
 639:..\..\src/scsi.c **** 	}
 640:..\..\src/scsi.c **** 	else if (scsiDev.boardCfg.selectionDelay == 255) // auto
 2213              		.loc 1 640 0
 2214 001c A74B     		ldr	r3, .L157
 2215 001e 93F86A30 		ldrb	r3, [r3, #106]	@ zero_extendqisi2
 2216 0022 FF2B     		cmp	r3, #255
 2217 0024 0AD1     		bne	.L125
 641:..\..\src/scsi.c **** 	{
 642:..\..\src/scsi.c **** 		if (scsiDev.compatMode < COMPAT_SCSI2)
 2218              		.loc 1 642 0
 2219 0026 A54B     		ldr	r3, .L157
 2220 0028 03F58343 		add	r3, r3, #16768
 2221 002c 1733     		adds	r3, r3, #23
 2222 002e 1B78     		ldrb	r3, [r3]	@ zero_extendqisi2
 2223 0030 022B     		cmp	r3, #2
 2224 0032 0ED8     		bhi	.L124
ARM GAS  C:\Users\r\AppData\Local\Temp\ccbXJ1Li.s 			page 52


 643:..\..\src/scsi.c **** 		{
 644:..\..\src/scsi.c **** 			CyDelay(1);
 2225              		.loc 1 644 0
 2226 0034 0120     		movs	r0, #1
 2227 0036 FFF7FEFF 		bl	CyDelay
 2228 003a 0AE0     		b	.L124
 2229              	.L125:
 645:..\..\src/scsi.c **** 		}
 646:..\..\src/scsi.c **** 	}
 647:..\..\src/scsi.c **** 	else if (scsiDev.boardCfg.selectionDelay != 0)
 2230              		.loc 1 647 0
 2231 003c 9F4B     		ldr	r3, .L157
 2232 003e 93F86A30 		ldrb	r3, [r3, #106]	@ zero_extendqisi2
 2233 0042 002B     		cmp	r3, #0
 2234 0044 05D0     		beq	.L124
 648:..\..\src/scsi.c **** 	{
 649:..\..\src/scsi.c **** 		CyDelay(scsiDev.boardCfg.selectionDelay);
 2235              		.loc 1 649 0
 2236 0046 9D4B     		ldr	r3, .L157
 2237 0048 93F86A30 		ldrb	r3, [r3, #106]	@ zero_extendqisi2
 2238 004c 1846     		mov	r0, r3
 2239 004e FFF7FEFF 		bl	CyDelay
 2240              	.L124:
 650:..\..\src/scsi.c **** 	}
 651:..\..\src/scsi.c **** 
 652:..\..\src/scsi.c **** 	int selLatchCfg = scsiDev.boardCfg.flags & CONFIG_ENABLE_SEL_LATCH;
 2241              		.loc 1 652 0
 2242 0052 9A4B     		ldr	r3, .L157
 2243 0054 93F86830 		ldrb	r3, [r3, #104]	@ zero_extendqisi2
 2244 0058 03F04003 		and	r3, r3, #64
 2245 005c BB62     		str	r3, [r7, #40]
 653:..\..\src/scsi.c **** 	int sel = (selLatchCfg && scsiDev.selFlag) || SCSI_ReadFilt(SCSI_Filt_SEL);
 2246              		.loc 1 653 0
 2247 005e BB6A     		ldr	r3, [r7, #40]
 2248 0060 002B     		cmp	r3, #0
 2249 0062 04D0     		beq	.L127
 2250              		.loc 1 653 0 is_stmt 0 discriminator 1
 2251 0064 954B     		ldr	r3, .L157
 2252 0066 D3F86C31 		ldr	r3, [r3, #364]
 2253 006a 002B     		cmp	r3, #0
 2254 006c 06D1     		bne	.L128
 2255              	.L127:
 2256              		.loc 1 653 0 discriminator 4
 2257 006e FFF7FEFF 		bl	SCSI_Filtered_Read
 2258 0072 0346     		mov	r3, r0
 2259 0074 03F00403 		and	r3, r3, #4
 2260 0078 002B     		cmp	r3, #0
 2261 007a 01D1     		bne	.L129
 2262              	.L128:
 2263              		.loc 1 653 0 discriminator 5
 2264 007c 0123     		movs	r3, #1
 2265 007e 00E0     		b	.L130
 2266              	.L129:
 2267              		.loc 1 653 0 discriminator 6
 2268 0080 0023     		movs	r3, #0
 2269              	.L130:
 2270              		.loc 1 653 0 discriminator 8
ARM GAS  C:\Users\r\AppData\Local\Temp\ccbXJ1Li.s 			page 53


 2271 0082 7B62     		str	r3, [r7, #36]
 654:..\..\src/scsi.c **** 
 655:..\..\src/scsi.c **** 	int bsy = SCSI_ReadFilt(SCSI_Filt_BSY);
 2272              		.loc 1 655 0 is_stmt 1 discriminator 8
 2273 0084 FFF7FEFF 		bl	SCSI_Filtered_Read
 2274 0088 0346     		mov	r3, r0
 2275 008a 03F00203 		and	r3, r3, #2
 2276 008e 002B     		cmp	r3, #0
 2277 0090 0CBF     		ite	eq
 2278 0092 0123     		moveq	r3, #1
 2279 0094 0023     		movne	r3, #0
 2280 0096 DBB2     		uxtb	r3, r3
 2281 0098 3B62     		str	r3, [r7, #32]
 656:..\..\src/scsi.c **** #ifdef SCSI_In_IO
 657:..\..\src/scsi.c **** 	int io = SCSI_ReadPin(SCSI_In_IO);
 2282              		.loc 1 657 0 discriminator 8
 2283 009a 894B     		ldr	r3, .L157+4
 2284 009c 1B78     		ldrb	r3, [r3]
 2285 009e DBB2     		uxtb	r3, r3
 2286 00a0 03F01003 		and	r3, r3, #16
 2287 00a4 002B     		cmp	r3, #0
 2288 00a6 0CBF     		ite	eq
 2289 00a8 0123     		moveq	r3, #1
 2290 00aa 0023     		movne	r3, #0
 2291 00ac DBB2     		uxtb	r3, r3
 2292 00ae FB61     		str	r3, [r7, #28]
 658:..\..\src/scsi.c **** #else
 659:..\..\src/scsi.c **** 	int io = 0;
 660:..\..\src/scsi.c **** #endif
 661:..\..\src/scsi.c **** 
 662:..\..\src/scsi.c **** 	// Only read these pins AFTER SEL and BSY - we don't want to catch them
 663:..\..\src/scsi.c **** 	// during a transition period.
 664:..\..\src/scsi.c **** 	uint8 mask = (selLatchCfg && scsiDev.selFlag) ? scsiDev.selDBX : scsiReadDBxPins();
 2293              		.loc 1 664 0 discriminator 8
 2294 00b0 BB6A     		ldr	r3, [r7, #40]
 2295 00b2 002B     		cmp	r3, #0
 2296 00b4 09D0     		beq	.L131
 2297              		.loc 1 664 0 is_stmt 0 discriminator 1
 2298 00b6 814B     		ldr	r3, .L157
 2299 00b8 D3F86C31 		ldr	r3, [r3, #364]
 2300 00bc 002B     		cmp	r3, #0
 2301 00be 04D0     		beq	.L131
 2302              		.loc 1 664 0 discriminator 3
 2303 00c0 7E4B     		ldr	r3, .L157
 2304 00c2 D3F87431 		ldr	r3, [r3, #372]
 2305 00c6 DBB2     		uxtb	r3, r3
 2306 00c8 02E0     		b	.L132
 2307              	.L131:
 2308              		.loc 1 664 0 discriminator 4
 2309 00ca FFF7FEFF 		bl	scsiReadDBxPins
 2310 00ce 0346     		mov	r3, r0
 2311              	.L132:
 2312              		.loc 1 664 0 discriminator 6
 2313 00d0 FB76     		strb	r3, [r7, #27]
 665:..\..\src/scsi.c **** 	int maskBitCount = countBits(mask);
 2314              		.loc 1 665 0 is_stmt 1 discriminator 6
 2315 00d2 FB7E     		ldrb	r3, [r7, #27]	@ zero_extendqisi2
ARM GAS  C:\Users\r\AppData\Local\Temp\ccbXJ1Li.s 			page 54


 2316 00d4 1846     		mov	r0, r3
 2317 00d6 FFF7FEFF 		bl	countBits
 2318 00da 0346     		mov	r3, r0
 2319 00dc 7B61     		str	r3, [r7, #20]
 666:..\..\src/scsi.c **** 	int goodParity = (Lookup_OddParity[mask] == SCSI_ReadPin(SCSI_In_DBP));
 2320              		.loc 1 666 0 discriminator 6
 2321 00de FB7E     		ldrb	r3, [r7, #27]	@ zero_extendqisi2
 2322 00e0 784A     		ldr	r2, .L157+8
 2323 00e2 D35C     		ldrb	r3, [r2, r3]	@ zero_extendqisi2
 2324 00e4 1A46     		mov	r2, r3
 2325 00e6 784B     		ldr	r3, .L157+12
 2326 00e8 1B78     		ldrb	r3, [r3]
 2327 00ea DBB2     		uxtb	r3, r3
 2328 00ec 03F01003 		and	r3, r3, #16
 2329 00f0 002B     		cmp	r3, #0
 2330 00f2 0CBF     		ite	eq
 2331 00f4 0123     		moveq	r3, #1
 2332 00f6 0023     		movne	r3, #0
 2333 00f8 DBB2     		uxtb	r3, r3
 2334 00fa 9A42     		cmp	r2, r3
 2335 00fc 0CBF     		ite	eq
 2336 00fe 0123     		moveq	r3, #1
 2337 0100 0023     		movne	r3, #0
 2338 0102 DBB2     		uxtb	r3, r3
 2339 0104 3B61     		str	r3, [r7, #16]
 667:..\..\src/scsi.c **** 	int atnFlag = SCSI_ReadFilt(SCSI_Filt_ATN);
 2340              		.loc 1 667 0 discriminator 6
 2341 0106 FFF7FEFF 		bl	SCSI_Filtered_Read
 2342 010a 0346     		mov	r3, r0
 2343 010c 03F00103 		and	r3, r3, #1
 2344 0110 002B     		cmp	r3, #0
 2345 0112 0CBF     		ite	eq
 2346 0114 0123     		moveq	r3, #1
 2347 0116 0023     		movne	r3, #0
 2348 0118 DBB2     		uxtb	r3, r3
 2349 011a FB60     		str	r3, [r7, #12]
 668:..\..\src/scsi.c **** 
 669:..\..\src/scsi.c **** 	int tgtIndex;
 670:..\..\src/scsi.c **** 	TargetState* target = NULL;
 2350              		.loc 1 670 0 discriminator 6
 2351 011c 0023     		movs	r3, #0
 2352 011e 3B63     		str	r3, [r7, #48]
 671:..\..\src/scsi.c **** 	for (tgtIndex = 0; tgtIndex < MAX_SCSI_TARGETS; ++tgtIndex)
 2353              		.loc 1 671 0 discriminator 6
 2354 0120 0023     		movs	r3, #0
 2355 0122 7B63     		str	r3, [r7, #52]
 2356 0124 1AE0     		b	.L133
 2357              	.L136:
 672:..\..\src/scsi.c **** 	{
 673:..\..\src/scsi.c **** 		if (mask & (1 << scsiDev.targets[tgtIndex].targetId))
 2358              		.loc 1 673 0
 2359 0126 F97E     		ldrb	r1, [r7, #27]	@ zero_extendqisi2
 2360 0128 6448     		ldr	r0, .L157
 2361 012a 7A6B     		ldr	r2, [r7, #52]
 2362 012c 1346     		mov	r3, r2
 2363 012e 5B00     		lsls	r3, r3, #1
 2364 0130 1344     		add	r3, r3, r2
ARM GAS  C:\Users\r\AppData\Local\Temp\ccbXJ1Li.s 			page 55


 2365 0132 DB00     		lsls	r3, r3, #3
 2366 0134 0344     		add	r3, r3, r0
 2367 0136 1B78     		ldrb	r3, [r3]	@ zero_extendqisi2
 2368 0138 41FA03F3 		asr	r3, r1, r3
 2369 013c 03F00103 		and	r3, r3, #1
 2370 0140 002B     		cmp	r3, #0
 2371 0142 08D0     		beq	.L134
 674:..\..\src/scsi.c **** 		{
 675:..\..\src/scsi.c **** 			target = &scsiDev.targets[tgtIndex];
 2372              		.loc 1 675 0
 2373 0144 7A6B     		ldr	r2, [r7, #52]
 2374 0146 1346     		mov	r3, r2
 2375 0148 5B00     		lsls	r3, r3, #1
 2376 014a 1344     		add	r3, r3, r2
 2377 014c DB00     		lsls	r3, r3, #3
 2378 014e 5B4A     		ldr	r2, .L157
 2379 0150 1344     		add	r3, r3, r2
 2380 0152 3B63     		str	r3, [r7, #48]
 676:..\..\src/scsi.c **** 			break;
 2381              		.loc 1 676 0
 2382 0154 05E0     		b	.L135
 2383              	.L134:
 671:..\..\src/scsi.c **** 	{
 2384              		.loc 1 671 0 discriminator 2
 2385 0156 7B6B     		ldr	r3, [r7, #52]
 2386 0158 0133     		adds	r3, r3, #1
 2387 015a 7B63     		str	r3, [r7, #52]
 2388              	.L133:
 671:..\..\src/scsi.c **** 	{
 2389              		.loc 1 671 0 is_stmt 0 discriminator 1
 2390 015c 7B6B     		ldr	r3, [r7, #52]
 2391 015e 032B     		cmp	r3, #3
 2392 0160 E1DD     		ble	.L136
 2393              	.L135:
 677:..\..\src/scsi.c **** 		}
 678:..\..\src/scsi.c **** 	}
 679:..\..\src/scsi.c **** 	sel &= (selLatchCfg && scsiDev.selFlag) || SCSI_ReadFilt(SCSI_Filt_SEL);
 2394              		.loc 1 679 0 is_stmt 1
 2395 0162 BB6A     		ldr	r3, [r7, #40]
 2396 0164 002B     		cmp	r3, #0
 2397 0166 04D0     		beq	.L137
 2398              		.loc 1 679 0 is_stmt 0 discriminator 1
 2399 0168 544B     		ldr	r3, .L157
 2400 016a D3F86C31 		ldr	r3, [r3, #364]
 2401 016e 002B     		cmp	r3, #0
 2402 0170 06D1     		bne	.L138
 2403              	.L137:
 2404              		.loc 1 679 0 discriminator 4
 2405 0172 FFF7FEFF 		bl	SCSI_Filtered_Read
 2406 0176 0346     		mov	r3, r0
 2407 0178 03F00403 		and	r3, r3, #4
 2408 017c 002B     		cmp	r3, #0
 2409 017e 01D1     		bne	.L139
 2410              	.L138:
 2411              		.loc 1 679 0 discriminator 5
 2412 0180 0123     		movs	r3, #1
 2413 0182 00E0     		b	.L140
ARM GAS  C:\Users\r\AppData\Local\Temp\ccbXJ1Li.s 			page 56


 2414              	.L139:
 2415              		.loc 1 679 0 discriminator 6
 2416 0184 0023     		movs	r3, #0
 2417              	.L140:
 2418              		.loc 1 679 0 discriminator 8
 2419 0186 7A6A     		ldr	r2, [r7, #36]
 2420 0188 1340     		ands	r3, r3, r2
 2421 018a 7B62     		str	r3, [r7, #36]
 680:..\..\src/scsi.c **** 	bsy |= SCSI_ReadFilt(SCSI_Filt_BSY);
 2422              		.loc 1 680 0 is_stmt 1 discriminator 8
 2423 018c FFF7FEFF 		bl	SCSI_Filtered_Read
 2424 0190 0346     		mov	r3, r0
 2425 0192 03F00203 		and	r3, r3, #2
 2426 0196 002B     		cmp	r3, #0
 2427 0198 0CBF     		ite	eq
 2428 019a 0123     		moveq	r3, #1
 2429 019c 0023     		movne	r3, #0
 2430 019e DBB2     		uxtb	r3, r3
 2431 01a0 1A46     		mov	r2, r3
 2432 01a2 3B6A     		ldr	r3, [r7, #32]
 2433 01a4 1343     		orrs	r3, r3, r2
 2434 01a6 3B62     		str	r3, [r7, #32]
 681:..\..\src/scsi.c **** #ifdef SCSI_In_IO
 682:..\..\src/scsi.c **** 	io |= SCSI_ReadPin(SCSI_In_IO);
 2435              		.loc 1 682 0 discriminator 8
 2436 01a8 454B     		ldr	r3, .L157+4
 2437 01aa 1B78     		ldrb	r3, [r3]
 2438 01ac DBB2     		uxtb	r3, r3
 2439 01ae 03F01003 		and	r3, r3, #16
 2440 01b2 002B     		cmp	r3, #0
 2441 01b4 0CBF     		ite	eq
 2442 01b6 0123     		moveq	r3, #1
 2443 01b8 0023     		movne	r3, #0
 2444 01ba DBB2     		uxtb	r3, r3
 2445 01bc 1A46     		mov	r2, r3
 2446 01be FB69     		ldr	r3, [r7, #28]
 2447 01c0 1343     		orrs	r3, r3, r2
 2448 01c2 FB61     		str	r3, [r7, #28]
 683:..\..\src/scsi.c **** #endif
 684:..\..\src/scsi.c **** 	if (!bsy && !io && sel &&
 2449              		.loc 1 684 0 discriminator 8
 2450 01c4 3B6A     		ldr	r3, [r7, #32]
 2451 01c6 002B     		cmp	r3, #0
 2452 01c8 40F0D380 		bne	.L141
 2453              		.loc 1 684 0 is_stmt 0 discriminator 1
 2454 01cc FB69     		ldr	r3, [r7, #28]
 2455 01ce 002B     		cmp	r3, #0
 2456 01d0 40F0CF80 		bne	.L141
 2457              		.loc 1 684 0 discriminator 2
 2458 01d4 7B6A     		ldr	r3, [r7, #36]
 2459 01d6 002B     		cmp	r3, #0
 2460 01d8 00F0CB80 		beq	.L141
 2461              		.loc 1 684 0 discriminator 3
 2462 01dc 3B6B     		ldr	r3, [r7, #48]
 2463 01de 002B     		cmp	r3, #0
 2464 01e0 00F0C780 		beq	.L141
 685:..\..\src/scsi.c **** 		target &&
ARM GAS  C:\Users\r\AppData\Local\Temp\ccbXJ1Li.s 			page 57


 2465              		.loc 1 685 0 is_stmt 1
 2466 01e4 3B69     		ldr	r3, [r7, #16]
 2467 01e6 002B     		cmp	r3, #0
 2468 01e8 0AD1     		bne	.L142
 686:..\..\src/scsi.c **** 		(goodParity || !(scsiDev.boardCfg.flags & CONFIG_ENABLE_PARITY) || !atnFlag) &&
 2469              		.loc 1 686 0
 2470 01ea 344B     		ldr	r3, .L157
 2471 01ec 93F86830 		ldrb	r3, [r3, #104]	@ zero_extendqisi2
 2472 01f0 03F00203 		and	r3, r3, #2
 2473 01f4 002B     		cmp	r3, #0
 2474 01f6 03D0     		beq	.L142
 2475              		.loc 1 686 0 is_stmt 0 discriminator 2
 2476 01f8 FB68     		ldr	r3, [r7, #12]
 2477 01fa 002B     		cmp	r3, #0
 2478 01fc 40F0B980 		bne	.L141
 2479              	.L142:
 687:..\..\src/scsi.c **** 		likely(maskBitCount <= 2))
 2480              		.loc 1 687 0 is_stmt 1 discriminator 3
 2481 0200 7B69     		ldr	r3, [r7, #20]
 2482 0202 022B     		cmp	r3, #2
 2483 0204 D4BF     		ite	le
 2484 0206 0123     		movle	r3, #1
 2485 0208 0023     		movgt	r3, #0
 2486 020a DBB2     		uxtb	r3, r3
 686:..\..\src/scsi.c **** 		(goodParity || !(scsiDev.boardCfg.flags & CONFIG_ENABLE_PARITY) || !atnFlag) &&
 2487              		.loc 1 686 0 discriminator 3
 2488 020c 002B     		cmp	r3, #0
 2489 020e 00F0B080 		beq	.L141
 2490              	.LBB4:
 688:..\..\src/scsi.c **** 	{
 689:..\..\src/scsi.c **** 		// We've been selected!
 690:..\..\src/scsi.c **** 		// Assert BSY - Selection success!
 691:..\..\src/scsi.c **** 		// must happen within 200us (Selection abort time) of seeing our
 692:..\..\src/scsi.c **** 		// ID + SEL.
 693:..\..\src/scsi.c **** 		// (Note: the initiator will be waiting the "Selection time-out delay"
 694:..\..\src/scsi.c **** 		// for our BSY response, which is actually a very generous 250ms)
 695:..\..\src/scsi.c **** 		SCSI_SetPin(SCSI_Out_BSY);
 2491              		.loc 1 695 0
 2492 0212 2E4A     		ldr	r2, .L157+16
 2493 0214 2D4B     		ldr	r3, .L157+16
 2494 0216 1B78     		ldrb	r3, [r3]
 2495 0218 DBB2     		uxtb	r3, r3
 2496 021a 43F00103 		orr	r3, r3, #1
 2497 021e DBB2     		uxtb	r3, r3
 2498 0220 1370     		strb	r3, [r2]
 696:..\..\src/scsi.c **** 		ledOn();
 2499              		.loc 1 696 0
 2500 0222 FFF7FEFF 		bl	ledOn
 697:..\..\src/scsi.c **** 
 698:..\..\src/scsi.c **** 		scsiDev.target = target;
 2501              		.loc 1 698 0
 2502 0226 254A     		ldr	r2, .L157
 2503 0228 3B6B     		ldr	r3, [r7, #48]
 2504 022a 1366     		str	r3, [r2, #96]
 699:..\..\src/scsi.c **** 
 700:..\..\src/scsi.c **** 		// Do we enter MESSAGE OUT immediately ? SCSI 1 and 2 standards says
 701:..\..\src/scsi.c **** 		// move to MESSAGE OUT if ATN is true before we assert BSY.
ARM GAS  C:\Users\r\AppData\Local\Temp\ccbXJ1Li.s 			page 58


 702:..\..\src/scsi.c **** 		// The initiator should assert ATN with SEL.
 703:..\..\src/scsi.c **** 		scsiDev.atnFlag = atnFlag;
 2505              		.loc 1 703 0
 2506 022c 234A     		ldr	r2, .L157
 2507 022e FB68     		ldr	r3, [r7, #12]
 2508 0230 C2F86431 		str	r3, [r2, #356]
 704:..\..\src/scsi.c **** 
 705:..\..\src/scsi.c **** 
 706:..\..\src/scsi.c **** 		// Unit attention breaks many older SCSI hosts. Disable it completely
 707:..\..\src/scsi.c **** 		// for SCSI-1 (and older) hosts, regardless of our configured setting.
 708:..\..\src/scsi.c **** 		// Enable the compatability mode also as many SASI and SCSI1
 709:..\..\src/scsi.c **** 		// controllers don't generate parity bits.
 710:..\..\src/scsi.c **** 		if (!scsiDev.atnFlag)
 2509              		.loc 1 710 0
 2510 0234 214B     		ldr	r3, .L157
 2511 0236 D3F86431 		ldr	r3, [r3, #356]
 2512 023a 002B     		cmp	r3, #0
 2513 023c 09D1     		bne	.L143
 711:..\..\src/scsi.c **** 		{
 712:..\..\src/scsi.c **** 			target->unitAttention = 0;
 2514              		.loc 1 712 0
 2515 023e 3B6B     		ldr	r3, [r7, #48]
 2516 0240 0022     		movs	r2, #0
 2517 0242 DA81     		strh	r2, [r3, #14]	@ movhi
 713:..\..\src/scsi.c **** 			scsiDev.compatMode = COMPAT_SCSI1;
 2518              		.loc 1 713 0
 2519 0244 1D4B     		ldr	r3, .L157
 2520 0246 03F58343 		add	r3, r3, #16768
 2521 024a 1733     		adds	r3, r3, #23
 2522 024c 0122     		movs	r2, #1
 2523 024e 1A70     		strb	r2, [r3]
 2524 0250 13E0     		b	.L144
 2525              	.L143:
 714:..\..\src/scsi.c **** 		}
 715:..\..\src/scsi.c **** 		else if (!(scsiDev.boardCfg.flags & CONFIG_ENABLE_SCSI2))
 2526              		.loc 1 715 0
 2527 0252 1A4B     		ldr	r3, .L157
 2528 0254 93F86830 		ldrb	r3, [r3, #104]	@ zero_extendqisi2
 2529 0258 03F00403 		and	r3, r3, #4
 2530 025c 002B     		cmp	r3, #0
 2531 025e 06D1     		bne	.L145
 716:..\..\src/scsi.c **** 		{
 717:..\..\src/scsi.c **** 			scsiDev.compatMode = COMPAT_SCSI2_DISABLED;
 2532              		.loc 1 717 0
 2533 0260 164B     		ldr	r3, .L157
 2534 0262 03F58343 		add	r3, r3, #16768
 2535 0266 1733     		adds	r3, r3, #23
 2536 0268 0222     		movs	r2, #2
 2537 026a 1A70     		strb	r2, [r3]
 2538 026c 05E0     		b	.L144
 2539              	.L145:
 718:..\..\src/scsi.c **** 		}
 719:..\..\src/scsi.c **** 		else
 720:..\..\src/scsi.c **** 		{
 721:..\..\src/scsi.c **** 			scsiDev.compatMode = COMPAT_SCSI2;
 2540              		.loc 1 721 0
 2541 026e 134B     		ldr	r3, .L157
ARM GAS  C:\Users\r\AppData\Local\Temp\ccbXJ1Li.s 			page 59


 2542 0270 03F58343 		add	r3, r3, #16768
 2543 0274 1733     		adds	r3, r3, #23
 2544 0276 0322     		movs	r2, #3
 2545 0278 1A70     		strb	r2, [r3]
 2546              	.L144:
 722:..\..\src/scsi.c **** 		}
 723:..\..\src/scsi.c **** 
 724:..\..\src/scsi.c **** 		scsiDev.selCount++;
 2547              		.loc 1 724 0
 2548 027a 104B     		ldr	r3, .L157
 2549 027c 03F58343 		add	r3, r3, #16768
 2550 0280 2533     		adds	r3, r3, #37
 2551 0282 1B78     		ldrb	r3, [r3]	@ zero_extendqisi2
 2552 0284 0133     		adds	r3, r3, #1
 2553 0286 DAB2     		uxtb	r2, r3
 2554 0288 0C4B     		ldr	r3, .L157
 2555 028a 03F58343 		add	r3, r3, #16768
 2556 028e 2533     		adds	r3, r3, #37
 2557 0290 1A70     		strb	r2, [r3]
 2558              	.LBB5:
 725:..\..\src/scsi.c **** 
 726:..\..\src/scsi.c **** 
 727:..\..\src/scsi.c **** 		// Save our initiator now that we're no longer in a time-critical
 728:..\..\src/scsi.c **** 		// section.
 729:..\..\src/scsi.c **** 		// SCSI1/SASI initiators may not set their own ID.
 730:..\..\src/scsi.c **** 		{
 731:..\..\src/scsi.c **** 			int i;
 732:..\..\src/scsi.c **** 			uint8_t initiatorMask = mask ^ (1 << target->targetId);
 2559              		.loc 1 732 0
 2560 0292 3B6B     		ldr	r3, [r7, #48]
 2561 0294 1B78     		ldrb	r3, [r3]	@ zero_extendqisi2
 2562 0296 1A46     		mov	r2, r3
 2563 0298 0123     		movs	r3, #1
 2564 029a 9340     		lsls	r3, r3, r2
 2565 029c 5AB2     		sxtb	r2, r3
 2566 029e 97F91B30 		ldrsb	r3, [r7, #27]
 2567 02a2 5340     		eors	r3, r3, r2
 2568 02a4 5BB2     		sxtb	r3, r3
 2569 02a6 FB72     		strb	r3, [r7, #11]
 733:..\..\src/scsi.c **** 			scsiDev.initiatorId = -1;
 2570              		.loc 1 733 0
 2571 02a8 044B     		ldr	r3, .L157
 2572 02aa 03F58343 		add	r3, r3, #16768
 2573 02ae 1833     		adds	r3, r3, #24
 2574 02b0 4FF0FF32 		mov	r2, #-1
 2575 02b4 1A60     		str	r2, [r3]
 734:..\..\src/scsi.c **** 			for (i = 0; i < 8; ++i)
 2576              		.loc 1 734 0
 2577 02b6 0023     		movs	r3, #0
 2578 02b8 FB62     		str	r3, [r7, #44]
 2579 02ba 1BE0     		b	.L146
 2580              	.L158:
 2581              		.align	2
 2582              	.L157:
 2583 02bc 00000000 		.word	scsiDev
 2584 02c0 04500040 		.word	1073762308
 2585 02c4 00000000 		.word	Lookup_OddParity
ARM GAS  C:\Users\r\AppData\Local\Temp\ccbXJ1Li.s 			page 60


 2586 02c8 11500040 		.word	1073762321
 2587 02cc 31500040 		.word	1073762353
 2588              	.L149:
 735:..\..\src/scsi.c **** 			{
 736:..\..\src/scsi.c **** 				if (initiatorMask & (1 << i))
 2589              		.loc 1 736 0
 2590 02d0 FA7A     		ldrb	r2, [r7, #11]	@ zero_extendqisi2
 2591 02d2 FB6A     		ldr	r3, [r7, #44]
 2592 02d4 42FA03F3 		asr	r3, r2, r3
 2593 02d8 03F00103 		and	r3, r3, #1
 2594 02dc 002B     		cmp	r3, #0
 2595 02de 06D0     		beq	.L147
 737:..\..\src/scsi.c **** 				{
 738:..\..\src/scsi.c **** 					scsiDev.initiatorId = i;
 2596              		.loc 1 738 0
 2597 02e0 2C4B     		ldr	r3, .L159
 2598 02e2 03F58343 		add	r3, r3, #16768
 2599 02e6 1833     		adds	r3, r3, #24
 2600 02e8 FA6A     		ldr	r2, [r7, #44]
 2601 02ea 1A60     		str	r2, [r3]
 739:..\..\src/scsi.c **** 					break;
 2602              		.loc 1 739 0
 2603 02ec 05E0     		b	.L148
 2604              	.L147:
 734:..\..\src/scsi.c **** 			{
 2605              		.loc 1 734 0 discriminator 2
 2606 02ee FB6A     		ldr	r3, [r7, #44]
 2607 02f0 0133     		adds	r3, r3, #1
 2608 02f2 FB62     		str	r3, [r7, #44]
 2609              	.L146:
 734:..\..\src/scsi.c **** 			{
 2610              		.loc 1 734 0 is_stmt 0 discriminator 1
 2611 02f4 FB6A     		ldr	r3, [r7, #44]
 2612 02f6 072B     		cmp	r3, #7
 2613 02f8 EADD     		ble	.L149
 2614              	.L148:
 2615              	.LBE5:
 740:..\..\src/scsi.c **** 				}
 741:..\..\src/scsi.c **** 			}
 742:..\..\src/scsi.c **** 		}
 743:..\..\src/scsi.c **** 
 744:..\..\src/scsi.c **** 		// Wait until the end of the selection phase.
 745:..\..\src/scsi.c **** 		uint32_t selTimerBegin = getTime_ms();
 2616              		.loc 1 745 0 is_stmt 1
 2617 02fa FFF7FEFF 		bl	getTime_ms
 2618 02fe 7860     		str	r0, [r7, #4]
 746:..\..\src/scsi.c **** 		while (likely(!scsiDev.resetFlag))
 2619              		.loc 1 746 0
 2620 0300 26E0     		b	.L150
 2621              	.L154:
 747:..\..\src/scsi.c **** 		{
 748:..\..\src/scsi.c **** 			if (!SCSI_ReadFilt(SCSI_Filt_SEL))
 2622              		.loc 1 748 0
 2623 0302 FFF7FEFF 		bl	SCSI_Filtered_Read
 2624 0306 0346     		mov	r3, r0
 2625 0308 03F00403 		and	r3, r3, #4
 2626 030c 002B     		cmp	r3, #0
ARM GAS  C:\Users\r\AppData\Local\Temp\ccbXJ1Li.s 			page 61


 2627 030e 2AD1     		bne	.L156
 749:..\..\src/scsi.c **** 			{
 750:..\..\src/scsi.c **** 				break;
 751:..\..\src/scsi.c **** 			}
 752:..\..\src/scsi.c ****             else if (elapsedTime_ms(selTimerBegin) >= 10 &&
 2628              		.loc 1 752 0
 2629 0310 7868     		ldr	r0, [r7, #4]
 2630 0312 FFF7FEFF 		bl	elapsedTime_ms
 2631 0316 0346     		mov	r3, r0
 2632 0318 092B     		cmp	r3, #9
 2633 031a 06D9     		bls	.L153
 753:..\..\src/scsi.c ****                     scsiDev.target->cfg->quirks == CONFIG_QUIRKS_XEBEC)
 2634              		.loc 1 753 0 discriminator 1
 2635 031c 1D4B     		ldr	r3, .L159
 2636 031e 1B6E     		ldr	r3, [r3, #96]
 2637 0320 5B68     		ldr	r3, [r3, #4]
 2638 0322 DB8F     		ldrh	r3, [r3, #62]	@ unaligned
 2639 0324 9BB2     		uxth	r3, r3
 752:..\..\src/scsi.c ****                     scsiDev.target->cfg->quirks == CONFIG_QUIRKS_XEBEC)
 2640              		.loc 1 752 0 discriminator 1
 2641 0326 042B     		cmp	r3, #4
 2642 0328 1ED0     		beq	.L152
 2643              	.L153:
 754:..\..\src/scsi.c ****             {
 755:..\..\src/scsi.c ****                     // XEBEC hosts may not bother releasing SEL at all until
 756:..\..\src/scsi.c ****                     // just before the command ends.
 757:..\..\src/scsi.c ****                     break;
 758:..\..\src/scsi.c ****             }
 759:..\..\src/scsi.c **** 			else if (elapsedTime_ms(selTimerBegin) >= 250)
 2644              		.loc 1 759 0
 2645 032a 7868     		ldr	r0, [r7, #4]
 2646 032c FFF7FEFF 		bl	elapsedTime_ms
 2647 0330 0346     		mov	r3, r0
 2648 0332 F92B     		cmp	r3, #249
 2649 0334 0CD9     		bls	.L150
 760:..\..\src/scsi.c **** 			{
 761:..\..\src/scsi.c **** 				SCSI_ClearPin(SCSI_Out_BSY);
 2650              		.loc 1 761 0
 2651 0336 184A     		ldr	r2, .L159+4
 2652 0338 174B     		ldr	r3, .L159+4
 2653 033a 1B78     		ldrb	r3, [r3]
 2654 033c DBB2     		uxtb	r3, r3
 2655 033e 23F00103 		bic	r3, r3, #1
 2656 0342 DBB2     		uxtb	r3, r3
 2657 0344 1370     		strb	r3, [r2]
 762:..\..\src/scsi.c **** 				scsiDev.resetFlag = 1;
 2658              		.loc 1 762 0
 2659 0346 134B     		ldr	r3, .L159
 2660 0348 0122     		movs	r2, #1
 2661 034a C3F86821 		str	r2, [r3, #360]
 763:..\..\src/scsi.c **** 				break;
 2662              		.loc 1 763 0
 2663 034e 0BE0     		b	.L152
 2664              	.L150:
 746:..\..\src/scsi.c **** 		{
 2665              		.loc 1 746 0
 2666 0350 104B     		ldr	r3, .L159
ARM GAS  C:\Users\r\AppData\Local\Temp\ccbXJ1Li.s 			page 62


 2667 0352 D3F86831 		ldr	r3, [r3, #360]
 2668 0356 002B     		cmp	r3, #0
 2669 0358 0CBF     		ite	eq
 2670 035a 0123     		moveq	r3, #1
 2671 035c 0023     		movne	r3, #0
 2672 035e DBB2     		uxtb	r3, r3
 2673 0360 002B     		cmp	r3, #0
 2674 0362 CED1     		bne	.L154
 2675 0364 00E0     		b	.L152
 2676              	.L156:
 750:..\..\src/scsi.c **** 			}
 2677              		.loc 1 750 0
 2678 0366 00BF     		nop
 2679              	.L152:
 764:..\..\src/scsi.c **** 			}
 765:..\..\src/scsi.c **** 		}
 766:..\..\src/scsi.c **** 
 767:..\..\src/scsi.c **** 		scsiDev.phase = COMMAND;
 2680              		.loc 1 767 0
 2681 0368 0A4B     		ldr	r3, .L159
 2682 036a 0222     		movs	r2, #2
 2683 036c C3F87821 		str	r2, [r3, #376]
 2684              	.LBE4:
 688:..\..\src/scsi.c **** 		// We've been selected!
 2685              		.loc 1 688 0
 2686 0370 07E0     		b	.L155
 2687              	.L141:
 768:..\..\src/scsi.c **** 	}
 769:..\..\src/scsi.c **** 	else if (!sel)
 2688              		.loc 1 769 0
 2689 0372 7B6A     		ldr	r3, [r7, #36]
 2690 0374 002B     		cmp	r3, #0
 2691 0376 04D1     		bne	.L155
 770:..\..\src/scsi.c **** 	{
 771:..\..\src/scsi.c **** 		scsiDev.phase = BUS_BUSY;
 2692              		.loc 1 771 0
 2693 0378 064B     		ldr	r3, .L159
 2694 037a 6FF00102 		mvn	r2, #1
 2695 037e C3F87821 		str	r2, [r3, #376]
 2696              	.L155:
 772:..\..\src/scsi.c **** 	}
 773:..\..\src/scsi.c **** 
 774:..\..\src/scsi.c **** 	scsiDev.selFlag = 0;
 2697              		.loc 1 774 0
 2698 0382 044B     		ldr	r3, .L159
 2699 0384 0022     		movs	r2, #0
 2700 0386 C3F86C21 		str	r2, [r3, #364]
 775:..\..\src/scsi.c **** }
 2701              		.loc 1 775 0
 2702 038a 00BF     		nop
 2703 038c 3837     		adds	r7, r7, #56
 2704              		.cfi_def_cfa_offset 8
 2705 038e BD46     		mov	sp, r7
 2706              		.cfi_def_cfa_register 13
 2707              		@ sp needed
 2708 0390 80BD     		pop	{r7, pc}
 2709              	.L160:
ARM GAS  C:\Users\r\AppData\Local\Temp\ccbXJ1Li.s 			page 63


 2710 0392 00BF     		.align	2
 2711              	.L159:
 2712 0394 00000000 		.word	scsiDev
 2713 0398 31500040 		.word	1073762353
 2714              		.cfi_endproc
 2715              	.LFE77:
 2716              		.size	process_SelectionPhase, .-process_SelectionPhase
 2717              		.section	.text.process_MessageOut,"ax",%progbits
 2718              		.align	2
 2719              		.thumb
 2720              		.thumb_func
 2721              		.type	process_MessageOut, %function
 2722              	process_MessageOut:
 2723              	.LFB78:
 776:..\..\src/scsi.c **** 
 777:..\..\src/scsi.c **** static void process_MessageOut()
 778:..\..\src/scsi.c **** {
 2724              		.loc 1 778 0
 2725              		.cfi_startproc
 2726              		@ args = 0, pretend = 0, frame = 264
 2727              		@ frame_needed = 1, uses_anonymous_args = 0
 2728 0000 80B5     		push	{r7, lr}
 2729              		.cfi_def_cfa_offset 8
 2730              		.cfi_offset 7, -8
 2731              		.cfi_offset 14, -4
 2732 0002 C2B0     		sub	sp, sp, #264
 2733              		.cfi_def_cfa_offset 272
 2734 0004 00AF     		add	r7, sp, #0
 2735              		.cfi_def_cfa_register 7
 779:..\..\src/scsi.c **** 	scsiEnterPhase(MESSAGE_OUT);
 2736              		.loc 1 779 0
 2737 0006 0320     		movs	r0, #3
 2738 0008 FFF7FEFF 		bl	scsiEnterPhase
 780:..\..\src/scsi.c **** 
 781:..\..\src/scsi.c **** 	scsiDev.atnFlag = 0;
 2739              		.loc 1 781 0
 2740 000c BF4B     		ldr	r3, .L188
 2741 000e 0022     		movs	r2, #0
 2742 0010 C3F86421 		str	r2, [r3, #356]
 782:..\..\src/scsi.c **** 	scsiDev.parityError = 0;
 2743              		.loc 1 782 0
 2744 0014 BD4B     		ldr	r3, .L188
 2745 0016 0022     		movs	r2, #0
 2746 0018 C3F87021 		str	r2, [r3, #368]
 783:..\..\src/scsi.c **** 	scsiDev.msgOut = scsiReadByte();
 2747              		.loc 1 783 0
 2748 001c FFF7FEFF 		bl	scsiReadByte
 2749 0020 0346     		mov	r3, r0
 2750 0022 1A46     		mov	r2, r3
 2751 0024 B94B     		ldr	r3, .L188
 2752 0026 03F58343 		add	r3, r3, #16768
 2753 002a 1E33     		adds	r3, r3, #30
 2754 002c 1A70     		strb	r2, [r3]
 784:..\..\src/scsi.c **** 	scsiDev.msgCount++;
 2755              		.loc 1 784 0
 2756 002e B74B     		ldr	r3, .L188
 2757 0030 03F58343 		add	r3, r3, #16768
ARM GAS  C:\Users\r\AppData\Local\Temp\ccbXJ1Li.s 			page 64


 2758 0034 2733     		adds	r3, r3, #39
 2759 0036 1B78     		ldrb	r3, [r3]	@ zero_extendqisi2
 2760 0038 0133     		adds	r3, r3, #1
 2761 003a DAB2     		uxtb	r2, r3
 2762 003c B34B     		ldr	r3, .L188
 2763 003e 03F58343 		add	r3, r3, #16768
 2764 0042 2733     		adds	r3, r3, #39
 2765 0044 1A70     		strb	r2, [r3]
 785:..\..\src/scsi.c **** 
 786:..\..\src/scsi.c **** 	if (scsiDev.parityError &&
 2766              		.loc 1 786 0
 2767 0046 B14B     		ldr	r3, .L188
 2768 0048 D3F87031 		ldr	r3, [r3, #368]
 2769 004c 002B     		cmp	r3, #0
 2770 004e 25D0     		beq	.L162
 787:..\..\src/scsi.c **** 		(scsiDev.boardCfg.flags & CONFIG_ENABLE_PARITY) &&
 2771              		.loc 1 787 0 discriminator 1
 2772 0050 AE4B     		ldr	r3, .L188
 2773 0052 93F86830 		ldrb	r3, [r3, #104]	@ zero_extendqisi2
 2774 0056 03F00203 		and	r3, r3, #2
 786:..\..\src/scsi.c **** 		(scsiDev.boardCfg.flags & CONFIG_ENABLE_PARITY) &&
 2775              		.loc 1 786 0 discriminator 1
 2776 005a 002B     		cmp	r3, #0
 2777 005c 1ED0     		beq	.L162
 788:..\..\src/scsi.c **** 		(scsiDev.compatMode >= COMPAT_SCSI2))
 2778              		.loc 1 788 0
 2779 005e AB4B     		ldr	r3, .L188
 2780 0060 03F58343 		add	r3, r3, #16768
 2781 0064 1733     		adds	r3, r3, #23
 2782 0066 1B78     		ldrb	r3, [r3]	@ zero_extendqisi2
 787:..\..\src/scsi.c **** 		(scsiDev.boardCfg.flags & CONFIG_ENABLE_PARITY) &&
 2783              		.loc 1 787 0
 2784 0068 022B     		cmp	r3, #2
 2785 006a 17D9     		bls	.L162
 789:..\..\src/scsi.c **** 	{
 790:..\..\src/scsi.c **** 		// Skip the remaining message bytes, and then start the MESSAGE_OUT
 791:..\..\src/scsi.c **** 		// phase again from the start. The initiator will re-send the
 792:..\..\src/scsi.c **** 		// same set of messages.
 793:..\..\src/scsi.c **** 		while (SCSI_ReadFilt(SCSI_Filt_ATN) && !scsiDev.resetFlag)
 2786              		.loc 1 793 0
 2787 006c 01E0     		b	.L163
 2788              	.L165:
 794:..\..\src/scsi.c **** 		{
 795:..\..\src/scsi.c **** 			scsiReadByte();
 2789              		.loc 1 795 0
 2790 006e FFF7FEFF 		bl	scsiReadByte
 2791              	.L163:
 793:..\..\src/scsi.c **** 		{
 2792              		.loc 1 793 0
 2793 0072 FFF7FEFF 		bl	SCSI_Filtered_Read
 2794 0076 0346     		mov	r3, r0
 2795 0078 03F00103 		and	r3, r3, #1
 2796 007c 002B     		cmp	r3, #0
 2797 007e 04D1     		bne	.L164
 793:..\..\src/scsi.c **** 		{
 2798              		.loc 1 793 0 is_stmt 0 discriminator 1
 2799 0080 A24B     		ldr	r3, .L188
ARM GAS  C:\Users\r\AppData\Local\Temp\ccbXJ1Li.s 			page 65


 2800 0082 D3F86831 		ldr	r3, [r3, #360]
 2801 0086 002B     		cmp	r3, #0
 2802 0088 F1D0     		beq	.L165
 2803              	.L164:
 796:..\..\src/scsi.c **** 		}
 797:..\..\src/scsi.c **** 
 798:..\..\src/scsi.c **** 		// Go-back and try the message again.
 799:..\..\src/scsi.c **** 		scsiDev.atnFlag = 1;
 2804              		.loc 1 799 0 is_stmt 1
 2805 008a A04B     		ldr	r3, .L188
 2806 008c 0122     		movs	r2, #1
 2807 008e C3F86421 		str	r2, [r3, #356]
 800:..\..\src/scsi.c **** 		scsiDev.parityError = 0;
 2808              		.loc 1 800 0
 2809 0092 9E4B     		ldr	r3, .L188
 2810 0094 0022     		movs	r2, #0
 2811 0096 C3F87021 		str	r2, [r3, #368]
 2812 009a 1FE1     		b	.L166
 2813              	.L162:
 801:..\..\src/scsi.c **** 	}
 802:..\..\src/scsi.c **** 	else if (scsiDev.msgOut == 0x00)
 2814              		.loc 1 802 0
 2815 009c 9B4B     		ldr	r3, .L188
 2816 009e 03F58343 		add	r3, r3, #16768
 2817 00a2 1E33     		adds	r3, r3, #30
 2818 00a4 1B78     		ldrb	r3, [r3]	@ zero_extendqisi2
 2819 00a6 002B     		cmp	r3, #0
 2820 00a8 02D1     		bne	.L167
 803:..\..\src/scsi.c **** 	{
 804:..\..\src/scsi.c **** 		// COMMAND COMPLETE. but why would the target be receiving this ? nfi.
 805:..\..\src/scsi.c **** 		enter_BusFree();
 2821              		.loc 1 805 0
 2822 00aa FFF7FEFF 		bl	enter_BusFree
 2823 00ae 15E1     		b	.L166
 2824              	.L167:
 806:..\..\src/scsi.c **** 	}
 807:..\..\src/scsi.c **** 	else if (scsiDev.msgOut == 0x06)
 2825              		.loc 1 807 0
 2826 00b0 964B     		ldr	r3, .L188
 2827 00b2 03F58343 		add	r3, r3, #16768
 2828 00b6 1E33     		adds	r3, r3, #30
 2829 00b8 1B78     		ldrb	r3, [r3]	@ zero_extendqisi2
 2830 00ba 062B     		cmp	r3, #6
 2831 00bc 04D1     		bne	.L168
 808:..\..\src/scsi.c **** 	{
 809:..\..\src/scsi.c **** 		// ABORT
 810:..\..\src/scsi.c **** 		scsiDiskReset();
 2832              		.loc 1 810 0
 2833 00be FFF7FEFF 		bl	scsiDiskReset
 811:..\..\src/scsi.c **** 		enter_BusFree();
 2834              		.loc 1 811 0
 2835 00c2 FFF7FEFF 		bl	enter_BusFree
 2836 00c6 09E1     		b	.L166
 2837              	.L168:
 812:..\..\src/scsi.c **** 	}
 813:..\..\src/scsi.c **** 	else if (scsiDev.msgOut == 0x0C)
 2838              		.loc 1 813 0
ARM GAS  C:\Users\r\AppData\Local\Temp\ccbXJ1Li.s 			page 66


 2839 00c8 904B     		ldr	r3, .L188
 2840 00ca 03F58343 		add	r3, r3, #16768
 2841 00ce 1E33     		adds	r3, r3, #30
 2842 00d0 1B78     		ldrb	r3, [r3]	@ zero_extendqisi2
 2843 00d2 0C2B     		cmp	r3, #12
 2844 00d4 13D1     		bne	.L169
 814:..\..\src/scsi.c **** 	{
 815:..\..\src/scsi.c **** 		// BUS DEVICE RESET
 816:..\..\src/scsi.c **** 
 817:..\..\src/scsi.c **** 		scsiDiskReset();
 2845              		.loc 1 817 0
 2846 00d6 FFF7FEFF 		bl	scsiDiskReset
 818:..\..\src/scsi.c **** 
 819:..\..\src/scsi.c **** 		scsiDev.target->unitAttention = SCSI_BUS_RESET;
 2847              		.loc 1 819 0
 2848 00da 8C4B     		ldr	r3, .L188
 2849 00dc 1B6E     		ldr	r3, [r3, #96]
 2850 00de 42F60212 		movw	r2, #10498
 2851 00e2 DA81     		strh	r2, [r3, #14]	@ movhi
 820:..\..\src/scsi.c **** 
 821:..\..\src/scsi.c **** 		// ANY initiator can reset the reservation state via this message.
 822:..\..\src/scsi.c **** 		scsiDev.target->reservedId = -1;
 2852              		.loc 1 822 0
 2853 00e4 894B     		ldr	r3, .L188
 2854 00e6 1B6E     		ldr	r3, [r3, #96]
 2855 00e8 4FF0FF32 		mov	r2, #-1
 2856 00ec 1A61     		str	r2, [r3, #16]
 823:..\..\src/scsi.c **** 		scsiDev.target->reserverId = -1;
 2857              		.loc 1 823 0
 2858 00ee 874B     		ldr	r3, .L188
 2859 00f0 1B6E     		ldr	r3, [r3, #96]
 2860 00f2 4FF0FF32 		mov	r2, #-1
 2861 00f6 5A61     		str	r2, [r3, #20]
 824:..\..\src/scsi.c **** 		enter_BusFree();
 2862              		.loc 1 824 0
 2863 00f8 FFF7FEFF 		bl	enter_BusFree
 2864 00fc EEE0     		b	.L166
 2865              	.L169:
 825:..\..\src/scsi.c **** 	}
 826:..\..\src/scsi.c **** 	else if (scsiDev.msgOut == 0x05)
 2866              		.loc 1 826 0
 2867 00fe 834B     		ldr	r3, .L188
 2868 0100 03F58343 		add	r3, r3, #16768
 2869 0104 1E33     		adds	r3, r3, #30
 2870 0106 1B78     		ldrb	r3, [r3]	@ zero_extendqisi2
 2871 0108 052B     		cmp	r3, #5
 2872 010a 00F0E780 		beq	.L166
 827:..\..\src/scsi.c **** 	{
 828:..\..\src/scsi.c **** 		// Initiate Detected Error
 829:..\..\src/scsi.c **** 		// Ignore for now
 830:..\..\src/scsi.c **** 	}
 831:..\..\src/scsi.c **** 	else if (scsiDev.msgOut == 0x0F)
 2873              		.loc 1 831 0
 2874 010e 7F4B     		ldr	r3, .L188
 2875 0110 03F58343 		add	r3, r3, #16768
 2876 0114 1E33     		adds	r3, r3, #30
 2877 0116 1B78     		ldrb	r3, [r3]	@ zero_extendqisi2
ARM GAS  C:\Users\r\AppData\Local\Temp\ccbXJ1Li.s 			page 67


 2878 0118 0F2B     		cmp	r3, #15
 2879 011a 00F0DF80 		beq	.L166
 832:..\..\src/scsi.c **** 	{
 833:..\..\src/scsi.c **** 		// INITIATE RECOVERY
 834:..\..\src/scsi.c **** 		// Ignore for now
 835:..\..\src/scsi.c **** 	}
 836:..\..\src/scsi.c **** 	else if (scsiDev.msgOut == 0x10)
 2880              		.loc 1 836 0
 2881 011e 7B4B     		ldr	r3, .L188
 2882 0120 03F58343 		add	r3, r3, #16768
 2883 0124 1E33     		adds	r3, r3, #30
 2884 0126 1B78     		ldrb	r3, [r3]	@ zero_extendqisi2
 2885 0128 102B     		cmp	r3, #16
 2886 012a 02D1     		bne	.L170
 837:..\..\src/scsi.c **** 	{
 838:..\..\src/scsi.c **** 		// RELEASE RECOVERY
 839:..\..\src/scsi.c **** 		// Ignore for now
 840:..\..\src/scsi.c **** 		enter_BusFree();
 2887              		.loc 1 840 0
 2888 012c FFF7FEFF 		bl	enter_BusFree
 2889 0130 D4E0     		b	.L166
 2890              	.L170:
 841:..\..\src/scsi.c **** 	}
 842:..\..\src/scsi.c **** 	else if (scsiDev.msgOut == MSG_REJECT)
 2891              		.loc 1 842 0
 2892 0132 764B     		ldr	r3, .L188
 2893 0134 03F58343 		add	r3, r3, #16768
 2894 0138 1E33     		adds	r3, r3, #30
 2895 013a 1B78     		ldrb	r3, [r3]	@ zero_extendqisi2
 2896 013c 072B     		cmp	r3, #7
 2897 013e 04D1     		bne	.L171
 843:..\..\src/scsi.c **** 	{
 844:..\..\src/scsi.c **** 		// Message Reject
 845:..\..\src/scsi.c **** 		// Oh well.
 846:..\..\src/scsi.c **** 		scsiDev.resetFlag = 1;
 2898              		.loc 1 846 0
 2899 0140 724B     		ldr	r3, .L188
 2900 0142 0122     		movs	r2, #1
 2901 0144 C3F86821 		str	r2, [r3, #360]
 2902 0148 C8E0     		b	.L166
 2903              	.L171:
 847:..\..\src/scsi.c **** 	}
 848:..\..\src/scsi.c **** 	else if (scsiDev.msgOut == 0x08)
 2904              		.loc 1 848 0
 2905 014a 704B     		ldr	r3, .L188
 2906 014c 03F58343 		add	r3, r3, #16768
 2907 0150 1E33     		adds	r3, r3, #30
 2908 0152 1B78     		ldrb	r3, [r3]	@ zero_extendqisi2
 2909 0154 082B     		cmp	r3, #8
 2910 0156 00F0C180 		beq	.L166
 849:..\..\src/scsi.c **** 	{
 850:..\..\src/scsi.c **** 		// NOP
 851:..\..\src/scsi.c **** 	}
 852:..\..\src/scsi.c **** 	else if (scsiDev.msgOut == 0x09)
 2911              		.loc 1 852 0
 2912 015a 6C4B     		ldr	r3, .L188
 2913 015c 03F58343 		add	r3, r3, #16768
ARM GAS  C:\Users\r\AppData\Local\Temp\ccbXJ1Li.s 			page 68


 2914 0160 1E33     		adds	r3, r3, #30
 2915 0162 1B78     		ldrb	r3, [r3]	@ zero_extendqisi2
 2916 0164 092B     		cmp	r3, #9
 2917 0166 04D1     		bne	.L172
 853:..\..\src/scsi.c **** 	{
 854:..\..\src/scsi.c **** 		// Message Parity Error
 855:..\..\src/scsi.c **** 		// Go back and re-send the last message.
 856:..\..\src/scsi.c **** 		scsiDev.phase = MESSAGE_IN;
 2918              		.loc 1 856 0
 2919 0168 684B     		ldr	r3, .L188
 2920 016a 0722     		movs	r2, #7
 2921 016c C3F87821 		str	r2, [r3, #376]
 2922 0170 B4E0     		b	.L166
 2923              	.L172:
 857:..\..\src/scsi.c **** 	}
 858:..\..\src/scsi.c **** 	else if (scsiDev.msgOut & 0x80) // 0x80 -> 0xFF
 2924              		.loc 1 858 0
 2925 0172 664B     		ldr	r3, .L188
 2926 0174 03F58343 		add	r3, r3, #16768
 2927 0178 1E33     		adds	r3, r3, #30
 2928 017a 1B78     		ldrb	r3, [r3]	@ zero_extendqisi2
 2929 017c 5BB2     		sxtb	r3, r3
 2930 017e 002B     		cmp	r3, #0
 2931 0180 3BDA     		bge	.L173
 859:..\..\src/scsi.c **** 	{
 860:..\..\src/scsi.c **** 		// IDENTIFY
 861:..\..\src/scsi.c **** 		if ((scsiDev.msgOut & 0x18) || // Reserved bits set.
 2932              		.loc 1 861 0
 2933 0182 624B     		ldr	r3, .L188
 2934 0184 03F58343 		add	r3, r3, #16768
 2935 0188 1E33     		adds	r3, r3, #30
 2936 018a 1B78     		ldrb	r3, [r3]	@ zero_extendqisi2
 2937 018c 03F01803 		and	r3, r3, #24
 2938 0190 002B     		cmp	r3, #0
 2939 0192 08D1     		bne	.L174
 862:..\..\src/scsi.c **** 			(scsiDev.msgOut & 0x20))  // We don't have any target routines!
 2940              		.loc 1 862 0 discriminator 1
 2941 0194 5D4B     		ldr	r3, .L188
 2942 0196 03F58343 		add	r3, r3, #16768
 2943 019a 1E33     		adds	r3, r3, #30
 2944 019c 1B78     		ldrb	r3, [r3]	@ zero_extendqisi2
 2945 019e 03F02003 		and	r3, r3, #32
 861:..\..\src/scsi.c **** 			(scsiDev.msgOut & 0x20))  // We don't have any target routines!
 2946              		.loc 1 861 0 discriminator 1
 2947 01a2 002B     		cmp	r3, #0
 2948 01a4 01D0     		beq	.L175
 2949              	.L174:
 863:..\..\src/scsi.c **** 		{
 864:..\..\src/scsi.c **** 			messageReject();
 2950              		.loc 1 864 0
 2951 01a6 FFF7FEFF 		bl	messageReject
 2952              	.L175:
 865:..\..\src/scsi.c **** 		}
 866:..\..\src/scsi.c **** 
 867:..\..\src/scsi.c **** 		scsiDev.lun = scsiDev.msgOut & 0x7;
 2953              		.loc 1 867 0
 2954 01aa 584B     		ldr	r3, .L188
ARM GAS  C:\Users\r\AppData\Local\Temp\ccbXJ1Li.s 			page 69


 2955 01ac 03F58343 		add	r3, r3, #16768
 2956 01b0 1E33     		adds	r3, r3, #30
 2957 01b2 1B78     		ldrb	r3, [r3]	@ zero_extendqisi2
 2958 01b4 5BB2     		sxtb	r3, r3
 2959 01b6 03F00703 		and	r3, r3, #7
 2960 01ba 5AB2     		sxtb	r2, r3
 2961 01bc 534B     		ldr	r3, .L188
 2962 01be 03F58343 		add	r3, r3, #16768
 2963 01c2 1533     		adds	r3, r3, #21
 2964 01c4 1A70     		strb	r2, [r3]
 868:..\..\src/scsi.c **** 		scsiDev.discPriv = 
 869:..\..\src/scsi.c **** 			((scsiDev.msgOut & 0x40) && (scsiDev.initiatorId >= 0))
 2965              		.loc 1 869 0
 2966 01c6 514B     		ldr	r3, .L188
 2967 01c8 03F58343 		add	r3, r3, #16768
 2968 01cc 1E33     		adds	r3, r3, #30
 2969 01ce 1B78     		ldrb	r3, [r3]	@ zero_extendqisi2
 2970 01d0 03F04003 		and	r3, r3, #64
 870:..\..\src/scsi.c **** 				? 1 : 0;
 2971              		.loc 1 870 0
 2972 01d4 002B     		cmp	r3, #0
 2973 01d6 08D0     		beq	.L176
 869:..\..\src/scsi.c **** 				? 1 : 0;
 2974              		.loc 1 869 0 discriminator 1
 2975 01d8 4C4B     		ldr	r3, .L188
 2976 01da 03F58343 		add	r3, r3, #16768
 2977 01de 1833     		adds	r3, r3, #24
 2978 01e0 1B68     		ldr	r3, [r3]
 2979              		.loc 1 870 0 discriminator 1
 2980 01e2 002B     		cmp	r3, #0
 2981 01e4 01DB     		blt	.L176
 2982              		.loc 1 870 0 is_stmt 0 discriminator 3
 2983 01e6 0123     		movs	r3, #1
 2984 01e8 00E0     		b	.L177
 2985              	.L176:
 2986              		.loc 1 870 0 discriminator 4
 2987 01ea 0023     		movs	r3, #0
 2988              	.L177:
 868:..\..\src/scsi.c **** 		scsiDev.discPriv = 
 2989              		.loc 1 868 0 is_stmt 1
 2990 01ec DAB2     		uxtb	r2, r3
 2991 01ee 474B     		ldr	r3, .L188
 2992 01f0 03F58343 		add	r3, r3, #16768
 2993 01f4 1633     		adds	r3, r3, #22
 2994 01f6 1A70     		strb	r2, [r3]
 2995 01f8 70E0     		b	.L166
 2996              	.L173:
 871:..\..\src/scsi.c **** 	}
 872:..\..\src/scsi.c **** 	else if (scsiDev.msgOut >= 0x20 && scsiDev.msgOut <= 0x2F)
 2997              		.loc 1 872 0
 2998 01fa 444B     		ldr	r3, .L188
 2999 01fc 03F58343 		add	r3, r3, #16768
 3000 0200 1E33     		adds	r3, r3, #30
 3001 0202 1B78     		ldrb	r3, [r3]	@ zero_extendqisi2
 3002 0204 1F2B     		cmp	r3, #31
 3003 0206 12D9     		bls	.L178
 3004              		.loc 1 872 0 is_stmt 0 discriminator 1
ARM GAS  C:\Users\r\AppData\Local\Temp\ccbXJ1Li.s 			page 70


 3005 0208 404B     		ldr	r3, .L188
 3006 020a 03F58343 		add	r3, r3, #16768
 3007 020e 1E33     		adds	r3, r3, #30
 3008 0210 1B78     		ldrb	r3, [r3]	@ zero_extendqisi2
 3009 0212 2F2B     		cmp	r3, #47
 3010 0214 0BD8     		bhi	.L178
 873:..\..\src/scsi.c **** 	{
 874:..\..\src/scsi.c **** 		// Two byte message. We don't support these. read and discard.
 875:..\..\src/scsi.c **** 		scsiReadByte();
 3011              		.loc 1 875 0 is_stmt 1
 3012 0216 FFF7FEFF 		bl	scsiReadByte
 876:..\..\src/scsi.c **** 
 877:..\..\src/scsi.c **** 		if (scsiDev.msgOut == 0x23) {
 3013              		.loc 1 877 0
 3014 021a 3C4B     		ldr	r3, .L188
 3015 021c 03F58343 		add	r3, r3, #16768
 3016 0220 1E33     		adds	r3, r3, #30
 3017 0222 1B78     		ldrb	r3, [r3]	@ zero_extendqisi2
 3018 0224 232B     		cmp	r3, #35
 3019 0226 59D0     		beq	.L166
 878:..\..\src/scsi.c **** 			// Ignore Wide Residue. We're only 8 bit anyway.
 879:..\..\src/scsi.c **** 		} else {
 880:..\..\src/scsi.c **** 			messageReject();
 3020              		.loc 1 880 0
 3021 0228 FFF7FEFF 		bl	messageReject
 877:..\..\src/scsi.c **** 			// Ignore Wide Residue. We're only 8 bit anyway.
 3022              		.loc 1 877 0
 3023 022c 56E0     		b	.L166
 3024              	.L178:
 881:..\..\src/scsi.c **** 		}
 882:..\..\src/scsi.c **** 	}
 883:..\..\src/scsi.c **** 	else if (scsiDev.msgOut == 0x01)
 3025              		.loc 1 883 0
 3026 022e 374B     		ldr	r3, .L188
 3027 0230 03F58343 		add	r3, r3, #16768
 3028 0234 1E33     		adds	r3, r3, #30
 3029 0236 1B78     		ldrb	r3, [r3]	@ zero_extendqisi2
 3030 0238 012B     		cmp	r3, #1
 3031 023a 4DD1     		bne	.L180
 3032              	.LBB6:
 884:..\..\src/scsi.c **** 	{
 885:..\..\src/scsi.c **** 		int i;
 886:..\..\src/scsi.c **** 
 887:..\..\src/scsi.c **** 		// Extended message.
 888:..\..\src/scsi.c **** 		int msgLen = scsiReadByte();
 3033              		.loc 1 888 0
 3034 023c FFF7FEFF 		bl	scsiReadByte
 3035 0240 0346     		mov	r3, r0
 3036 0242 C7F80031 		str	r3, [r7, #256]
 889:..\..\src/scsi.c **** 		if (msgLen == 0) msgLen = 256;
 3037              		.loc 1 889 0
 3038 0246 D7F80031 		ldr	r3, [r7, #256]
 3039 024a 002B     		cmp	r3, #0
 3040 024c 03D1     		bne	.L181
 3041              		.loc 1 889 0 is_stmt 0 discriminator 1
 3042 024e 4FF48073 		mov	r3, #256
 3043 0252 C7F80031 		str	r3, [r7, #256]
ARM GAS  C:\Users\r\AppData\Local\Temp\ccbXJ1Li.s 			page 71


 3044              	.L181:
 890:..\..\src/scsi.c **** 		uint8_t extmsg[256];
 891:..\..\src/scsi.c **** 		for (i = 0; i < msgLen && !scsiDev.resetFlag; ++i)
 3045              		.loc 1 891 0 is_stmt 1
 3046 0256 0023     		movs	r3, #0
 3047 0258 C7F80431 		str	r3, [r7, #260]
 3048 025c 0EE0     		b	.L182
 3049              	.L184:
 892:..\..\src/scsi.c **** 		{
 893:..\..\src/scsi.c **** 			// Discard bytes.
 894:..\..\src/scsi.c **** 			extmsg[i] = scsiReadByte();
 3050              		.loc 1 894 0 discriminator 4
 3051 025e FFF7FEFF 		bl	scsiReadByte
 3052 0262 0346     		mov	r3, r0
 3053 0264 1946     		mov	r1, r3
 3054 0266 3A46     		mov	r2, r7
 3055 0268 D7F80431 		ldr	r3, [r7, #260]
 3056 026c 1344     		add	r3, r3, r2
 3057 026e 0A46     		mov	r2, r1
 3058 0270 1A70     		strb	r2, [r3]
 891:..\..\src/scsi.c **** 		{
 3059              		.loc 1 891 0 discriminator 4
 3060 0272 D7F80431 		ldr	r3, [r7, #260]
 3061 0276 0133     		adds	r3, r3, #1
 3062 0278 C7F80431 		str	r3, [r7, #260]
 3063              	.L182:
 891:..\..\src/scsi.c **** 		{
 3064              		.loc 1 891 0 is_stmt 0 discriminator 1
 3065 027c D7F80421 		ldr	r2, [r7, #260]
 3066 0280 D7F80031 		ldr	r3, [r7, #256]
 3067 0284 9A42     		cmp	r2, r3
 3068 0286 04DA     		bge	.L183
 891:..\..\src/scsi.c **** 		{
 3069              		.loc 1 891 0 discriminator 3
 3070 0288 204B     		ldr	r3, .L188
 3071 028a D3F86831 		ldr	r3, [r3, #360]
 3072 028e 002B     		cmp	r3, #0
 3073 0290 E5D0     		beq	.L184
 3074              	.L183:
 895:..\..\src/scsi.c **** 		}
 896:..\..\src/scsi.c **** 
 897:..\..\src/scsi.c **** 		if (extmsg[0] == 3 && msgLen == 2) // Wide Data Request
 3075              		.loc 1 897 0 is_stmt 1
 3076 0292 3B46     		mov	r3, r7
 3077 0294 1B78     		ldrb	r3, [r3]	@ zero_extendqisi2
 3078 0296 032B     		cmp	r3, #3
 3079 0298 0BD1     		bne	.L185
 3080              		.loc 1 897 0 is_stmt 0 discriminator 1
 3081 029a D7F80031 		ldr	r3, [r7, #256]
 3082 029e 022B     		cmp	r3, #2
 3083 02a0 07D1     		bne	.L185
 3084              	.LBB7:
 898:..\..\src/scsi.c **** 		{
 899:..\..\src/scsi.c **** 			// Negotiate down to 8bit
 900:..\..\src/scsi.c **** 			scsiEnterPhase(MESSAGE_IN);
 3085              		.loc 1 900 0 is_stmt 1
 3086 02a2 0720     		movs	r0, #7
ARM GAS  C:\Users\r\AppData\Local\Temp\ccbXJ1Li.s 			page 72


 3087 02a4 FFF7FEFF 		bl	scsiEnterPhase
 901:..\..\src/scsi.c **** 			static const uint8_t WDTR[] = {0x01, 0x02, 0x03, 0x00};
 902:..\..\src/scsi.c **** 			scsiWrite(WDTR, sizeof(WDTR));
 3088              		.loc 1 902 0
 3089 02a8 0421     		movs	r1, #4
 3090 02aa 1948     		ldr	r0, .L188+4
 3091 02ac FFF7FEFF 		bl	scsiWrite
 3092              	.LBE7:
 898:..\..\src/scsi.c **** 		{
 3093              		.loc 1 898 0
 3094 02b0 14E0     		b	.L166
 3095              	.L185:
 903:..\..\src/scsi.c **** 		}
 904:..\..\src/scsi.c **** 		else if (extmsg[0] == 1 && msgLen == 3) // Synchronous data request
 3096              		.loc 1 904 0
 3097 02b2 3B46     		mov	r3, r7
 3098 02b4 1B78     		ldrb	r3, [r3]	@ zero_extendqisi2
 3099 02b6 012B     		cmp	r3, #1
 3100 02b8 0BD1     		bne	.L187
 3101              		.loc 1 904 0 is_stmt 0 discriminator 1
 3102 02ba D7F80031 		ldr	r3, [r7, #256]
 3103 02be 032B     		cmp	r3, #3
 3104 02c0 07D1     		bne	.L187
 3105              	.LBB8:
 905:..\..\src/scsi.c **** 		{
 906:..\..\src/scsi.c **** 			// Negotiate back to async
 907:..\..\src/scsi.c **** 			scsiEnterPhase(MESSAGE_IN);
 3106              		.loc 1 907 0 is_stmt 1
 3107 02c2 0720     		movs	r0, #7
 3108 02c4 FFF7FEFF 		bl	scsiEnterPhase
 908:..\..\src/scsi.c **** 			static const uint8_t SDTR[] = {0x01, 0x03, 0x01, 0x00, 0x00};
 909:..\..\src/scsi.c **** 			scsiWrite(SDTR, sizeof(SDTR));
 3109              		.loc 1 909 0
 3110 02c8 0521     		movs	r1, #5
 3111 02ca 1248     		ldr	r0, .L188+8
 3112 02cc FFF7FEFF 		bl	scsiWrite
 3113              	.LBE8:
 905:..\..\src/scsi.c **** 		{
 3114              		.loc 1 905 0
 3115 02d0 04E0     		b	.L166
 3116              	.L187:
 910:..\..\src/scsi.c **** 		}
 911:..\..\src/scsi.c **** 		else
 912:..\..\src/scsi.c **** 		{
 913:..\..\src/scsi.c **** 			// Not supported
 914:..\..\src/scsi.c **** 			messageReject();
 3117              		.loc 1 914 0
 3118 02d2 FFF7FEFF 		bl	messageReject
 3119 02d6 01E0     		b	.L166
 3120              	.L180:
 3121              	.LBE6:
 915:..\..\src/scsi.c **** 		}
 916:..\..\src/scsi.c **** 	}
 917:..\..\src/scsi.c **** 	else
 918:..\..\src/scsi.c **** 	{
 919:..\..\src/scsi.c **** 		messageReject();
 3122              		.loc 1 919 0
ARM GAS  C:\Users\r\AppData\Local\Temp\ccbXJ1Li.s 			page 73


 3123 02d8 FFF7FEFF 		bl	messageReject
 3124              	.L166:
 920:..\..\src/scsi.c **** 	}
 921:..\..\src/scsi.c **** 
 922:..\..\src/scsi.c **** 	// Re-check the ATN flag in case it stays asserted.
 923:..\..\src/scsi.c **** 	scsiDev.atnFlag |= SCSI_ReadFilt(SCSI_Filt_ATN);
 3125              		.loc 1 923 0
 3126 02dc FFF7FEFF 		bl	SCSI_Filtered_Read
 3127 02e0 0346     		mov	r3, r0
 3128 02e2 03F00103 		and	r3, r3, #1
 3129 02e6 002B     		cmp	r3, #0
 3130 02e8 0CBF     		ite	eq
 3131 02ea 0123     		moveq	r3, #1
 3132 02ec 0023     		movne	r3, #0
 3133 02ee DBB2     		uxtb	r3, r3
 3134 02f0 1A46     		mov	r2, r3
 3135 02f2 064B     		ldr	r3, .L188
 3136 02f4 D3F86431 		ldr	r3, [r3, #356]
 3137 02f8 1343     		orrs	r3, r3, r2
 3138 02fa 044A     		ldr	r2, .L188
 3139 02fc C2F86431 		str	r3, [r2, #356]
 924:..\..\src/scsi.c **** }
 3140              		.loc 1 924 0
 3141 0300 00BF     		nop
 3142 0302 07F58477 		add	r7, r7, #264
 3143              		.cfi_def_cfa_offset 8
 3144 0306 BD46     		mov	sp, r7
 3145              		.cfi_def_cfa_register 13
 3146              		@ sp needed
 3147 0308 80BD     		pop	{r7, pc}
 3148              	.L189:
 3149 030a 00BF     		.align	2
 3150              	.L188:
 3151 030c 00000000 		.word	scsiDev
 3152 0310 08000000 		.word	WDTR.7238
 3153 0314 0C000000 		.word	SDTR.7239
 3154              		.cfi_endproc
 3155              	.LFE78:
 3156              		.size	process_MessageOut, .-process_MessageOut
 3157              		.section	.text.scsiPoll,"ax",%progbits
 3158              		.align	2
 3159              		.global	scsiPoll
 3160              		.thumb
 3161              		.thumb_func
 3162              		.type	scsiPoll, %function
 3163              	scsiPoll:
 3164              	.LFB79:
 925:..\..\src/scsi.c **** 
 926:..\..\src/scsi.c **** void scsiPoll(void)
 927:..\..\src/scsi.c **** {
 3165              		.loc 1 927 0
 3166              		.cfi_startproc
 3167              		@ args = 0, pretend = 0, frame = 0
 3168              		@ frame_needed = 1, uses_anonymous_args = 0
 3169 0000 80B5     		push	{r7, lr}
 3170              		.cfi_def_cfa_offset 8
 3171              		.cfi_offset 7, -8
ARM GAS  C:\Users\r\AppData\Local\Temp\ccbXJ1Li.s 			page 74


 3172              		.cfi_offset 14, -4
 3173 0002 00AF     		add	r7, sp, #0
 3174              		.cfi_def_cfa_register 7
 928:..\..\src/scsi.c **** 	if (unlikely(scsiDev.resetFlag))
 3175              		.loc 1 928 0
 3176 0004 834B     		ldr	r3, .L224
 3177 0006 D3F86831 		ldr	r3, [r3, #360]
 3178 000a 002B     		cmp	r3, #0
 3179 000c 14BF     		ite	ne
 3180 000e 0123     		movne	r3, #1
 3181 0010 0023     		moveq	r3, #0
 3182 0012 DBB2     		uxtb	r3, r3
 3183 0014 002B     		cmp	r3, #0
 3184 0016 11D0     		beq	.L191
 929:..\..\src/scsi.c **** 	{
 930:..\..\src/scsi.c **** 		scsiReset();
 3185              		.loc 1 930 0
 3186 0018 FFF7FEFF 		bl	scsiReset
 931:..\..\src/scsi.c **** 		if ((scsiDev.resetFlag = SCSI_ReadFilt(SCSI_Filt_RST)))
 3187              		.loc 1 931 0
 3188 001c FFF7FEFF 		bl	SCSI_Filtered_Read
 3189 0020 0346     		mov	r3, r0
 3190 0022 03F00803 		and	r3, r3, #8
 3191 0026 002B     		cmp	r3, #0
 3192 0028 0CBF     		ite	eq
 3193 002a 0123     		moveq	r3, #1
 3194 002c 0023     		movne	r3, #0
 3195 002e DBB2     		uxtb	r3, r3
 3196 0030 784A     		ldr	r2, .L224
 3197 0032 C2F86831 		str	r3, [r2, #360]
 3198 0036 002B     		cmp	r3, #0
 3199 0038 40F0E580 		bne	.L221
 3200              	.L191:
 932:..\..\src/scsi.c **** 		{
 933:..\..\src/scsi.c **** 			// Still in reset phase. Do not try and process any commands.
 934:..\..\src/scsi.c **** 			return;
 935:..\..\src/scsi.c **** 		}
 936:..\..\src/scsi.c **** 	}
 937:..\..\src/scsi.c **** 
 938:..\..\src/scsi.c **** 	switch (scsiDev.phase)
 3201              		.loc 1 938 0
 3202 003c 754B     		ldr	r3, .L224
 3203 003e D3F87831 		ldr	r3, [r3, #376]
 3204 0042 0533     		adds	r3, r3, #5
 3205 0044 0C2B     		cmp	r3, #12
 3206 0046 00F2E380 		bhi	.L190
 3207 004a 01A2     		adr	r2, .L194
 3208 004c 52F823F0 		ldr	pc, [r2, r3, lsl #2]
 3209              		.p2align 2
 3210              	.L194:
 3211 0050 11020000 		.word	.L190+1
 3212 0054 F9000000 		.word	.L195+1
 3213 0058 11020000 		.word	.L190+1
 3214 005c BF000000 		.word	.L197+1
 3215 0060 85000000 		.word	.L198+1
 3216 0064 4F010000 		.word	.L199+1
 3217 0068 11020000 		.word	.L190+1
ARM GAS  C:\Users\r\AppData\Local\Temp\ccbXJ1Li.s 			page 75


 3218 006c FF000000 		.word	.L200+1
 3219 0070 FF010000 		.word	.L201+1
 3220 0074 15010000 		.word	.L202+1
 3221 0078 11020000 		.word	.L190+1
 3222 007c 89010000 		.word	.L203+1
 3223 0080 C3010000 		.word	.L204+1
 3224              		.p2align 1
 3225              	.L198:
 939:..\..\src/scsi.c **** 	{
 940:..\..\src/scsi.c **** 	case BUS_FREE:
 941:..\..\src/scsi.c **** 		if (SCSI_ReadFilt(SCSI_Filt_BSY))
 3226              		.loc 1 941 0
 3227 0084 FFF7FEFF 		bl	SCSI_Filtered_Read
 3228 0088 0346     		mov	r3, r0
 3229 008a 03F00203 		and	r3, r3, #2
 3230 008e 002B     		cmp	r3, #0
 3231 0090 05D1     		bne	.L205
 942:..\..\src/scsi.c **** 		{
 943:..\..\src/scsi.c **** 			scsiDev.phase = BUS_BUSY;
 3232              		.loc 1 943 0
 3233 0092 604B     		ldr	r3, .L224
 3234 0094 6FF00102 		mvn	r2, #1
 3235 0098 C3F87821 		str	r2, [r3, #376]
 944:..\..\src/scsi.c **** 		}
 945:..\..\src/scsi.c **** 		// The Arbitration phase is optional for SCSI1/SASI hosts if there is only
 946:..\..\src/scsi.c **** 		// one initiator in the chain. Support this by moving
 947:..\..\src/scsi.c **** 		// straight to selection if SEL is asserted.
 948:..\..\src/scsi.c **** 		// ie. the initiator won't assert BSY and it's own ID before moving to selection.
 949:..\..\src/scsi.c **** 		else if (SCSI_ReadFilt(SCSI_Filt_SEL) || scsiDev.selFlag)
 950:..\..\src/scsi.c **** 		{
 951:..\..\src/scsi.c **** 			enter_SelectionPhase();
 952:..\..\src/scsi.c **** 		}
 953:..\..\src/scsi.c **** 	break;
 3236              		.loc 1 953 0
 3237 009c B5E0     		b	.L222
 3238              	.L205:
 949:..\..\src/scsi.c **** 		{
 3239              		.loc 1 949 0
 3240 009e FFF7FEFF 		bl	SCSI_Filtered_Read
 3241 00a2 0346     		mov	r3, r0
 3242 00a4 03F00403 		and	r3, r3, #4
 3243 00a8 002B     		cmp	r3, #0
 3244 00aa 05D0     		beq	.L207
 949:..\..\src/scsi.c **** 		{
 3245              		.loc 1 949 0 is_stmt 0 discriminator 1
 3246 00ac 594B     		ldr	r3, .L224
 3247 00ae D3F86C31 		ldr	r3, [r3, #364]
 3248 00b2 002B     		cmp	r3, #0
 3249 00b4 00F0A980 		beq	.L222
 3250              	.L207:
 951:..\..\src/scsi.c **** 		}
 3251              		.loc 1 951 0 is_stmt 1
 3252 00b8 FFF7FEFF 		bl	enter_SelectionPhase
 3253              		.loc 1 953 0
 3254 00bc A5E0     		b	.L222
 3255              	.L197:
 954:..\..\src/scsi.c **** 
ARM GAS  C:\Users\r\AppData\Local\Temp\ccbXJ1Li.s 			page 76


 955:..\..\src/scsi.c **** 	case BUS_BUSY:
 956:..\..\src/scsi.c **** 		// Someone is using the bus. Perhaps they are trying to
 957:..\..\src/scsi.c **** 		// select us.
 958:..\..\src/scsi.c **** 		if (SCSI_ReadFilt(SCSI_Filt_SEL) || scsiDev.selFlag)
 3256              		.loc 1 958 0
 3257 00be FFF7FEFF 		bl	SCSI_Filtered_Read
 3258 00c2 0346     		mov	r3, r0
 3259 00c4 03F00403 		and	r3, r3, #4
 3260 00c8 002B     		cmp	r3, #0
 3261 00ca 04D0     		beq	.L208
 3262              		.loc 1 958 0 is_stmt 0 discriminator 1
 3263 00cc 514B     		ldr	r3, .L224
 3264 00ce D3F86C31 		ldr	r3, [r3, #364]
 3265 00d2 002B     		cmp	r3, #0
 3266 00d4 02D0     		beq	.L209
 3267              	.L208:
 959:..\..\src/scsi.c **** 		{
 960:..\..\src/scsi.c **** 			enter_SelectionPhase();
 3268              		.loc 1 960 0 is_stmt 1
 3269 00d6 FFF7FEFF 		bl	enter_SelectionPhase
 961:..\..\src/scsi.c **** 		}
 962:..\..\src/scsi.c **** 		else if (!SCSI_ReadFilt(SCSI_Filt_BSY))
 963:..\..\src/scsi.c **** 		{
 964:..\..\src/scsi.c **** 			scsiDev.phase = BUS_FREE;
 965:..\..\src/scsi.c **** 		}
 966:..\..\src/scsi.c **** 	break;
 3270              		.loc 1 966 0
 3271 00da 98E0     		b	.L223
 3272              	.L209:
 962:..\..\src/scsi.c **** 		{
 3273              		.loc 1 962 0
 3274 00dc FFF7FEFF 		bl	SCSI_Filtered_Read
 3275 00e0 0346     		mov	r3, r0
 3276 00e2 03F00203 		and	r3, r3, #2
 3277 00e6 002B     		cmp	r3, #0
 3278 00e8 00F09180 		beq	.L223
 964:..\..\src/scsi.c **** 		}
 3279              		.loc 1 964 0
 3280 00ec 494B     		ldr	r3, .L224
 3281 00ee 4FF0FF32 		mov	r2, #-1
 3282 00f2 C3F87821 		str	r2, [r3, #376]
 3283              		.loc 1 966 0
 3284 00f6 8AE0     		b	.L223
 3285              	.L195:
 967:..\..\src/scsi.c **** 
 968:..\..\src/scsi.c **** 	case ARBITRATION:
 969:..\..\src/scsi.c **** 		// TODO Support reselection.
 970:..\..\src/scsi.c **** 		break;
 971:..\..\src/scsi.c **** 
 972:..\..\src/scsi.c **** 	case SELECTION:
 973:..\..\src/scsi.c **** 		process_SelectionPhase();
 3286              		.loc 1 973 0
 3287 00f8 FFF7FEFF 		bl	process_SelectionPhase
 974:..\..\src/scsi.c **** 	break;
 3288              		.loc 1 974 0
 3289 00fc 88E0     		b	.L190
 3290              	.L200:
ARM GAS  C:\Users\r\AppData\Local\Temp\ccbXJ1Li.s 			page 77


 975:..\..\src/scsi.c **** 
 976:..\..\src/scsi.c **** 	case RESELECTION:
 977:..\..\src/scsi.c **** 		// Not currently supported!
 978:..\..\src/scsi.c **** 	break;
 979:..\..\src/scsi.c **** 
 980:..\..\src/scsi.c **** 	case COMMAND:
 981:..\..\src/scsi.c **** 		// Do not check ATN here. SCSI 1 & 2 initiators must set ATN
 982:..\..\src/scsi.c **** 		// and SEL together upon entering the selection phase if they
 983:..\..\src/scsi.c **** 		// want to send a message (IDENTIFY) immediately.
 984:..\..\src/scsi.c **** 		if (scsiDev.atnFlag)
 3291              		.loc 1 984 0
 3292 00fe 454B     		ldr	r3, .L224
 3293 0100 D3F86431 		ldr	r3, [r3, #356]
 3294 0104 002B     		cmp	r3, #0
 3295 0106 02D0     		beq	.L211
 985:..\..\src/scsi.c **** 		{
 986:..\..\src/scsi.c **** 			process_MessageOut();
 3296              		.loc 1 986 0
 3297 0108 FFF7FEFF 		bl	process_MessageOut
 987:..\..\src/scsi.c **** 		}
 988:..\..\src/scsi.c **** 		else
 989:..\..\src/scsi.c **** 		{
 990:..\..\src/scsi.c **** 			process_Command();
 991:..\..\src/scsi.c **** 		}
 992:..\..\src/scsi.c **** 	break;
 3298              		.loc 1 992 0
 3299 010c 80E0     		b	.L190
 3300              	.L211:
 990:..\..\src/scsi.c **** 		}
 3301              		.loc 1 990 0
 3302 010e FFF7FEFF 		bl	process_Command
 3303              		.loc 1 992 0
 3304 0112 7DE0     		b	.L190
 3305              	.L202:
 993:..\..\src/scsi.c **** 
 994:..\..\src/scsi.c **** 	case DATA_IN:
 995:..\..\src/scsi.c **** 		scsiDev.atnFlag |= SCSI_ReadFilt(SCSI_Filt_ATN);
 3306              		.loc 1 995 0
 3307 0114 FFF7FEFF 		bl	SCSI_Filtered_Read
 3308 0118 0346     		mov	r3, r0
 3309 011a 03F00103 		and	r3, r3, #1
 3310 011e 002B     		cmp	r3, #0
 3311 0120 0CBF     		ite	eq
 3312 0122 0123     		moveq	r3, #1
 3313 0124 0023     		movne	r3, #0
 3314 0126 DBB2     		uxtb	r3, r3
 3315 0128 1A46     		mov	r2, r3
 3316 012a 3A4B     		ldr	r3, .L224
 3317 012c D3F86431 		ldr	r3, [r3, #356]
 3318 0130 1343     		orrs	r3, r3, r2
 3319 0132 384A     		ldr	r2, .L224
 3320 0134 C2F86431 		str	r3, [r2, #356]
 996:..\..\src/scsi.c **** 		if (scsiDev.atnFlag)
 3321              		.loc 1 996 0
 3322 0138 364B     		ldr	r3, .L224
 3323 013a D3F86431 		ldr	r3, [r3, #356]
 3324 013e 002B     		cmp	r3, #0
ARM GAS  C:\Users\r\AppData\Local\Temp\ccbXJ1Li.s 			page 78


 3325 0140 02D0     		beq	.L213
 997:..\..\src/scsi.c **** 		{
 998:..\..\src/scsi.c **** 			process_MessageOut();
 3326              		.loc 1 998 0
 3327 0142 FFF7FEFF 		bl	process_MessageOut
 999:..\..\src/scsi.c **** 		}
1000:..\..\src/scsi.c **** 		else
1001:..\..\src/scsi.c **** 		{
1002:..\..\src/scsi.c **** 			process_DataIn();
1003:..\..\src/scsi.c **** 		}
1004:..\..\src/scsi.c **** 	break;
 3328              		.loc 1 1004 0
 3329 0146 63E0     		b	.L190
 3330              	.L213:
1002:..\..\src/scsi.c **** 		}
 3331              		.loc 1 1002 0
 3332 0148 FFF7FEFF 		bl	process_DataIn
 3333              		.loc 1 1004 0
 3334 014c 60E0     		b	.L190
 3335              	.L199:
1005:..\..\src/scsi.c **** 
1006:..\..\src/scsi.c **** 	case DATA_OUT:
1007:..\..\src/scsi.c **** 		scsiDev.atnFlag |= SCSI_ReadFilt(SCSI_Filt_ATN);
 3336              		.loc 1 1007 0
 3337 014e FFF7FEFF 		bl	SCSI_Filtered_Read
 3338 0152 0346     		mov	r3, r0
 3339 0154 03F00103 		and	r3, r3, #1
 3340 0158 002B     		cmp	r3, #0
 3341 015a 0CBF     		ite	eq
 3342 015c 0123     		moveq	r3, #1
 3343 015e 0023     		movne	r3, #0
 3344 0160 DBB2     		uxtb	r3, r3
 3345 0162 1A46     		mov	r2, r3
 3346 0164 2B4B     		ldr	r3, .L224
 3347 0166 D3F86431 		ldr	r3, [r3, #356]
 3348 016a 1343     		orrs	r3, r3, r2
 3349 016c 294A     		ldr	r2, .L224
 3350 016e C2F86431 		str	r3, [r2, #356]
1008:..\..\src/scsi.c **** 		if (scsiDev.atnFlag)
 3351              		.loc 1 1008 0
 3352 0172 284B     		ldr	r3, .L224
 3353 0174 D3F86431 		ldr	r3, [r3, #356]
 3354 0178 002B     		cmp	r3, #0
 3355 017a 02D0     		beq	.L215
1009:..\..\src/scsi.c **** 		{
1010:..\..\src/scsi.c **** 			process_MessageOut();
 3356              		.loc 1 1010 0
 3357 017c FFF7FEFF 		bl	process_MessageOut
1011:..\..\src/scsi.c **** 		}
1012:..\..\src/scsi.c **** 		else
1013:..\..\src/scsi.c **** 		{
1014:..\..\src/scsi.c **** 			process_DataOut();
1015:..\..\src/scsi.c **** 		}
1016:..\..\src/scsi.c **** 	break;
 3358              		.loc 1 1016 0
 3359 0180 46E0     		b	.L190
 3360              	.L215:
ARM GAS  C:\Users\r\AppData\Local\Temp\ccbXJ1Li.s 			page 79


1014:..\..\src/scsi.c **** 		}
 3361              		.loc 1 1014 0
 3362 0182 FFF7FEFF 		bl	process_DataOut
 3363              		.loc 1 1016 0
 3364 0186 43E0     		b	.L190
 3365              	.L203:
1017:..\..\src/scsi.c **** 
1018:..\..\src/scsi.c **** 	case STATUS:
1019:..\..\src/scsi.c **** 		scsiDev.atnFlag |= SCSI_ReadFilt(SCSI_Filt_ATN);
 3366              		.loc 1 1019 0
 3367 0188 FFF7FEFF 		bl	SCSI_Filtered_Read
 3368 018c 0346     		mov	r3, r0
 3369 018e 03F00103 		and	r3, r3, #1
 3370 0192 002B     		cmp	r3, #0
 3371 0194 0CBF     		ite	eq
 3372 0196 0123     		moveq	r3, #1
 3373 0198 0023     		movne	r3, #0
 3374 019a DBB2     		uxtb	r3, r3
 3375 019c 1A46     		mov	r2, r3
 3376 019e 1D4B     		ldr	r3, .L224
 3377 01a0 D3F86431 		ldr	r3, [r3, #356]
 3378 01a4 1343     		orrs	r3, r3, r2
 3379 01a6 1B4A     		ldr	r2, .L224
 3380 01a8 C2F86431 		str	r3, [r2, #356]
1020:..\..\src/scsi.c **** 		if (scsiDev.atnFlag)
 3381              		.loc 1 1020 0
 3382 01ac 194B     		ldr	r3, .L224
 3383 01ae D3F86431 		ldr	r3, [r3, #356]
 3384 01b2 002B     		cmp	r3, #0
 3385 01b4 02D0     		beq	.L217
1021:..\..\src/scsi.c **** 		{
1022:..\..\src/scsi.c **** 			process_MessageOut();
 3386              		.loc 1 1022 0
 3387 01b6 FFF7FEFF 		bl	process_MessageOut
1023:..\..\src/scsi.c **** 		}
1024:..\..\src/scsi.c **** 		else
1025:..\..\src/scsi.c **** 		{
1026:..\..\src/scsi.c **** 			process_Status();
1027:..\..\src/scsi.c **** 		}
1028:..\..\src/scsi.c **** 	break;
 3388              		.loc 1 1028 0
 3389 01ba 29E0     		b	.L190
 3390              	.L217:
1026:..\..\src/scsi.c **** 		}
 3391              		.loc 1 1026 0
 3392 01bc FFF7FEFF 		bl	process_Status
 3393              		.loc 1 1028 0
 3394 01c0 26E0     		b	.L190
 3395              	.L204:
1029:..\..\src/scsi.c **** 
1030:..\..\src/scsi.c **** 	case MESSAGE_IN:
1031:..\..\src/scsi.c **** 		scsiDev.atnFlag |= SCSI_ReadFilt(SCSI_Filt_ATN);
 3396              		.loc 1 1031 0
 3397 01c2 FFF7FEFF 		bl	SCSI_Filtered_Read
 3398 01c6 0346     		mov	r3, r0
 3399 01c8 03F00103 		and	r3, r3, #1
 3400 01cc 002B     		cmp	r3, #0
ARM GAS  C:\Users\r\AppData\Local\Temp\ccbXJ1Li.s 			page 80


 3401 01ce 0CBF     		ite	eq
 3402 01d0 0123     		moveq	r3, #1
 3403 01d2 0023     		movne	r3, #0
 3404 01d4 DBB2     		uxtb	r3, r3
 3405 01d6 1A46     		mov	r2, r3
 3406 01d8 0E4B     		ldr	r3, .L224
 3407 01da D3F86431 		ldr	r3, [r3, #356]
 3408 01de 1343     		orrs	r3, r3, r2
 3409 01e0 0C4A     		ldr	r2, .L224
 3410 01e2 C2F86431 		str	r3, [r2, #356]
1032:..\..\src/scsi.c **** 		if (scsiDev.atnFlag)
 3411              		.loc 1 1032 0
 3412 01e6 0B4B     		ldr	r3, .L224
 3413 01e8 D3F86431 		ldr	r3, [r3, #356]
 3414 01ec 002B     		cmp	r3, #0
 3415 01ee 02D0     		beq	.L219
1033:..\..\src/scsi.c **** 		{
1034:..\..\src/scsi.c **** 			process_MessageOut();
 3416              		.loc 1 1034 0
 3417 01f0 FFF7FEFF 		bl	process_MessageOut
1035:..\..\src/scsi.c **** 		}
1036:..\..\src/scsi.c **** 		else
1037:..\..\src/scsi.c **** 		{
1038:..\..\src/scsi.c **** 			process_MessageIn(1);
1039:..\..\src/scsi.c **** 		}
1040:..\..\src/scsi.c **** 
1041:..\..\src/scsi.c **** 	break;
 3418              		.loc 1 1041 0
 3419 01f4 0CE0     		b	.L190
 3420              	.L219:
1038:..\..\src/scsi.c **** 		}
 3421              		.loc 1 1038 0
 3422 01f6 0120     		movs	r0, #1
 3423 01f8 FFF7FEFF 		bl	process_MessageIn
 3424              		.loc 1 1041 0
 3425 01fc 08E0     		b	.L190
 3426              	.L201:
1042:..\..\src/scsi.c **** 
1043:..\..\src/scsi.c **** 	case MESSAGE_OUT:
1044:..\..\src/scsi.c **** 		process_MessageOut();
 3427              		.loc 1 1044 0
 3428 01fe FFF7FEFF 		bl	process_MessageOut
1045:..\..\src/scsi.c **** 	break;
 3429              		.loc 1 1045 0
 3430 0202 00BF     		nop
 3431 0204 04E0     		b	.L190
 3432              	.L221:
 934:..\..\src/scsi.c **** 		}
 3433              		.loc 1 934 0
 3434 0206 00BF     		nop
 3435 0208 02E0     		b	.L190
 3436              	.L222:
 953:..\..\src/scsi.c **** 
 3437              		.loc 1 953 0
 3438 020a 00BF     		nop
 3439 020c 00E0     		b	.L190
 3440              	.L223:
ARM GAS  C:\Users\r\AppData\Local\Temp\ccbXJ1Li.s 			page 81


 966:..\..\src/scsi.c **** 
 3441              		.loc 1 966 0
 3442 020e 00BF     		nop
 3443              	.L190:
1046:..\..\src/scsi.c **** 	}
1047:..\..\src/scsi.c **** }
 3444              		.loc 1 1047 0
 3445 0210 80BD     		pop	{r7, pc}
 3446              	.L225:
 3447 0212 00BF     		.align	2
 3448              	.L224:
 3449 0214 00000000 		.word	scsiDev
 3450              		.cfi_endproc
 3451              	.LFE79:
 3452              		.size	scsiPoll, .-scsiPoll
 3453              		.section	.text.scsiInit,"ax",%progbits
 3454              		.align	2
 3455              		.global	scsiInit
 3456              		.thumb
 3457              		.thumb_func
 3458              		.type	scsiInit, %function
 3459              	scsiInit:
 3460              	.LFB80:
1048:..\..\src/scsi.c **** 
1049:..\..\src/scsi.c **** void scsiInit()
1050:..\..\src/scsi.c **** {
 3461              		.loc 1 1050 0
 3462              		.cfi_startproc
 3463              		@ args = 0, pretend = 0, frame = 8
 3464              		@ frame_needed = 1, uses_anonymous_args = 0
 3465 0000 80B5     		push	{r7, lr}
 3466              		.cfi_def_cfa_offset 8
 3467              		.cfi_offset 7, -8
 3468              		.cfi_offset 14, -4
 3469 0002 82B0     		sub	sp, sp, #8
 3470              		.cfi_def_cfa_offset 16
 3471 0004 00AF     		add	r7, sp, #0
 3472              		.cfi_def_cfa_register 7
1051:..\..\src/scsi.c **** 	scsiDev.atnFlag = 0;
 3473              		.loc 1 1051 0
 3474 0006 514B     		ldr	r3, .L231
 3475 0008 0022     		movs	r2, #0
 3476 000a C3F86421 		str	r2, [r3, #356]
1052:..\..\src/scsi.c **** 	scsiDev.resetFlag = 1;
 3477              		.loc 1 1052 0
 3478 000e 4F4B     		ldr	r3, .L231
 3479 0010 0122     		movs	r2, #1
 3480 0012 C3F86821 		str	r2, [r3, #360]
1053:..\..\src/scsi.c **** 	scsiDev.selFlag = 0;
 3481              		.loc 1 1053 0
 3482 0016 4D4B     		ldr	r3, .L231
 3483 0018 0022     		movs	r2, #0
 3484 001a C3F86C21 		str	r2, [r3, #364]
1054:..\..\src/scsi.c **** 	scsiDev.phase = BUS_FREE;
 3485              		.loc 1 1054 0
 3486 001e 4B4B     		ldr	r3, .L231
 3487 0020 4FF0FF32 		mov	r2, #-1
ARM GAS  C:\Users\r\AppData\Local\Temp\ccbXJ1Li.s 			page 82


 3488 0024 C3F87821 		str	r2, [r3, #376]
1055:..\..\src/scsi.c **** 	scsiDev.target = NULL;
 3489              		.loc 1 1055 0
 3490 0028 484B     		ldr	r3, .L231
 3491 002a 0022     		movs	r2, #0
 3492 002c 1A66     		str	r2, [r3, #96]
1056:..\..\src/scsi.c **** 	scsiDev.compatMode = COMPAT_UNKNOWN;
 3493              		.loc 1 1056 0
 3494 002e 474B     		ldr	r3, .L231
 3495 0030 03F58343 		add	r3, r3, #16768
 3496 0034 1733     		adds	r3, r3, #23
 3497 0036 0022     		movs	r2, #0
 3498 0038 1A70     		strb	r2, [r3]
1057:..\..\src/scsi.c **** 
1058:..\..\src/scsi.c **** 	int i;
1059:..\..\src/scsi.c **** 	for (i = 0; i < MAX_SCSI_TARGETS; ++i)
 3499              		.loc 1 1059 0
 3500 003a 0023     		movs	r3, #0
 3501 003c 7B60     		str	r3, [r7, #4]
 3502 003e 7CE0     		b	.L227
 3503              	.L230:
 3504              	.LBB9:
1060:..\..\src/scsi.c **** 	{
1061:..\..\src/scsi.c **** 		const TargetConfig* cfg = getConfigByIndex(i);
 3505              		.loc 1 1061 0
 3506 0040 7868     		ldr	r0, [r7, #4]
 3507 0042 FFF7FEFF 		bl	getConfigByIndex
 3508 0046 3860     		str	r0, [r7]
1062:..\..\src/scsi.c **** 		if (cfg && (cfg->scsiId & CONFIG_TARGET_ENABLED))
 3509              		.loc 1 1062 0
 3510 0048 3B68     		ldr	r3, [r7]
 3511 004a 002B     		cmp	r3, #0
 3512 004c 2AD0     		beq	.L228
 3513              		.loc 1 1062 0 is_stmt 0 discriminator 1
 3514 004e 3B68     		ldr	r3, [r7]
 3515 0050 1B78     		ldrb	r3, [r3]	@ zero_extendqisi2
 3516 0052 5BB2     		sxtb	r3, r3
 3517 0054 002B     		cmp	r3, #0
 3518 0056 25DA     		bge	.L228
1063:..\..\src/scsi.c **** 		{
1064:..\..\src/scsi.c **** 			scsiDev.targets[i].targetId = cfg->scsiId & CONFIG_TARGET_ID_BITS;
 3519              		.loc 1 1064 0 is_stmt 1
 3520 0058 3B68     		ldr	r3, [r7]
 3521 005a 1B78     		ldrb	r3, [r3]	@ zero_extendqisi2
 3522 005c 03F00703 		and	r3, r3, #7
 3523 0060 D8B2     		uxtb	r0, r3
 3524 0062 3A49     		ldr	r1, .L231
 3525 0064 7A68     		ldr	r2, [r7, #4]
 3526 0066 1346     		mov	r3, r2
 3527 0068 5B00     		lsls	r3, r3, #1
 3528 006a 1344     		add	r3, r3, r2
 3529 006c DB00     		lsls	r3, r3, #3
 3530 006e 0B44     		add	r3, r3, r1
 3531 0070 0246     		mov	r2, r0
 3532 0072 1A70     		strb	r2, [r3]
1065:..\..\src/scsi.c **** 			scsiDev.targets[i].cfg = cfg;
 3533              		.loc 1 1065 0
ARM GAS  C:\Users\r\AppData\Local\Temp\ccbXJ1Li.s 			page 83


 3534 0074 3549     		ldr	r1, .L231
 3535 0076 7A68     		ldr	r2, [r7, #4]
 3536 0078 1346     		mov	r3, r2
 3537 007a 5B00     		lsls	r3, r3, #1
 3538 007c 1344     		add	r3, r3, r2
 3539 007e DB00     		lsls	r3, r3, #3
 3540 0080 0B44     		add	r3, r3, r1
 3541 0082 0433     		adds	r3, r3, #4
 3542 0084 3A68     		ldr	r2, [r7]
 3543 0086 1A60     		str	r2, [r3]
1066:..\..\src/scsi.c **** 
1067:..\..\src/scsi.c **** 			scsiDev.targets[i].liveCfg.bytesPerSector = cfg->bytesPerSector;
 3544              		.loc 1 1067 0
 3545 0088 3B68     		ldr	r3, [r7]
 3546 008a 9B89     		ldrh	r3, [r3, #12]	@ unaligned
 3547 008c 98B2     		uxth	r0, r3
 3548 008e 2F49     		ldr	r1, .L231
 3549 0090 7A68     		ldr	r2, [r7, #4]
 3550 0092 1346     		mov	r3, r2
 3551 0094 5B00     		lsls	r3, r3, #1
 3552 0096 1344     		add	r3, r3, r2
 3553 0098 DB00     		lsls	r3, r3, #3
 3554 009a 0B44     		add	r3, r3, r1
 3555 009c 0833     		adds	r3, r3, #8
 3556 009e 0246     		mov	r2, r0	@ movhi
 3557 00a0 1A80     		strh	r2, [r3]	@ movhi
 3558 00a2 12E0     		b	.L229
 3559              	.L228:
1068:..\..\src/scsi.c **** 		}
1069:..\..\src/scsi.c **** 		else
1070:..\..\src/scsi.c **** 		{
1071:..\..\src/scsi.c **** 			scsiDev.targets[i].targetId = 0xff;
 3560              		.loc 1 1071 0
 3561 00a4 2949     		ldr	r1, .L231
 3562 00a6 7A68     		ldr	r2, [r7, #4]
 3563 00a8 1346     		mov	r3, r2
 3564 00aa 5B00     		lsls	r3, r3, #1
 3565 00ac 1344     		add	r3, r3, r2
 3566 00ae DB00     		lsls	r3, r3, #3
 3567 00b0 0B44     		add	r3, r3, r1
 3568 00b2 FF22     		movs	r2, #255
 3569 00b4 1A70     		strb	r2, [r3]
1072:..\..\src/scsi.c **** 			scsiDev.targets[i].cfg = NULL;
 3570              		.loc 1 1072 0
 3571 00b6 2549     		ldr	r1, .L231
 3572 00b8 7A68     		ldr	r2, [r7, #4]
 3573 00ba 1346     		mov	r3, r2
 3574 00bc 5B00     		lsls	r3, r3, #1
 3575 00be 1344     		add	r3, r3, r2
 3576 00c0 DB00     		lsls	r3, r3, #3
 3577 00c2 0B44     		add	r3, r3, r1
 3578 00c4 0433     		adds	r3, r3, #4
 3579 00c6 0022     		movs	r2, #0
 3580 00c8 1A60     		str	r2, [r3]
 3581              	.L229:
1073:..\..\src/scsi.c **** 		}
1074:..\..\src/scsi.c **** 		scsiDev.targets[i].reservedId = -1;
ARM GAS  C:\Users\r\AppData\Local\Temp\ccbXJ1Li.s 			page 84


 3582              		.loc 1 1074 0 discriminator 2
 3583 00ca 2049     		ldr	r1, .L231
 3584 00cc 7A68     		ldr	r2, [r7, #4]
 3585 00ce 1346     		mov	r3, r2
 3586 00d0 5B00     		lsls	r3, r3, #1
 3587 00d2 1344     		add	r3, r3, r2
 3588 00d4 DB00     		lsls	r3, r3, #3
 3589 00d6 0B44     		add	r3, r3, r1
 3590 00d8 1033     		adds	r3, r3, #16
 3591 00da 4FF0FF32 		mov	r2, #-1
 3592 00de 1A60     		str	r2, [r3]
1075:..\..\src/scsi.c **** 		scsiDev.targets[i].reserverId = -1;
 3593              		.loc 1 1075 0 discriminator 2
 3594 00e0 1A49     		ldr	r1, .L231
 3595 00e2 7A68     		ldr	r2, [r7, #4]
 3596 00e4 1346     		mov	r3, r2
 3597 00e6 5B00     		lsls	r3, r3, #1
 3598 00e8 1344     		add	r3, r3, r2
 3599 00ea DB00     		lsls	r3, r3, #3
 3600 00ec 0B44     		add	r3, r3, r1
 3601 00ee 1433     		adds	r3, r3, #20
 3602 00f0 4FF0FF32 		mov	r2, #-1
 3603 00f4 1A60     		str	r2, [r3]
1076:..\..\src/scsi.c **** 		scsiDev.targets[i].unitAttention = POWER_ON_RESET;
 3604              		.loc 1 1076 0 discriminator 2
 3605 00f6 1549     		ldr	r1, .L231
 3606 00f8 7A68     		ldr	r2, [r7, #4]
 3607 00fa 1346     		mov	r3, r2
 3608 00fc 5B00     		lsls	r3, r3, #1
 3609 00fe 1344     		add	r3, r3, r2
 3610 0100 DB00     		lsls	r3, r3, #3
 3611 0102 0B44     		add	r3, r3, r1
 3612 0104 0E33     		adds	r3, r3, #14
 3613 0106 42F60112 		movw	r2, #10497
 3614 010a 1A80     		strh	r2, [r3]	@ movhi
1077:..\..\src/scsi.c **** 		scsiDev.targets[i].sense.code = NO_SENSE;
 3615              		.loc 1 1077 0 discriminator 2
 3616 010c 0F49     		ldr	r1, .L231
 3617 010e 7A68     		ldr	r2, [r7, #4]
 3618 0110 1346     		mov	r3, r2
 3619 0112 5B00     		lsls	r3, r3, #1
 3620 0114 1344     		add	r3, r3, r2
 3621 0116 DB00     		lsls	r3, r3, #3
 3622 0118 0B44     		add	r3, r3, r1
 3623 011a 0A33     		adds	r3, r3, #10
 3624 011c 0022     		movs	r2, #0
 3625 011e 1A70     		strb	r2, [r3]
1078:..\..\src/scsi.c **** 		scsiDev.targets[i].sense.asc = NO_ADDITIONAL_SENSE_INFORMATION;
 3626              		.loc 1 1078 0 discriminator 2
 3627 0120 0A49     		ldr	r1, .L231
 3628 0122 7A68     		ldr	r2, [r7, #4]
 3629 0124 1346     		mov	r3, r2
 3630 0126 5B00     		lsls	r3, r3, #1
 3631 0128 1344     		add	r3, r3, r2
 3632 012a DB00     		lsls	r3, r3, #3
 3633 012c 0B44     		add	r3, r3, r1
 3634 012e 0C33     		adds	r3, r3, #12
ARM GAS  C:\Users\r\AppData\Local\Temp\ccbXJ1Li.s 			page 85


 3635 0130 0022     		movs	r2, #0
 3636 0132 1A80     		strh	r2, [r3]	@ movhi
 3637              	.LBE9:
1059:..\..\src/scsi.c **** 	{
 3638              		.loc 1 1059 0 discriminator 2
 3639 0134 7B68     		ldr	r3, [r7, #4]
 3640 0136 0133     		adds	r3, r3, #1
 3641 0138 7B60     		str	r3, [r7, #4]
 3642              	.L227:
1059:..\..\src/scsi.c **** 	{
 3643              		.loc 1 1059 0 is_stmt 0 discriminator 1
 3644 013a 7B68     		ldr	r3, [r7, #4]
 3645 013c 032B     		cmp	r3, #3
 3646 013e 7FF77FAF 		ble	.L230
1079:..\..\src/scsi.c **** 	}
1080:..\..\src/scsi.c **** }
 3647              		.loc 1 1080 0 is_stmt 1
 3648 0142 00BF     		nop
 3649 0144 0837     		adds	r7, r7, #8
 3650              		.cfi_def_cfa_offset 8
 3651 0146 BD46     		mov	sp, r7
 3652              		.cfi_def_cfa_register 13
 3653              		@ sp needed
 3654 0148 80BD     		pop	{r7, pc}
 3655              	.L232:
 3656 014a 00BF     		.align	2
 3657              	.L231:
 3658 014c 00000000 		.word	scsiDev
 3659              		.cfi_endproc
 3660              	.LFE80:
 3661              		.size	scsiInit, .-scsiInit
 3662              		.section	.text.scsiDisconnect,"ax",%progbits
 3663              		.align	2
 3664              		.global	scsiDisconnect
 3665              		.thumb
 3666              		.thumb_func
 3667              		.type	scsiDisconnect, %function
 3668              	scsiDisconnect:
 3669              	.LFB81:
1081:..\..\src/scsi.c **** 
1082:..\..\src/scsi.c **** void scsiDisconnect()
1083:..\..\src/scsi.c **** {
 3670              		.loc 1 1083 0
 3671              		.cfi_startproc
 3672              		@ args = 0, pretend = 0, frame = 8
 3673              		@ frame_needed = 1, uses_anonymous_args = 0
 3674 0000 80B5     		push	{r7, lr}
 3675              		.cfi_def_cfa_offset 8
 3676              		.cfi_offset 7, -8
 3677              		.cfi_offset 14, -4
 3678 0002 82B0     		sub	sp, sp, #8
 3679              		.cfi_def_cfa_offset 16
 3680 0004 00AF     		add	r7, sp, #0
 3681              		.cfi_def_cfa_register 7
1084:..\..\src/scsi.c **** 	scsiEnterPhase(MESSAGE_IN);
 3682              		.loc 1 1084 0
 3683 0006 0720     		movs	r0, #7
ARM GAS  C:\Users\r\AppData\Local\Temp\ccbXJ1Li.s 			page 86


 3684 0008 FFF7FEFF 		bl	scsiEnterPhase
1085:..\..\src/scsi.c **** 	scsiWriteByte(0x02); // save data pointer
 3685              		.loc 1 1085 0
 3686 000c 0220     		movs	r0, #2
 3687 000e FFF7FEFF 		bl	scsiWriteByte
1086:..\..\src/scsi.c **** 	scsiWriteByte(0x04); // disconnect msg.
 3688              		.loc 1 1086 0
 3689 0012 0420     		movs	r0, #4
 3690 0014 FFF7FEFF 		bl	scsiWriteByte
1087:..\..\src/scsi.c **** 
1088:..\..\src/scsi.c **** 	// For now, the caller is responsible for tracking the disconnected
1089:..\..\src/scsi.c **** 	// state, and calling scsiReconnect.
1090:..\..\src/scsi.c **** 	// Ideally the client would exit their loop and we'd implement this
1091:..\..\src/scsi.c **** 	// as part of scsiPoll
1092:..\..\src/scsi.c **** 	int phase = scsiDev.phase;
 3691              		.loc 1 1092 0
 3692 0018 064B     		ldr	r3, .L234
 3693 001a D3F87831 		ldr	r3, [r3, #376]
 3694 001e 7B60     		str	r3, [r7, #4]
1093:..\..\src/scsi.c **** 	enter_BusFree();
 3695              		.loc 1 1093 0
 3696 0020 FFF7FEFF 		bl	enter_BusFree
1094:..\..\src/scsi.c **** 	scsiDev.phase = phase;
 3697              		.loc 1 1094 0
 3698 0024 034A     		ldr	r2, .L234
 3699 0026 7B68     		ldr	r3, [r7, #4]
 3700 0028 C2F87831 		str	r3, [r2, #376]
1095:..\..\src/scsi.c **** }
 3701              		.loc 1 1095 0
 3702 002c 00BF     		nop
 3703 002e 0837     		adds	r7, r7, #8
 3704              		.cfi_def_cfa_offset 8
 3705 0030 BD46     		mov	sp, r7
 3706              		.cfi_def_cfa_register 13
 3707              		@ sp needed
 3708 0032 80BD     		pop	{r7, pc}
 3709              	.L235:
 3710              		.align	2
 3711              	.L234:
 3712 0034 00000000 		.word	scsiDev
 3713              		.cfi_endproc
 3714              	.LFE81:
 3715              		.size	scsiDisconnect, .-scsiDisconnect
 3716              		.section	.text.scsiReconnect,"ax",%progbits
 3717              		.align	2
 3718              		.global	scsiReconnect
 3719              		.thumb
 3720              		.thumb_func
 3721              		.type	scsiReconnect, %function
 3722              	scsiReconnect:
 3723              	.LFB82:
1096:..\..\src/scsi.c **** 
1097:..\..\src/scsi.c **** int scsiReconnect()
1098:..\..\src/scsi.c **** {
 3724              		.loc 1 1098 0
 3725              		.cfi_startproc
 3726              		@ args = 0, pretend = 0, frame = 24
ARM GAS  C:\Users\r\AppData\Local\Temp\ccbXJ1Li.s 			page 87


 3727              		@ frame_needed = 1, uses_anonymous_args = 0
 3728 0000 80B5     		push	{r7, lr}
 3729              		.cfi_def_cfa_offset 8
 3730              		.cfi_offset 7, -8
 3731              		.cfi_offset 14, -4
 3732 0002 86B0     		sub	sp, sp, #24
 3733              		.cfi_def_cfa_offset 32
 3734 0004 00AF     		add	r7, sp, #0
 3735              		.cfi_def_cfa_register 7
1099:..\..\src/scsi.c **** 	int reconnected = 0;
 3736              		.loc 1 1099 0
 3737 0006 0023     		movs	r3, #0
 3738 0008 7B61     		str	r3, [r7, #20]
1100:..\..\src/scsi.c **** 
1101:..\..\src/scsi.c **** 	int sel = SCSI_ReadFilt(SCSI_Filt_SEL);
 3739              		.loc 1 1101 0
 3740 000a FFF7FEFF 		bl	SCSI_Filtered_Read
 3741 000e 0346     		mov	r3, r0
 3742 0010 03F00403 		and	r3, r3, #4
 3743 0014 002B     		cmp	r3, #0
 3744 0016 0CBF     		ite	eq
 3745 0018 0123     		moveq	r3, #1
 3746 001a 0023     		movne	r3, #0
 3747 001c DBB2     		uxtb	r3, r3
 3748 001e 3B61     		str	r3, [r7, #16]
1102:..\..\src/scsi.c **** 	int bsy = SCSI_ReadFilt(SCSI_Filt_BSY);
 3749              		.loc 1 1102 0
 3750 0020 FFF7FEFF 		bl	SCSI_Filtered_Read
 3751 0024 0346     		mov	r3, r0
 3752 0026 03F00203 		and	r3, r3, #2
 3753 002a 002B     		cmp	r3, #0
 3754 002c 0CBF     		ite	eq
 3755 002e 0123     		moveq	r3, #1
 3756 0030 0023     		movne	r3, #0
 3757 0032 DBB2     		uxtb	r3, r3
 3758 0034 FB60     		str	r3, [r7, #12]
1103:..\..\src/scsi.c **** 	if (!sel && !bsy)
 3759              		.loc 1 1103 0
 3760 0036 3B69     		ldr	r3, [r7, #16]
 3761 0038 002B     		cmp	r3, #0
 3762 003a 1BD1     		bne	.L237
 3763              		.loc 1 1103 0 is_stmt 0 discriminator 1
 3764 003c FB68     		ldr	r3, [r7, #12]
 3765 003e 002B     		cmp	r3, #0
 3766 0040 18D1     		bne	.L237
1104:..\..\src/scsi.c **** 	{
1105:..\..\src/scsi.c **** 		CyDelayUs(1);
 3767              		.loc 1 1105 0 is_stmt 1
 3768 0042 0120     		movs	r0, #1
 3769 0044 FFF7FEFF 		bl	CyDelayUs
1106:..\..\src/scsi.c **** 		sel = SCSI_ReadFilt(SCSI_Filt_SEL);
 3770              		.loc 1 1106 0
 3771 0048 FFF7FEFF 		bl	SCSI_Filtered_Read
 3772 004c 0346     		mov	r3, r0
 3773 004e 03F00403 		and	r3, r3, #4
 3774 0052 002B     		cmp	r3, #0
 3775 0054 0CBF     		ite	eq
ARM GAS  C:\Users\r\AppData\Local\Temp\ccbXJ1Li.s 			page 88


 3776 0056 0123     		moveq	r3, #1
 3777 0058 0023     		movne	r3, #0
 3778 005a DBB2     		uxtb	r3, r3
 3779 005c 3B61     		str	r3, [r7, #16]
1107:..\..\src/scsi.c **** 		bsy = SCSI_ReadFilt(SCSI_Filt_BSY);
 3780              		.loc 1 1107 0
 3781 005e FFF7FEFF 		bl	SCSI_Filtered_Read
 3782 0062 0346     		mov	r3, r0
 3783 0064 03F00203 		and	r3, r3, #2
 3784 0068 002B     		cmp	r3, #0
 3785 006a 0CBF     		ite	eq
 3786 006c 0123     		moveq	r3, #1
 3787 006e 0023     		movne	r3, #0
 3788 0070 DBB2     		uxtb	r3, r3
 3789 0072 FB60     		str	r3, [r7, #12]
 3790              	.L237:
1108:..\..\src/scsi.c **** 	}
1109:..\..\src/scsi.c **** 
1110:..\..\src/scsi.c **** 	if (!sel && !bsy)
 3791              		.loc 1 1110 0
 3792 0074 3B69     		ldr	r3, [r7, #16]
 3793 0076 002B     		cmp	r3, #0
 3794 0078 40F0D980 		bne	.L238
 3795              		.loc 1 1110 0 is_stmt 0 discriminator 1
 3796 007c FB68     		ldr	r3, [r7, #12]
 3797 007e 002B     		cmp	r3, #0
 3798 0080 40F0D580 		bne	.L238
 3799              	.LBB10:
1111:..\..\src/scsi.c **** 	{
1112:..\..\src/scsi.c **** 		// Arbitrate.
1113:..\..\src/scsi.c **** 		ledOn();
 3800              		.loc 1 1113 0 is_stmt 1
 3801 0084 FFF7FEFF 		bl	ledOn
1114:..\..\src/scsi.c **** 		uint8_t scsiIdMask = 1 << scsiDev.target->targetId;
 3802              		.loc 1 1114 0
 3803 0088 6B4B     		ldr	r3, .L246
 3804 008a 1B6E     		ldr	r3, [r3, #96]
 3805 008c 1B78     		ldrb	r3, [r3]	@ zero_extendqisi2
 3806 008e 1A46     		mov	r2, r3
 3807 0090 0123     		movs	r3, #1
 3808 0092 9340     		lsls	r3, r3, r2
 3809 0094 FB72     		strb	r3, [r7, #11]
1115:..\..\src/scsi.c **** 		SCSI_Out_Bits_Write(scsiIdMask);
 3810              		.loc 1 1115 0
 3811 0096 FB7A     		ldrb	r3, [r7, #11]	@ zero_extendqisi2
 3812 0098 1846     		mov	r0, r3
 3813 009a FFF7FEFF 		bl	SCSI_Out_Bits_Write
1116:..\..\src/scsi.c **** 		SCSI_Out_Ctl_Write(1); // Write bits manually.
 3814              		.loc 1 1116 0
 3815 009e 0120     		movs	r0, #1
 3816 00a0 FFF7FEFF 		bl	SCSI_Out_Ctl_Write
1117:..\..\src/scsi.c **** 		SCSI_SetPin(SCSI_Out_BSY);
 3817              		.loc 1 1117 0
 3818 00a4 654A     		ldr	r2, .L246+4
 3819 00a6 654B     		ldr	r3, .L246+4
 3820 00a8 1B78     		ldrb	r3, [r3]
 3821 00aa DBB2     		uxtb	r3, r3
ARM GAS  C:\Users\r\AppData\Local\Temp\ccbXJ1Li.s 			page 89


 3822 00ac 43F00103 		orr	r3, r3, #1
 3823 00b0 DBB2     		uxtb	r3, r3
 3824 00b2 1370     		strb	r3, [r2]
1118:..\..\src/scsi.c **** 
1119:..\..\src/scsi.c **** 		CyDelayUs(3); // arbitrate delay. 2.4us.
 3825              		.loc 1 1119 0
 3826 00b4 0320     		movs	r0, #3
 3827 00b6 FFF7FEFF 		bl	CyDelayUs
1120:..\..\src/scsi.c **** 
1121:..\..\src/scsi.c **** 		uint8_t dbx = scsiReadDBxPins();
 3828              		.loc 1 1121 0
 3829 00ba FFF7FEFF 		bl	scsiReadDBxPins
 3830 00be 0346     		mov	r3, r0
 3831 00c0 BB72     		strb	r3, [r7, #10]
1122:..\..\src/scsi.c **** 		sel = SCSI_ReadFilt(SCSI_Filt_SEL);
 3832              		.loc 1 1122 0
 3833 00c2 FFF7FEFF 		bl	SCSI_Filtered_Read
 3834 00c6 0346     		mov	r3, r0
 3835 00c8 03F00403 		and	r3, r3, #4
 3836 00cc 002B     		cmp	r3, #0
 3837 00ce 0CBF     		ite	eq
 3838 00d0 0123     		moveq	r3, #1
 3839 00d2 0023     		movne	r3, #0
 3840 00d4 DBB2     		uxtb	r3, r3
 3841 00d6 3B61     		str	r3, [r7, #16]
1123:..\..\src/scsi.c **** 		if (sel || ((dbx ^ scsiIdMask) > scsiIdMask))
 3842              		.loc 1 1123 0
 3843 00d8 3B69     		ldr	r3, [r7, #16]
 3844 00da 002B     		cmp	r3, #0
 3845 00dc 06D1     		bne	.L239
 3846              		.loc 1 1123 0 is_stmt 0 discriminator 1
 3847 00de BA7A     		ldrb	r2, [r7, #10]
 3848 00e0 FB7A     		ldrb	r3, [r7, #11]
 3849 00e2 5340     		eors	r3, r3, r2
 3850 00e4 DBB2     		uxtb	r3, r3
 3851 00e6 FA7A     		ldrb	r2, [r7, #11]	@ zero_extendqisi2
 3852 00e8 9A42     		cmp	r2, r3
 3853 00ea 0DD2     		bcs	.L240
 3854              	.L239:
1124:..\..\src/scsi.c **** 		{
1125:..\..\src/scsi.c **** 			// Lost arbitration.
1126:..\..\src/scsi.c **** 			SCSI_Out_Ctl_Write(0);
 3855              		.loc 1 1126 0 is_stmt 1
 3856 00ec 0020     		movs	r0, #0
 3857 00ee FFF7FEFF 		bl	SCSI_Out_Ctl_Write
1127:..\..\src/scsi.c **** 			SCSI_ClearPin(SCSI_Out_BSY);
 3858              		.loc 1 1127 0
 3859 00f2 524A     		ldr	r2, .L246+4
 3860 00f4 514B     		ldr	r3, .L246+4
 3861 00f6 1B78     		ldrb	r3, [r3]
 3862 00f8 DBB2     		uxtb	r3, r3
 3863 00fa 23F00103 		bic	r3, r3, #1
 3864 00fe DBB2     		uxtb	r3, r3
 3865 0100 1370     		strb	r3, [r2]
1128:..\..\src/scsi.c **** 			ledOff();
 3866              		.loc 1 1128 0
 3867 0102 FFF7FEFF 		bl	ledOff
ARM GAS  C:\Users\r\AppData\Local\Temp\ccbXJ1Li.s 			page 90


 3868 0106 92E0     		b	.L238
 3869              	.L240:
 3870              	.LBB11:
1129:..\..\src/scsi.c **** 		}
1130:..\..\src/scsi.c **** 		else
1131:..\..\src/scsi.c **** 		{
1132:..\..\src/scsi.c **** 			// Won arbitration
1133:..\..\src/scsi.c **** 			SCSI_SetPin(SCSI_Out_SEL);
 3871              		.loc 1 1133 0
 3872 0108 4D4A     		ldr	r2, .L246+8
 3873 010a 4D4B     		ldr	r3, .L246+8
 3874 010c 1B78     		ldrb	r3, [r3]
 3875 010e DBB2     		uxtb	r3, r3
 3876 0110 43F00103 		orr	r3, r3, #1
 3877 0114 DBB2     		uxtb	r3, r3
 3878 0116 1370     		strb	r3, [r2]
1134:..\..\src/scsi.c **** 			CyDelayUs(1); // Bus clear + Bus settle.
 3879              		.loc 1 1134 0
 3880 0118 0120     		movs	r0, #1
 3881 011a FFF7FEFF 		bl	CyDelayUs
1135:..\..\src/scsi.c **** 
1136:..\..\src/scsi.c **** 			// Reselection phase
1137:..\..\src/scsi.c **** 			SCSI_CTL_PHASE_Write(__scsiphase_io);
 3882              		.loc 1 1137 0
 3883 011e 0420     		movs	r0, #4
 3884 0120 FFF7FEFF 		bl	SCSI_CTL_PHASE_Write
1138:..\..\src/scsi.c **** 			SCSI_Out_Bits_Write(scsiIdMask | (1 << scsiDev.initiatorId));
 3885              		.loc 1 1138 0
 3886 0124 444B     		ldr	r3, .L246
 3887 0126 03F58343 		add	r3, r3, #16768
 3888 012a 1833     		adds	r3, r3, #24
 3889 012c 1B68     		ldr	r3, [r3]
 3890 012e 0122     		movs	r2, #1
 3891 0130 02FA03F3 		lsl	r3, r2, r3
 3892 0134 5AB2     		sxtb	r2, r3
 3893 0136 97F90B30 		ldrsb	r3, [r7, #11]
 3894 013a 1343     		orrs	r3, r3, r2
 3895 013c 5BB2     		sxtb	r3, r3
 3896 013e DBB2     		uxtb	r3, r3
 3897 0140 1846     		mov	r0, r3
 3898 0142 FFF7FEFF 		bl	SCSI_Out_Bits_Write
1139:..\..\src/scsi.c **** 			scsiDeskewDelay(); // 2 deskew delays
 3899              		.loc 1 1139 0
 3900 0146 0320     		movs	r0, #3
 3901 0148 FFF7FEFF 		bl	CyDelayCycles
1140:..\..\src/scsi.c **** 			scsiDeskewDelay(); // 2 deskew delays
 3902              		.loc 1 1140 0
 3903 014c 0320     		movs	r0, #3
 3904 014e FFF7FEFF 		bl	CyDelayCycles
1141:..\..\src/scsi.c **** 			SCSI_ClearPin(SCSI_Out_BSY);
 3905              		.loc 1 1141 0
 3906 0152 3A4A     		ldr	r2, .L246+4
 3907 0154 394B     		ldr	r3, .L246+4
 3908 0156 1B78     		ldrb	r3, [r3]
 3909 0158 DBB2     		uxtb	r3, r3
 3910 015a 23F00103 		bic	r3, r3, #1
 3911 015e DBB2     		uxtb	r3, r3
ARM GAS  C:\Users\r\AppData\Local\Temp\ccbXJ1Li.s 			page 91


 3912 0160 1370     		strb	r3, [r2]
1142:..\..\src/scsi.c **** 			CyDelayUs(1);  // Bus Settle Delay
 3913              		.loc 1 1142 0
 3914 0162 0120     		movs	r0, #1
 3915 0164 FFF7FEFF 		bl	CyDelayUs
1143:..\..\src/scsi.c **** 
1144:..\..\src/scsi.c **** 			uint32_t waitStart_ms = getTime_ms();
 3916              		.loc 1 1144 0
 3917 0168 FFF7FEFF 		bl	getTime_ms
 3918 016c 7860     		str	r0, [r7, #4]
1145:..\..\src/scsi.c **** 			bsy = SCSI_ReadFilt(SCSI_Filt_BSY);
 3919              		.loc 1 1145 0
 3920 016e FFF7FEFF 		bl	SCSI_Filtered_Read
 3921 0172 0346     		mov	r3, r0
 3922 0174 03F00203 		and	r3, r3, #2
 3923 0178 002B     		cmp	r3, #0
 3924 017a 0CBF     		ite	eq
 3925 017c 0123     		moveq	r3, #1
 3926 017e 0023     		movne	r3, #0
 3927 0180 DBB2     		uxtb	r3, r3
 3928 0182 FB60     		str	r3, [r7, #12]
1146:..\..\src/scsi.c **** 			// Wait for initiator.
1147:..\..\src/scsi.c **** 			while (
 3929              		.loc 1 1147 0
 3930 0184 0AE0     		b	.L241
 3931              	.L243:
1148:..\..\src/scsi.c **** 				!bsy &&
1149:..\..\src/scsi.c **** 				!scsiDev.resetFlag &&
1150:..\..\src/scsi.c **** 				(elapsedTime_ms(waitStart_ms) < 250))
1151:..\..\src/scsi.c **** 			{
1152:..\..\src/scsi.c **** 				bsy = SCSI_ReadFilt(SCSI_Filt_BSY);
 3932              		.loc 1 1152 0
 3933 0186 FFF7FEFF 		bl	SCSI_Filtered_Read
 3934 018a 0346     		mov	r3, r0
 3935 018c 03F00203 		and	r3, r3, #2
 3936 0190 002B     		cmp	r3, #0
 3937 0192 0CBF     		ite	eq
 3938 0194 0123     		moveq	r3, #1
 3939 0196 0023     		movne	r3, #0
 3940 0198 DBB2     		uxtb	r3, r3
 3941 019a FB60     		str	r3, [r7, #12]
 3942              	.L241:
1147:..\..\src/scsi.c **** 				!bsy &&
 3943              		.loc 1 1147 0
 3944 019c FB68     		ldr	r3, [r7, #12]
 3945 019e 002B     		cmp	r3, #0
 3946 01a0 0AD1     		bne	.L242
1149:..\..\src/scsi.c **** 				(elapsedTime_ms(waitStart_ms) < 250))
 3947              		.loc 1 1149 0
 3948 01a2 254B     		ldr	r3, .L246
 3949 01a4 D3F86831 		ldr	r3, [r3, #360]
1148:..\..\src/scsi.c **** 				!bsy &&
 3950              		.loc 1 1148 0
 3951 01a8 002B     		cmp	r3, #0
 3952 01aa 05D1     		bne	.L242
1150:..\..\src/scsi.c **** 			{
 3953              		.loc 1 1150 0
ARM GAS  C:\Users\r\AppData\Local\Temp\ccbXJ1Li.s 			page 92


 3954 01ac 7868     		ldr	r0, [r7, #4]
 3955 01ae FFF7FEFF 		bl	elapsedTime_ms
 3956 01b2 0346     		mov	r3, r0
1149:..\..\src/scsi.c **** 				(elapsedTime_ms(waitStart_ms) < 250))
 3957              		.loc 1 1149 0
 3958 01b4 F92B     		cmp	r3, #249
 3959 01b6 E6D9     		bls	.L243
 3960              	.L242:
1153:..\..\src/scsi.c **** 			}
1154:..\..\src/scsi.c **** 
1155:..\..\src/scsi.c **** 			if (bsy)
 3961              		.loc 1 1155 0
 3962 01b8 FB68     		ldr	r3, [r7, #12]
 3963 01ba 002B     		cmp	r3, #0
 3964 01bc 27D0     		beq	.L244
1156:..\..\src/scsi.c **** 			{
1157:..\..\src/scsi.c **** 				SCSI_SetPin(SCSI_Out_BSY);
 3965              		.loc 1 1157 0
 3966 01be 1F4A     		ldr	r2, .L246+4
 3967 01c0 1E4B     		ldr	r3, .L246+4
 3968 01c2 1B78     		ldrb	r3, [r3]
 3969 01c4 DBB2     		uxtb	r3, r3
 3970 01c6 43F00103 		orr	r3, r3, #1
 3971 01ca DBB2     		uxtb	r3, r3
 3972 01cc 1370     		strb	r3, [r2]
1158:..\..\src/scsi.c **** 				scsiDeskewDelay(); // 2 deskew delays
 3973              		.loc 1 1158 0
 3974 01ce 0320     		movs	r0, #3
 3975 01d0 FFF7FEFF 		bl	CyDelayCycles
1159:..\..\src/scsi.c **** 				scsiDeskewDelay(); // 2 deskew delays
 3976              		.loc 1 1159 0
 3977 01d4 0320     		movs	r0, #3
 3978 01d6 FFF7FEFF 		bl	CyDelayCycles
1160:..\..\src/scsi.c **** 				SCSI_ClearPin(SCSI_Out_SEL);
 3979              		.loc 1 1160 0
 3980 01da 194A     		ldr	r2, .L246+8
 3981 01dc 184B     		ldr	r3, .L246+8
 3982 01de 1B78     		ldrb	r3, [r3]
 3983 01e0 DBB2     		uxtb	r3, r3
 3984 01e2 23F00103 		bic	r3, r3, #1
 3985 01e6 DBB2     		uxtb	r3, r3
 3986 01e8 1370     		strb	r3, [r2]
1161:..\..\src/scsi.c **** 
1162:..\..\src/scsi.c **** 				// Prepare for the initial IDENTIFY message.
1163:..\..\src/scsi.c **** 				SCSI_Out_Ctl_Write(0);
 3987              		.loc 1 1163 0
 3988 01ea 0020     		movs	r0, #0
 3989 01ec FFF7FEFF 		bl	SCSI_Out_Ctl_Write
1164:..\..\src/scsi.c **** 				scsiEnterPhase(MESSAGE_IN);
 3990              		.loc 1 1164 0
 3991 01f0 0720     		movs	r0, #7
 3992 01f2 FFF7FEFF 		bl	scsiEnterPhase
1165:..\..\src/scsi.c **** 
1166:..\..\src/scsi.c **** 				// Send identify command
1167:..\..\src/scsi.c **** 				scsiWriteByte(0x80);
 3993              		.loc 1 1167 0
 3994 01f6 8020     		movs	r0, #128
ARM GAS  C:\Users\r\AppData\Local\Temp\ccbXJ1Li.s 			page 93


 3995 01f8 FFF7FEFF 		bl	scsiWriteByte
1168:..\..\src/scsi.c **** 
1169:..\..\src/scsi.c **** 				scsiEnterPhase(scsiDev.phase);
 3996              		.loc 1 1169 0
 3997 01fc 0E4B     		ldr	r3, .L246
 3998 01fe D3F87831 		ldr	r3, [r3, #376]
 3999 0202 1846     		mov	r0, r3
 4000 0204 FFF7FEFF 		bl	scsiEnterPhase
1170:..\..\src/scsi.c **** 				reconnected = 1;
 4001              		.loc 1 1170 0
 4002 0208 0123     		movs	r3, #1
 4003 020a 7B61     		str	r3, [r7, #20]
 4004 020c 0FE0     		b	.L238
 4005              	.L244:
1171:..\..\src/scsi.c **** 			}
1172:..\..\src/scsi.c **** 			else
1173:..\..\src/scsi.c **** 			{
1174:..\..\src/scsi.c **** 				// reselect timeout.
1175:..\..\src/scsi.c **** 				SCSI_Out_Ctl_Write(0);
 4006              		.loc 1 1175 0
 4007 020e 0020     		movs	r0, #0
 4008 0210 FFF7FEFF 		bl	SCSI_Out_Ctl_Write
1176:..\..\src/scsi.c **** 				SCSI_ClearPin(SCSI_Out_SEL);
 4009              		.loc 1 1176 0
 4010 0214 0A4A     		ldr	r2, .L246+8
 4011 0216 0A4B     		ldr	r3, .L246+8
 4012 0218 1B78     		ldrb	r3, [r3]
 4013 021a DBB2     		uxtb	r3, r3
 4014 021c 23F00103 		bic	r3, r3, #1
 4015 0220 DBB2     		uxtb	r3, r3
 4016 0222 1370     		strb	r3, [r2]
1177:..\..\src/scsi.c **** 				SCSI_CTL_PHASE_Write(0);
 4017              		.loc 1 1177 0
 4018 0224 0020     		movs	r0, #0
 4019 0226 FFF7FEFF 		bl	SCSI_CTL_PHASE_Write
1178:..\..\src/scsi.c **** 				ledOff();
 4020              		.loc 1 1178 0
 4021 022a FFF7FEFF 		bl	ledOff
 4022              	.L238:
 4023              	.LBE11:
 4024              	.LBE10:
1179:..\..\src/scsi.c **** 			}
1180:..\..\src/scsi.c **** 		}
1181:..\..\src/scsi.c **** 	}
1182:..\..\src/scsi.c **** 	return reconnected;
 4025              		.loc 1 1182 0
 4026 022e 7B69     		ldr	r3, [r7, #20]
1183:..\..\src/scsi.c **** }
 4027              		.loc 1 1183 0
 4028 0230 1846     		mov	r0, r3
 4029 0232 1837     		adds	r7, r7, #24
 4030              		.cfi_def_cfa_offset 8
 4031 0234 BD46     		mov	sp, r7
 4032              		.cfi_def_cfa_register 13
 4033              		@ sp needed
 4034 0236 80BD     		pop	{r7, pc}
 4035              	.L247:
ARM GAS  C:\Users\r\AppData\Local\Temp\ccbXJ1Li.s 			page 94


 4036              		.align	2
 4037              	.L246:
 4038 0238 00000000 		.word	scsiDev
 4039 023c 31500040 		.word	1073762353
 4040 0240 07500040 		.word	1073762311
 4041              		.cfi_endproc
 4042              	.LFE82:
 4043              		.size	scsiReconnect, .-scsiReconnect
 4044              		.section	.rodata
 4045              		.align	2
 4046              		.type	WDTR.7238, %object
 4047              		.size	WDTR.7238, 4
 4048              	WDTR.7238:
 4049 0008 01       		.byte	1
 4050 0009 02       		.byte	2
 4051 000a 03       		.byte	3
 4052 000b 00       		.byte	0
 4053              		.align	2
 4054              		.type	SDTR.7239, %object
 4055              		.size	SDTR.7239, 5
 4056              	SDTR.7239:
 4057 000c 01       		.byte	1
 4058 000d 03       		.byte	3
 4059 000e 01       		.byte	1
 4060 000f 00       		.byte	0
 4061 0010 00       		.byte	0
 4062              		.text
 4063              	.Letext0:
 4064              		.file 2 "c:\\program files (x86)\\cypress\\psoc creator\\4.2\\psoc creator\\import\\gnu\\arm\\5.4.
 4065              		.file 3 "c:\\program files (x86)\\cypress\\psoc creator\\4.2\\psoc creator\\import\\gnu\\arm\\5.4.
 4066              		.file 4 "Generated_Source\\PSoC5/cytypes.h"
 4067              		.file 5 "../../../include/scsi2sd.h"
 4068              		.file 6 "..\\..\\src\\sense.h"
 4069              		.file 7 "..\\..\\src\\scsi.h"
 4070              		.file 8 "..\\..\\src\\disk.h"
 4071              		.file 9 "Generated_Source\\PSoC5/core_cm3.h"
 4072              		.file 10 "..\\..\\src\\bits.h"
 4073              		.file 11 "..\\..\\src\\scsiPhy.h"
 4074              		.section	.debug_info,"",%progbits
 4075              	.Ldebug_info0:
 4076 0000 D4100000 		.4byte	0x10d4
 4077 0004 0400     		.2byte	0x4
 4078 0006 00000000 		.4byte	.Ldebug_abbrev0
 4079 000a 04       		.byte	0x4
 4080 000b 01       		.uleb128 0x1
 4081 000c 4C0B0000 		.4byte	.LASF335
 4082 0010 0C       		.byte	0xc
 4083 0011 BB160000 		.4byte	.LASF336
 4084 0015 02120000 		.4byte	.LASF337
 4085 0019 00000000 		.4byte	.Ldebug_ranges0+0
 4086 001d 00000000 		.4byte	0
 4087 0021 00000000 		.4byte	.Ldebug_line0
 4088 0025 02       		.uleb128 0x2
 4089 0026 01       		.byte	0x1
 4090 0027 06       		.byte	0x6
 4091 0028 09050000 		.4byte	.LASF0
 4092 002c 03       		.uleb128 0x3
ARM GAS  C:\Users\r\AppData\Local\Temp\ccbXJ1Li.s 			page 95


 4093 002d 5B030000 		.4byte	.LASF3
 4094 0031 02       		.byte	0x2
 4095 0032 1D       		.byte	0x1d
 4096 0033 37000000 		.4byte	0x37
 4097 0037 02       		.uleb128 0x2
 4098 0038 01       		.byte	0x1
 4099 0039 08       		.byte	0x8
 4100 003a C2050000 		.4byte	.LASF1
 4101 003e 02       		.uleb128 0x2
 4102 003f 02       		.byte	0x2
 4103 0040 05       		.byte	0x5
 4104 0041 3F150000 		.4byte	.LASF2
 4105 0045 03       		.uleb128 0x3
 4106 0046 22070000 		.4byte	.LASF4
 4107 004a 02       		.byte	0x2
 4108 004b 2B       		.byte	0x2b
 4109 004c 50000000 		.4byte	0x50
 4110 0050 02       		.uleb128 0x2
 4111 0051 02       		.byte	0x2
 4112 0052 07       		.byte	0x7
 4113 0053 F0170000 		.4byte	.LASF5
 4114 0057 03       		.uleb128 0x3
 4115 0058 A7180000 		.4byte	.LASF6
 4116 005c 02       		.byte	0x2
 4117 005d 3F       		.byte	0x3f
 4118 005e 62000000 		.4byte	0x62
 4119 0062 02       		.uleb128 0x2
 4120 0063 04       		.byte	0x4
 4121 0064 05       		.byte	0x5
 4122 0065 CC030000 		.4byte	.LASF7
 4123 0069 03       		.uleb128 0x3
 4124 006a 340C0000 		.4byte	.LASF8
 4125 006e 02       		.byte	0x2
 4126 006f 41       		.byte	0x41
 4127 0070 74000000 		.4byte	0x74
 4128 0074 02       		.uleb128 0x2
 4129 0075 04       		.byte	0x4
 4130 0076 07       		.byte	0x7
 4131 0077 90090000 		.4byte	.LASF9
 4132 007b 02       		.uleb128 0x2
 4133 007c 08       		.byte	0x8
 4134 007d 05       		.byte	0x5
 4135 007e 740C0000 		.4byte	.LASF10
 4136 0082 02       		.uleb128 0x2
 4137 0083 08       		.byte	0x8
 4138 0084 07       		.byte	0x7
 4139 0085 50120000 		.4byte	.LASF11
 4140 0089 04       		.uleb128 0x4
 4141 008a 04       		.byte	0x4
 4142 008b 05       		.byte	0x5
 4143 008c 696E7400 		.ascii	"int\000"
 4144 0090 02       		.uleb128 0x2
 4145 0091 04       		.byte	0x4
 4146 0092 07       		.byte	0x7
 4147 0093 780E0000 		.4byte	.LASF12
 4148 0097 03       		.uleb128 0x3
 4149 0098 15050000 		.4byte	.LASF13
ARM GAS  C:\Users\r\AppData\Local\Temp\ccbXJ1Li.s 			page 96


 4150 009c 03       		.byte	0x3
 4151 009d 18       		.byte	0x18
 4152 009e 2C000000 		.4byte	0x2c
 4153 00a2 03       		.uleb128 0x3
 4154 00a3 9E120000 		.4byte	.LASF14
 4155 00a7 03       		.byte	0x3
 4156 00a8 24       		.byte	0x24
 4157 00a9 45000000 		.4byte	0x45
 4158 00ad 03       		.uleb128 0x3
 4159 00ae D3000000 		.4byte	.LASF15
 4160 00b2 03       		.byte	0x3
 4161 00b3 2C       		.byte	0x2c
 4162 00b4 57000000 		.4byte	0x57
 4163 00b8 03       		.uleb128 0x3
 4164 00b9 79170000 		.4byte	.LASF16
 4165 00bd 03       		.byte	0x3
 4166 00be 30       		.byte	0x30
 4167 00bf 69000000 		.4byte	0x69
 4168 00c3 05       		.uleb128 0x5
 4169 00c4 13150000 		.4byte	.LASF17
 4170 00c8 04       		.byte	0x4
 4171 00c9 E401     		.2byte	0x1e4
 4172 00cb 37000000 		.4byte	0x37
 4173 00cf 05       		.uleb128 0x5
 4174 00d0 8A190000 		.4byte	.LASF18
 4175 00d4 04       		.byte	0x4
 4176 00d5 E501     		.2byte	0x1e5
 4177 00d7 50000000 		.4byte	0x50
 4178 00db 05       		.uleb128 0x5
 4179 00dc 47010000 		.4byte	.LASF19
 4180 00e0 04       		.byte	0x4
 4181 00e1 E601     		.2byte	0x1e6
 4182 00e3 74000000 		.4byte	0x74
 4183 00e7 05       		.uleb128 0x5
 4184 00e8 AA020000 		.4byte	.LASF20
 4185 00ec 04       		.byte	0x4
 4186 00ed E701     		.2byte	0x1e7
 4187 00ef 25000000 		.4byte	0x25
 4188 00f3 02       		.uleb128 0x2
 4189 00f4 04       		.byte	0x4
 4190 00f5 04       		.byte	0x4
 4191 00f6 570E0000 		.4byte	.LASF21
 4192 00fa 02       		.uleb128 0x2
 4193 00fb 08       		.byte	0x8
 4194 00fc 04       		.byte	0x4
 4195 00fd 300D0000 		.4byte	.LASF22
 4196 0101 02       		.uleb128 0x2
 4197 0102 01       		.byte	0x1
 4198 0103 08       		.byte	0x8
 4199 0104 67060000 		.4byte	.LASF23
 4200 0108 05       		.uleb128 0x5
 4201 0109 99130000 		.4byte	.LASF24
 4202 010d 04       		.byte	0x4
 4203 010e 8E02     		.2byte	0x28e
 4204 0110 14010000 		.4byte	0x114
 4205 0114 06       		.uleb128 0x6
 4206 0115 C3000000 		.4byte	0xc3
ARM GAS  C:\Users\r\AppData\Local\Temp\ccbXJ1Li.s 			page 97


 4207 0119 07       		.uleb128 0x7
 4208 011a 04       		.byte	0x4
 4209 011b 1F010000 		.4byte	0x11f
 4210 011f 08       		.uleb128 0x8
 4211 0120 02       		.uleb128 0x2
 4212 0121 08       		.byte	0x8
 4213 0122 04       		.byte	0x4
 4214 0123 E4100000 		.4byte	.LASF25
 4215 0127 02       		.uleb128 0x2
 4216 0128 04       		.byte	0x4
 4217 0129 07       		.byte	0x7
 4218 012a 29000000 		.4byte	.LASF26
 4219 012e 09       		.uleb128 0x9
 4220 012f 01010000 		.4byte	0x101
 4221 0133 3E010000 		.4byte	0x13e
 4222 0137 0A       		.uleb128 0xa
 4223 0138 27010000 		.4byte	0x127
 4224 013c 07       		.byte	0x7
 4225 013d 00       		.byte	0
 4226 013e 0B       		.uleb128 0xb
 4227 013f 01       		.byte	0x1
 4228 0140 37000000 		.4byte	0x37
 4229 0144 05       		.byte	0x5
 4230 0145 60       		.byte	0x60
 4231 0146 57010000 		.4byte	0x157
 4232 014a 0C       		.uleb128 0xc
 4233 014b 630D0000 		.4byte	.LASF27
 4234 014f 07       		.byte	0x7
 4235 0150 0C       		.uleb128 0xc
 4236 0151 1D050000 		.4byte	.LASF28
 4237 0155 80       		.byte	0x80
 4238 0156 00       		.byte	0
 4239 0157 0B       		.uleb128 0xb
 4240 0158 01       		.byte	0x1
 4241 0159 37000000 		.4byte	0x37
 4242 015d 05       		.byte	0x5
 4243 015e 66       		.byte	0x66
 4244 015f 94010000 		.4byte	0x194
 4245 0163 0C       		.uleb128 0xc
 4246 0164 05080000 		.4byte	.LASF29
 4247 0168 01       		.byte	0x1
 4248 0169 0C       		.uleb128 0xc
 4249 016a AA170000 		.4byte	.LASF30
 4250 016e 02       		.byte	0x2
 4251 016f 0C       		.uleb128 0xc
 4252 0170 30020000 		.4byte	.LASF31
 4253 0174 04       		.byte	0x4
 4254 0175 0C       		.uleb128 0xc
 4255 0176 9B110000 		.4byte	.LASF32
 4256 017a 08       		.byte	0x8
 4257 017b 0C       		.uleb128 0xc
 4258 017c 83070000 		.4byte	.LASF33
 4259 0180 10       		.byte	0x10
 4260 0181 0C       		.uleb128 0xc
 4261 0182 2D070000 		.4byte	.LASF34
 4262 0186 20       		.byte	0x20
 4263 0187 0C       		.uleb128 0xc
ARM GAS  C:\Users\r\AppData\Local\Temp\ccbXJ1Li.s 			page 98


 4264 0188 3F0E0000 		.4byte	.LASF35
 4265 018c 40       		.byte	0x40
 4266 018d 0C       		.uleb128 0xc
 4267 018e BD010000 		.4byte	.LASF36
 4268 0192 80       		.byte	0x80
 4269 0193 00       		.byte	0
 4270 0194 0B       		.uleb128 0xb
 4271 0195 01       		.byte	0x1
 4272 0196 37000000 		.4byte	0x37
 4273 019a 05       		.byte	0x5
 4274 019b 77       		.byte	0x77
 4275 019c C5010000 		.4byte	0x1c5
 4276 01a0 0C       		.uleb128 0xc
 4277 01a1 79010000 		.4byte	.LASF37
 4278 01a5 00       		.byte	0
 4279 01a6 0C       		.uleb128 0xc
 4280 01a7 FB120000 		.4byte	.LASF38
 4281 01ab 01       		.byte	0x1
 4282 01ac 0C       		.uleb128 0xc
 4283 01ad 0E030000 		.4byte	.LASF39
 4284 01b1 02       		.byte	0x2
 4285 01b2 0C       		.uleb128 0xc
 4286 01b3 E10F0000 		.4byte	.LASF40
 4287 01b7 03       		.byte	0x3
 4288 01b8 0C       		.uleb128 0xc
 4289 01b9 26110000 		.4byte	.LASF41
 4290 01bd 04       		.byte	0x4
 4291 01be 0C       		.uleb128 0xc
 4292 01bf A9160000 		.4byte	.LASF42
 4293 01c3 05       		.byte	0x5
 4294 01c4 00       		.byte	0
 4295 01c5 0B       		.uleb128 0xb
 4296 01c6 01       		.byte	0x1
 4297 01c7 37000000 		.4byte	0x37
 4298 01cb 05       		.byte	0x5
 4299 01cc 82       		.byte	0x82
 4300 01cd EA010000 		.4byte	0x1ea
 4301 01d1 0C       		.uleb128 0xc
 4302 01d2 33050000 		.4byte	.LASF43
 4303 01d6 00       		.byte	0
 4304 01d7 0C       		.uleb128 0xc
 4305 01d8 D5030000 		.4byte	.LASF44
 4306 01dc 01       		.byte	0x1
 4307 01dd 0C       		.uleb128 0xc
 4308 01de D10C0000 		.4byte	.LASF45
 4309 01e2 02       		.byte	0x2
 4310 01e3 0C       		.uleb128 0xc
 4311 01e4 76190000 		.4byte	.LASF46
 4312 01e8 04       		.byte	0x4
 4313 01e9 00       		.byte	0
 4314 01ea 0D       		.uleb128 0xd
 4315 01eb 0010     		.2byte	0x1000
 4316 01ed 05       		.byte	0x5
 4317 01ee 98       		.byte	0x98
 4318 01ef CF020000 		.4byte	0x2cf
 4319 01f3 0E       		.uleb128 0xe
 4320 01f4 DA0B0000 		.4byte	.LASF47
ARM GAS  C:\Users\r\AppData\Local\Temp\ccbXJ1Li.s 			page 99


 4321 01f8 05       		.byte	0x5
 4322 01f9 9C       		.byte	0x9c
 4323 01fa 97000000 		.4byte	0x97
 4324 01fe 00       		.byte	0
 4325 01ff 0E       		.uleb128 0xe
 4326 0200 22080000 		.4byte	.LASF48
 4327 0204 05       		.byte	0x5
 4328 0205 9E       		.byte	0x9e
 4329 0206 97000000 		.4byte	0x97
 4330 020a 01       		.byte	0x1
 4331 020b 0E       		.uleb128 0xe
 4332 020c D5160000 		.4byte	.LASF49
 4333 0210 05       		.byte	0x5
 4334 0211 9F       		.byte	0x9f
 4335 0212 97000000 		.4byte	0x97
 4336 0216 02       		.byte	0x2
 4337 0217 0E       		.uleb128 0xe
 4338 0218 96080000 		.4byte	.LASF50
 4339 021c 05       		.byte	0x5
 4340 021d A0       		.byte	0xa0
 4341 021e 97000000 		.4byte	0x97
 4342 0222 03       		.byte	0x3
 4343 0223 0E       		.uleb128 0xe
 4344 0224 B8110000 		.4byte	.LASF51
 4345 0228 05       		.byte	0x5
 4346 0229 A2       		.byte	0xa2
 4347 022a B8000000 		.4byte	0xb8
 4348 022e 04       		.byte	0x4
 4349 022f 0E       		.uleb128 0xe
 4350 0230 F7100000 		.4byte	.LASF52
 4351 0234 05       		.byte	0x5
 4352 0235 A3       		.byte	0xa3
 4353 0236 B8000000 		.4byte	0xb8
 4354 023a 08       		.byte	0x8
 4355 023b 0E       		.uleb128 0xe
 4356 023c C6110000 		.4byte	.LASF53
 4357 0240 05       		.byte	0x5
 4358 0241 A5       		.byte	0xa5
 4359 0242 A2000000 		.4byte	0xa2
 4360 0246 0C       		.byte	0xc
 4361 0247 0E       		.uleb128 0xe
 4362 0248 D10F0000 		.4byte	.LASF54
 4363 024c 05       		.byte	0x5
 4364 024d A8       		.byte	0xa8
 4365 024e A2000000 		.4byte	0xa2
 4366 0252 0E       		.byte	0xe
 4367 0253 0E       		.uleb128 0xe
 4368 0254 44020000 		.4byte	.LASF55
 4369 0258 05       		.byte	0x5
 4370 0259 AB       		.byte	0xab
 4371 025a A2000000 		.4byte	0xa2
 4372 025e 10       		.byte	0x10
 4373 025f 0E       		.uleb128 0xe
 4374 0260 90010000 		.4byte	.LASF56
 4375 0264 05       		.byte	0x5
 4376 0265 AE       		.byte	0xae
 4377 0266 2E010000 		.4byte	0x12e
ARM GAS  C:\Users\r\AppData\Local\Temp\ccbXJ1Li.s 			page 100


 4378 026a 12       		.byte	0x12
 4379 026b 0E       		.uleb128 0xe
 4380 026c B1180000 		.4byte	.LASF57
 4381 0270 05       		.byte	0x5
 4382 0271 AF       		.byte	0xaf
 4383 0272 CF020000 		.4byte	0x2cf
 4384 0276 1A       		.byte	0x1a
 4385 0277 0E       		.uleb128 0xe
 4386 0278 47120000 		.4byte	.LASF58
 4387 027c 05       		.byte	0x5
 4388 027d B0       		.byte	0xb0
 4389 027e DF020000 		.4byte	0x2df
 4390 0282 2A       		.byte	0x2a
 4391 0283 0E       		.uleb128 0xe
 4392 0284 FF0A0000 		.4byte	.LASF59
 4393 0288 05       		.byte	0x5
 4394 0289 B1       		.byte	0xb1
 4395 028a CF020000 		.4byte	0x2cf
 4396 028e 2E       		.byte	0x2e
 4397 028f 0E       		.uleb128 0xe
 4398 0290 2D080000 		.4byte	.LASF60
 4399 0294 05       		.byte	0x5
 4400 0295 B3       		.byte	0xb3
 4401 0296 A2000000 		.4byte	0xa2
 4402 029a 3E       		.byte	0x3e
 4403 029b 0E       		.uleb128 0xe
 4404 029c CE170000 		.4byte	.LASF61
 4405 02a0 05       		.byte	0x5
 4406 02a1 B5       		.byte	0xb5
 4407 02a2 EF020000 		.4byte	0x2ef
 4408 02a6 40       		.byte	0x40
 4409 02a7 0F       		.uleb128 0xf
 4410 02a8 20150000 		.4byte	.LASF62
 4411 02ac 05       		.byte	0x5
 4412 02ad B7       		.byte	0xb7
 4413 02ae 00030000 		.4byte	0x300
 4414 02b2 0004     		.2byte	0x400
 4415 02b4 10       		.uleb128 0x10
 4416 02b5 76706400 		.ascii	"vpd\000"
 4417 02b9 05       		.byte	0x5
 4418 02ba B8       		.byte	0xb8
 4419 02bb 00030000 		.4byte	0x300
 4420 02bf 0008     		.2byte	0x800
 4421 02c1 0F       		.uleb128 0xf
 4422 02c2 8F060000 		.4byte	.LASF63
 4423 02c6 05       		.byte	0x5
 4424 02c7 B9       		.byte	0xb9
 4425 02c8 00030000 		.4byte	0x300
 4426 02cc 000C     		.2byte	0xc00
 4427 02ce 00       		.byte	0
 4428 02cf 09       		.uleb128 0x9
 4429 02d0 01010000 		.4byte	0x101
 4430 02d4 DF020000 		.4byte	0x2df
 4431 02d8 0A       		.uleb128 0xa
 4432 02d9 27010000 		.4byte	0x127
 4433 02dd 0F       		.byte	0xf
 4434 02de 00       		.byte	0
ARM GAS  C:\Users\r\AppData\Local\Temp\ccbXJ1Li.s 			page 101


 4435 02df 09       		.uleb128 0x9
 4436 02e0 01010000 		.4byte	0x101
 4437 02e4 EF020000 		.4byte	0x2ef
 4438 02e8 0A       		.uleb128 0xa
 4439 02e9 27010000 		.4byte	0x127
 4440 02ed 03       		.byte	0x3
 4441 02ee 00       		.byte	0
 4442 02ef 09       		.uleb128 0x9
 4443 02f0 97000000 		.4byte	0x97
 4444 02f4 00030000 		.4byte	0x300
 4445 02f8 11       		.uleb128 0x11
 4446 02f9 27010000 		.4byte	0x127
 4447 02fd BF03     		.2byte	0x3bf
 4448 02ff 00       		.byte	0
 4449 0300 09       		.uleb128 0x9
 4450 0301 97000000 		.4byte	0x97
 4451 0305 11030000 		.4byte	0x311
 4452 0309 11       		.uleb128 0x11
 4453 030a 27010000 		.4byte	0x127
 4454 030e FF03     		.2byte	0x3ff
 4455 0310 00       		.byte	0
 4456 0311 03       		.uleb128 0x3
 4457 0312 4E010000 		.4byte	.LASF64
 4458 0316 05       		.byte	0x5
 4459 0317 BA       		.byte	0xba
 4460 0318 EA010000 		.4byte	0x1ea
 4461 031c 0D       		.uleb128 0xd
 4462 031d 0001     		.2byte	0x100
 4463 031f 05       		.byte	0x5
 4464 0320 BC       		.byte	0xbc
 4465 0321 7A030000 		.4byte	0x37a
 4466 0325 0E       		.uleb128 0xe
 4467 0326 03180000 		.4byte	.LASF65
 4468 032a 05       		.byte	0x5
 4469 032b BE       		.byte	0xbe
 4470 032c DF020000 		.4byte	0x2df
 4471 0330 00       		.byte	0
 4472 0331 0E       		.uleb128 0xe
 4473 0332 76070000 		.4byte	.LASF66
 4474 0336 05       		.byte	0x5
 4475 0337 BF       		.byte	0xbf
 4476 0338 97000000 		.4byte	0x97
 4477 033c 04       		.byte	0x4
 4478 033d 0E       		.uleb128 0xe
 4479 033e 01030000 		.4byte	.LASF67
 4480 0342 05       		.byte	0x5
 4481 0343 C0       		.byte	0xc0
 4482 0344 97000000 		.4byte	0x97
 4483 0348 05       		.byte	0x5
 4484 0349 0E       		.uleb128 0xe
 4485 034a E4050000 		.4byte	.LASF68
 4486 034e 05       		.byte	0x5
 4487 034f C1       		.byte	0xc1
 4488 0350 97000000 		.4byte	0x97
 4489 0354 06       		.byte	0x6
 4490 0355 0E       		.uleb128 0xe
 4491 0356 F0100000 		.4byte	.LASF69
ARM GAS  C:\Users\r\AppData\Local\Temp\ccbXJ1Li.s 			page 102


 4492 035a 05       		.byte	0x5
 4493 035b C2       		.byte	0xc2
 4494 035c 97000000 		.4byte	0x97
 4495 0360 07       		.byte	0x7
 4496 0361 0E       		.uleb128 0xe
 4497 0362 CF090000 		.4byte	.LASF70
 4498 0366 05       		.byte	0x5
 4499 0367 C4       		.byte	0xc4
 4500 0368 97000000 		.4byte	0x97
 4501 036c 08       		.byte	0x8
 4502 036d 0E       		.uleb128 0xe
 4503 036e CE170000 		.4byte	.LASF61
 4504 0372 05       		.byte	0x5
 4505 0373 C7       		.byte	0xc7
 4506 0374 7A030000 		.4byte	0x37a
 4507 0378 09       		.byte	0x9
 4508 0379 00       		.byte	0
 4509 037a 09       		.uleb128 0x9
 4510 037b 97000000 		.4byte	0x97
 4511 037f 8A030000 		.4byte	0x38a
 4512 0383 0A       		.uleb128 0xa
 4513 0384 27010000 		.4byte	0x127
 4514 0388 F6       		.byte	0xf6
 4515 0389 00       		.byte	0
 4516 038a 03       		.uleb128 0x3
 4517 038b 19010000 		.4byte	.LASF71
 4518 038f 05       		.byte	0x5
 4519 0390 C8       		.byte	0xc8
 4520 0391 1C030000 		.4byte	0x31c
 4521 0395 0B       		.uleb128 0xb
 4522 0396 01       		.byte	0x1
 4523 0397 37000000 		.4byte	0x37
 4524 039b 06       		.byte	0x6
 4525 039c 15       		.byte	0x15
 4526 039d 02040000 		.4byte	0x402
 4527 03a1 0C       		.uleb128 0xc
 4528 03a2 CA020000 		.4byte	.LASF72
 4529 03a6 00       		.byte	0
 4530 03a7 0C       		.uleb128 0xc
 4531 03a8 30190000 		.4byte	.LASF73
 4532 03ac 01       		.byte	0x1
 4533 03ad 0C       		.uleb128 0xc
 4534 03ae 37100000 		.4byte	.LASF74
 4535 03b2 02       		.byte	0x2
 4536 03b3 0C       		.uleb128 0xc
 4537 03b4 23040000 		.4byte	.LASF75
 4538 03b8 03       		.byte	0x3
 4539 03b9 0C       		.uleb128 0xc
 4540 03ba BF170000 		.4byte	.LASF76
 4541 03be 04       		.byte	0x4
 4542 03bf 0C       		.uleb128 0xc
 4543 03c0 59070000 		.4byte	.LASF77
 4544 03c4 05       		.byte	0x5
 4545 03c5 0C       		.uleb128 0xc
 4546 03c6 5C160000 		.4byte	.LASF78
 4547 03ca 06       		.byte	0x6
 4548 03cb 0C       		.uleb128 0xc
ARM GAS  C:\Users\r\AppData\Local\Temp\ccbXJ1Li.s 			page 103


 4549 03cc 89080000 		.4byte	.LASF79
 4550 03d0 07       		.byte	0x7
 4551 03d1 0C       		.uleb128 0xc
 4552 03d2 32000000 		.4byte	.LASF80
 4553 03d6 08       		.byte	0x8
 4554 03d7 0C       		.uleb128 0xc
 4555 03d8 850E0000 		.4byte	.LASF81
 4556 03dc 09       		.byte	0x9
 4557 03dd 0C       		.uleb128 0xc
 4558 03de 49150000 		.4byte	.LASF82
 4559 03e2 0A       		.byte	0xa
 4560 03e3 0C       		.uleb128 0xc
 4561 03e4 FC0B0000 		.4byte	.LASF83
 4562 03e8 0B       		.byte	0xb
 4563 03e9 0C       		.uleb128 0xc
 4564 03ea 55020000 		.4byte	.LASF84
 4565 03ee 0C       		.byte	0xc
 4566 03ef 0C       		.uleb128 0xc
 4567 03f0 950E0000 		.4byte	.LASF85
 4568 03f4 0D       		.byte	0xd
 4569 03f5 0C       		.uleb128 0xc
 4570 03f6 71110000 		.4byte	.LASF86
 4571 03fa 0E       		.byte	0xe
 4572 03fb 0C       		.uleb128 0xc
 4573 03fc 80080000 		.4byte	.LASF87
 4574 0400 0F       		.byte	0xf
 4575 0401 00       		.byte	0
 4576 0402 0B       		.uleb128 0xb
 4577 0403 02       		.byte	0x2
 4578 0404 50000000 		.4byte	0x50
 4579 0408 06       		.byte	0x6
 4580 0409 2B       		.byte	0x2b
 4581 040a 71070000 		.4byte	0x771
 4582 040e 12       		.uleb128 0x12
 4583 040f E40C0000 		.4byte	.LASF88
 4584 0413 0013     		.2byte	0x1300
 4585 0415 12       		.uleb128 0x12
 4586 0416 4E140000 		.4byte	.LASF89
 4587 041a 0012     		.2byte	0x1200
 4588 041c 12       		.uleb128 0x12
 4589 041d 01170000 		.4byte	.LASF90
 4590 0421 0230     		.2byte	0x3002
 4591 0423 12       		.uleb128 0x12
 4592 0424 25010000 		.4byte	.LASF91
 4593 0428 0130     		.2byte	0x3001
 4594 042a 12       		.uleb128 0x12
 4595 042b 390A0000 		.4byte	.LASF92
 4596 042f 023F     		.2byte	0x3f02
 4597 0431 12       		.uleb128 0x12
 4598 0432 250A0000 		.4byte	.LASF93
 4599 0436 004A     		.2byte	0x4a00
 4600 0438 12       		.uleb128 0x12
 4601 0439 A9080000 		.4byte	.LASF94
 4602 043d 002C     		.2byte	0x2c00
 4603 043f 12       		.uleb128 0x12
 4604 0440 0A0D0000 		.4byte	.LASF95
 4605 0444 002F     		.2byte	0x2f00
ARM GAS  C:\Users\r\AppData\Local\Temp\ccbXJ1Li.s 			page 104


 4606 0446 12       		.uleb128 0x12
 4607 0447 A10A0000 		.4byte	.LASF96
 4608 044b 002B     		.2byte	0x2b00
 4609 044d 12       		.uleb128 0x12
 4610 044e 790D0000 		.4byte	.LASF97
 4611 0452 0041     		.2byte	0x4100
 4612 0454 12       		.uleb128 0x12
 4613 0455 28170000 		.4byte	.LASF98
 4614 0459 004B     		.2byte	0x4b00
 4615 045b 12       		.uleb128 0x12
 4616 045c B10C0000 		.4byte	.LASF99
 4617 0460 0016     		.2byte	0x1600
 4618 0462 12       		.uleb128 0x12
 4619 0463 9F0C0000 		.4byte	.LASF100
 4620 0467 0019     		.2byte	0x1900
 4621 0469 12       		.uleb128 0x12
 4622 046a A2050000 		.4byte	.LASF101
 4623 046e 0319     		.2byte	0x1903
 4624 0470 12       		.uleb128 0x12
 4625 0471 00190000 		.4byte	.LASF102
 4626 0475 0219     		.2byte	0x1902
 4627 0477 12       		.uleb128 0x12
 4628 0478 34080000 		.4byte	.LASF103
 4629 047c 0119     		.2byte	0x1901
 4630 047e 12       		.uleb128 0x12
 4631 047f 30110000 		.4byte	.LASF104
 4632 0483 001C     		.2byte	0x1c00
 4633 0485 12       		.uleb128 0x12
 4634 0486 3E000000 		.4byte	.LASF105
 4635 048a 0132     		.2byte	0x3201
 4636 048c 12       		.uleb128 0x12
 4637 048d B4040000 		.4byte	.LASF106
 4638 0491 000A     		.2byte	0xa00
 4639 0493 12       		.uleb128 0x12
 4640 0494 0A160000 		.4byte	.LASF107
 4641 0498 0211     		.2byte	0x1102
 4642 049a 12       		.uleb128 0x12
 4643 049b 6E150000 		.4byte	.LASF108
 4644 049f 0131     		.2byte	0x3101
 4645 04a1 12       		.uleb128 0x12
 4646 04a2 E1060000 		.4byte	.LASF109
 4647 04a6 021C     		.2byte	0x1c02
 4648 04a8 0C       		.uleb128 0xc
 4649 04a9 59000000 		.4byte	.LASF110
 4650 04ad 06       		.byte	0x6
 4651 04ae 12       		.uleb128 0x12
 4652 04af D0050000 		.4byte	.LASF111
 4653 04b3 0010     		.2byte	0x1000
 4654 04b5 12       		.uleb128 0x12
 4655 04b6 D2120000 		.4byte	.LASF112
 4656 04ba 0022     		.2byte	0x2200
 4657 04bc 12       		.uleb128 0x12
 4658 04bd 5B010000 		.4byte	.LASF113
 4659 04c1 0030     		.2byte	0x3000
 4660 04c3 12       		.uleb128 0x12
 4661 04c4 8A040000 		.4byte	.LASF114
 4662 04c8 0048     		.2byte	0x4800
ARM GAS  C:\Users\r\AppData\Local\Temp\ccbXJ1Li.s 			page 105


 4663 04ca 12       		.uleb128 0x12
 4664 04cb 7E180000 		.4byte	.LASF115
 4665 04cf 033F     		.2byte	0x3f03
 4666 04d1 12       		.uleb128 0x12
 4667 04d2 ED070000 		.4byte	.LASF116
 4668 04d6 0044     		.2byte	0x4400
 4669 04d8 12       		.uleb128 0x12
 4670 04d9 84150000 		.4byte	.LASF117
 4671 04dd 003D     		.2byte	0x3d00
 4672 04df 12       		.uleb128 0x12
 4673 04e0 08140000 		.4byte	.LASF118
 4674 04e4 0020     		.2byte	0x2000
 4675 04e6 12       		.uleb128 0x12
 4676 04e7 140B0000 		.4byte	.LASF119
 4677 04eb 0024     		.2byte	0x2400
 4678 04ed 12       		.uleb128 0x12
 4679 04ee E2140000 		.4byte	.LASF120
 4680 04f2 0026     		.2byte	0x2600
 4681 04f4 12       		.uleb128 0x12
 4682 04f5 31090000 		.4byte	.LASF121
 4683 04f9 0049     		.2byte	0x4900
 4684 04fb 12       		.uleb128 0x12
 4685 04fc 590F0000 		.4byte	.LASF122
 4686 0500 025B     		.2byte	0x5b02
 4687 0502 12       		.uleb128 0x12
 4688 0503 39170000 		.4byte	.LASF123
 4689 0507 005B     		.2byte	0x5b00
 4690 0509 12       		.uleb128 0x12
 4691 050a F0040000 		.4byte	.LASF124
 4692 050e 035B     		.2byte	0x5b03
 4693 0510 12       		.uleb128 0x12
 4694 0511 91190000 		.4byte	.LASF125
 4695 0515 022A     		.2byte	0x2a02
 4696 0517 12       		.uleb128 0x12
 4697 0518 03110000 		.4byte	.LASF126
 4698 051c 0021     		.2byte	0x2100
 4699 051e 12       		.uleb128 0x12
 4700 051f 2B180000 		.4byte	.LASF127
 4701 0523 0008     		.2byte	0x800
 4702 0525 12       		.uleb128 0x12
 4703 0526 A90F0000 		.4byte	.LASF128
 4704 052a 0208     		.2byte	0x802
 4705 052c 12       		.uleb128 0x12
 4706 052d 6C060000 		.4byte	.LASF129
 4707 0531 0108     		.2byte	0x801
 4708 0533 12       		.uleb128 0x12
 4709 0534 9F140000 		.4byte	.LASF130
 4710 0538 0005     		.2byte	0x500
 4711 053a 12       		.uleb128 0x12
 4712 053b 27140000 		.4byte	.LASF131
 4713 053f 004C     		.2byte	0x4c00
 4714 0541 12       		.uleb128 0x12
 4715 0542 900D0000 		.4byte	.LASF132
 4716 0546 003E     		.2byte	0x3e00
 4717 0548 12       		.uleb128 0x12
 4718 0549 B8180000 		.4byte	.LASF133
 4719 054d 0104     		.2byte	0x401
ARM GAS  C:\Users\r\AppData\Local\Temp\ccbXJ1Li.s 			page 106


 4720 054f 12       		.uleb128 0x12
 4721 0550 370D0000 		.4byte	.LASF134
 4722 0554 0004     		.2byte	0x400
 4723 0556 12       		.uleb128 0x12
 4724 0557 70160000 		.4byte	.LASF135
 4725 055b 0404     		.2byte	0x404
 4726 055d 12       		.uleb128 0x12
 4727 055e 9E000000 		.4byte	.LASF136
 4728 0562 0204     		.2byte	0x402
 4729 0564 12       		.uleb128 0x12
 4730 0565 F3050000 		.4byte	.LASF137
 4731 0569 0304     		.2byte	0x403
 4732 056b 12       		.uleb128 0x12
 4733 056c E40A0000 		.4byte	.LASF138
 4734 0570 0025     		.2byte	0x2500
 4735 0572 12       		.uleb128 0x12
 4736 0573 A4060000 		.4byte	.LASF139
 4737 0577 0115     		.2byte	0x1501
 4738 0579 12       		.uleb128 0x12
 4739 057a 5D0E0000 		.4byte	.LASF140
 4740 057e 0053     		.2byte	0x5300
 4741 0580 12       		.uleb128 0x12
 4742 0581 56150000 		.4byte	.LASF141
 4743 0585 0031     		.2byte	0x3100
 4744 0587 12       		.uleb128 0x12
 4745 0588 B90D0000 		.4byte	.LASF142
 4746 058c 003A     		.2byte	0x3a00
 4747 058e 12       		.uleb128 0x12
 4748 058f 1E100000 		.4byte	.LASF143
 4749 0593 0253     		.2byte	0x5302
 4750 0595 12       		.uleb128 0x12
 4751 0596 90000000 		.4byte	.LASF144
 4752 059a 0043     		.2byte	0x4300
 4753 059c 12       		.uleb128 0x12
 4754 059d 6E130000 		.4byte	.LASF145
 4755 05a1 013F     		.2byte	0x3f01
 4756 05a3 12       		.uleb128 0x12
 4757 05a4 2B130000 		.4byte	.LASF146
 4758 05a8 001D     		.2byte	0x1d00
 4759 05aa 12       		.uleb128 0x12
 4760 05ab 97070000 		.4byte	.LASF147
 4761 05af 0A11     		.2byte	0x110a
 4762 05b1 12       		.uleb128 0x12
 4763 05b2 E3120000 		.4byte	.LASF148
 4764 05b6 012A     		.2byte	0x2a01
 4765 05b8 12       		.uleb128 0x12
 4766 05b9 0C090000 		.4byte	.LASF149
 4767 05bd 0007     		.2byte	0x700
 4768 05bf 12       		.uleb128 0x12
 4769 05c0 F40F0000 		.4byte	.LASF150
 4770 05c4 0311     		.2byte	0x1103
 4771 05c6 0C       		.uleb128 0xc
 4772 05c7 4E170000 		.4byte	.LASF151
 4773 05cb 00       		.byte	0
 4774 05cc 12       		.uleb128 0x12
 4775 05cd 74100000 		.4byte	.LASF152
 4776 05d1 0032     		.2byte	0x3200
ARM GAS  C:\Users\r\AppData\Local\Temp\ccbXJ1Li.s 			page 107


 4777 05d3 12       		.uleb128 0x12
 4778 05d4 1D030000 		.4byte	.LASF153
 4779 05d8 0001     		.2byte	0x100
 4780 05da 12       		.uleb128 0x12
 4781 05db E5160000 		.4byte	.LASF154
 4782 05df 0006     		.2byte	0x600
 4783 05e1 12       		.uleb128 0x12
 4784 05e2 02150000 		.4byte	.LASF155
 4785 05e6 0002     		.2byte	0x200
 4786 05e8 12       		.uleb128 0x12
 4787 05e9 BC0E0000 		.4byte	.LASF156
 4788 05ed 0028     		.2byte	0x2800
 4789 05ef 12       		.uleb128 0x12
 4790 05f0 67120000 		.4byte	.LASF157
 4791 05f4 015A     		.2byte	0x5a01
 4792 05f6 12       		.uleb128 0x12
 4793 05f7 E3010000 		.4byte	.LASF158
 4794 05fb 005A     		.2byte	0x5a00
 4795 05fd 12       		.uleb128 0x12
 4796 05fe 7C110000 		.4byte	.LASF159
 4797 0602 035A     		.2byte	0x5a03
 4798 0604 12       		.uleb128 0x12
 4799 0605 C1060000 		.4byte	.LASF160
 4800 0609 025A     		.2byte	0x5a02
 4801 060b 12       		.uleb128 0x12
 4802 060c 290B0000 		.4byte	.LASF161
 4803 0610 004E     		.2byte	0x4e00
 4804 0612 12       		.uleb128 0x12
 4805 0613 AD130000 		.4byte	.LASF162
 4806 0617 001A     		.2byte	0x1a00
 4807 0619 12       		.uleb128 0x12
 4808 061a 350F0000 		.4byte	.LASF163
 4809 061e 0126     		.2byte	0x2601
 4810 0620 12       		.uleb128 0x12
 4811 0621 59110000 		.4byte	.LASF164
 4812 0625 0226     		.2byte	0x2602
 4813 0627 12       		.uleb128 0x12
 4814 0628 B9030000 		.4byte	.LASF165
 4815 062c 002A     		.2byte	0x2a00
 4816 062e 12       		.uleb128 0x12
 4817 062f 0D130000 		.4byte	.LASF166
 4818 0633 0003     		.2byte	0x300
 4819 0635 12       		.uleb128 0x12
 4820 0636 A2090000 		.4byte	.LASF167
 4821 063a 0215     		.2byte	0x1502
 4822 063c 12       		.uleb128 0x12
 4823 063d 090F0000 		.4byte	.LASF168
 4824 0641 0029     		.2byte	0x2900
 4825 0643 12       		.uleb128 0x12
 4826 0644 160A0000 		.4byte	.LASF169
 4827 0648 0129     		.2byte	0x2901
 4828 064a 12       		.uleb128 0x12
 4829 064b 84050000 		.4byte	.LASF170
 4830 064f 0042     		.2byte	0x4200
 4831 0651 12       		.uleb128 0x12
 4832 0652 4E080000 		.4byte	.LASF171
 4833 0656 011C     		.2byte	0x1c01
ARM GAS  C:\Users\r\AppData\Local\Temp\ccbXJ1Li.s 			page 108


 4834 0658 12       		.uleb128 0x12
 4835 0659 4D0F0000 		.4byte	.LASF172
 4836 065d 0040     		.2byte	0x4000
 4837 065f 12       		.uleb128 0x12
 4838 0660 D9090000 		.4byte	.LASF173
 4839 0664 0015     		.2byte	0x1500
 4840 0666 12       		.uleb128 0x12
 4841 0667 57130000 		.4byte	.LASF174
 4842 066b 0111     		.2byte	0x1101
 4843 066d 12       		.uleb128 0x12
 4844 066e 56060000 		.4byte	.LASF175
 4845 0672 0114     		.2byte	0x1401
 4846 0674 12       		.uleb128 0x12
 4847 0675 41100000 		.4byte	.LASF176
 4848 0679 0014     		.2byte	0x1400
 4849 067b 12       		.uleb128 0x12
 4850 067c FD060000 		.4byte	.LASF177
 4851 0680 0218     		.2byte	0x1802
 4852 0682 12       		.uleb128 0x12
 4853 0683 84020000 		.4byte	.LASF178
 4854 0687 0518     		.2byte	0x1805
 4855 0689 12       		.uleb128 0x12
 4856 068a 6F000000 		.4byte	.LASF179
 4857 068e 0618     		.2byte	0x1806
 4858 0690 12       		.uleb128 0x12
 4859 0691 0C0C0000 		.4byte	.LASF180
 4860 0695 0517     		.2byte	0x1705
 4861 0697 12       		.uleb128 0x12
 4862 0698 3F0C0000 		.4byte	.LASF181
 4863 069c 0118     		.2byte	0x1801
 4864 069e 12       		.uleb128 0x12
 4865 069f 65030000 		.4byte	.LASF182
 4866 06a3 0018     		.2byte	0x1800
 4867 06a5 12       		.uleb128 0x12
 4868 06a6 C7040000 		.4byte	.LASF183
 4869 06aa 0317     		.2byte	0x1703
 4870 06ac 12       		.uleb128 0x12
 4871 06ad DA150000 		.4byte	.LASF184
 4872 06b1 0017     		.2byte	0x1700
 4873 06b3 12       		.uleb128 0x12
 4874 06b4 5B020000 		.4byte	.LASF185
 4875 06b8 0217     		.2byte	0x1702
 4876 06ba 12       		.uleb128 0x12
 4877 06bb D3020000 		.4byte	.LASF186
 4878 06bf 0117     		.2byte	0x1701
 4879 06c1 12       		.uleb128 0x12
 4880 06c2 560A0000 		.4byte	.LASF187
 4881 06c6 0617     		.2byte	0x1706
 4882 06c8 12       		.uleb128 0x12
 4883 06c9 BB070000 		.4byte	.LASF188
 4884 06cd 0717     		.2byte	0x1707
 4885 06cf 12       		.uleb128 0x12
 4886 06d0 D5110000 		.4byte	.LASF189
 4887 06d4 0817     		.2byte	0x1708
 4888 06d6 12       		.uleb128 0x12
 4889 06d7 5D180000 		.4byte	.LASF190
 4890 06db 001E     		.2byte	0x1e00
ARM GAS  C:\Users\r\AppData\Local\Temp\ccbXJ1Li.s 			page 109


 4891 06dd 12       		.uleb128 0x12
 4892 06de EA0B0000 		.4byte	.LASF191
 4893 06e2 0037     		.2byte	0x3700
 4894 06e4 12       		.uleb128 0x12
 4895 06e5 17000000 		.4byte	.LASF192
 4896 06e9 005C     		.2byte	0x5c00
 4897 06eb 12       		.uleb128 0x12
 4898 06ec 56040000 		.4byte	.LASF193
 4899 06f0 0039     		.2byte	0x3900
 4900 06f2 12       		.uleb128 0x12
 4901 06f3 FA0E0000 		.4byte	.LASF194
 4902 06f7 0229     		.2byte	0x2902
 4903 06f9 12       		.uleb128 0x12
 4904 06fa 2D0E0000 		.4byte	.LASF195
 4905 06fe 0047     		.2byte	0x4700
 4906 0700 12       		.uleb128 0x12
 4907 0701 AF020000 		.4byte	.LASF196
 4908 0705 0045     		.2byte	0x4500
 4909 0707 12       		.uleb128 0x12
 4910 0708 B5190000 		.4byte	.LASF197
 4911 070c 025C     		.2byte	0x5c02
 4912 070e 12       		.uleb128 0x12
 4913 070f A5150000 		.4byte	.LASF198
 4914 0713 015C     		.2byte	0x5c01
 4915 0715 12       		.uleb128 0x12
 4916 0716 0D0E0000 		.4byte	.LASF199
 4917 071a 001B     		.2byte	0x1b00
 4918 071c 12       		.uleb128 0x12
 4919 071d 52090000 		.4byte	.LASF200
 4920 0721 003F     		.2byte	0x3f00
 4921 0723 12       		.uleb128 0x12
 4922 0724 3E040000 		.4byte	.LASF201
 4923 0728 015B     		.2byte	0x5b01
 4924 072a 12       		.uleb128 0x12
 4925 072b 40190000 		.4byte	.LASF202
 4926 072f 0326     		.2byte	0x2603
 4927 0731 12       		.uleb128 0x12
 4928 0732 F2090000 		.4byte	.LASF203
 4929 0736 0009     		.2byte	0x900
 4930 0738 12       		.uleb128 0x12
 4931 0739 7D0F0000 		.4byte	.LASF204
 4932 073d 0011     		.2byte	0x1100
 4933 073f 12       		.uleb128 0x12
 4934 0740 CF190000 		.4byte	.LASF205
 4935 0744 0411     		.2byte	0x1104
 4936 0746 12       		.uleb128 0x12
 4937 0747 C0080000 		.4byte	.LASF206
 4938 074b 0B11     		.2byte	0x110b
 4939 074d 12       		.uleb128 0x12
 4940 074e F1030000 		.4byte	.LASF207
 4941 0752 0C11     		.2byte	0x110c
 4942 0754 12       		.uleb128 0x12
 4943 0755 D7130000 		.4byte	.LASF208
 4944 0759 0046     		.2byte	0x4600
 4945 075b 12       		.uleb128 0x12
 4946 075c E6000000 		.4byte	.LASF209
 4947 0760 020C     		.2byte	0xc02
ARM GAS  C:\Users\r\AppData\Local\Temp\ccbXJ1Li.s 			page 110


 4948 0762 12       		.uleb128 0x12
 4949 0763 72140000 		.4byte	.LASF210
 4950 0767 010C     		.2byte	0xc01
 4951 0769 12       		.uleb128 0x12
 4952 076a CA140000 		.4byte	.LASF211
 4953 076e 0027     		.2byte	0x2700
 4954 0770 00       		.byte	0
 4955 0771 13       		.uleb128 0x13
 4956 0772 04       		.byte	0x4
 4957 0773 06       		.byte	0x6
 4958 0774 AA       		.byte	0xaa
 4959 0775 92070000 		.4byte	0x792
 4960 0779 0E       		.uleb128 0xe
 4961 077a 03140000 		.4byte	.LASF212
 4962 077e 06       		.byte	0x6
 4963 077f AC       		.byte	0xac
 4964 0780 C3000000 		.4byte	0xc3
 4965 0784 00       		.byte	0
 4966 0785 14       		.uleb128 0x14
 4967 0786 61736300 		.ascii	"asc\000"
 4968 078a 06       		.byte	0x6
 4969 078b AD       		.byte	0xad
 4970 078c CF000000 		.4byte	0xcf
 4971 0790 02       		.byte	0x2
 4972 0791 00       		.byte	0
 4973 0792 03       		.uleb128 0x3
 4974 0793 86010000 		.4byte	.LASF213
 4975 0797 06       		.byte	0x6
 4976 0798 AE       		.byte	0xae
 4977 0799 71070000 		.4byte	0x771
 4978 079d 0B       		.uleb128 0xb
 4979 079e 01       		.byte	0x1
 4980 079f 25000000 		.4byte	0x25
 4981 07a3 07       		.byte	0x7
 4982 07a4 18       		.byte	0x18
 4983 07a5 FE070000 		.4byte	0x7fe
 4984 07a9 0C       		.uleb128 0xc
 4985 07aa A0010000 		.4byte	.LASF214
 4986 07ae 01       		.byte	0x1
 4987 07af 0C       		.uleb128 0xc
 4988 07b0 9E130000 		.4byte	.LASF215
 4989 07b4 02       		.byte	0x2
 4990 07b5 0C       		.uleb128 0xc
 4991 07b6 9A160000 		.4byte	.LASF216
 4992 07ba 04       		.byte	0x4
 4993 07bb 15       		.uleb128 0x15
 4994 07bc D4010000 		.4byte	.LASF217
 4995 07c0 7F       		.sleb128 -1
 4996 07c1 15       		.uleb128 0x15
 4997 07c2 92030000 		.4byte	.LASF218
 4998 07c6 7E       		.sleb128 -2
 4999 07c7 15       		.uleb128 0x15
 5000 07c8 00090000 		.4byte	.LASF219
 5001 07cc 7D       		.sleb128 -3
 5002 07cd 15       		.uleb128 0x15
 5003 07ce 9F0F0000 		.4byte	.LASF220
 5004 07d2 7C       		.sleb128 -4
ARM GAS  C:\Users\r\AppData\Local\Temp\ccbXJ1Li.s 			page 111


 5005 07d3 15       		.uleb128 0x15
 5006 07d4 5D050000 		.4byte	.LASF221
 5007 07d8 7B       		.sleb128 -5
 5008 07d9 0C       		.uleb128 0xc
 5009 07da EF130000 		.4byte	.LASF222
 5010 07de 06       		.byte	0x6
 5011 07df 0C       		.uleb128 0xc
 5012 07e0 DA140000 		.4byte	.LASF223
 5013 07e4 02       		.byte	0x2
 5014 07e5 0C       		.uleb128 0xc
 5015 07e6 51110000 		.4byte	.LASF224
 5016 07ea 04       		.byte	0x4
 5017 07eb 0C       		.uleb128 0xc
 5018 07ec 3C160000 		.4byte	.LASF225
 5019 07f0 00       		.byte	0
 5020 07f1 0C       		.uleb128 0xc
 5021 07f2 4A030000 		.4byte	.LASF226
 5022 07f6 07       		.byte	0x7
 5023 07f7 0C       		.uleb128 0xc
 5024 07f8 A50E0000 		.4byte	.LASF227
 5025 07fc 03       		.byte	0x3
 5026 07fd 00       		.byte	0
 5027 07fe 0B       		.uleb128 0xb
 5028 07ff 01       		.byte	0x1
 5029 0800 37000000 		.4byte	0x37
 5030 0804 07       		.byte	0x7
 5031 0805 2C       		.byte	0x2c
 5032 0806 29080000 		.4byte	0x829
 5033 080a 0C       		.uleb128 0xc
 5034 080b 470B0000 		.4byte	.LASF228
 5035 080f 00       		.byte	0
 5036 0810 0C       		.uleb128 0xc
 5037 0811 97180000 		.4byte	.LASF229
 5038 0815 02       		.byte	0x2
 5039 0816 0C       		.uleb128 0xc
 5040 0817 4F070000 		.4byte	.LASF230
 5041 081b 08       		.byte	0x8
 5042 081c 0C       		.uleb128 0xc
 5043 081d BD100000 		.4byte	.LASF231
 5044 0821 10       		.byte	0x10
 5045 0822 0C       		.uleb128 0xc
 5046 0823 4E130000 		.4byte	.LASF232
 5047 0827 18       		.byte	0x18
 5048 0828 00       		.byte	0
 5049 0829 0B       		.uleb128 0xb
 5050 082a 01       		.byte	0x1
 5051 082b 37000000 		.4byte	0x37
 5052 082f 07       		.byte	0x7
 5053 0830 35       		.byte	0x35
 5054 0831 4E080000 		.4byte	0x84e
 5055 0835 0C       		.uleb128 0xc
 5056 0836 09100000 		.4byte	.LASF233
 5057 083a 00       		.byte	0
 5058 083b 0C       		.uleb128 0xc
 5059 083c 46110000 		.4byte	.LASF234
 5060 0840 07       		.byte	0x7
 5061 0841 0C       		.uleb128 0xc
ARM GAS  C:\Users\r\AppData\Local\Temp\ccbXJ1Li.s 			page 112


 5062 0842 32060000 		.4byte	.LASF235
 5063 0846 0A       		.byte	0xa
 5064 0847 0C       		.uleb128 0xc
 5065 0848 0A020000 		.4byte	.LASF236
 5066 084c 0B       		.byte	0xb
 5067 084d 00       		.byte	0
 5068 084e 0B       		.uleb128 0xb
 5069 084f 01       		.byte	0x1
 5070 0850 37000000 		.4byte	0x37
 5071 0854 07       		.byte	0x7
 5072 0855 3D       		.byte	0x3d
 5073 0856 73080000 		.4byte	0x873
 5074 085a 0C       		.uleb128 0xc
 5075 085b 69050000 		.4byte	.LASF237
 5076 085f 00       		.byte	0
 5077 0860 0C       		.uleb128 0xc
 5078 0861 B0010000 		.4byte	.LASF238
 5079 0865 01       		.byte	0x1
 5080 0866 0C       		.uleb128 0xc
 5081 0867 34030000 		.4byte	.LASF239
 5082 086b 02       		.byte	0x2
 5083 086c 0C       		.uleb128 0xc
 5084 086d CA100000 		.4byte	.LASF240
 5085 0871 03       		.byte	0x3
 5086 0872 00       		.byte	0
 5087 0873 13       		.uleb128 0x13
 5088 0874 02       		.byte	0x2
 5089 0875 07       		.byte	0x7
 5090 0876 4E       		.byte	0x4e
 5091 0877 88080000 		.4byte	0x888
 5092 087b 0E       		.uleb128 0xe
 5093 087c C6110000 		.4byte	.LASF53
 5094 0880 07       		.byte	0x7
 5095 0881 50       		.byte	0x50
 5096 0882 A2000000 		.4byte	0xa2
 5097 0886 00       		.byte	0
 5098 0887 00       		.byte	0
 5099 0888 03       		.uleb128 0x3
 5100 0889 B1030000 		.4byte	.LASF241
 5101 088d 07       		.byte	0x7
 5102 088e 51       		.byte	0x51
 5103 088f 73080000 		.4byte	0x873
 5104 0893 13       		.uleb128 0x13
 5105 0894 18       		.byte	0x18
 5106 0895 07       		.byte	0x7
 5107 0896 53       		.byte	0x53
 5108 0897 F0080000 		.4byte	0x8f0
 5109 089b 0E       		.uleb128 0xe
 5110 089c 76040000 		.4byte	.LASF242
 5111 08a0 07       		.byte	0x7
 5112 08a1 55       		.byte	0x55
 5113 08a2 97000000 		.4byte	0x97
 5114 08a6 00       		.byte	0
 5115 08a7 14       		.uleb128 0x14
 5116 08a8 63666700 		.ascii	"cfg\000"
 5117 08ac 07       		.byte	0x7
 5118 08ad 57       		.byte	0x57
ARM GAS  C:\Users\r\AppData\Local\Temp\ccbXJ1Li.s 			page 113


 5119 08ae F0080000 		.4byte	0x8f0
 5120 08b2 04       		.byte	0x4
 5121 08b3 0E       		.uleb128 0xe
 5122 08b4 EE080000 		.4byte	.LASF243
 5123 08b8 07       		.byte	0x7
 5124 08b9 59       		.byte	0x59
 5125 08ba 88080000 		.4byte	0x888
 5126 08be 08       		.byte	0x8
 5127 08bf 0E       		.uleb128 0xe
 5128 08c0 DD010000 		.4byte	.LASF244
 5129 08c4 07       		.byte	0x7
 5130 08c5 5B       		.byte	0x5b
 5131 08c6 92070000 		.4byte	0x792
 5132 08ca 0A       		.byte	0xa
 5133 08cb 0E       		.uleb128 0xe
 5134 08cc 63190000 		.4byte	.LASF245
 5135 08d0 07       		.byte	0x7
 5136 08d1 5D       		.byte	0x5d
 5137 08d2 CF000000 		.4byte	0xcf
 5138 08d6 0E       		.byte	0xe
 5139 08d7 0E       		.uleb128 0xe
 5140 08d8 75080000 		.4byte	.LASF246
 5141 08dc 07       		.byte	0x7
 5142 08dd 61       		.byte	0x61
 5143 08de 89000000 		.4byte	0x89
 5144 08e2 10       		.byte	0x10
 5145 08e3 0E       		.uleb128 0xe
 5146 08e4 7F040000 		.4byte	.LASF247
 5147 08e8 07       		.byte	0x7
 5148 08e9 62       		.byte	0x62
 5149 08ea 89000000 		.4byte	0x89
 5150 08ee 14       		.byte	0x14
 5151 08ef 00       		.byte	0
 5152 08f0 07       		.uleb128 0x7
 5153 08f1 04       		.byte	0x4
 5154 08f2 F6080000 		.4byte	0x8f6
 5155 08f6 16       		.uleb128 0x16
 5156 08f7 11030000 		.4byte	0x311
 5157 08fb 03       		.uleb128 0x3
 5158 08fc A7120000 		.4byte	.LASF248
 5159 0900 07       		.byte	0x7
 5160 0901 63       		.byte	0x63
 5161 0902 93080000 		.4byte	0x893
 5162 0906 0D       		.uleb128 0xd
 5163 0907 B041     		.2byte	0x41b0
 5164 0909 07       		.byte	0x7
 5165 090a 65       		.byte	0x65
 5166 090b A00A0000 		.4byte	0xaa0
 5167 090f 0E       		.uleb128 0xe
 5168 0910 E9030000 		.4byte	.LASF249
 5169 0914 07       		.byte	0x7
 5170 0915 67       		.byte	0x67
 5171 0916 A00A0000 		.4byte	0xaa0
 5172 091a 00       		.byte	0
 5173 091b 0E       		.uleb128 0xe
 5174 091c 0F0A0000 		.4byte	.LASF250
 5175 0920 07       		.byte	0x7
ARM GAS  C:\Users\r\AppData\Local\Temp\ccbXJ1Li.s 			page 114


 5176 0921 68       		.byte	0x68
 5177 0922 B00A0000 		.4byte	0xab0
 5178 0926 60       		.byte	0x60
 5179 0927 0E       		.uleb128 0xe
 5180 0928 CC160000 		.4byte	.LASF251
 5181 092c 07       		.byte	0x7
 5182 092d 69       		.byte	0x69
 5183 092e 8A030000 		.4byte	0x38a
 5184 0932 64       		.byte	0x64
 5185 0933 0F       		.uleb128 0xf
 5186 0934 23180000 		.4byte	.LASF252
 5187 0938 07       		.byte	0x7
 5188 0939 6E       		.byte	0x6e
 5189 093a 89000000 		.4byte	0x89
 5190 093e 6401     		.2byte	0x164
 5191 0940 0F       		.uleb128 0xf
 5192 0941 97100000 		.4byte	.LASF253
 5193 0945 07       		.byte	0x7
 5194 0946 71       		.byte	0x71
 5195 0947 B60A0000 		.4byte	0xab6
 5196 094b 6801     		.2byte	0x168
 5197 094d 0F       		.uleb128 0xf
 5198 094e 1B180000 		.4byte	.LASF254
 5199 0952 07       		.byte	0x7
 5200 0953 74       		.byte	0x74
 5201 0954 B60A0000 		.4byte	0xab6
 5202 0958 6C01     		.2byte	0x16c
 5203 095a 0F       		.uleb128 0xf
 5204 095b 78050000 		.4byte	.LASF255
 5205 095f 07       		.byte	0x7
 5206 0960 77       		.byte	0x77
 5207 0961 89000000 		.4byte	0x89
 5208 0965 7001     		.2byte	0x170
 5209 0967 0F       		.uleb128 0xf
 5210 0968 56180000 		.4byte	.LASF256
 5211 096c 07       		.byte	0x7
 5212 096d 79       		.byte	0x79
 5213 096e B60A0000 		.4byte	0xab6
 5214 0972 7401     		.2byte	0x174
 5215 0974 0F       		.uleb128 0xf
 5216 0975 55030000 		.4byte	.LASF257
 5217 0979 07       		.byte	0x7
 5218 097a 7B       		.byte	0x7b
 5219 097b 89000000 		.4byte	0x89
 5220 097f 7801     		.2byte	0x178
 5221 0981 0F       		.uleb128 0xf
 5222 0982 71190000 		.4byte	.LASF258
 5223 0986 07       		.byte	0x7
 5224 0987 7D       		.byte	0x7d
 5225 0988 BB0A0000 		.4byte	0xabb
 5226 098c 7C01     		.2byte	0x17c
 5227 098e 0F       		.uleb128 0xf
 5228 098f 060B0000 		.4byte	.LASF259
 5229 0993 07       		.byte	0x7
 5230 0994 7E       		.byte	0x7e
 5231 0995 89000000 		.4byte	0x89
 5232 0999 7C41     		.2byte	0x417c
ARM GAS  C:\Users\r\AppData\Local\Temp\ccbXJ1Li.s 			page 115


 5233 099b 0F       		.uleb128 0xf
 5234 099c A8190000 		.4byte	.LASF260
 5235 09a0 07       		.byte	0x7
 5236 09a1 7F       		.byte	0x7f
 5237 09a2 89000000 		.4byte	0x89
 5238 09a6 8041     		.2byte	0x4180
 5239 09a8 0F       		.uleb128 0xf
 5240 09a9 8F170000 		.4byte	.LASF261
 5241 09ad 07       		.byte	0x7
 5242 09ae 80       		.byte	0x80
 5243 09af 89000000 		.4byte	0x89
 5244 09b3 8441     		.2byte	0x4184
 5245 09b5 10       		.uleb128 0x10
 5246 09b6 63646200 		.ascii	"cdb\000"
 5247 09ba 07       		.byte	0x7
 5248 09bb 82       		.byte	0x82
 5249 09bc CC0A0000 		.4byte	0xacc
 5250 09c0 8841     		.2byte	0x4188
 5251 09c2 0F       		.uleb128 0xf
 5252 09c3 7C070000 		.4byte	.LASF262
 5253 09c7 07       		.byte	0x7
 5254 09c8 83       		.byte	0x83
 5255 09c9 C3000000 		.4byte	0xc3
 5256 09cd 9441     		.2byte	0x4194
 5257 09cf 10       		.uleb128 0x10
 5258 09d0 6C756E00 		.ascii	"lun\000"
 5259 09d4 07       		.byte	0x7
 5260 09d5 84       		.byte	0x84
 5261 09d6 E7000000 		.4byte	0xe7
 5262 09da 9541     		.2byte	0x4195
 5263 09dc 0F       		.uleb128 0xf
 5264 09dd 6B100000 		.4byte	.LASF263
 5265 09e1 07       		.byte	0x7
 5266 09e2 85       		.byte	0x85
 5267 09e3 C3000000 		.4byte	0xc3
 5268 09e7 9641     		.2byte	0x4196
 5269 09e9 0F       		.uleb128 0xf
 5270 09ea DA0D0000 		.4byte	.LASF264
 5271 09ee 07       		.byte	0x7
 5272 09ef 86       		.byte	0x86
 5273 09f0 97000000 		.4byte	0x97
 5274 09f4 9741     		.2byte	0x4197
 5275 09f6 0F       		.uleb128 0xf
 5276 09f7 7B090000 		.4byte	.LASF265
 5277 09fb 07       		.byte	0x7
 5278 09fc 8A       		.byte	0x8a
 5279 09fd 89000000 		.4byte	0x89
 5280 0a01 9841     		.2byte	0x4198
 5281 0a03 0F       		.uleb128 0xf
 5282 0a04 080A0000 		.4byte	.LASF266
 5283 0a08 07       		.byte	0x7
 5284 0a09 8E       		.byte	0x8e
 5285 0a0a C3000000 		.4byte	0xc3
 5286 0a0e 9C41     		.2byte	0x419c
 5287 0a10 0F       		.uleb128 0xf
 5288 0a11 AB030000 		.4byte	.LASF267
 5289 0a15 07       		.byte	0x7
ARM GAS  C:\Users\r\AppData\Local\Temp\ccbXJ1Li.s 			page 116


 5290 0a16 90       		.byte	0x90
 5291 0a17 C3000000 		.4byte	0xc3
 5292 0a1b 9D41     		.2byte	0x419d
 5293 0a1d 0F       		.uleb128 0xf
 5294 0a1e 19150000 		.4byte	.LASF268
 5295 0a22 07       		.byte	0x7
 5296 0a23 91       		.byte	0x91
 5297 0a24 C3000000 		.4byte	0xc3
 5298 0a28 9E41     		.2byte	0x419e
 5299 0a2a 0F       		.uleb128 0xf
 5300 0a2b 5B100000 		.4byte	.LASF269
 5301 0a2f 07       		.byte	0x7
 5302 0a30 93       		.byte	0x93
 5303 0a31 19010000 		.4byte	0x119
 5304 0a35 A041     		.2byte	0x41a0
 5305 0a37 0F       		.uleb128 0xf
 5306 0a38 D20A0000 		.4byte	.LASF270
 5307 0a3c 07       		.byte	0x7
 5308 0a3d 95       		.byte	0x95
 5309 0a3e C3000000 		.4byte	0xc3
 5310 0a42 A441     		.2byte	0x41a4
 5311 0a44 0F       		.uleb128 0xf
 5312 0a45 DB0A0000 		.4byte	.LASF271
 5313 0a49 07       		.byte	0x7
 5314 0a4a 96       		.byte	0x96
 5315 0a4b C3000000 		.4byte	0xc3
 5316 0a4f A541     		.2byte	0x41a5
 5317 0a51 0F       		.uleb128 0xf
 5318 0a52 87090000 		.4byte	.LASF272
 5319 0a56 07       		.byte	0x7
 5320 0a57 97       		.byte	0x97
 5321 0a58 C3000000 		.4byte	0xc3
 5322 0a5c A641     		.2byte	0x41a6
 5323 0a5e 0F       		.uleb128 0xf
 5324 0a5f 12180000 		.4byte	.LASF273
 5325 0a63 07       		.byte	0x7
 5326 0a64 98       		.byte	0x98
 5327 0a65 C3000000 		.4byte	0xc3
 5328 0a69 A741     		.2byte	0x41a7
 5329 0a6b 0F       		.uleb128 0xf
 5330 0a6c 700F0000 		.4byte	.LASF274
 5331 0a70 07       		.byte	0x7
 5332 0a71 99       		.byte	0x99
 5333 0a72 C3000000 		.4byte	0xc3
 5334 0a76 A841     		.2byte	0x41a8
 5335 0a78 0F       		.uleb128 0xf
 5336 0a79 940F0000 		.4byte	.LASF275
 5337 0a7d 07       		.byte	0x7
 5338 0a7e 9A       		.byte	0x9a
 5339 0a7f C3000000 		.4byte	0xc3
 5340 0a83 A941     		.2byte	0x41a9
 5341 0a85 0F       		.uleb128 0xf
 5342 0a86 F6080000 		.4byte	.LASF276
 5343 0a8a 07       		.byte	0x7
 5344 0a8b 9B       		.byte	0x9b
 5345 0a8c C3000000 		.4byte	0xc3
 5346 0a90 AA41     		.2byte	0x41aa
ARM GAS  C:\Users\r\AppData\Local\Temp\ccbXJ1Li.s 			page 117


 5347 0a92 0F       		.uleb128 0xf
 5348 0a93 D7100000 		.4byte	.LASF277
 5349 0a97 07       		.byte	0x7
 5350 0a98 9C       		.byte	0x9c
 5351 0a99 A2000000 		.4byte	0xa2
 5352 0a9d AC41     		.2byte	0x41ac
 5353 0a9f 00       		.byte	0
 5354 0aa0 09       		.uleb128 0x9
 5355 0aa1 FB080000 		.4byte	0x8fb
 5356 0aa5 B00A0000 		.4byte	0xab0
 5357 0aa9 0A       		.uleb128 0xa
 5358 0aaa 27010000 		.4byte	0x127
 5359 0aae 03       		.byte	0x3
 5360 0aaf 00       		.byte	0
 5361 0ab0 07       		.uleb128 0x7
 5362 0ab1 04       		.byte	0x4
 5363 0ab2 FB080000 		.4byte	0x8fb
 5364 0ab6 06       		.uleb128 0x6
 5365 0ab7 89000000 		.4byte	0x89
 5366 0abb 09       		.uleb128 0x9
 5367 0abc C3000000 		.4byte	0xc3
 5368 0ac0 CC0A0000 		.4byte	0xacc
 5369 0ac4 11       		.uleb128 0x11
 5370 0ac5 27010000 		.4byte	0x127
 5371 0ac9 FF3F     		.2byte	0x3fff
 5372 0acb 00       		.byte	0
 5373 0acc 09       		.uleb128 0x9
 5374 0acd C3000000 		.4byte	0xc3
 5375 0ad1 DC0A0000 		.4byte	0xadc
 5376 0ad5 0A       		.uleb128 0xa
 5377 0ad6 27010000 		.4byte	0x127
 5378 0ada 0B       		.byte	0xb
 5379 0adb 00       		.byte	0
 5380 0adc 03       		.uleb128 0x3
 5381 0add 6E170000 		.4byte	.LASF278
 5382 0ae1 07       		.byte	0x7
 5383 0ae2 9D       		.byte	0x9d
 5384 0ae3 06090000 		.4byte	0x906
 5385 0ae7 17       		.uleb128 0x17
 5386 0ae8 AE100000 		.4byte	.LASF338
 5387 0aec 01       		.byte	0x1
 5388 0aed 37000000 		.4byte	0x37
 5389 0af1 0B       		.byte	0xb
 5390 0af2 3E       		.byte	0x3e
 5391 0af3 160B0000 		.4byte	0xb16
 5392 0af7 0C       		.uleb128 0xc
 5393 0af8 CC0D0000 		.4byte	.LASF279
 5394 0afc 01       		.byte	0x1
 5395 0afd 0C       		.uleb128 0xc
 5396 0afe B3120000 		.4byte	.LASF280
 5397 0b02 02       		.byte	0x2
 5398 0b03 0C       		.uleb128 0xc
 5399 0b04 2E160000 		.4byte	.LASF281
 5400 0b08 04       		.byte	0x4
 5401 0b09 0C       		.uleb128 0xc
 5402 0b0a E2170000 		.4byte	.LASF282
 5403 0b0e 08       		.byte	0x8
ARM GAS  C:\Users\r\AppData\Local\Temp\ccbXJ1Li.s 			page 118


 5404 0b0f 0C       		.uleb128 0xc
 5405 0b10 22190000 		.4byte	.LASF283
 5406 0b14 10       		.byte	0x10
 5407 0b15 00       		.byte	0
 5408 0b16 13       		.uleb128 0x13
 5409 0b17 10       		.byte	0x10
 5410 0b18 08       		.byte	0x8
 5411 0b19 27       		.byte	0x27
 5412 0b1a 4F0B0000 		.4byte	0xb4f
 5413 0b1e 0E       		.uleb128 0xe
 5414 0b1f B10E0000 		.4byte	.LASF284
 5415 0b23 08       		.byte	0x8
 5416 0b24 29       		.byte	0x29
 5417 0b25 89000000 		.4byte	0x89
 5418 0b29 00       		.byte	0
 5419 0b2a 14       		.uleb128 0x14
 5420 0b2b 6C626100 		.ascii	"lba\000"
 5421 0b2f 08       		.byte	0x8
 5422 0b30 2A       		.byte	0x2a
 5423 0b31 DB000000 		.4byte	0xdb
 5424 0b35 04       		.byte	0x4
 5425 0b36 0E       		.uleb128 0xe
 5426 0b37 47170000 		.4byte	.LASF285
 5427 0b3b 08       		.byte	0x8
 5428 0b3c 2B       		.byte	0x2b
 5429 0b3d DB000000 		.4byte	0xdb
 5430 0b41 08       		.byte	0x8
 5431 0b42 0E       		.uleb128 0xe
 5432 0b43 CD150000 		.4byte	.LASF286
 5433 0b47 08       		.byte	0x8
 5434 0b48 2D       		.byte	0x2d
 5435 0b49 DB000000 		.4byte	0xdb
 5436 0b4d 0C       		.byte	0xc
 5437 0b4e 00       		.byte	0
 5438 0b4f 03       		.uleb128 0x3
 5439 0b50 45160000 		.4byte	.LASF287
 5440 0b54 08       		.byte	0x8
 5441 0b55 2E       		.byte	0x2e
 5442 0b56 160B0000 		.4byte	0xb16
 5443 0b5a 18       		.uleb128 0x18
 5444 0b5b 820C0000 		.4byte	.LASF320
 5445 0b5f 01       		.byte	0x1
 5446 0b60 34       		.byte	0x34
 5447 0b61 00000000 		.4byte	.LFB64
 5448 0b65 74000000 		.4byte	.LFE64-.LFB64
 5449 0b69 01       		.uleb128 0x1
 5450 0b6a 9C       		.byte	0x9c
 5451 0b6b 19       		.uleb128 0x19
 5452 0b6c 9B030000 		.4byte	.LASF290
 5453 0b70 01       		.byte	0x1
 5454 0b71 50       		.byte	0x50
 5455 0b72 00000000 		.4byte	.LFB65
 5456 0b76 2C000000 		.4byte	.LFE65-.LFB65
 5457 0b7a 01       		.uleb128 0x1
 5458 0b7b 9C       		.byte	0x9c
 5459 0b7c 8F0B0000 		.4byte	0xb8f
 5460 0b80 1A       		.uleb128 0x1a
ARM GAS  C:\Users\r\AppData\Local\Temp\ccbXJ1Li.s 			page 119


 5461 0b81 4E180000 		.4byte	.LASF288
 5462 0b85 01       		.byte	0x1
 5463 0b86 50       		.byte	0x50
 5464 0b87 C3000000 		.4byte	0xc3
 5465 0b8b 02       		.uleb128 0x2
 5466 0b8c 91       		.byte	0x91
 5467 0b8d 77       		.sleb128 -9
 5468 0b8e 00       		.byte	0
 5469 0b8f 1B       		.uleb128 0x1b
 5470 0b90 EF020000 		.4byte	.LASF325
 5471 0b94 01       		.byte	0x1
 5472 0b95 56       		.byte	0x56
 5473 0b96 89000000 		.4byte	0x89
 5474 0b9a 00000000 		.4byte	.LFB66
 5475 0b9e C0000000 		.4byte	.LFE66-.LFB66
 5476 0ba2 01       		.uleb128 0x1
 5477 0ba3 9C       		.byte	0x9c
 5478 0ba4 B70B0000 		.4byte	0xbb7
 5479 0ba8 1A       		.uleb128 0x1a
 5480 0ba9 900C0000 		.4byte	.LASF289
 5481 0bad 01       		.byte	0x1
 5482 0bae 56       		.byte	0x56
 5483 0baf 89000000 		.4byte	0x89
 5484 0bb3 02       		.uleb128 0x2
 5485 0bb4 91       		.byte	0x91
 5486 0bb5 74       		.sleb128 -12
 5487 0bb6 00       		.byte	0
 5488 0bb7 1C       		.uleb128 0x1c
 5489 0bb8 0B010000 		.4byte	.LASF339
 5490 0bbc 01       		.byte	0x1
 5491 0bbd 7B       		.byte	0x7b
 5492 0bbe 00000000 		.4byte	.LFB67
 5493 0bc2 14000000 		.4byte	.LFE67-.LFB67
 5494 0bc6 01       		.uleb128 0x1
 5495 0bc7 9C       		.byte	0x9c
 5496 0bc8 19       		.uleb128 0x19
 5497 0bc9 82170000 		.4byte	.LASF291
 5498 0bcd 01       		.byte	0x1
 5499 0bce 81       		.byte	0x81
 5500 0bcf 00000000 		.4byte	.LFB68
 5501 0bd3 60000000 		.4byte	.LFE68-.LFB68
 5502 0bd7 01       		.uleb128 0x1
 5503 0bd8 9C       		.byte	0x9c
 5504 0bd9 EC0B0000 		.4byte	0xbec
 5505 0bdd 1A       		.uleb128 0x1a
 5506 0bde 080A0000 		.4byte	.LASF266
 5507 0be2 01       		.byte	0x1
 5508 0be3 81       		.byte	0x81
 5509 0be4 C3000000 		.4byte	0xc3
 5510 0be8 02       		.uleb128 0x2
 5511 0be9 91       		.byte	0x91
 5512 0bea 77       		.sleb128 -9
 5513 0beb 00       		.byte	0
 5514 0bec 1D       		.uleb128 0x1d
 5515 0bed 8F120000 		.4byte	.LASF322
 5516 0bf1 01       		.byte	0x1
 5517 0bf2 8B       		.byte	0x8b
ARM GAS  C:\Users\r\AppData\Local\Temp\ccbXJ1Li.s 			page 120


 5518 0bf3 00000000 		.4byte	.LFB69
 5519 0bf7 94010000 		.4byte	.LFE69-.LFB69
 5520 0bfb 01       		.uleb128 0x1
 5521 0bfc 9C       		.byte	0x9c
 5522 0bfd 1E0C0000 		.4byte	0xc1e
 5523 0c01 1E       		.uleb128 0x1e
 5524 0c02 4E180000 		.4byte	.LASF288
 5525 0c06 01       		.byte	0x1
 5526 0c07 8F       		.byte	0x8f
 5527 0c08 C3000000 		.4byte	0xc3
 5528 0c0c 02       		.uleb128 0x2
 5529 0c0d 91       		.byte	0x91
 5530 0c0e 77       		.sleb128 -9
 5531 0c0f 1E       		.uleb128 0x1e
 5532 0c10 4E060000 		.4byte	.LASF292
 5533 0c14 01       		.byte	0x1
 5534 0c15 91       		.byte	0x91
 5535 0c16 C3000000 		.4byte	0xc3
 5536 0c1a 02       		.uleb128 0x2
 5537 0c1b 91       		.byte	0x91
 5538 0c1c 76       		.sleb128 -10
 5539 0c1d 00       		.byte	0
 5540 0c1e 19       		.uleb128 0x19
 5541 0c1f A1100000 		.4byte	.LASF293
 5542 0c23 01       		.byte	0x1
 5543 0c24 D5       		.byte	0xd5
 5544 0c25 00000000 		.4byte	.LFB70
 5545 0c29 2C000000 		.4byte	.LFE70-.LFB70
 5546 0c2d 01       		.uleb128 0x1
 5547 0c2e 9C       		.byte	0x9c
 5548 0c2f 420C0000 		.4byte	0xc42
 5549 0c33 1F       		.uleb128 0x1f
 5550 0c34 6C656E00 		.ascii	"len\000"
 5551 0c38 01       		.byte	0x1
 5552 0c39 D5       		.byte	0xd5
 5553 0c3a 89000000 		.4byte	0x89
 5554 0c3e 02       		.uleb128 0x2
 5555 0c3f 91       		.byte	0x91
 5556 0c40 74       		.sleb128 -12
 5557 0c41 00       		.byte	0
 5558 0c42 20       		.uleb128 0x20
 5559 0c43 F1180000 		.4byte	.LASF294
 5560 0c47 01       		.byte	0x1
 5561 0c48 DB       		.byte	0xdb
 5562 0c49 00000000 		.4byte	.LFB71
 5563 0c4d BC000000 		.4byte	.LFE71-.LFB71
 5564 0c51 01       		.uleb128 0x1
 5565 0c52 9C       		.byte	0x9c
 5566 0c53 660C0000 		.4byte	0xc66
 5567 0c57 21       		.uleb128 0x21
 5568 0c58 6C656E00 		.ascii	"len\000"
 5569 0c5c 01       		.byte	0x1
 5570 0c5d DD       		.byte	0xdd
 5571 0c5e DB000000 		.4byte	0xdb
 5572 0c62 02       		.uleb128 0x2
 5573 0c63 91       		.byte	0x91
 5574 0c64 74       		.sleb128 -12
ARM GAS  C:\Users\r\AppData\Local\Temp\ccbXJ1Li.s 			page 121


 5575 0c65 00       		.byte	0
 5576 0c66 20       		.uleb128 0x20
 5577 0c67 00000000 		.4byte	.LASF295
 5578 0c6b 01       		.byte	0x1
 5579 0c6c F3       		.byte	0xf3
 5580 0c6d 00000000 		.4byte	.LFB72
 5581 0c71 1C010000 		.4byte	.LFE72-.LFB72
 5582 0c75 01       		.uleb128 0x1
 5583 0c76 9C       		.byte	0x9c
 5584 0c77 8A0C0000 		.4byte	0xc8a
 5585 0c7b 21       		.uleb128 0x21
 5586 0c7c 6C656E00 		.ascii	"len\000"
 5587 0c80 01       		.byte	0x1
 5588 0c81 F5       		.byte	0xf5
 5589 0c82 DB000000 		.4byte	0xdb
 5590 0c86 02       		.uleb128 0x2
 5591 0c87 91       		.byte	0x91
 5592 0c88 74       		.sleb128 -12
 5593 0c89 00       		.byte	0
 5594 0c8a 22       		.uleb128 0x22
 5595 0c8b 89130000 		.4byte	.LASF296
 5596 0c8f 01       		.byte	0x1
 5597 0c90 1E01     		.2byte	0x11e
 5598 0c92 00000000 		.4byte	.LFB73
 5599 0c96 0C050000 		.4byte	.LFE73-.LFB73
 5600 0c9a 01       		.uleb128 0x1
 5601 0c9b 9C       		.byte	0x9c
 5602 0c9c 130D0000 		.4byte	0xd13
 5603 0ca0 23       		.uleb128 0x23
 5604 0ca1 0E0B0000 		.4byte	.LASF297
 5605 0ca5 01       		.byte	0x1
 5606 0ca6 2001     		.2byte	0x120
 5607 0ca8 89000000 		.4byte	0x89
 5608 0cac 02       		.uleb128 0x2
 5609 0cad 91       		.byte	0x91
 5610 0cae 6C       		.sleb128 -20
 5611 0caf 23       		.uleb128 0x23
 5612 0cb0 87120000 		.4byte	.LASF298
 5613 0cb4 01       		.byte	0x1
 5614 0cb5 2101     		.2byte	0x121
 5615 0cb7 C3000000 		.4byte	0xc3
 5616 0cbb 02       		.uleb128 0x2
 5617 0cbc 91       		.byte	0x91
 5618 0cbd 6B       		.sleb128 -21
 5619 0cbe 23       		.uleb128 0x23
 5620 0cbf 4E060000 		.4byte	.LASF292
 5621 0cc3 01       		.byte	0x1
 5622 0cc4 2201     		.2byte	0x122
 5623 0cc6 C3000000 		.4byte	0xc3
 5624 0cca 02       		.uleb128 0x2
 5625 0ccb 91       		.byte	0x91
 5626 0ccc 6A       		.sleb128 -22
 5627 0ccd 24       		.uleb128 0x24
 5628 0cce 63666700 		.ascii	"cfg\000"
 5629 0cd2 01       		.byte	0x1
 5630 0cd3 5101     		.2byte	0x151
 5631 0cd5 F0080000 		.4byte	0x8f0
ARM GAS  C:\Users\r\AppData\Local\Temp\ccbXJ1Li.s 			page 122


 5632 0cd9 02       		.uleb128 0x2
 5633 0cda 91       		.byte	0x91
 5634 0cdb 64       		.sleb128 -28
 5635 0cdc 25       		.uleb128 0x25
 5636 0cdd D4000000 		.4byte	.LBB2
 5637 0ce1 54000000 		.4byte	.LBE2-.LBB2
 5638 0ce5 F90C0000 		.4byte	0xcf9
 5639 0ce9 23       		.uleb128 0x23
 5640 0cea 09180000 		.4byte	.LASF299
 5641 0cee 01       		.byte	0x1
 5642 0cef 4101     		.2byte	0x141
 5643 0cf1 89000000 		.4byte	0x89
 5644 0cf5 02       		.uleb128 0x2
 5645 0cf6 91       		.byte	0x91
 5646 0cf7 74       		.sleb128 -12
 5647 0cf8 00       		.byte	0
 5648 0cf9 26       		.uleb128 0x26
 5649 0cfa 34020000 		.4byte	.LBB3
 5650 0cfe 5E010000 		.4byte	.LBE3-.LBB3
 5651 0d02 23       		.uleb128 0x23
 5652 0d03 E5180000 		.4byte	.LASF300
 5653 0d07 01       		.byte	0x1
 5654 0d08 7201     		.2byte	0x172
 5655 0d0a DB000000 		.4byte	0xdb
 5656 0d0e 02       		.uleb128 0x2
 5657 0d0f 91       		.byte	0x91
 5658 0d10 70       		.sleb128 -16
 5659 0d11 00       		.byte	0
 5660 0d12 00       		.byte	0
 5661 0d13 22       		.uleb128 0x22
 5662 0d14 C1120000 		.4byte	.LASF301
 5663 0d18 01       		.byte	0x1
 5664 0d19 F301     		.2byte	0x1f3
 5665 0d1b 00000000 		.4byte	.LFB74
 5666 0d1f 38010000 		.4byte	.LFE74-.LFB74
 5667 0d23 01       		.uleb128 0x1
 5668 0d24 9C       		.byte	0x9c
 5669 0d25 750D0000 		.4byte	0xd75
 5670 0d29 23       		.uleb128 0x23
 5671 0d2a BB150000 		.4byte	.LASF302
 5672 0d2e 01       		.byte	0x1
 5673 0d2f F501     		.2byte	0x1f5
 5674 0d31 89000000 		.4byte	0x89
 5675 0d35 02       		.uleb128 0x2
 5676 0d36 91       		.byte	0x91
 5677 0d37 74       		.sleb128 -12
 5678 0d38 23       		.uleb128 0x23
 5679 0d39 46070000 		.4byte	.LASF303
 5680 0d3d 01       		.byte	0x1
 5681 0d3e F601     		.2byte	0x1f6
 5682 0d40 89000000 		.4byte	0x89
 5683 0d44 02       		.uleb128 0x2
 5684 0d45 91       		.byte	0x91
 5685 0d46 70       		.sleb128 -16
 5686 0d47 23       		.uleb128 0x23
 5687 0d48 47090000 		.4byte	.LASF304
 5688 0d4c 01       		.byte	0x1
ARM GAS  C:\Users\r\AppData\Local\Temp\ccbXJ1Li.s 			page 123


 5689 0d4d F701     		.2byte	0x1f7
 5690 0d4f 89000000 		.4byte	0x89
 5691 0d53 02       		.uleb128 0x2
 5692 0d54 91       		.byte	0x91
 5693 0d55 6C       		.sleb128 -20
 5694 0d56 23       		.uleb128 0x23
 5695 0d57 87120000 		.4byte	.LASF298
 5696 0d5b 01       		.byte	0x1
 5697 0d5c F801     		.2byte	0x1f8
 5698 0d5e C3000000 		.4byte	0xc3
 5699 0d62 02       		.uleb128 0x2
 5700 0d63 91       		.byte	0x91
 5701 0d64 6B       		.sleb128 -21
 5702 0d65 23       		.uleb128 0x23
 5703 0d66 27060000 		.4byte	.LASF305
 5704 0d6a 01       		.byte	0x1
 5705 0d6b FA01     		.2byte	0x1fa
 5706 0d6d 89000000 		.4byte	0x89
 5707 0d71 02       		.uleb128 0x2
 5708 0d72 91       		.byte	0x91
 5709 0d73 64       		.sleb128 -28
 5710 0d74 00       		.byte	0
 5711 0d75 27       		.uleb128 0x27
 5712 0d76 24160000 		.4byte	.LASF314
 5713 0d7a 01       		.byte	0x1
 5714 0d7b 2A02     		.2byte	0x22a
 5715 0d7d 00000000 		.4byte	.LFB75
 5716 0d81 FC000000 		.4byte	.LFE75-.LFB75
 5717 0d85 01       		.uleb128 0x1
 5718 0d86 9C       		.byte	0x9c
 5719 0d87 9B0D0000 		.4byte	0xd9b
 5720 0d8b 23       		.uleb128 0x23
 5721 0d8c C9130000 		.4byte	.LASF306
 5722 0d90 01       		.byte	0x1
 5723 0d91 5402     		.2byte	0x254
 5724 0d93 B8000000 		.4byte	0xb8
 5725 0d97 02       		.uleb128 0x2
 5726 0d98 91       		.byte	0x91
 5727 0d99 74       		.sleb128 -12
 5728 0d9a 00       		.byte	0
 5729 0d9b 28       		.uleb128 0x28
 5730 0d9c 2A150000 		.4byte	.LASF340
 5731 0da0 01       		.byte	0x1
 5732 0da1 5E02     		.2byte	0x25e
 5733 0da3 00000000 		.4byte	.LFB76
 5734 0da7 A0000000 		.4byte	.LFE76-.LFB76
 5735 0dab 01       		.uleb128 0x1
 5736 0dac 9C       		.byte	0x9c
 5737 0dad 22       		.uleb128 0x22
 5738 0dae 46050000 		.4byte	.LASF307
 5739 0db2 01       		.byte	0x1
 5740 0db3 7502     		.2byte	0x275
 5741 0db5 00000000 		.4byte	.LFB77
 5742 0db9 9C030000 		.4byte	.LFE77-.LFB77
 5743 0dbd 01       		.uleb128 0x1
 5744 0dbe 9C       		.byte	0x9c
 5745 0dbf 980E0000 		.4byte	0xe98
ARM GAS  C:\Users\r\AppData\Local\Temp\ccbXJ1Li.s 			page 124


 5746 0dc3 23       		.uleb128 0x23
 5747 0dc4 010E0000 		.4byte	.LASF308
 5748 0dc8 01       		.byte	0x1
 5749 0dc9 8C02     		.2byte	0x28c
 5750 0dcb 89000000 		.4byte	0x89
 5751 0dcf 02       		.uleb128 0x2
 5752 0dd0 91       		.byte	0x91
 5753 0dd1 68       		.sleb128 -24
 5754 0dd2 24       		.uleb128 0x24
 5755 0dd3 73656C00 		.ascii	"sel\000"
 5756 0dd7 01       		.byte	0x1
 5757 0dd8 8D02     		.2byte	0x28d
 5758 0dda 89000000 		.4byte	0x89
 5759 0dde 02       		.uleb128 0x2
 5760 0ddf 91       		.byte	0x91
 5761 0de0 64       		.sleb128 -28
 5762 0de1 24       		.uleb128 0x24
 5763 0de2 62737900 		.ascii	"bsy\000"
 5764 0de6 01       		.byte	0x1
 5765 0de7 8F02     		.2byte	0x28f
 5766 0de9 89000000 		.4byte	0x89
 5767 0ded 02       		.uleb128 0x2
 5768 0dee 91       		.byte	0x91
 5769 0def 60       		.sleb128 -32
 5770 0df0 24       		.uleb128 0x24
 5771 0df1 696F00   		.ascii	"io\000"
 5772 0df4 01       		.byte	0x1
 5773 0df5 9102     		.2byte	0x291
 5774 0df7 89000000 		.4byte	0x89
 5775 0dfb 02       		.uleb128 0x2
 5776 0dfc 91       		.byte	0x91
 5777 0dfd 5C       		.sleb128 -36
 5778 0dfe 23       		.uleb128 0x23
 5779 0dff 8B0D0000 		.4byte	.LASF309
 5780 0e03 01       		.byte	0x1
 5781 0e04 9802     		.2byte	0x298
 5782 0e06 C3000000 		.4byte	0xc3
 5783 0e0a 02       		.uleb128 0x2
 5784 0e0b 91       		.byte	0x91
 5785 0e0c 5B       		.sleb128 -37
 5786 0e0d 23       		.uleb128 0x23
 5787 0e0e F6130000 		.4byte	.LASF310
 5788 0e12 01       		.byte	0x1
 5789 0e13 9902     		.2byte	0x299
 5790 0e15 89000000 		.4byte	0x89
 5791 0e19 02       		.uleb128 0x2
 5792 0e1a 91       		.byte	0x91
 5793 0e1b 54       		.sleb128 -44
 5794 0e1c 23       		.uleb128 0x23
 5795 0e1d DB000000 		.4byte	.LASF311
 5796 0e21 01       		.byte	0x1
 5797 0e22 9A02     		.2byte	0x29a
 5798 0e24 89000000 		.4byte	0x89
 5799 0e28 02       		.uleb128 0x2
 5800 0e29 91       		.byte	0x91
 5801 0e2a 50       		.sleb128 -48
 5802 0e2b 23       		.uleb128 0x23
ARM GAS  C:\Users\r\AppData\Local\Temp\ccbXJ1Li.s 			page 125


 5803 0e2c 23180000 		.4byte	.LASF252
 5804 0e30 01       		.byte	0x1
 5805 0e31 9B02     		.2byte	0x29b
 5806 0e33 89000000 		.4byte	0x89
 5807 0e37 02       		.uleb128 0x2
 5808 0e38 91       		.byte	0x91
 5809 0e39 4C       		.sleb128 -52
 5810 0e3a 23       		.uleb128 0x23
 5811 0e3b 09180000 		.4byte	.LASF299
 5812 0e3f 01       		.byte	0x1
 5813 0e40 9D02     		.2byte	0x29d
 5814 0e42 89000000 		.4byte	0x89
 5815 0e46 02       		.uleb128 0x2
 5816 0e47 91       		.byte	0x91
 5817 0e48 74       		.sleb128 -12
 5818 0e49 23       		.uleb128 0x23
 5819 0e4a 0F0A0000 		.4byte	.LASF250
 5820 0e4e 01       		.byte	0x1
 5821 0e4f 9E02     		.2byte	0x29e
 5822 0e51 B00A0000 		.4byte	0xab0
 5823 0e55 02       		.uleb128 0x2
 5824 0e56 91       		.byte	0x91
 5825 0e57 70       		.sleb128 -16
 5826 0e58 26       		.uleb128 0x26
 5827 0e59 12020000 		.4byte	.LBB4
 5828 0e5d 5E010000 		.4byte	.LBE4-.LBB4
 5829 0e61 23       		.uleb128 0x23
 5830 0e62 96060000 		.4byte	.LASF312
 5831 0e66 01       		.byte	0x1
 5832 0e67 E902     		.2byte	0x2e9
 5833 0e69 B8000000 		.4byte	0xb8
 5834 0e6d 02       		.uleb128 0x2
 5835 0e6e 91       		.byte	0x91
 5836 0e6f 44       		.sleb128 -60
 5837 0e70 26       		.uleb128 0x26
 5838 0e71 92020000 		.4byte	.LBB5
 5839 0e75 68000000 		.4byte	.LBE5-.LBB5
 5840 0e79 24       		.uleb128 0x24
 5841 0e7a 6900     		.ascii	"i\000"
 5842 0e7c 01       		.byte	0x1
 5843 0e7d DB02     		.2byte	0x2db
 5844 0e7f 89000000 		.4byte	0x89
 5845 0e83 02       		.uleb128 0x2
 5846 0e84 91       		.byte	0x91
 5847 0e85 6C       		.sleb128 -20
 5848 0e86 23       		.uleb128 0x23
 5849 0e87 4E160000 		.4byte	.LASF313
 5850 0e8b 01       		.byte	0x1
 5851 0e8c DC02     		.2byte	0x2dc
 5852 0e8e 97000000 		.4byte	0x97
 5853 0e92 02       		.uleb128 0x2
 5854 0e93 91       		.byte	0x91
 5855 0e94 4B       		.sleb128 -53
 5856 0e95 00       		.byte	0
 5857 0e96 00       		.byte	0
 5858 0e97 00       		.byte	0
 5859 0e98 27       		.uleb128 0x27
ARM GAS  C:\Users\r\AppData\Local\Temp\ccbXJ1Li.s 			page 126


 5860 0e99 97170000 		.4byte	.LASF315
 5861 0e9d 01       		.byte	0x1
 5862 0e9e 0903     		.2byte	0x309
 5863 0ea0 00000000 		.4byte	.LFB78
 5864 0ea4 18030000 		.4byte	.LFE78-.LFB78
 5865 0ea8 01       		.uleb128 0x1
 5866 0ea9 9C       		.byte	0x9c
 5867 0eaa 210F0000 		.4byte	0xf21
 5868 0eae 26       		.uleb128 0x26
 5869 0eaf 3C020000 		.4byte	.LBB6
 5870 0eb3 9C000000 		.4byte	.LBE6-.LBB6
 5871 0eb7 24       		.uleb128 0x24
 5872 0eb8 6900     		.ascii	"i\000"
 5873 0eba 01       		.byte	0x1
 5874 0ebb 7503     		.2byte	0x375
 5875 0ebd 89000000 		.4byte	0x89
 5876 0ec1 02       		.uleb128 0x2
 5877 0ec2 91       		.byte	0x91
 5878 0ec3 74       		.sleb128 -12
 5879 0ec4 23       		.uleb128 0x23
 5880 0ec5 B1110000 		.4byte	.LASF316
 5881 0ec9 01       		.byte	0x1
 5882 0eca 7803     		.2byte	0x378
 5883 0ecc 89000000 		.4byte	0x89
 5884 0ed0 02       		.uleb128 0x2
 5885 0ed1 91       		.byte	0x91
 5886 0ed2 70       		.sleb128 -16
 5887 0ed3 23       		.uleb128 0x23
 5888 0ed4 10000000 		.4byte	.LASF317
 5889 0ed8 01       		.byte	0x1
 5890 0ed9 7A03     		.2byte	0x37a
 5891 0edb 210F0000 		.4byte	0xf21
 5892 0edf 03       		.uleb128 0x3
 5893 0ee0 91       		.byte	0x91
 5894 0ee1 F07D     		.sleb128 -272
 5895 0ee3 25       		.uleb128 0x25
 5896 0ee4 A2020000 		.4byte	.LBB7
 5897 0ee8 0E000000 		.4byte	.LBE7-.LBB7
 5898 0eec 030F0000 		.4byte	0xf03
 5899 0ef0 23       		.uleb128 0x23
 5900 0ef1 54070000 		.4byte	.LASF318
 5901 0ef5 01       		.byte	0x1
 5902 0ef6 8503     		.2byte	0x385
 5903 0ef8 460F0000 		.4byte	0xf46
 5904 0efc 05       		.uleb128 0x5
 5905 0efd 03       		.byte	0x3
 5906 0efe 08000000 		.4byte	WDTR.7238
 5907 0f02 00       		.byte	0
 5908 0f03 26       		.uleb128 0x26
 5909 0f04 C2020000 		.4byte	.LBB8
 5910 0f08 0E000000 		.4byte	.LBE8-.LBB8
 5911 0f0c 23       		.uleb128 0x23
 5912 0f0d 6B160000 		.4byte	.LASF319
 5913 0f11 01       		.byte	0x1
 5914 0f12 8C03     		.2byte	0x38c
 5915 0f14 5B0F0000 		.4byte	0xf5b
 5916 0f18 05       		.uleb128 0x5
ARM GAS  C:\Users\r\AppData\Local\Temp\ccbXJ1Li.s 			page 127


 5917 0f19 03       		.byte	0x3
 5918 0f1a 0C000000 		.4byte	SDTR.7239
 5919 0f1e 00       		.byte	0
 5920 0f1f 00       		.byte	0
 5921 0f20 00       		.byte	0
 5922 0f21 09       		.uleb128 0x9
 5923 0f22 97000000 		.4byte	0x97
 5924 0f26 310F0000 		.4byte	0xf31
 5925 0f2a 0A       		.uleb128 0xa
 5926 0f2b 27010000 		.4byte	0x127
 5927 0f2f FF       		.byte	0xff
 5928 0f30 00       		.byte	0
 5929 0f31 09       		.uleb128 0x9
 5930 0f32 410F0000 		.4byte	0xf41
 5931 0f36 410F0000 		.4byte	0xf41
 5932 0f3a 0A       		.uleb128 0xa
 5933 0f3b 27010000 		.4byte	0x127
 5934 0f3f 03       		.byte	0x3
 5935 0f40 00       		.byte	0
 5936 0f41 16       		.uleb128 0x16
 5937 0f42 97000000 		.4byte	0x97
 5938 0f46 16       		.uleb128 0x16
 5939 0f47 310F0000 		.4byte	0xf31
 5940 0f4b 09       		.uleb128 0x9
 5941 0f4c 410F0000 		.4byte	0xf41
 5942 0f50 5B0F0000 		.4byte	0xf5b
 5943 0f54 0A       		.uleb128 0xa
 5944 0f55 27010000 		.4byte	0x127
 5945 0f59 04       		.byte	0x4
 5946 0f5a 00       		.byte	0
 5947 0f5b 16       		.uleb128 0x16
 5948 0f5c 4B0F0000 		.4byte	0xf4b
 5949 0f60 29       		.uleb128 0x29
 5950 0f61 E10B0000 		.4byte	.LASF321
 5951 0f65 01       		.byte	0x1
 5952 0f66 9E03     		.2byte	0x39e
 5953 0f68 00000000 		.4byte	.LFB79
 5954 0f6c 18020000 		.4byte	.LFE79-.LFB79
 5955 0f70 01       		.uleb128 0x1
 5956 0f71 9C       		.byte	0x9c
 5957 0f72 2A       		.uleb128 0x2a
 5958 0f73 97010000 		.4byte	.LASF323
 5959 0f77 01       		.byte	0x1
 5960 0f78 1904     		.2byte	0x419
 5961 0f7a 00000000 		.4byte	.LFB80
 5962 0f7e 50010000 		.4byte	.LFE80-.LFB80
 5963 0f82 01       		.uleb128 0x1
 5964 0f83 9C       		.byte	0x9c
 5965 0f84 AF0F0000 		.4byte	0xfaf
 5966 0f88 24       		.uleb128 0x24
 5967 0f89 6900     		.ascii	"i\000"
 5968 0f8b 01       		.byte	0x1
 5969 0f8c 2204     		.2byte	0x422
 5970 0f8e 89000000 		.4byte	0x89
 5971 0f92 02       		.uleb128 0x2
 5972 0f93 91       		.byte	0x91
 5973 0f94 74       		.sleb128 -12
ARM GAS  C:\Users\r\AppData\Local\Temp\ccbXJ1Li.s 			page 128


 5974 0f95 26       		.uleb128 0x26
 5975 0f96 40000000 		.4byte	.LBB9
 5976 0f9a F4000000 		.4byte	.LBE9-.LBB9
 5977 0f9e 24       		.uleb128 0x24
 5978 0f9f 63666700 		.ascii	"cfg\000"
 5979 0fa3 01       		.byte	0x1
 5980 0fa4 2504     		.2byte	0x425
 5981 0fa6 F0080000 		.4byte	0x8f0
 5982 0faa 02       		.uleb128 0x2
 5983 0fab 91       		.byte	0x91
 5984 0fac 70       		.sleb128 -16
 5985 0fad 00       		.byte	0
 5986 0fae 00       		.byte	0
 5987 0faf 2A       		.uleb128 0x2a
 5988 0fb0 F20D0000 		.4byte	.LASF324
 5989 0fb4 01       		.byte	0x1
 5990 0fb5 3A04     		.2byte	0x43a
 5991 0fb7 00000000 		.4byte	.LFB81
 5992 0fbb 38000000 		.4byte	.LFE81-.LFB81
 5993 0fbf 01       		.uleb128 0x1
 5994 0fc0 9C       		.byte	0x9c
 5995 0fc1 D50F0000 		.4byte	0xfd5
 5996 0fc5 23       		.uleb128 0x23
 5997 0fc6 55030000 		.4byte	.LASF257
 5998 0fca 01       		.byte	0x1
 5999 0fcb 4404     		.2byte	0x444
 6000 0fcd 89000000 		.4byte	0x89
 6001 0fd1 02       		.uleb128 0x2
 6002 0fd2 91       		.byte	0x91
 6003 0fd3 74       		.sleb128 -12
 6004 0fd4 00       		.byte	0
 6005 0fd5 2B       		.uleb128 0x2b
 6006 0fd6 30040000 		.4byte	.LASF326
 6007 0fda 01       		.byte	0x1
 6008 0fdb 4904     		.2byte	0x449
 6009 0fdd 89000000 		.4byte	0x89
 6010 0fe1 00000000 		.4byte	.LFB82
 6011 0fe5 44020000 		.4byte	.LFE82-.LFB82
 6012 0fe9 01       		.uleb128 0x1
 6013 0fea 9C       		.byte	0x9c
 6014 0feb 5E100000 		.4byte	0x105e
 6015 0fef 23       		.uleb128 0x23
 6016 0ff0 870A0000 		.4byte	.LASF327
 6017 0ff4 01       		.byte	0x1
 6018 0ff5 4B04     		.2byte	0x44b
 6019 0ff7 89000000 		.4byte	0x89
 6020 0ffb 02       		.uleb128 0x2
 6021 0ffc 91       		.byte	0x91
 6022 0ffd 74       		.sleb128 -12
 6023 0ffe 24       		.uleb128 0x24
 6024 0fff 73656C00 		.ascii	"sel\000"
 6025 1003 01       		.byte	0x1
 6026 1004 4D04     		.2byte	0x44d
 6027 1006 89000000 		.4byte	0x89
 6028 100a 02       		.uleb128 0x2
 6029 100b 91       		.byte	0x91
 6030 100c 70       		.sleb128 -16
ARM GAS  C:\Users\r\AppData\Local\Temp\ccbXJ1Li.s 			page 129


 6031 100d 24       		.uleb128 0x24
 6032 100e 62737900 		.ascii	"bsy\000"
 6033 1012 01       		.byte	0x1
 6034 1013 4E04     		.2byte	0x44e
 6035 1015 89000000 		.4byte	0x89
 6036 1019 02       		.uleb128 0x2
 6037 101a 91       		.byte	0x91
 6038 101b 6C       		.sleb128 -20
 6039 101c 26       		.uleb128 0x26
 6040 101d 84000000 		.4byte	.LBB10
 6041 1021 AA010000 		.4byte	.LBE10-.LBB10
 6042 1025 23       		.uleb128 0x23
 6043 1026 D7170000 		.4byte	.LASF328
 6044 102a 01       		.byte	0x1
 6045 102b 5A04     		.2byte	0x45a
 6046 102d 97000000 		.4byte	0x97
 6047 1031 02       		.uleb128 0x2
 6048 1032 91       		.byte	0x91
 6049 1033 6B       		.sleb128 -21
 6050 1034 24       		.uleb128 0x24
 6051 1035 64627800 		.ascii	"dbx\000"
 6052 1039 01       		.byte	0x1
 6053 103a 6104     		.2byte	0x461
 6054 103c 97000000 		.4byte	0x97
 6055 1040 02       		.uleb128 0x2
 6056 1041 91       		.byte	0x91
 6057 1042 6A       		.sleb128 -22
 6058 1043 26       		.uleb128 0x26
 6059 1044 08010000 		.4byte	.LBB11
 6060 1048 26010000 		.4byte	.LBE11-.LBB11
 6061 104c 23       		.uleb128 0x23
 6062 104d 69070000 		.4byte	.LASF329
 6063 1051 01       		.byte	0x1
 6064 1052 7804     		.2byte	0x478
 6065 1054 B8000000 		.4byte	0xb8
 6066 1058 02       		.uleb128 0x2
 6067 1059 91       		.byte	0x91
 6068 105a 64       		.sleb128 -28
 6069 105b 00       		.byte	0
 6070 105c 00       		.byte	0
 6071 105d 00       		.byte	0
 6072 105e 09       		.uleb128 0x9
 6073 105f 6E100000 		.4byte	0x106e
 6074 1063 6E100000 		.4byte	0x106e
 6075 1067 0A       		.uleb128 0xa
 6076 1068 27010000 		.4byte	0x127
 6077 106c 07       		.byte	0x7
 6078 106d 00       		.byte	0
 6079 106e 16       		.uleb128 0x16
 6080 106f C3000000 		.4byte	0xc3
 6081 1073 23       		.uleb128 0x23
 6082 1074 930A0000 		.4byte	.LASF330
 6083 1078 01       		.byte	0x1
 6084 1079 1D01     		.2byte	0x11d
 6085 107b 85100000 		.4byte	0x1085
 6086 107f 05       		.uleb128 0x5
 6087 1080 03       		.byte	0x3
ARM GAS  C:\Users\r\AppData\Local\Temp\ccbXJ1Li.s 			page 130


 6088 1081 00000000 		.4byte	CmdGroupBytes
 6089 1085 16       		.uleb128 0x16
 6090 1086 5E100000 		.4byte	0x105e
 6091 108a 2C       		.uleb128 0x2c
 6092 108b E50D0000 		.4byte	.LASF331
 6093 108f 09       		.byte	0x9
 6094 1090 1207     		.2byte	0x712
 6095 1092 96100000 		.4byte	0x1096
 6096 1096 06       		.uleb128 0x6
 6097 1097 AD000000 		.4byte	0xad
 6098 109b 2D       		.uleb128 0x2d
 6099 109c F20E0000 		.4byte	.LASF332
 6100 10a0 01       		.byte	0x1
 6101 10a1 27       		.byte	0x27
 6102 10a2 DC0A0000 		.4byte	0xadc
 6103 10a6 05       		.uleb128 0x5
 6104 10a7 03       		.byte	0x3
 6105 10a8 00000000 		.4byte	scsiDev
 6106 10ac 09       		.uleb128 0x9
 6107 10ad 6E100000 		.4byte	0x106e
 6108 10b1 BC100000 		.4byte	0x10bc
 6109 10b5 0A       		.uleb128 0xa
 6110 10b6 27010000 		.4byte	0x127
 6111 10ba FF       		.byte	0xff
 6112 10bb 00       		.byte	0
 6113 10bc 2E       		.uleb128 0x2e
 6114 10bd AA070000 		.4byte	.LASF333
 6115 10c1 0A       		.byte	0xa
 6116 10c2 17       		.byte	0x17
 6117 10c3 C7100000 		.4byte	0x10c7
 6118 10c7 16       		.uleb128 0x16
 6119 10c8 AC100000 		.4byte	0x10ac
 6120 10cc 2E       		.uleb128 0x2e
 6121 10cd 6C080000 		.4byte	.LASF334
 6122 10d1 08       		.byte	0x8
 6123 10d2 31       		.byte	0x31
 6124 10d3 4F0B0000 		.4byte	0xb4f
 6125 10d7 00       		.byte	0
 6126              		.section	.debug_abbrev,"",%progbits
 6127              	.Ldebug_abbrev0:
 6128 0000 01       		.uleb128 0x1
 6129 0001 11       		.uleb128 0x11
 6130 0002 01       		.byte	0x1
 6131 0003 25       		.uleb128 0x25
 6132 0004 0E       		.uleb128 0xe
 6133 0005 13       		.uleb128 0x13
 6134 0006 0B       		.uleb128 0xb
 6135 0007 03       		.uleb128 0x3
 6136 0008 0E       		.uleb128 0xe
 6137 0009 1B       		.uleb128 0x1b
 6138 000a 0E       		.uleb128 0xe
 6139 000b 55       		.uleb128 0x55
 6140 000c 17       		.uleb128 0x17
 6141 000d 11       		.uleb128 0x11
 6142 000e 01       		.uleb128 0x1
 6143 000f 10       		.uleb128 0x10
 6144 0010 17       		.uleb128 0x17
ARM GAS  C:\Users\r\AppData\Local\Temp\ccbXJ1Li.s 			page 131


 6145 0011 00       		.byte	0
 6146 0012 00       		.byte	0
 6147 0013 02       		.uleb128 0x2
 6148 0014 24       		.uleb128 0x24
 6149 0015 00       		.byte	0
 6150 0016 0B       		.uleb128 0xb
 6151 0017 0B       		.uleb128 0xb
 6152 0018 3E       		.uleb128 0x3e
 6153 0019 0B       		.uleb128 0xb
 6154 001a 03       		.uleb128 0x3
 6155 001b 0E       		.uleb128 0xe
 6156 001c 00       		.byte	0
 6157 001d 00       		.byte	0
 6158 001e 03       		.uleb128 0x3
 6159 001f 16       		.uleb128 0x16
 6160 0020 00       		.byte	0
 6161 0021 03       		.uleb128 0x3
 6162 0022 0E       		.uleb128 0xe
 6163 0023 3A       		.uleb128 0x3a
 6164 0024 0B       		.uleb128 0xb
 6165 0025 3B       		.uleb128 0x3b
 6166 0026 0B       		.uleb128 0xb
 6167 0027 49       		.uleb128 0x49
 6168 0028 13       		.uleb128 0x13
 6169 0029 00       		.byte	0
 6170 002a 00       		.byte	0
 6171 002b 04       		.uleb128 0x4
 6172 002c 24       		.uleb128 0x24
 6173 002d 00       		.byte	0
 6174 002e 0B       		.uleb128 0xb
 6175 002f 0B       		.uleb128 0xb
 6176 0030 3E       		.uleb128 0x3e
 6177 0031 0B       		.uleb128 0xb
 6178 0032 03       		.uleb128 0x3
 6179 0033 08       		.uleb128 0x8
 6180 0034 00       		.byte	0
 6181 0035 00       		.byte	0
 6182 0036 05       		.uleb128 0x5
 6183 0037 16       		.uleb128 0x16
 6184 0038 00       		.byte	0
 6185 0039 03       		.uleb128 0x3
 6186 003a 0E       		.uleb128 0xe
 6187 003b 3A       		.uleb128 0x3a
 6188 003c 0B       		.uleb128 0xb
 6189 003d 3B       		.uleb128 0x3b
 6190 003e 05       		.uleb128 0x5
 6191 003f 49       		.uleb128 0x49
 6192 0040 13       		.uleb128 0x13
 6193 0041 00       		.byte	0
 6194 0042 00       		.byte	0
 6195 0043 06       		.uleb128 0x6
 6196 0044 35       		.uleb128 0x35
 6197 0045 00       		.byte	0
 6198 0046 49       		.uleb128 0x49
 6199 0047 13       		.uleb128 0x13
 6200 0048 00       		.byte	0
 6201 0049 00       		.byte	0
ARM GAS  C:\Users\r\AppData\Local\Temp\ccbXJ1Li.s 			page 132


 6202 004a 07       		.uleb128 0x7
 6203 004b 0F       		.uleb128 0xf
 6204 004c 00       		.byte	0
 6205 004d 0B       		.uleb128 0xb
 6206 004e 0B       		.uleb128 0xb
 6207 004f 49       		.uleb128 0x49
 6208 0050 13       		.uleb128 0x13
 6209 0051 00       		.byte	0
 6210 0052 00       		.byte	0
 6211 0053 08       		.uleb128 0x8
 6212 0054 15       		.uleb128 0x15
 6213 0055 00       		.byte	0
 6214 0056 27       		.uleb128 0x27
 6215 0057 19       		.uleb128 0x19
 6216 0058 00       		.byte	0
 6217 0059 00       		.byte	0
 6218 005a 09       		.uleb128 0x9
 6219 005b 01       		.uleb128 0x1
 6220 005c 01       		.byte	0x1
 6221 005d 49       		.uleb128 0x49
 6222 005e 13       		.uleb128 0x13
 6223 005f 01       		.uleb128 0x1
 6224 0060 13       		.uleb128 0x13
 6225 0061 00       		.byte	0
 6226 0062 00       		.byte	0
 6227 0063 0A       		.uleb128 0xa
 6228 0064 21       		.uleb128 0x21
 6229 0065 00       		.byte	0
 6230 0066 49       		.uleb128 0x49
 6231 0067 13       		.uleb128 0x13
 6232 0068 2F       		.uleb128 0x2f
 6233 0069 0B       		.uleb128 0xb
 6234 006a 00       		.byte	0
 6235 006b 00       		.byte	0
 6236 006c 0B       		.uleb128 0xb
 6237 006d 04       		.uleb128 0x4
 6238 006e 01       		.byte	0x1
 6239 006f 0B       		.uleb128 0xb
 6240 0070 0B       		.uleb128 0xb
 6241 0071 49       		.uleb128 0x49
 6242 0072 13       		.uleb128 0x13
 6243 0073 3A       		.uleb128 0x3a
 6244 0074 0B       		.uleb128 0xb
 6245 0075 3B       		.uleb128 0x3b
 6246 0076 0B       		.uleb128 0xb
 6247 0077 01       		.uleb128 0x1
 6248 0078 13       		.uleb128 0x13
 6249 0079 00       		.byte	0
 6250 007a 00       		.byte	0
 6251 007b 0C       		.uleb128 0xc
 6252 007c 28       		.uleb128 0x28
 6253 007d 00       		.byte	0
 6254 007e 03       		.uleb128 0x3
 6255 007f 0E       		.uleb128 0xe
 6256 0080 1C       		.uleb128 0x1c
 6257 0081 0B       		.uleb128 0xb
 6258 0082 00       		.byte	0
ARM GAS  C:\Users\r\AppData\Local\Temp\ccbXJ1Li.s 			page 133


 6259 0083 00       		.byte	0
 6260 0084 0D       		.uleb128 0xd
 6261 0085 13       		.uleb128 0x13
 6262 0086 01       		.byte	0x1
 6263 0087 0B       		.uleb128 0xb
 6264 0088 05       		.uleb128 0x5
 6265 0089 3A       		.uleb128 0x3a
 6266 008a 0B       		.uleb128 0xb
 6267 008b 3B       		.uleb128 0x3b
 6268 008c 0B       		.uleb128 0xb
 6269 008d 01       		.uleb128 0x1
 6270 008e 13       		.uleb128 0x13
 6271 008f 00       		.byte	0
 6272 0090 00       		.byte	0
 6273 0091 0E       		.uleb128 0xe
 6274 0092 0D       		.uleb128 0xd
 6275 0093 00       		.byte	0
 6276 0094 03       		.uleb128 0x3
 6277 0095 0E       		.uleb128 0xe
 6278 0096 3A       		.uleb128 0x3a
 6279 0097 0B       		.uleb128 0xb
 6280 0098 3B       		.uleb128 0x3b
 6281 0099 0B       		.uleb128 0xb
 6282 009a 49       		.uleb128 0x49
 6283 009b 13       		.uleb128 0x13
 6284 009c 38       		.uleb128 0x38
 6285 009d 0B       		.uleb128 0xb
 6286 009e 00       		.byte	0
 6287 009f 00       		.byte	0
 6288 00a0 0F       		.uleb128 0xf
 6289 00a1 0D       		.uleb128 0xd
 6290 00a2 00       		.byte	0
 6291 00a3 03       		.uleb128 0x3
 6292 00a4 0E       		.uleb128 0xe
 6293 00a5 3A       		.uleb128 0x3a
 6294 00a6 0B       		.uleb128 0xb
 6295 00a7 3B       		.uleb128 0x3b
 6296 00a8 0B       		.uleb128 0xb
 6297 00a9 49       		.uleb128 0x49
 6298 00aa 13       		.uleb128 0x13
 6299 00ab 38       		.uleb128 0x38
 6300 00ac 05       		.uleb128 0x5
 6301 00ad 00       		.byte	0
 6302 00ae 00       		.byte	0
 6303 00af 10       		.uleb128 0x10
 6304 00b0 0D       		.uleb128 0xd
 6305 00b1 00       		.byte	0
 6306 00b2 03       		.uleb128 0x3
 6307 00b3 08       		.uleb128 0x8
 6308 00b4 3A       		.uleb128 0x3a
 6309 00b5 0B       		.uleb128 0xb
 6310 00b6 3B       		.uleb128 0x3b
 6311 00b7 0B       		.uleb128 0xb
 6312 00b8 49       		.uleb128 0x49
 6313 00b9 13       		.uleb128 0x13
 6314 00ba 38       		.uleb128 0x38
 6315 00bb 05       		.uleb128 0x5
ARM GAS  C:\Users\r\AppData\Local\Temp\ccbXJ1Li.s 			page 134


 6316 00bc 00       		.byte	0
 6317 00bd 00       		.byte	0
 6318 00be 11       		.uleb128 0x11
 6319 00bf 21       		.uleb128 0x21
 6320 00c0 00       		.byte	0
 6321 00c1 49       		.uleb128 0x49
 6322 00c2 13       		.uleb128 0x13
 6323 00c3 2F       		.uleb128 0x2f
 6324 00c4 05       		.uleb128 0x5
 6325 00c5 00       		.byte	0
 6326 00c6 00       		.byte	0
 6327 00c7 12       		.uleb128 0x12
 6328 00c8 28       		.uleb128 0x28
 6329 00c9 00       		.byte	0
 6330 00ca 03       		.uleb128 0x3
 6331 00cb 0E       		.uleb128 0xe
 6332 00cc 1C       		.uleb128 0x1c
 6333 00cd 05       		.uleb128 0x5
 6334 00ce 00       		.byte	0
 6335 00cf 00       		.byte	0
 6336 00d0 13       		.uleb128 0x13
 6337 00d1 13       		.uleb128 0x13
 6338 00d2 01       		.byte	0x1
 6339 00d3 0B       		.uleb128 0xb
 6340 00d4 0B       		.uleb128 0xb
 6341 00d5 3A       		.uleb128 0x3a
 6342 00d6 0B       		.uleb128 0xb
 6343 00d7 3B       		.uleb128 0x3b
 6344 00d8 0B       		.uleb128 0xb
 6345 00d9 01       		.uleb128 0x1
 6346 00da 13       		.uleb128 0x13
 6347 00db 00       		.byte	0
 6348 00dc 00       		.byte	0
 6349 00dd 14       		.uleb128 0x14
 6350 00de 0D       		.uleb128 0xd
 6351 00df 00       		.byte	0
 6352 00e0 03       		.uleb128 0x3
 6353 00e1 08       		.uleb128 0x8
 6354 00e2 3A       		.uleb128 0x3a
 6355 00e3 0B       		.uleb128 0xb
 6356 00e4 3B       		.uleb128 0x3b
 6357 00e5 0B       		.uleb128 0xb
 6358 00e6 49       		.uleb128 0x49
 6359 00e7 13       		.uleb128 0x13
 6360 00e8 38       		.uleb128 0x38
 6361 00e9 0B       		.uleb128 0xb
 6362 00ea 00       		.byte	0
 6363 00eb 00       		.byte	0
 6364 00ec 15       		.uleb128 0x15
 6365 00ed 28       		.uleb128 0x28
 6366 00ee 00       		.byte	0
 6367 00ef 03       		.uleb128 0x3
 6368 00f0 0E       		.uleb128 0xe
 6369 00f1 1C       		.uleb128 0x1c
 6370 00f2 0D       		.uleb128 0xd
 6371 00f3 00       		.byte	0
 6372 00f4 00       		.byte	0
ARM GAS  C:\Users\r\AppData\Local\Temp\ccbXJ1Li.s 			page 135


 6373 00f5 16       		.uleb128 0x16
 6374 00f6 26       		.uleb128 0x26
 6375 00f7 00       		.byte	0
 6376 00f8 49       		.uleb128 0x49
 6377 00f9 13       		.uleb128 0x13
 6378 00fa 00       		.byte	0
 6379 00fb 00       		.byte	0
 6380 00fc 17       		.uleb128 0x17
 6381 00fd 04       		.uleb128 0x4
 6382 00fe 01       		.byte	0x1
 6383 00ff 03       		.uleb128 0x3
 6384 0100 0E       		.uleb128 0xe
 6385 0101 0B       		.uleb128 0xb
 6386 0102 0B       		.uleb128 0xb
 6387 0103 49       		.uleb128 0x49
 6388 0104 13       		.uleb128 0x13
 6389 0105 3A       		.uleb128 0x3a
 6390 0106 0B       		.uleb128 0xb
 6391 0107 3B       		.uleb128 0x3b
 6392 0108 0B       		.uleb128 0xb
 6393 0109 01       		.uleb128 0x1
 6394 010a 13       		.uleb128 0x13
 6395 010b 00       		.byte	0
 6396 010c 00       		.byte	0
 6397 010d 18       		.uleb128 0x18
 6398 010e 2E       		.uleb128 0x2e
 6399 010f 00       		.byte	0
 6400 0110 3F       		.uleb128 0x3f
 6401 0111 19       		.uleb128 0x19
 6402 0112 03       		.uleb128 0x3
 6403 0113 0E       		.uleb128 0xe
 6404 0114 3A       		.uleb128 0x3a
 6405 0115 0B       		.uleb128 0xb
 6406 0116 3B       		.uleb128 0x3b
 6407 0117 0B       		.uleb128 0xb
 6408 0118 27       		.uleb128 0x27
 6409 0119 19       		.uleb128 0x19
 6410 011a 11       		.uleb128 0x11
 6411 011b 01       		.uleb128 0x1
 6412 011c 12       		.uleb128 0x12
 6413 011d 06       		.uleb128 0x6
 6414 011e 40       		.uleb128 0x40
 6415 011f 18       		.uleb128 0x18
 6416 0120 9642     		.uleb128 0x2116
 6417 0122 19       		.uleb128 0x19
 6418 0123 00       		.byte	0
 6419 0124 00       		.byte	0
 6420 0125 19       		.uleb128 0x19
 6421 0126 2E       		.uleb128 0x2e
 6422 0127 01       		.byte	0x1
 6423 0128 03       		.uleb128 0x3
 6424 0129 0E       		.uleb128 0xe
 6425 012a 3A       		.uleb128 0x3a
 6426 012b 0B       		.uleb128 0xb
 6427 012c 3B       		.uleb128 0x3b
 6428 012d 0B       		.uleb128 0xb
 6429 012e 27       		.uleb128 0x27
ARM GAS  C:\Users\r\AppData\Local\Temp\ccbXJ1Li.s 			page 136


 6430 012f 19       		.uleb128 0x19
 6431 0130 11       		.uleb128 0x11
 6432 0131 01       		.uleb128 0x1
 6433 0132 12       		.uleb128 0x12
 6434 0133 06       		.uleb128 0x6
 6435 0134 40       		.uleb128 0x40
 6436 0135 18       		.uleb128 0x18
 6437 0136 9742     		.uleb128 0x2117
 6438 0138 19       		.uleb128 0x19
 6439 0139 01       		.uleb128 0x1
 6440 013a 13       		.uleb128 0x13
 6441 013b 00       		.byte	0
 6442 013c 00       		.byte	0
 6443 013d 1A       		.uleb128 0x1a
 6444 013e 05       		.uleb128 0x5
 6445 013f 00       		.byte	0
 6446 0140 03       		.uleb128 0x3
 6447 0141 0E       		.uleb128 0xe
 6448 0142 3A       		.uleb128 0x3a
 6449 0143 0B       		.uleb128 0xb
 6450 0144 3B       		.uleb128 0x3b
 6451 0145 0B       		.uleb128 0xb
 6452 0146 49       		.uleb128 0x49
 6453 0147 13       		.uleb128 0x13
 6454 0148 02       		.uleb128 0x2
 6455 0149 18       		.uleb128 0x18
 6456 014a 00       		.byte	0
 6457 014b 00       		.byte	0
 6458 014c 1B       		.uleb128 0x1b
 6459 014d 2E       		.uleb128 0x2e
 6460 014e 01       		.byte	0x1
 6461 014f 3F       		.uleb128 0x3f
 6462 0150 19       		.uleb128 0x19
 6463 0151 03       		.uleb128 0x3
 6464 0152 0E       		.uleb128 0xe
 6465 0153 3A       		.uleb128 0x3a
 6466 0154 0B       		.uleb128 0xb
 6467 0155 3B       		.uleb128 0x3b
 6468 0156 0B       		.uleb128 0xb
 6469 0157 27       		.uleb128 0x27
 6470 0158 19       		.uleb128 0x19
 6471 0159 49       		.uleb128 0x49
 6472 015a 13       		.uleb128 0x13
 6473 015b 11       		.uleb128 0x11
 6474 015c 01       		.uleb128 0x1
 6475 015d 12       		.uleb128 0x12
 6476 015e 06       		.uleb128 0x6
 6477 015f 40       		.uleb128 0x40
 6478 0160 18       		.uleb128 0x18
 6479 0161 9642     		.uleb128 0x2116
 6480 0163 19       		.uleb128 0x19
 6481 0164 01       		.uleb128 0x1
 6482 0165 13       		.uleb128 0x13
 6483 0166 00       		.byte	0
 6484 0167 00       		.byte	0
 6485 0168 1C       		.uleb128 0x1c
 6486 0169 2E       		.uleb128 0x2e
ARM GAS  C:\Users\r\AppData\Local\Temp\ccbXJ1Li.s 			page 137


 6487 016a 00       		.byte	0
 6488 016b 03       		.uleb128 0x3
 6489 016c 0E       		.uleb128 0xe
 6490 016d 3A       		.uleb128 0x3a
 6491 016e 0B       		.uleb128 0xb
 6492 016f 3B       		.uleb128 0x3b
 6493 0170 0B       		.uleb128 0xb
 6494 0171 11       		.uleb128 0x11
 6495 0172 01       		.uleb128 0x1
 6496 0173 12       		.uleb128 0x12
 6497 0174 06       		.uleb128 0x6
 6498 0175 40       		.uleb128 0x40
 6499 0176 18       		.uleb128 0x18
 6500 0177 9642     		.uleb128 0x2116
 6501 0179 19       		.uleb128 0x19
 6502 017a 00       		.byte	0
 6503 017b 00       		.byte	0
 6504 017c 1D       		.uleb128 0x1d
 6505 017d 2E       		.uleb128 0x2e
 6506 017e 01       		.byte	0x1
 6507 017f 3F       		.uleb128 0x3f
 6508 0180 19       		.uleb128 0x19
 6509 0181 03       		.uleb128 0x3
 6510 0182 0E       		.uleb128 0xe
 6511 0183 3A       		.uleb128 0x3a
 6512 0184 0B       		.uleb128 0xb
 6513 0185 3B       		.uleb128 0x3b
 6514 0186 0B       		.uleb128 0xb
 6515 0187 27       		.uleb128 0x27
 6516 0188 19       		.uleb128 0x19
 6517 0189 11       		.uleb128 0x11
 6518 018a 01       		.uleb128 0x1
 6519 018b 12       		.uleb128 0x12
 6520 018c 06       		.uleb128 0x6
 6521 018d 40       		.uleb128 0x40
 6522 018e 18       		.uleb128 0x18
 6523 018f 9642     		.uleb128 0x2116
 6524 0191 19       		.uleb128 0x19
 6525 0192 01       		.uleb128 0x1
 6526 0193 13       		.uleb128 0x13
 6527 0194 00       		.byte	0
 6528 0195 00       		.byte	0
 6529 0196 1E       		.uleb128 0x1e
 6530 0197 34       		.uleb128 0x34
 6531 0198 00       		.byte	0
 6532 0199 03       		.uleb128 0x3
 6533 019a 0E       		.uleb128 0xe
 6534 019b 3A       		.uleb128 0x3a
 6535 019c 0B       		.uleb128 0xb
 6536 019d 3B       		.uleb128 0x3b
 6537 019e 0B       		.uleb128 0xb
 6538 019f 49       		.uleb128 0x49
 6539 01a0 13       		.uleb128 0x13
 6540 01a1 02       		.uleb128 0x2
 6541 01a2 18       		.uleb128 0x18
 6542 01a3 00       		.byte	0
 6543 01a4 00       		.byte	0
ARM GAS  C:\Users\r\AppData\Local\Temp\ccbXJ1Li.s 			page 138


 6544 01a5 1F       		.uleb128 0x1f
 6545 01a6 05       		.uleb128 0x5
 6546 01a7 00       		.byte	0
 6547 01a8 03       		.uleb128 0x3
 6548 01a9 08       		.uleb128 0x8
 6549 01aa 3A       		.uleb128 0x3a
 6550 01ab 0B       		.uleb128 0xb
 6551 01ac 3B       		.uleb128 0x3b
 6552 01ad 0B       		.uleb128 0xb
 6553 01ae 49       		.uleb128 0x49
 6554 01af 13       		.uleb128 0x13
 6555 01b0 02       		.uleb128 0x2
 6556 01b1 18       		.uleb128 0x18
 6557 01b2 00       		.byte	0
 6558 01b3 00       		.byte	0
 6559 01b4 20       		.uleb128 0x20
 6560 01b5 2E       		.uleb128 0x2e
 6561 01b6 01       		.byte	0x1
 6562 01b7 03       		.uleb128 0x3
 6563 01b8 0E       		.uleb128 0xe
 6564 01b9 3A       		.uleb128 0x3a
 6565 01ba 0B       		.uleb128 0xb
 6566 01bb 3B       		.uleb128 0x3b
 6567 01bc 0B       		.uleb128 0xb
 6568 01bd 27       		.uleb128 0x27
 6569 01be 19       		.uleb128 0x19
 6570 01bf 11       		.uleb128 0x11
 6571 01c0 01       		.uleb128 0x1
 6572 01c1 12       		.uleb128 0x12
 6573 01c2 06       		.uleb128 0x6
 6574 01c3 40       		.uleb128 0x40
 6575 01c4 18       		.uleb128 0x18
 6576 01c5 9642     		.uleb128 0x2116
 6577 01c7 19       		.uleb128 0x19
 6578 01c8 01       		.uleb128 0x1
 6579 01c9 13       		.uleb128 0x13
 6580 01ca 00       		.byte	0
 6581 01cb 00       		.byte	0
 6582 01cc 21       		.uleb128 0x21
 6583 01cd 34       		.uleb128 0x34
 6584 01ce 00       		.byte	0
 6585 01cf 03       		.uleb128 0x3
 6586 01d0 08       		.uleb128 0x8
 6587 01d1 3A       		.uleb128 0x3a
 6588 01d2 0B       		.uleb128 0xb
 6589 01d3 3B       		.uleb128 0x3b
 6590 01d4 0B       		.uleb128 0xb
 6591 01d5 49       		.uleb128 0x49
 6592 01d6 13       		.uleb128 0x13
 6593 01d7 02       		.uleb128 0x2
 6594 01d8 18       		.uleb128 0x18
 6595 01d9 00       		.byte	0
 6596 01da 00       		.byte	0
 6597 01db 22       		.uleb128 0x22
 6598 01dc 2E       		.uleb128 0x2e
 6599 01dd 01       		.byte	0x1
 6600 01de 03       		.uleb128 0x3
ARM GAS  C:\Users\r\AppData\Local\Temp\ccbXJ1Li.s 			page 139


 6601 01df 0E       		.uleb128 0xe
 6602 01e0 3A       		.uleb128 0x3a
 6603 01e1 0B       		.uleb128 0xb
 6604 01e2 3B       		.uleb128 0x3b
 6605 01e3 05       		.uleb128 0x5
 6606 01e4 27       		.uleb128 0x27
 6607 01e5 19       		.uleb128 0x19
 6608 01e6 11       		.uleb128 0x11
 6609 01e7 01       		.uleb128 0x1
 6610 01e8 12       		.uleb128 0x12
 6611 01e9 06       		.uleb128 0x6
 6612 01ea 40       		.uleb128 0x40
 6613 01eb 18       		.uleb128 0x18
 6614 01ec 9642     		.uleb128 0x2116
 6615 01ee 19       		.uleb128 0x19
 6616 01ef 01       		.uleb128 0x1
 6617 01f0 13       		.uleb128 0x13
 6618 01f1 00       		.byte	0
 6619 01f2 00       		.byte	0
 6620 01f3 23       		.uleb128 0x23
 6621 01f4 34       		.uleb128 0x34
 6622 01f5 00       		.byte	0
 6623 01f6 03       		.uleb128 0x3
 6624 01f7 0E       		.uleb128 0xe
 6625 01f8 3A       		.uleb128 0x3a
 6626 01f9 0B       		.uleb128 0xb
 6627 01fa 3B       		.uleb128 0x3b
 6628 01fb 05       		.uleb128 0x5
 6629 01fc 49       		.uleb128 0x49
 6630 01fd 13       		.uleb128 0x13
 6631 01fe 02       		.uleb128 0x2
 6632 01ff 18       		.uleb128 0x18
 6633 0200 00       		.byte	0
 6634 0201 00       		.byte	0
 6635 0202 24       		.uleb128 0x24
 6636 0203 34       		.uleb128 0x34
 6637 0204 00       		.byte	0
 6638 0205 03       		.uleb128 0x3
 6639 0206 08       		.uleb128 0x8
 6640 0207 3A       		.uleb128 0x3a
 6641 0208 0B       		.uleb128 0xb
 6642 0209 3B       		.uleb128 0x3b
 6643 020a 05       		.uleb128 0x5
 6644 020b 49       		.uleb128 0x49
 6645 020c 13       		.uleb128 0x13
 6646 020d 02       		.uleb128 0x2
 6647 020e 18       		.uleb128 0x18
 6648 020f 00       		.byte	0
 6649 0210 00       		.byte	0
 6650 0211 25       		.uleb128 0x25
 6651 0212 0B       		.uleb128 0xb
 6652 0213 01       		.byte	0x1
 6653 0214 11       		.uleb128 0x11
 6654 0215 01       		.uleb128 0x1
 6655 0216 12       		.uleb128 0x12
 6656 0217 06       		.uleb128 0x6
 6657 0218 01       		.uleb128 0x1
ARM GAS  C:\Users\r\AppData\Local\Temp\ccbXJ1Li.s 			page 140


 6658 0219 13       		.uleb128 0x13
 6659 021a 00       		.byte	0
 6660 021b 00       		.byte	0
 6661 021c 26       		.uleb128 0x26
 6662 021d 0B       		.uleb128 0xb
 6663 021e 01       		.byte	0x1
 6664 021f 11       		.uleb128 0x11
 6665 0220 01       		.uleb128 0x1
 6666 0221 12       		.uleb128 0x12
 6667 0222 06       		.uleb128 0x6
 6668 0223 00       		.byte	0
 6669 0224 00       		.byte	0
 6670 0225 27       		.uleb128 0x27
 6671 0226 2E       		.uleb128 0x2e
 6672 0227 01       		.byte	0x1
 6673 0228 03       		.uleb128 0x3
 6674 0229 0E       		.uleb128 0xe
 6675 022a 3A       		.uleb128 0x3a
 6676 022b 0B       		.uleb128 0xb
 6677 022c 3B       		.uleb128 0x3b
 6678 022d 05       		.uleb128 0x5
 6679 022e 11       		.uleb128 0x11
 6680 022f 01       		.uleb128 0x1
 6681 0230 12       		.uleb128 0x12
 6682 0231 06       		.uleb128 0x6
 6683 0232 40       		.uleb128 0x40
 6684 0233 18       		.uleb128 0x18
 6685 0234 9642     		.uleb128 0x2116
 6686 0236 19       		.uleb128 0x19
 6687 0237 01       		.uleb128 0x1
 6688 0238 13       		.uleb128 0x13
 6689 0239 00       		.byte	0
 6690 023a 00       		.byte	0
 6691 023b 28       		.uleb128 0x28
 6692 023c 2E       		.uleb128 0x2e
 6693 023d 00       		.byte	0
 6694 023e 03       		.uleb128 0x3
 6695 023f 0E       		.uleb128 0xe
 6696 0240 3A       		.uleb128 0x3a
 6697 0241 0B       		.uleb128 0xb
 6698 0242 3B       		.uleb128 0x3b
 6699 0243 05       		.uleb128 0x5
 6700 0244 27       		.uleb128 0x27
 6701 0245 19       		.uleb128 0x19
 6702 0246 11       		.uleb128 0x11
 6703 0247 01       		.uleb128 0x1
 6704 0248 12       		.uleb128 0x12
 6705 0249 06       		.uleb128 0x6
 6706 024a 40       		.uleb128 0x40
 6707 024b 18       		.uleb128 0x18
 6708 024c 9742     		.uleb128 0x2117
 6709 024e 19       		.uleb128 0x19
 6710 024f 00       		.byte	0
 6711 0250 00       		.byte	0
 6712 0251 29       		.uleb128 0x29
 6713 0252 2E       		.uleb128 0x2e
 6714 0253 00       		.byte	0
ARM GAS  C:\Users\r\AppData\Local\Temp\ccbXJ1Li.s 			page 141


 6715 0254 3F       		.uleb128 0x3f
 6716 0255 19       		.uleb128 0x19
 6717 0256 03       		.uleb128 0x3
 6718 0257 0E       		.uleb128 0xe
 6719 0258 3A       		.uleb128 0x3a
 6720 0259 0B       		.uleb128 0xb
 6721 025a 3B       		.uleb128 0x3b
 6722 025b 05       		.uleb128 0x5
 6723 025c 27       		.uleb128 0x27
 6724 025d 19       		.uleb128 0x19
 6725 025e 11       		.uleb128 0x11
 6726 025f 01       		.uleb128 0x1
 6727 0260 12       		.uleb128 0x12
 6728 0261 06       		.uleb128 0x6
 6729 0262 40       		.uleb128 0x40
 6730 0263 18       		.uleb128 0x18
 6731 0264 9642     		.uleb128 0x2116
 6732 0266 19       		.uleb128 0x19
 6733 0267 00       		.byte	0
 6734 0268 00       		.byte	0
 6735 0269 2A       		.uleb128 0x2a
 6736 026a 2E       		.uleb128 0x2e
 6737 026b 01       		.byte	0x1
 6738 026c 3F       		.uleb128 0x3f
 6739 026d 19       		.uleb128 0x19
 6740 026e 03       		.uleb128 0x3
 6741 026f 0E       		.uleb128 0xe
 6742 0270 3A       		.uleb128 0x3a
 6743 0271 0B       		.uleb128 0xb
 6744 0272 3B       		.uleb128 0x3b
 6745 0273 05       		.uleb128 0x5
 6746 0274 27       		.uleb128 0x27
 6747 0275 19       		.uleb128 0x19
 6748 0276 11       		.uleb128 0x11
 6749 0277 01       		.uleb128 0x1
 6750 0278 12       		.uleb128 0x12
 6751 0279 06       		.uleb128 0x6
 6752 027a 40       		.uleb128 0x40
 6753 027b 18       		.uleb128 0x18
 6754 027c 9642     		.uleb128 0x2116
 6755 027e 19       		.uleb128 0x19
 6756 027f 01       		.uleb128 0x1
 6757 0280 13       		.uleb128 0x13
 6758 0281 00       		.byte	0
 6759 0282 00       		.byte	0
 6760 0283 2B       		.uleb128 0x2b
 6761 0284 2E       		.uleb128 0x2e
 6762 0285 01       		.byte	0x1
 6763 0286 3F       		.uleb128 0x3f
 6764 0287 19       		.uleb128 0x19
 6765 0288 03       		.uleb128 0x3
 6766 0289 0E       		.uleb128 0xe
 6767 028a 3A       		.uleb128 0x3a
 6768 028b 0B       		.uleb128 0xb
 6769 028c 3B       		.uleb128 0x3b
 6770 028d 05       		.uleb128 0x5
 6771 028e 27       		.uleb128 0x27
ARM GAS  C:\Users\r\AppData\Local\Temp\ccbXJ1Li.s 			page 142


 6772 028f 19       		.uleb128 0x19
 6773 0290 49       		.uleb128 0x49
 6774 0291 13       		.uleb128 0x13
 6775 0292 11       		.uleb128 0x11
 6776 0293 01       		.uleb128 0x1
 6777 0294 12       		.uleb128 0x12
 6778 0295 06       		.uleb128 0x6
 6779 0296 40       		.uleb128 0x40
 6780 0297 18       		.uleb128 0x18
 6781 0298 9642     		.uleb128 0x2116
 6782 029a 19       		.uleb128 0x19
 6783 029b 01       		.uleb128 0x1
 6784 029c 13       		.uleb128 0x13
 6785 029d 00       		.byte	0
 6786 029e 00       		.byte	0
 6787 029f 2C       		.uleb128 0x2c
 6788 02a0 34       		.uleb128 0x34
 6789 02a1 00       		.byte	0
 6790 02a2 03       		.uleb128 0x3
 6791 02a3 0E       		.uleb128 0xe
 6792 02a4 3A       		.uleb128 0x3a
 6793 02a5 0B       		.uleb128 0xb
 6794 02a6 3B       		.uleb128 0x3b
 6795 02a7 05       		.uleb128 0x5
 6796 02a8 49       		.uleb128 0x49
 6797 02a9 13       		.uleb128 0x13
 6798 02aa 3F       		.uleb128 0x3f
 6799 02ab 19       		.uleb128 0x19
 6800 02ac 3C       		.uleb128 0x3c
 6801 02ad 19       		.uleb128 0x19
 6802 02ae 00       		.byte	0
 6803 02af 00       		.byte	0
 6804 02b0 2D       		.uleb128 0x2d
 6805 02b1 34       		.uleb128 0x34
 6806 02b2 00       		.byte	0
 6807 02b3 03       		.uleb128 0x3
 6808 02b4 0E       		.uleb128 0xe
 6809 02b5 3A       		.uleb128 0x3a
 6810 02b6 0B       		.uleb128 0xb
 6811 02b7 3B       		.uleb128 0x3b
 6812 02b8 0B       		.uleb128 0xb
 6813 02b9 49       		.uleb128 0x49
 6814 02ba 13       		.uleb128 0x13
 6815 02bb 3F       		.uleb128 0x3f
 6816 02bc 19       		.uleb128 0x19
 6817 02bd 02       		.uleb128 0x2
 6818 02be 18       		.uleb128 0x18
 6819 02bf 00       		.byte	0
 6820 02c0 00       		.byte	0
 6821 02c1 2E       		.uleb128 0x2e
 6822 02c2 34       		.uleb128 0x34
 6823 02c3 00       		.byte	0
 6824 02c4 03       		.uleb128 0x3
 6825 02c5 0E       		.uleb128 0xe
 6826 02c6 3A       		.uleb128 0x3a
 6827 02c7 0B       		.uleb128 0xb
 6828 02c8 3B       		.uleb128 0x3b
ARM GAS  C:\Users\r\AppData\Local\Temp\ccbXJ1Li.s 			page 143


 6829 02c9 0B       		.uleb128 0xb
 6830 02ca 49       		.uleb128 0x49
 6831 02cb 13       		.uleb128 0x13
 6832 02cc 3F       		.uleb128 0x3f
 6833 02cd 19       		.uleb128 0x19
 6834 02ce 3C       		.uleb128 0x3c
 6835 02cf 19       		.uleb128 0x19
 6836 02d0 00       		.byte	0
 6837 02d1 00       		.byte	0
 6838 02d2 00       		.byte	0
 6839              		.section	.debug_aranges,"",%progbits
 6840 0000 AC000000 		.4byte	0xac
 6841 0004 0200     		.2byte	0x2
 6842 0006 00000000 		.4byte	.Ldebug_info0
 6843 000a 04       		.byte	0x4
 6844 000b 00       		.byte	0
 6845 000c 0000     		.2byte	0
 6846 000e 0000     		.2byte	0
 6847 0010 00000000 		.4byte	.LFB64
 6848 0014 74000000 		.4byte	.LFE64-.LFB64
 6849 0018 00000000 		.4byte	.LFB65
 6850 001c 2C000000 		.4byte	.LFE65-.LFB65
 6851 0020 00000000 		.4byte	.LFB66
 6852 0024 C0000000 		.4byte	.LFE66-.LFB66
 6853 0028 00000000 		.4byte	.LFB67
 6854 002c 14000000 		.4byte	.LFE67-.LFB67
 6855 0030 00000000 		.4byte	.LFB68
 6856 0034 60000000 		.4byte	.LFE68-.LFB68
 6857 0038 00000000 		.4byte	.LFB69
 6858 003c 94010000 		.4byte	.LFE69-.LFB69
 6859 0040 00000000 		.4byte	.LFB70
 6860 0044 2C000000 		.4byte	.LFE70-.LFB70
 6861 0048 00000000 		.4byte	.LFB71
 6862 004c BC000000 		.4byte	.LFE71-.LFB71
 6863 0050 00000000 		.4byte	.LFB72
 6864 0054 1C010000 		.4byte	.LFE72-.LFB72
 6865 0058 00000000 		.4byte	.LFB73
 6866 005c 0C050000 		.4byte	.LFE73-.LFB73
 6867 0060 00000000 		.4byte	.LFB74
 6868 0064 38010000 		.4byte	.LFE74-.LFB74
 6869 0068 00000000 		.4byte	.LFB75
 6870 006c FC000000 		.4byte	.LFE75-.LFB75
 6871 0070 00000000 		.4byte	.LFB76
 6872 0074 A0000000 		.4byte	.LFE76-.LFB76
 6873 0078 00000000 		.4byte	.LFB77
 6874 007c 9C030000 		.4byte	.LFE77-.LFB77
 6875 0080 00000000 		.4byte	.LFB78
 6876 0084 18030000 		.4byte	.LFE78-.LFB78
 6877 0088 00000000 		.4byte	.LFB79
 6878 008c 18020000 		.4byte	.LFE79-.LFB79
 6879 0090 00000000 		.4byte	.LFB80
 6880 0094 50010000 		.4byte	.LFE80-.LFB80
 6881 0098 00000000 		.4byte	.LFB81
 6882 009c 38000000 		.4byte	.LFE81-.LFB81
 6883 00a0 00000000 		.4byte	.LFB82
 6884 00a4 44020000 		.4byte	.LFE82-.LFB82
 6885 00a8 00000000 		.4byte	0
ARM GAS  C:\Users\r\AppData\Local\Temp\ccbXJ1Li.s 			page 144


 6886 00ac 00000000 		.4byte	0
 6887              		.section	.debug_ranges,"",%progbits
 6888              	.Ldebug_ranges0:
 6889 0000 00000000 		.4byte	.LFB64
 6890 0004 74000000 		.4byte	.LFE64
 6891 0008 00000000 		.4byte	.LFB65
 6892 000c 2C000000 		.4byte	.LFE65
 6893 0010 00000000 		.4byte	.LFB66
 6894 0014 C0000000 		.4byte	.LFE66
 6895 0018 00000000 		.4byte	.LFB67
 6896 001c 14000000 		.4byte	.LFE67
 6897 0020 00000000 		.4byte	.LFB68
 6898 0024 60000000 		.4byte	.LFE68
 6899 0028 00000000 		.4byte	.LFB69
 6900 002c 94010000 		.4byte	.LFE69
 6901 0030 00000000 		.4byte	.LFB70
 6902 0034 2C000000 		.4byte	.LFE70
 6903 0038 00000000 		.4byte	.LFB71
 6904 003c BC000000 		.4byte	.LFE71
 6905 0040 00000000 		.4byte	.LFB72
 6906 0044 1C010000 		.4byte	.LFE72
 6907 0048 00000000 		.4byte	.LFB73
 6908 004c 0C050000 		.4byte	.LFE73
 6909 0050 00000000 		.4byte	.LFB74
 6910 0054 38010000 		.4byte	.LFE74
 6911 0058 00000000 		.4byte	.LFB75
 6912 005c FC000000 		.4byte	.LFE75
 6913 0060 00000000 		.4byte	.LFB76
 6914 0064 A0000000 		.4byte	.LFE76
 6915 0068 00000000 		.4byte	.LFB77
 6916 006c 9C030000 		.4byte	.LFE77
 6917 0070 00000000 		.4byte	.LFB78
 6918 0074 18030000 		.4byte	.LFE78
 6919 0078 00000000 		.4byte	.LFB79
 6920 007c 18020000 		.4byte	.LFE79
 6921 0080 00000000 		.4byte	.LFB80
 6922 0084 50010000 		.4byte	.LFE80
 6923 0088 00000000 		.4byte	.LFB81
 6924 008c 38000000 		.4byte	.LFE81
 6925 0090 00000000 		.4byte	.LFB82
 6926 0094 44020000 		.4byte	.LFE82
 6927 0098 00000000 		.4byte	0
 6928 009c 00000000 		.4byte	0
 6929              		.section	.debug_line,"",%progbits
 6930              	.Ldebug_line0:
 6931 0000 85070000 		.section	.debug_str,"MS",%progbits,1
 6931      0200AA01 
 6931      00000201 
 6931      FB0E0D00 
 6931      01010101 
 6932              	.LASF295:
 6933 0000 70726F63 		.ascii	"process_DataOut\000"
 6933      6573735F 
 6933      44617461 
 6933      4F757400 
 6934              	.LASF317:
 6935 0010 6578746D 		.ascii	"extmsg\000"
ARM GAS  C:\Users\r\AppData\Local\Temp\ccbXJ1Li.s 			page 145


 6935      736700
 6936              	.LASF192:
 6937 0017 52504C5F 		.ascii	"RPL_STATUS_CHANGE\000"
 6937      53544154 
 6937      55535F43 
 6937      48414E47 
 6937      4500
 6938              	.LASF26:
 6939 0029 73697A65 		.ascii	"sizetype\000"
 6939      74797065 
 6939      00
 6940              	.LASF80:
 6941 0032 424C414E 		.ascii	"BLANK_CHECK\000"
 6941      4B5F4348 
 6941      45434B00 
 6942              	.LASF105:
 6943 003e 44454645 		.ascii	"DEFECT_LIST_UPDATE_FAILURE\000"
 6943      43545F4C 
 6943      4953545F 
 6943      55504441 
 6943      54455F46 
 6944              	.LASF110:
 6945 0059 494F5F50 		.ascii	"IO_PROCESS_TERMINATED\000"
 6945      524F4345 
 6945      53535F54 
 6945      45524D49 
 6945      4E415445 
 6946              	.LASF179:
 6947 006f 5245434F 		.ascii	"RECOVERED_DATA_RECOMMEND_REWRITE\000"
 6947      56455245 
 6947      445F4441 
 6947      54415F52 
 6947      45434F4D 
 6948              	.LASF144:
 6949 0090 4D455353 		.ascii	"MESSAGE_ERROR\000"
 6949      4147455F 
 6949      4552524F 
 6949      5200
 6950              	.LASF136:
 6951 009e 4C4F4749 		.ascii	"LOGICAL_UNIT_NOT_READY_INITIALIZING_COMMAND_REQUIRE"
 6951      43414C5F 
 6951      554E4954 
 6951      5F4E4F54 
 6951      5F524541 
 6952 00d1 4400     		.ascii	"D\000"
 6953              	.LASF15:
 6954 00d3 696E7433 		.ascii	"int32_t\000"
 6954      325F7400 
 6955              	.LASF311:
 6956 00db 676F6F64 		.ascii	"goodParity\000"
 6956      50617269 
 6956      747900
 6957              	.LASF209:
 6958 00e6 57524954 		.ascii	"WRITE_ERROR_AUTO_REALLOCATION_FAILED\000"
 6958      455F4552 
 6958      524F525F 
 6958      4155544F 
ARM GAS  C:\Users\r\AppData\Local\Temp\ccbXJ1Li.s 			page 146


 6958      5F524541 
 6959              	.LASF339:
 6960 010b 6D657373 		.ascii	"messageReject\000"
 6960      61676552 
 6960      656A6563 
 6960      7400
 6961              	.LASF71:
 6962 0119 426F6172 		.ascii	"BoardConfig\000"
 6962      64436F6E 
 6962      66696700 
 6963              	.LASF91:
 6964 0125 43414E4E 		.ascii	"CANNOT_READ_MEDIUM_UNKNOWN_FORMAT\000"
 6964      4F545F52 
 6964      4541445F 
 6964      4D454449 
 6964      554D5F55 
 6965              	.LASF19:
 6966 0147 75696E74 		.ascii	"uint32\000"
 6966      333200
 6967              	.LASF64:
 6968 014e 54617267 		.ascii	"TargetConfig\000"
 6968      6574436F 
 6968      6E666967 
 6968      00
 6969              	.LASF113:
 6970 015b 494E434F 		.ascii	"INCOMPATIBLE_MEDIUM_INSTALLED\000"
 6970      4D504154 
 6970      49424C45 
 6970      5F4D4544 
 6970      49554D5F 
 6971              	.LASF37:
 6972 0179 434F4E46 		.ascii	"CONFIG_FIXED\000"
 6972      49475F46 
 6972      49584544 
 6972      00
 6973              	.LASF213:
 6974 0186 53637369 		.ascii	"ScsiSense\000"
 6974      53656E73 
 6974      6500
 6975              	.LASF56:
 6976 0190 76656E64 		.ascii	"vendor\000"
 6976      6F7200
 6977              	.LASF323:
 6978 0197 73637369 		.ascii	"scsiInit\000"
 6978      496E6974 
 6978      00
 6979              	.LASF214:
 6980 01a0 5F5F7363 		.ascii	"__scsiphase_msg\000"
 6980      73697068 
 6980      6173655F 
 6980      6D736700 
 6981              	.LASF238:
 6982 01b0 434F4D50 		.ascii	"COMPAT_SCSI1\000"
 6982      41545F53 
 6982      43534931 
 6982      00
 6983              	.LASF36:
ARM GAS  C:\Users\r\AppData\Local\Temp\ccbXJ1Li.s 			page 147


 6984 01bd 434F4E46 		.ascii	"CONFIG_MAP_LUNS_TO_IDS\000"
 6984      49475F4D 
 6984      41505F4C 
 6984      554E535F 
 6984      544F5F49 
 6985              	.LASF217:
 6986 01d4 4255535F 		.ascii	"BUS_FREE\000"
 6986      46524545 
 6986      00
 6987              	.LASF244:
 6988 01dd 73656E73 		.ascii	"sense\000"
 6988      6500
 6989              	.LASF158:
 6990 01e3 4F504552 		.ascii	"OPERATOR_REQUEST_OR_STATE_CHANGE_INPUT\000"
 6990      41544F52 
 6990      5F524551 
 6990      55455354 
 6990      5F4F525F 
 6991              	.LASF236:
 6992 020a 4D53475F 		.ascii	"MSG_LINKED_COMMAND_COMPLETE_WITH_FLAG\000"
 6992      4C494E4B 
 6992      45445F43 
 6992      4F4D4D41 
 6992      4E445F43 
 6993              	.LASF31:
 6994 0230 434F4E46 		.ascii	"CONFIG_ENABLE_SCSI2\000"
 6994      49475F45 
 6994      4E41424C 
 6994      455F5343 
 6994      53493200 
 6995              	.LASF55:
 6996 0244 68656164 		.ascii	"headsPerCylinder\000"
 6996      73506572 
 6996      43796C69 
 6996      6E646572 
 6996      00
 6997              	.LASF84:
 6998 0255 45515541 		.ascii	"EQUAL\000"
 6998      4C00
 6999              	.LASF185:
 7000 025b 5245434F 		.ascii	"RECOVERED_DATA_WITH_POSITIVE_HEAD_OFFSET\000"
 7000      56455245 
 7000      445F4441 
 7000      54415F57 
 7000      4954485F 
 7001              	.LASF178:
 7002 0284 5245434F 		.ascii	"RECOVERED_DATA_RECOMMEND_REASSIGNMENT\000"
 7002      56455245 
 7002      445F4441 
 7002      54415F52 
 7002      45434F4D 
 7003              	.LASF20:
 7004 02aa 696E7438 		.ascii	"int8\000"
 7004      00
 7005              	.LASF196:
 7006 02af 53454C45 		.ascii	"SELECT_OR_RESELECT_FAILURE\000"
 7006      43545F4F 
ARM GAS  C:\Users\r\AppData\Local\Temp\ccbXJ1Li.s 			page 148


 7006      525F5245 
 7006      53454C45 
 7006      43545F46 
 7007              	.LASF72:
 7008 02ca 4E4F5F53 		.ascii	"NO_SENSE\000"
 7008      454E5345 
 7008      00
 7009              	.LASF186:
 7010 02d3 5245434F 		.ascii	"RECOVERED_DATA_WITH_RETRIES\000"
 7010      56455245 
 7010      445F4441 
 7010      54415F57 
 7010      4954485F 
 7011              	.LASF325:
 7012 02ef 70726F63 		.ascii	"process_MessageIn\000"
 7012      6573735F 
 7012      4D657373 
 7012      61676549 
 7012      6E00
 7013              	.LASF67:
 7014 0301 73746172 		.ascii	"startupDelay\000"
 7014      74757044 
 7014      656C6179 
 7014      00
 7015              	.LASF39:
 7016 030e 434F4E46 		.ascii	"CONFIG_OPTICAL\000"
 7016      49475F4F 
 7016      50544943 
 7016      414C00
 7017              	.LASF153:
 7018 031d 4E4F5F49 		.ascii	"NO_INDEX_SECTOR_SIGNAL\000"
 7018      4E444558 
 7018      5F534543 
 7018      544F525F 
 7018      5349474E 
 7019              	.LASF239:
 7020 0334 434F4D50 		.ascii	"COMPAT_SCSI2_DISABLED\000"
 7020      41545F53 
 7020      43534932 
 7020      5F444953 
 7020      41424C45 
 7021              	.LASF226:
 7022 034a 4D455353 		.ascii	"MESSAGE_IN\000"
 7022      4147455F 
 7022      494E00
 7023              	.LASF257:
 7024 0355 70686173 		.ascii	"phase\000"
 7024      6500
 7025              	.LASF3:
 7026 035b 5F5F7569 		.ascii	"__uint8_t\000"
 7026      6E74385F 
 7026      7400
 7027              	.LASF182:
 7028 0365 5245434F 		.ascii	"RECOVERED_DATA_WITH_ERROR_CORRECTION_APPLIED\000"
 7028      56455245 
 7028      445F4441 
 7028      54415F57 
ARM GAS  C:\Users\r\AppData\Local\Temp\ccbXJ1Li.s 			page 149


 7028      4954485F 
 7029              	.LASF218:
 7030 0392 4255535F 		.ascii	"BUS_BUSY\000"
 7030      42555359 
 7030      00
 7031              	.LASF290:
 7032 039b 656E7465 		.ascii	"enter_MessageIn\000"
 7032      725F4D65 
 7032      73736167 
 7032      65496E00 
 7033              	.LASF267:
 7034 03ab 6D736749 		.ascii	"msgIn\000"
 7034      6E00
 7035              	.LASF241:
 7036 03b1 4C697665 		.ascii	"LiveCfg\000"
 7036      43666700 
 7037              	.LASF165:
 7038 03b9 50415241 		.ascii	"PARAMETERS_CHANGED\000"
 7038      4D455445 
 7038      52535F43 
 7038      48414E47 
 7038      454400
 7039              	.LASF7:
 7040 03cc 6C6F6E67 		.ascii	"long int\000"
 7040      20696E74 
 7040      00
 7041              	.LASF44:
 7042 03d5 434F4E46 		.ascii	"CONFIG_QUIRKS_APPLE\000"
 7042      49475F51 
 7042      5549524B 
 7042      535F4150 
 7042      504C4500 
 7043              	.LASF249:
 7044 03e9 74617267 		.ascii	"targets\000"
 7044      65747300 
 7045              	.LASF207:
 7046 03f1 554E5245 		.ascii	"UNRECOVERED_READ_ERROR_RECOMMEND_REWRITE_THE_DATA\000"
 7046      434F5645 
 7046      5245445F 
 7046      52454144 
 7046      5F455252 
 7047              	.LASF75:
 7048 0423 4D454449 		.ascii	"MEDIUM_ERROR\000"
 7048      554D5F45 
 7048      52524F52 
 7048      00
 7049              	.LASF326:
 7050 0430 73637369 		.ascii	"scsiReconnect\000"
 7050      5265636F 
 7050      6E6E6563 
 7050      7400
 7051              	.LASF201:
 7052 043e 54485245 		.ascii	"THRESHOLD_CONDITION_MET\000"
 7052      53484F4C 
 7052      445F434F 
 7052      4E444954 
 7052      494F4E5F 
ARM GAS  C:\Users\r\AppData\Local\Temp\ccbXJ1Li.s 			page 150


 7053              	.LASF193:
 7054 0456 53415649 		.ascii	"SAVING_PARAMETERS_NOT_SUPPORTED\000"
 7054      4E475F50 
 7054      4152414D 
 7054      45544552 
 7054      535F4E4F 
 7055              	.LASF242:
 7056 0476 74617267 		.ascii	"targetId\000"
 7056      65744964 
 7056      00
 7057              	.LASF247:
 7058 047f 72657365 		.ascii	"reserverId\000"
 7058      72766572 
 7058      496400
 7059              	.LASF114:
 7060 048a 494E4954 		.ascii	"INITIATOR_DETECTED_ERROR_MESSAGE_RECEIVED\000"
 7060      4941544F 
 7060      525F4445 
 7060      54454354 
 7060      45445F45 
 7061              	.LASF106:
 7062 04b4 4552524F 		.ascii	"ERROR_LOG_OVERFLOW\000"
 7062      525F4C4F 
 7062      475F4F56 
 7062      4552464C 
 7062      4F5700
 7063              	.LASF183:
 7064 04c7 5245434F 		.ascii	"RECOVERED_DATA_WITH_NEGATIVE_HEAD_OFFSET\000"
 7064      56455245 
 7064      445F4441 
 7064      54415F57 
 7064      4954485F 
 7065              	.LASF124:
 7066 04f0 4C4F475F 		.ascii	"LOG_LIST_CODES_EXHAUSTED\000"
 7066      4C495354 
 7066      5F434F44 
 7066      45535F45 
 7066      58484155 
 7067              	.LASF0:
 7068 0509 7369676E 		.ascii	"signed char\000"
 7068      65642063 
 7068      68617200 
 7069              	.LASF13:
 7070 0515 75696E74 		.ascii	"uint8_t\000"
 7070      385F7400 
 7071              	.LASF28:
 7072 051d 434F4E46 		.ascii	"CONFIG_TARGET_ENABLED\000"
 7072      49475F54 
 7072      41524745 
 7072      545F454E 
 7072      41424C45 
 7073              	.LASF43:
 7074 0533 434F4E46 		.ascii	"CONFIG_QUIRKS_NONE\000"
 7074      49475F51 
 7074      5549524B 
 7074      535F4E4F 
 7074      4E4500
ARM GAS  C:\Users\r\AppData\Local\Temp\ccbXJ1Li.s 			page 151


 7075              	.LASF307:
 7076 0546 70726F63 		.ascii	"process_SelectionPhase\000"
 7076      6573735F 
 7076      53656C65 
 7076      6374696F 
 7076      6E506861 
 7077              	.LASF221:
 7078 055d 52455345 		.ascii	"RESELECTION\000"
 7078      4C454354 
 7078      494F4E00 
 7079              	.LASF237:
 7080 0569 434F4D50 		.ascii	"COMPAT_UNKNOWN\000"
 7080      41545F55 
 7080      4E4B4E4F 
 7080      574E00
 7081              	.LASF255:
 7082 0578 70617269 		.ascii	"parityError\000"
 7082      74794572 
 7082      726F7200 
 7083              	.LASF170:
 7084 0584 504F5745 		.ascii	"POWER_ON_OR_SELF_TEST_FAILURE\000"
 7084      525F4F4E 
 7084      5F4F525F 
 7084      53454C46 
 7084      5F544553 
 7085              	.LASF101:
 7086 05a2 44454645 		.ascii	"DEFECT_LIST_ERROR_IN_GROWN_LIST\000"
 7086      43545F4C 
 7086      4953545F 
 7086      4552524F 
 7086      525F494E 
 7087              	.LASF1:
 7088 05c2 756E7369 		.ascii	"unsigned char\000"
 7088      676E6564 
 7088      20636861 
 7088      7200
 7089              	.LASF111:
 7090 05d0 49445F43 		.ascii	"ID_CRC_OR_ECC_ERROR\000"
 7090      52435F4F 
 7090      525F4543 
 7090      435F4552 
 7090      524F5200 
 7091              	.LASF68:
 7092 05e4 73656C65 		.ascii	"selectionDelay\000"
 7092      6374696F 
 7092      6E44656C 
 7092      617900
 7093              	.LASF137:
 7094 05f3 4C4F4749 		.ascii	"LOGICAL_UNIT_NOT_READY_MANUAL_INTERVENTION_REQUIRED"
 7094      43414C5F 
 7094      554E4954 
 7094      5F4E4F54 
 7094      5F524541 
 7095 0626 00       		.ascii	"\000"
 7096              	.LASF305:
 7097 0627 63616E52 		.ascii	"canRelease\000"
 7097      656C6561 
ARM GAS  C:\Users\r\AppData\Local\Temp\ccbXJ1Li.s 			page 152


 7097      736500
 7098              	.LASF235:
 7099 0632 4D53475F 		.ascii	"MSG_LINKED_COMMAND_COMPLETE\000"
 7099      4C494E4B 
 7099      45445F43 
 7099      4F4D4D41 
 7099      4E445F43 
 7100              	.LASF292:
 7101 064e 636F6E74 		.ascii	"control\000"
 7101      726F6C00 
 7102              	.LASF175:
 7103 0656 5245434F 		.ascii	"RECORD_NOT_FOUND\000"
 7103      52445F4E 
 7103      4F545F46 
 7103      4F554E44 
 7103      00
 7104              	.LASF23:
 7105 0667 63686172 		.ascii	"char\000"
 7105      00
 7106              	.LASF129:
 7107 066c 4C4F4749 		.ascii	"LOGICAL_UNIT_COMMUNICATION_TIMEOUT\000"
 7107      43414C5F 
 7107      554E4954 
 7107      5F434F4D 
 7107      4D554E49 
 7108              	.LASF63:
 7109 068f 756E7573 		.ascii	"unused\000"
 7109      656400
 7110              	.LASF312:
 7111 0696 73656C54 		.ascii	"selTimerBegin\000"
 7111      696D6572 
 7111      42656769 
 7111      6E00
 7112              	.LASF139:
 7113 06a4 4D454348 		.ascii	"MECHANICAL_POSITIONING_ERROR\000"
 7113      414E4943 
 7113      414C5F50 
 7113      4F534954 
 7113      494F4E49 
 7114              	.LASF160:
 7115 06c1 4F504552 		.ascii	"OPERATOR_SELECTED_WRITE_PROTECT\000"
 7115      41544F52 
 7115      5F53454C 
 7115      45435445 
 7115      445F5752 
 7116              	.LASF109:
 7117 06e1 47524F57 		.ascii	"GROWN_DEFECT_LIST_NOT_FOUND\000"
 7117      4E5F4445 
 7117      46454354 
 7117      5F4C4953 
 7117      545F4E4F 
 7118              	.LASF177:
 7119 06fd 5245434F 		.ascii	"RECOVERED_DATA_DATA_AUTO_REALLOCATED\000"
 7119      56455245 
 7119      445F4441 
 7119      54415F44 
 7119      4154415F 
ARM GAS  C:\Users\r\AppData\Local\Temp\ccbXJ1Li.s 			page 153


 7120              	.LASF4:
 7121 0722 5F5F7569 		.ascii	"__uint16_t\000"
 7121      6E743136 
 7121      5F7400
 7122              	.LASF34:
 7123 072d 434F4E46 		.ascii	"CONFIG_ENABLE_DISCONNECT\000"
 7123      49475F45 
 7123      4E41424C 
 7123      455F4449 
 7123      53434F4E 
 7124              	.LASF303:
 7125 0746 74686972 		.ascii	"thirdPty\000"
 7125      64507479 
 7125      00
 7126              	.LASF230:
 7127 074f 42555359 		.ascii	"BUSY\000"
 7127      00
 7128              	.LASF318:
 7129 0754 57445452 		.ascii	"WDTR\000"
 7129      00
 7130              	.LASF77:
 7131 0759 494C4C45 		.ascii	"ILLEGAL_REQUEST\000"
 7131      47414C5F 
 7131      52455155 
 7131      45535400 
 7132              	.LASF329:
 7133 0769 77616974 		.ascii	"waitStart_ms\000"
 7133      53746172 
 7133      745F6D73 
 7133      00
 7134              	.LASF66:
 7135 0776 666C6167 		.ascii	"flags\000"
 7135      7300
 7136              	.LASF262:
 7137 077c 6364624C 		.ascii	"cdbLen\000"
 7137      656E00
 7138              	.LASF33:
 7139 0783 434F4E46 		.ascii	"CONFIG_ENABLE_CACHE\000"
 7139      49475F45 
 7139      4E41424C 
 7139      455F4341 
 7139      43484500 
 7140              	.LASF147:
 7141 0797 4D495343 		.ascii	"MISCORRECTED_ERROR\000"
 7141      4F525245 
 7141      43544544 
 7141      5F455252 
 7141      4F5200
 7142              	.LASF333:
 7143 07aa 4C6F6F6B 		.ascii	"Lookup_OddParity\000"
 7143      75705F4F 
 7143      64645061 
 7143      72697479 
 7143      00
 7144              	.LASF188:
 7145 07bb 5245434F 		.ascii	"RECOVERED_DATA_WITHOUT_ECC_RECOMMEND_REASSIGNMENT\000"
 7145      56455245 
ARM GAS  C:\Users\r\AppData\Local\Temp\ccbXJ1Li.s 			page 154


 7145      445F4441 
 7145      54415F57 
 7145      4954484F 
 7146              	.LASF116:
 7147 07ed 494E5445 		.ascii	"INTERNAL_TARGET_FAILURE\000"
 7147      524E414C 
 7147      5F544152 
 7147      4745545F 
 7147      4641494C 
 7148              	.LASF29:
 7149 0805 434F4E46 		.ascii	"CONFIG_ENABLE_UNIT_ATTENTION\000"
 7149      49475F45 
 7149      4E41424C 
 7149      455F554E 
 7149      49545F41 
 7150              	.LASF48:
 7151 0822 64657669 		.ascii	"deviceType\000"
 7151      63655479 
 7151      706500
 7152              	.LASF60:
 7153 082d 71756972 		.ascii	"quirks\000"
 7153      6B7300
 7154              	.LASF103:
 7155 0834 44454645 		.ascii	"DEFECT_LIST_NOT_AVAILABLE\000"
 7155      43545F4C 
 7155      4953545F 
 7155      4E4F545F 
 7155      41564149 
 7156              	.LASF171:
 7157 084e 5052494D 		.ascii	"PRIMARY_DEFECT_LIST_NOT_FOUND\000"
 7157      4152595F 
 7157      44454645 
 7157      43545F4C 
 7157      4953545F 
 7158              	.LASF334:
 7159 086c 7472616E 		.ascii	"transfer\000"
 7159      73666572 
 7159      00
 7160              	.LASF246:
 7161 0875 72657365 		.ascii	"reservedId\000"
 7161      72766564 
 7161      496400
 7162              	.LASF87:
 7163 0880 52455345 		.ascii	"RESERVED\000"
 7163      52564544 
 7163      00
 7164              	.LASF79:
 7165 0889 44415441 		.ascii	"DATA_PROTECT\000"
 7165      5F50524F 
 7165      54454354 
 7165      00
 7166              	.LASF50:
 7167 0896 64657669 		.ascii	"deviceTypeModifier\000"
 7167      63655479 
 7167      70654D6F 
 7167      64696669 
 7167      657200
ARM GAS  C:\Users\r\AppData\Local\Temp\ccbXJ1Li.s 			page 155


 7168              	.LASF94:
 7169 08a9 434F4D4D 		.ascii	"COMMAND_SEQUENCE_ERROR\000"
 7169      414E445F 
 7169      53455155 
 7169      454E4345 
 7169      5F455252 
 7170              	.LASF206:
 7171 08c0 554E5245 		.ascii	"UNRECOVERED_READ_ERROR_RECOMMEND_REASSIGNMENT\000"
 7171      434F5645 
 7171      5245445F 
 7171      52454144 
 7171      5F455252 
 7172              	.LASF243:
 7173 08ee 6C697665 		.ascii	"liveCfg\000"
 7173      43666700 
 7174              	.LASF276:
 7175 08f6 6C617374 		.ascii	"lastSense\000"
 7175      53656E73 
 7175      6500
 7176              	.LASF219:
 7177 0900 41524249 		.ascii	"ARBITRATION\000"
 7177      54524154 
 7177      494F4E00 
 7178              	.LASF149:
 7179 090c 4D554C54 		.ascii	"MULTIPLE_PERIPHERAL_DEVICES_SELECTED\000"
 7179      49504C45 
 7179      5F504552 
 7179      49504845 
 7179      52414C5F 
 7180              	.LASF121:
 7181 0931 494E5641 		.ascii	"INVALID_MESSAGE_ERROR\000"
 7181      4C49445F 
 7181      4D455353 
 7181      4147455F 
 7181      4552524F 
 7182              	.LASF304:
 7183 0947 74686972 		.ascii	"thirdPtyId\000"
 7183      64507479 
 7183      496400
 7184              	.LASF200:
 7185 0952 54415247 		.ascii	"TARGET_OPERATING_CONDITIONS_HAVE_CHANGED\000"
 7185      45545F4F 
 7185      50455241 
 7185      54494E47 
 7185      5F434F4E 
 7186              	.LASF265:
 7187 097b 696E6974 		.ascii	"initiatorId\000"
 7187      6961746F 
 7187      72496400 
 7188              	.LASF272:
 7189 0987 72737443 		.ascii	"rstCount\000"
 7189      6F756E74 
 7189      00
 7190              	.LASF9:
 7191 0990 6C6F6E67 		.ascii	"long unsigned int\000"
 7191      20756E73 
 7191      69676E65 
ARM GAS  C:\Users\r\AppData\Local\Temp\ccbXJ1Li.s 			page 156


 7191      6420696E 
 7191      7400
 7192              	.LASF167:
 7193 09a2 504F5349 		.ascii	"POSITIONING_ERROR_DETECTED_BY_READ_OF_MEDIUM\000"
 7193      54494F4E 
 7193      494E475F 
 7193      4552524F 
 7193      525F4445 
 7194              	.LASF70:
 7195 09cf 73637369 		.ascii	"scsiSpeed\000"
 7195      53706565 
 7195      6400
 7196              	.LASF173:
 7197 09d9 52414E44 		.ascii	"RANDOM_POSITIONING_ERROR\000"
 7197      4F4D5F50 
 7197      4F534954 
 7197      494F4E49 
 7197      4E475F45 
 7198              	.LASF203:
 7199 09f2 54524143 		.ascii	"TRACK_FOLLOWING_ERROR\000"
 7199      4B5F464F 
 7199      4C4C4F57 
 7199      494E475F 
 7199      4552524F 
 7200              	.LASF266:
 7201 0a08 73746174 		.ascii	"status\000"
 7201      757300
 7202              	.LASF250:
 7203 0a0f 74617267 		.ascii	"target\000"
 7203      657400
 7204              	.LASF169:
 7205 0a16 504F5745 		.ascii	"POWER_ON_RESET\000"
 7205      525F4F4E 
 7205      5F524553 
 7205      455400
 7206              	.LASF93:
 7207 0a25 434F4D4D 		.ascii	"COMMAND_PHASE_ERROR\000"
 7207      414E445F 
 7207      50484153 
 7207      455F4552 
 7207      524F5200 
 7208              	.LASF92:
 7209 0a39 4348414E 		.ascii	"CHANGED_OPERATING_DEFINITION\000"
 7209      4745445F 
 7209      4F504552 
 7209      4154494E 
 7209      475F4445 
 7210              	.LASF187:
 7211 0a56 5245434F 		.ascii	"RECOVERED_DATA_WITHOUT_ECC_DATA_AUTO_REALLOCATED\000"
 7211      56455245 
 7211      445F4441 
 7211      54415F57 
 7211      4954484F 
 7212              	.LASF327:
 7213 0a87 7265636F 		.ascii	"reconnected\000"
 7213      6E6E6563 
 7213      74656400 
ARM GAS  C:\Users\r\AppData\Local\Temp\ccbXJ1Li.s 			page 157


 7214              	.LASF330:
 7215 0a93 436D6447 		.ascii	"CmdGroupBytes\000"
 7215      726F7570 
 7215      42797465 
 7215      7300
 7216              	.LASF96:
 7217 0aa1 434F5059 		.ascii	"COPY_CANNOT_EXECUTE_SINCE_HOST_CANNOT_DISCONNECT\000"
 7217      5F43414E 
 7217      4E4F545F 
 7217      45584543 
 7217      5554455F 
 7218              	.LASF270:
 7219 0ad2 636D6443 		.ascii	"cmdCount\000"
 7219      6F756E74 
 7219      00
 7220              	.LASF271:
 7221 0adb 73656C43 		.ascii	"selCount\000"
 7221      6F756E74 
 7221      00
 7222              	.LASF138:
 7223 0ae4 4C4F4749 		.ascii	"LOGICAL_UNIT_NOT_SUPPORTED\000"
 7223      43414C5F 
 7223      554E4954 
 7223      5F4E4F54 
 7223      5F535550 
 7224              	.LASF59:
 7225 0aff 73657269 		.ascii	"serial\000"
 7225      616C00
 7226              	.LASF259:
 7227 0b06 64617461 		.ascii	"dataPtr\000"
 7227      50747200 
 7228              	.LASF297:
 7229 0b0e 67726F75 		.ascii	"group\000"
 7229      7000
 7230              	.LASF119:
 7231 0b14 494E5641 		.ascii	"INVALID_FIELD_IN_CDB\000"
 7231      4C49445F 
 7231      4649454C 
 7231      445F494E 
 7231      5F434442 
 7232              	.LASF161:
 7233 0b29 4F564552 		.ascii	"OVERLAPPED_COMMANDS_ATTEMPTED\000"
 7233      4C415050 
 7233      45445F43 
 7233      4F4D4D41 
 7233      4E44535F 
 7234              	.LASF228:
 7235 0b47 474F4F44 		.ascii	"GOOD\000"
 7235      00
 7236              	.LASF335:
 7237 0b4c 474E5520 		.ascii	"GNU C11 5.4.1 20160609 (release) [ARM/embedded-5-br"
 7237      43313120 
 7237      352E342E 
 7237      31203230 
 7237      31363036 
 7238 0b7f 616E6368 		.ascii	"anch revision 237715] -mcpu=cortex-m3 -mthumb -g -O"
 7238      20726576 
ARM GAS  C:\Users\r\AppData\Local\Temp\ccbXJ1Li.s 			page 158


 7238      6973696F 
 7238      6E203233 
 7238      37373135 
 7239 0bb2 30202D66 		.ascii	"0 -ffunction-sections -ffat-lto-objects\000"
 7239      66756E63 
 7239      74696F6E 
 7239      2D736563 
 7239      74696F6E 
 7240              	.LASF47:
 7241 0bda 73637369 		.ascii	"scsiId\000"
 7241      496400
 7242              	.LASF321:
 7243 0be1 73637369 		.ascii	"scsiPoll\000"
 7243      506F6C6C 
 7243      00
 7244              	.LASF191:
 7245 0bea 524F554E 		.ascii	"ROUNDED_PARAMETER\000"
 7245      4445445F 
 7245      50415241 
 7245      4D455445 
 7245      5200
 7246              	.LASF83:
 7247 0bfc 41424F52 		.ascii	"ABORTED_COMMAND\000"
 7247      5445445F 
 7247      434F4D4D 
 7247      414E4400 
 7248              	.LASF180:
 7249 0c0c 5245434F 		.ascii	"RECOVERED_DATA_USING_PREVIOUS_SECTOR_ID\000"
 7249      56455245 
 7249      445F4441 
 7249      54415F55 
 7249      53494E47 
 7250              	.LASF8:
 7251 0c34 5F5F7569 		.ascii	"__uint32_t\000"
 7251      6E743332 
 7251      5F7400
 7252              	.LASF181:
 7253 0c3f 5245434F 		.ascii	"RECOVERED_DATA_WITH_ERROR_CORRECTION_RETRIES_APPLIE"
 7253      56455245 
 7253      445F4441 
 7253      54415F57 
 7253      4954485F 
 7254 0c72 4400     		.ascii	"D\000"
 7255              	.LASF10:
 7256 0c74 6C6F6E67 		.ascii	"long long int\000"
 7256      206C6F6E 
 7256      6720696E 
 7256      7400
 7257              	.LASF320:
 7258 0c82 656E7465 		.ascii	"enter_BusFree\000"
 7258      725F4275 
 7258      73467265 
 7258      6500
 7259              	.LASF289:
 7260 0c90 72656C65 		.ascii	"releaseBusFree\000"
 7260      61736542 
 7260      75734672 
ARM GAS  C:\Users\r\AppData\Local\Temp\ccbXJ1Li.s 			page 159


 7260      656500
 7261              	.LASF100:
 7262 0c9f 44454645 		.ascii	"DEFECT_LIST_ERROR\000"
 7262      43545F4C 
 7262      4953545F 
 7262      4552524F 
 7262      5200
 7263              	.LASF99:
 7264 0cb1 44415441 		.ascii	"DATA_SYNCHRONIZATION_MARK_ERROR\000"
 7264      5F53594E 
 7264      4348524F 
 7264      4E495A41 
 7264      54494F4E 
 7265              	.LASF45:
 7266 0cd1 434F4E46 		.ascii	"CONFIG_QUIRKS_OMTI\000"
 7266      49475F51 
 7266      5549524B 
 7266      535F4F4D 
 7266      544900
 7267              	.LASF88:
 7268 0ce4 41444452 		.ascii	"ADDRESS_MARK_NOT_FOUND_FOR_DATA_FIELD\000"
 7268      4553535F 
 7268      4D41524B 
 7268      5F4E4F54 
 7268      5F464F55 
 7269              	.LASF95:
 7270 0d0a 434F4D4D 		.ascii	"COMMANDS_CLEARED_BY_ANOTHER_INITIATOR\000"
 7270      414E4453 
 7270      5F434C45 
 7270      41524544 
 7270      5F42595F 
 7271              	.LASF22:
 7272 0d30 646F7562 		.ascii	"double\000"
 7272      6C6500
 7273              	.LASF134:
 7274 0d37 4C4F4749 		.ascii	"LOGICAL_UNIT_NOT_READY_CAUSE_NOT_REPORTABLE\000"
 7274      43414C5F 
 7274      554E4954 
 7274      5F4E4F54 
 7274      5F524541 
 7275              	.LASF27:
 7276 0d63 434F4E46 		.ascii	"CONFIG_TARGET_ID_BITS\000"
 7276      49475F54 
 7276      41524745 
 7276      545F4944 
 7276      5F424954 
 7277              	.LASF97:
 7278 0d79 44415441 		.ascii	"DATA_PATH_FAILURE\000"
 7278      5F504154 
 7278      485F4641 
 7278      494C5552 
 7278      4500
 7279              	.LASF309:
 7280 0d8b 6D61736B 		.ascii	"mask\000"
 7280      00
 7281              	.LASF132:
 7282 0d90 4C4F4749 		.ascii	"LOGICAL_UNIT_HAS_NOT_SELF_CONFIGURED_YET\000"
ARM GAS  C:\Users\r\AppData\Local\Temp\ccbXJ1Li.s 			page 160


 7282      43414C5F 
 7282      554E4954 
 7282      5F484153 
 7282      5F4E4F54 
 7283              	.LASF142:
 7284 0db9 4D454449 		.ascii	"MEDIUM_NOT_PRESENT\000"
 7284      554D5F4E 
 7284      4F545F50 
 7284      52455345 
 7284      4E5400
 7285              	.LASF279:
 7286 0dcc 53435349 		.ascii	"SCSI_Filt_ATN\000"
 7286      5F46696C 
 7286      745F4154 
 7286      4E00
 7287              	.LASF264:
 7288 0dda 636F6D70 		.ascii	"compatMode\000"
 7288      61744D6F 
 7288      646500
 7289              	.LASF331:
 7290 0de5 49544D5F 		.ascii	"ITM_RxBuffer\000"
 7290      52784275 
 7290      66666572 
 7290      00
 7291              	.LASF324:
 7292 0df2 73637369 		.ascii	"scsiDisconnect\000"
 7292      44697363 
 7292      6F6E6E65 
 7292      637400
 7293              	.LASF308:
 7294 0e01 73656C4C 		.ascii	"selLatchCfg\000"
 7294      61746368 
 7294      43666700 
 7295              	.LASF199:
 7296 0e0d 53594E43 		.ascii	"SYNCHRONOUS_DATA_TRANSFER_ERROR\000"
 7296      48524F4E 
 7296      4F55535F 
 7296      44415441 
 7296      5F545241 
 7297              	.LASF195:
 7298 0e2d 53435349 		.ascii	"SCSI_PARITY_ERROR\000"
 7298      5F504152 
 7298      4954595F 
 7298      4552524F 
 7298      5200
 7299              	.LASF35:
 7300 0e3f 434F4E46 		.ascii	"CONFIG_ENABLE_SEL_LATCH\000"
 7300      49475F45 
 7300      4E41424C 
 7300      455F5345 
 7300      4C5F4C41 
 7301              	.LASF21:
 7302 0e57 666C6F61 		.ascii	"float\000"
 7302      7400
 7303              	.LASF140:
 7304 0e5d 4D454449 		.ascii	"MEDIA_LOAD_OR_EJECT_FAILED\000"
 7304      415F4C4F 
ARM GAS  C:\Users\r\AppData\Local\Temp\ccbXJ1Li.s 			page 161


 7304      41445F4F 
 7304      525F454A 
 7304      4543545F 
 7305              	.LASF12:
 7306 0e78 756E7369 		.ascii	"unsigned int\000"
 7306      676E6564 
 7306      20696E74 
 7306      00
 7307              	.LASF81:
 7308 0e85 56454E44 		.ascii	"VENDOR_SPECIFIC\000"
 7308      4F525F53 
 7308      50454349 
 7308      46494300 
 7309              	.LASF85:
 7310 0e95 564F4C55 		.ascii	"VOLUME_OVERFLOW\000"
 7310      4D455F4F 
 7310      56455246 
 7310      4C4F5700 
 7311              	.LASF227:
 7312 0ea5 4D455353 		.ascii	"MESSAGE_OUT\000"
 7312      4147455F 
 7312      4F555400 
 7313              	.LASF284:
 7314 0eb1 6D756C74 		.ascii	"multiBlock\000"
 7314      69426C6F 
 7314      636B00
 7315              	.LASF156:
 7316 0ebc 4E4F545F 		.ascii	"NOT_READY_TO_READY_TRANSITION_MEDIUM_MAY_HAVE_CHANG"
 7316      52454144 
 7316      595F544F 
 7316      5F524541 
 7316      44595F54 
 7317 0eef 454400   		.ascii	"ED\000"
 7318              	.LASF332:
 7319 0ef2 73637369 		.ascii	"scsiDev\000"
 7319      44657600 
 7320              	.LASF194:
 7321 0efa 53435349 		.ascii	"SCSI_BUS_RESET\000"
 7321      5F425553 
 7321      5F524553 
 7321      455400
 7322              	.LASF168:
 7323 0f09 504F5745 		.ascii	"POWER_ON_RESET_OR_BUS_DEVICE_RESET_OCCURRED\000"
 7323      525F4F4E 
 7323      5F524553 
 7323      45545F4F 
 7323      525F4255 
 7324              	.LASF163:
 7325 0f35 50415241 		.ascii	"PARAMETER_NOT_SUPPORTED\000"
 7325      4D455445 
 7325      525F4E4F 
 7325      545F5355 
 7325      50504F52 
 7326              	.LASF172:
 7327 0f4d 52414D5F 		.ascii	"RAM_FAILURE\000"
 7327      4641494C 
 7327      55524500 
ARM GAS  C:\Users\r\AppData\Local\Temp\ccbXJ1Li.s 			page 162


 7328              	.LASF122:
 7329 0f59 4C4F475F 		.ascii	"LOG_COUNTER_AT_MAXIMUM\000"
 7329      434F554E 
 7329      5445525F 
 7329      41545F4D 
 7329      4158494D 
 7330              	.LASF274:
 7331 0f70 77617463 		.ascii	"watchdogTick\000"
 7331      68646F67 
 7331      5469636B 
 7331      00
 7332              	.LASF204:
 7333 0f7d 554E5245 		.ascii	"UNRECOVERED_READ_ERROR\000"
 7333      434F5645 
 7333      5245445F 
 7333      52454144 
 7333      5F455252 
 7334              	.LASF275:
 7335 0f94 6C617374 		.ascii	"lastStatus\000"
 7335      53746174 
 7335      757300
 7336              	.LASF220:
 7337 0f9f 53454C45 		.ascii	"SELECTION\000"
 7337      4354494F 
 7337      4E00
 7338              	.LASF128:
 7339 0fa9 4C4F4749 		.ascii	"LOGICAL_UNIT_COMMUNICATION_PARITY_ERROR\000"
 7339      43414C5F 
 7339      554E4954 
 7339      5F434F4D 
 7339      4D554E49 
 7340              	.LASF54:
 7341 0fd1 73656374 		.ascii	"sectorsPerTrack\000"
 7341      6F727350 
 7341      65725472 
 7341      61636B00 
 7342              	.LASF40:
 7343 0fe1 434F4E46 		.ascii	"CONFIG_FLOPPY_14MB\000"
 7343      49475F46 
 7343      4C4F5050 
 7343      595F3134 
 7343      4D4200
 7344              	.LASF150:
 7345 0ff4 4D554C54 		.ascii	"MULTIPLE_READ_ERRORS\000"
 7345      49504C45 
 7345      5F524541 
 7345      445F4552 
 7345      524F5253 
 7346              	.LASF233:
 7347 1009 4D53475F 		.ascii	"MSG_COMMAND_COMPLETE\000"
 7347      434F4D4D 
 7347      414E445F 
 7347      434F4D50 
 7347      4C455445 
 7348              	.LASF143:
 7349 101e 4D454449 		.ascii	"MEDIUM_REMOVAL_PREVENTED\000"
 7349      554D5F52 
ARM GAS  C:\Users\r\AppData\Local\Temp\ccbXJ1Li.s 			page 163


 7349      454D4F56 
 7349      414C5F50 
 7349      52455645 
 7350              	.LASF74:
 7351 1037 4E4F545F 		.ascii	"NOT_READY\000"
 7351      52454144 
 7351      5900
 7352              	.LASF176:
 7353 1041 5245434F 		.ascii	"RECORDED_ENTITY_NOT_FOUND\000"
 7353      52444544 
 7353      5F454E54 
 7353      4954595F 
 7353      4E4F545F 
 7354              	.LASF269:
 7355 105b 706F7374 		.ascii	"postDataOutHook\000"
 7355      44617461 
 7355      4F757448 
 7355      6F6F6B00 
 7356              	.LASF263:
 7357 106b 64697363 		.ascii	"discPriv\000"
 7357      50726976 
 7357      00
 7358              	.LASF152:
 7359 1074 4E4F5F44 		.ascii	"NO_DEFECT_SPARE_LOCATION_AVAILABLE\000"
 7359      45464543 
 7359      545F5350 
 7359      4152455F 
 7359      4C4F4341 
 7360              	.LASF253:
 7361 1097 72657365 		.ascii	"resetFlag\000"
 7361      74466C61 
 7361      6700
 7362              	.LASF293:
 7363 10a1 656E7465 		.ascii	"enter_DataIn\000"
 7363      725F4461 
 7363      7461496E 
 7363      00
 7364              	.LASF338:
 7365 10ae 46696C74 		.ascii	"FilteredInputs\000"
 7365      65726564 
 7365      496E7075 
 7365      747300
 7366              	.LASF231:
 7367 10bd 494E5445 		.ascii	"INTERMEDIATE\000"
 7367      524D4544 
 7367      49415445 
 7367      00
 7368              	.LASF240:
 7369 10ca 434F4D50 		.ascii	"COMPAT_SCSI2\000"
 7369      41545F53 
 7369      43534932 
 7369      00
 7370              	.LASF277:
 7371 10d7 6C617374 		.ascii	"lastSenseASC\000"
 7371      53656E73 
 7371      65415343 
 7371      00
ARM GAS  C:\Users\r\AppData\Local\Temp\ccbXJ1Li.s 			page 164


 7372              	.LASF25:
 7373 10e4 6C6F6E67 		.ascii	"long double\000"
 7373      20646F75 
 7373      626C6500 
 7374              	.LASF69:
 7375 10f0 666C6167 		.ascii	"flags6\000"
 7375      733600
 7376              	.LASF52:
 7377 10f7 73637369 		.ascii	"scsiSectors\000"
 7377      53656374 
 7377      6F727300 
 7378              	.LASF126:
 7379 1103 4C4F4749 		.ascii	"LOGICAL_BLOCK_ADDRESS_OUT_OF_RANGE\000"
 7379      43414C5F 
 7379      424C4F43 
 7379      4B5F4144 
 7379      44524553 
 7380              	.LASF41:
 7381 1126 434F4E46 		.ascii	"CONFIG_MO\000"
 7381      49475F4D 
 7381      4F00
 7382              	.LASF104:
 7383 1130 44454645 		.ascii	"DEFECT_LIST_NOT_FOUND\000"
 7383      43545F4C 
 7383      4953545F 
 7383      4E4F545F 
 7383      464F554E 
 7384              	.LASF234:
 7385 1146 4D53475F 		.ascii	"MSG_REJECT\000"
 7385      52454A45 
 7385      435400
 7386              	.LASF224:
 7387 1151 44415441 		.ascii	"DATA_IN\000"
 7387      5F494E00 
 7388              	.LASF164:
 7389 1159 50415241 		.ascii	"PARAMETER_VALUE_INVALID\000"
 7389      4D455445 
 7389      525F5641 
 7389      4C55455F 
 7389      494E5641 
 7390              	.LASF86:
 7391 1171 4D495343 		.ascii	"MISCOMPARE\000"
 7391      4F4D5041 
 7391      524500
 7392              	.LASF159:
 7393 117c 4F504552 		.ascii	"OPERATOR_SELECTED_WRITE_PERMIT\000"
 7393      41544F52 
 7393      5F53454C 
 7393      45435445 
 7393      445F5752 
 7394              	.LASF32:
 7395 119b 434F4E46 		.ascii	"CONFIG_DISABLE_GLITCH\000"
 7395      49475F44 
 7395      49534142 
 7395      4C455F47 
 7395      4C495443 
 7396              	.LASF316:
ARM GAS  C:\Users\r\AppData\Local\Temp\ccbXJ1Li.s 			page 165


 7397 11b1 6D73674C 		.ascii	"msgLen\000"
 7397      656E00
 7398              	.LASF51:
 7399 11b8 73645365 		.ascii	"sdSectorStart\000"
 7399      63746F72 
 7399      53746172 
 7399      7400
 7400              	.LASF53:
 7401 11c6 62797465 		.ascii	"bytesPerSector\000"
 7401      73506572 
 7401      53656374 
 7401      6F7200
 7402              	.LASF189:
 7403 11d5 5245434F 		.ascii	"RECOVERED_DATA_WITHOUT_ECC_RECOMMEND_REWRITE\000"
 7403      56455245 
 7403      445F4441 
 7403      54415F57 
 7403      4954484F 
 7404              	.LASF337:
 7405 1202 433A5C55 		.ascii	"C:\\Users\\r\\Documents\\Data Sheets\\apple\\SCSI2S"
 7405      73657273 
 7405      5C725C44 
 7405      6F63756D 
 7405      656E7473 
 7406 122f 445C5343 		.ascii	"D\\SCSI2SD_Copy_01.cydsn\000"
 7406      53493253 
 7406      445F436F 
 7406      70795F30 
 7406      312E6379 
 7407              	.LASF58:
 7408 1247 72657669 		.ascii	"revision\000"
 7408      73696F6E 
 7408      00
 7409              	.LASF11:
 7410 1250 6C6F6E67 		.ascii	"long long unsigned int\000"
 7410      206C6F6E 
 7410      6720756E 
 7410      7369676E 
 7410      65642069 
 7411              	.LASF157:
 7412 1267 4F504552 		.ascii	"OPERATOR_MEDIUM_REMOVAL_REQUEST\000"
 7412      41544F52 
 7412      5F4D4544 
 7412      49554D5F 
 7412      52454D4F 
 7413              	.LASF298:
 7414 1287 636F6D6D 		.ascii	"command\000"
 7414      616E6400 
 7415              	.LASF322:
 7416 128f 70726F63 		.ascii	"process_Status\000"
 7416      6573735F 
 7416      53746174 
 7416      757300
 7417              	.LASF14:
 7418 129e 75696E74 		.ascii	"uint16_t\000"
 7418      31365F74 
 7418      00
ARM GAS  C:\Users\r\AppData\Local\Temp\ccbXJ1Li.s 			page 166


 7419              	.LASF248:
 7420 12a7 54617267 		.ascii	"TargetState\000"
 7420      65745374 
 7420      61746500 
 7421              	.LASF280:
 7422 12b3 53435349 		.ascii	"SCSI_Filt_BSY\000"
 7422      5F46696C 
 7422      745F4253 
 7422      5900
 7423              	.LASF301:
 7424 12c1 646F5265 		.ascii	"doReserveRelease\000"
 7424      73657276 
 7424      6552656C 
 7424      65617365 
 7424      00
 7425              	.LASF112:
 7426 12d2 494C4C45 		.ascii	"ILLEGAL_FUNCTION\000"
 7426      47414C5F 
 7426      46554E43 
 7426      54494F4E 
 7426      00
 7427              	.LASF148:
 7428 12e3 4D4F4445 		.ascii	"MODE_PARAMETERS_CHANGED\000"
 7428      5F504152 
 7428      414D4554 
 7428      4552535F 
 7428      4348414E 
 7429              	.LASF38:
 7430 12fb 434F4E46 		.ascii	"CONFIG_REMOVEABLE\000"
 7430      49475F52 
 7430      454D4F56 
 7430      4541424C 
 7430      4500
 7431              	.LASF166:
 7432 130d 50455249 		.ascii	"PERIPHERAL_DEVICE_WRITE_FAULT\000"
 7432      50484552 
 7432      414C5F44 
 7432      45564943 
 7432      455F5752 
 7433              	.LASF146:
 7434 132b 4D495343 		.ascii	"MISCOMPARE_DURING_VERIFY_OPERATION\000"
 7434      4F4D5041 
 7434      52455F44 
 7434      5552494E 
 7434      475F5645 
 7435              	.LASF232:
 7436 134e 434F4E46 		.ascii	"CONFLICT\000"
 7436      4C494354 
 7436      00
 7437              	.LASF174:
 7438 1357 52454144 		.ascii	"READ_RETRIES_EXHAUSTED\000"
 7438      5F524554 
 7438      52494553 
 7438      5F455848 
 7438      41555354 
 7439              	.LASF145:
 7440 136e 4D494352 		.ascii	"MICROCODE_HAS_BEEN_CHANGED\000"
ARM GAS  C:\Users\r\AppData\Local\Temp\ccbXJ1Li.s 			page 167


 7440      4F434F44 
 7440      455F4841 
 7440      535F4245 
 7440      454E5F43 
 7441              	.LASF296:
 7442 1389 70726F63 		.ascii	"process_Command\000"
 7442      6573735F 
 7442      436F6D6D 
 7442      616E6400 
 7443              	.LASF24:
 7444 1399 72656738 		.ascii	"reg8\000"
 7444      00
 7445              	.LASF215:
 7446 139e 5F5F7363 		.ascii	"__scsiphase_cd\000"
 7446      73697068 
 7446      6173655F 
 7446      636400
 7447              	.LASF162:
 7448 13ad 50415241 		.ascii	"PARAMETER_LIST_LENGTH_ERROR\000"
 7448      4D455445 
 7448      525F4C49 
 7448      53545F4C 
 7448      454E4754 
 7449              	.LASF306:
 7450 13c9 72737454 		.ascii	"rstTimerBegin\000"
 7450      696D6572 
 7450      42656769 
 7450      6E00
 7451              	.LASF208:
 7452 13d7 554E5355 		.ascii	"UNSUCCESSFUL_SOFT_RESET\000"
 7452      43434553 
 7452      5346554C 
 7452      5F534F46 
 7452      545F5245 
 7453              	.LASF222:
 7454 13ef 53544154 		.ascii	"STATUS\000"
 7454      555300
 7455              	.LASF310:
 7456 13f6 6D61736B 		.ascii	"maskBitCount\000"
 7456      42697443 
 7456      6F756E74 
 7456      00
 7457              	.LASF212:
 7458 1403 636F6465 		.ascii	"code\000"
 7458      00
 7459              	.LASF118:
 7460 1408 494E5641 		.ascii	"INVALID_COMMAND_OPERATION_CODE\000"
 7460      4C49445F 
 7460      434F4D4D 
 7460      414E445F 
 7460      4F504552 
 7461              	.LASF131:
 7462 1427 4C4F4749 		.ascii	"LOGICAL_UNIT_FAILED_SELF_CONFIGURATION\000"
 7462      43414C5F 
 7462      554E4954 
 7462      5F464149 
 7462      4C45445F 
ARM GAS  C:\Users\r\AppData\Local\Temp\ccbXJ1Li.s 			page 168


 7463              	.LASF89:
 7464 144e 41444452 		.ascii	"ADDRESS_MARK_NOT_FOUND_FOR_ID_FIELD\000"
 7464      4553535F 
 7464      4D41524B 
 7464      5F4E4F54 
 7464      5F464F55 
 7465              	.LASF210:
 7466 1472 57524954 		.ascii	"WRITE_ERROR_RECOVERED_WITH_AUTO_REALLOCATION\000"
 7466      455F4552 
 7466      524F525F 
 7466      5245434F 
 7466      56455245 
 7467              	.LASF130:
 7468 149f 4C4F4749 		.ascii	"LOGICAL_UNIT_DOES_NOT_RESPOND_TO_SELECTION\000"
 7468      43414C5F 
 7468      554E4954 
 7468      5F444F45 
 7468      535F4E4F 
 7469              	.LASF211:
 7470 14ca 57524954 		.ascii	"WRITE_PROTECTED\000"
 7470      455F5052 
 7470      4F544543 
 7470      54454400 
 7471              	.LASF223:
 7472 14da 434F4D4D 		.ascii	"COMMAND\000"
 7472      414E4400 
 7473              	.LASF120:
 7474 14e2 494E5641 		.ascii	"INVALID_FIELD_IN_PARAMETER_LIST\000"
 7474      4C49445F 
 7474      4649454C 
 7474      445F494E 
 7474      5F504152 
 7475              	.LASF155:
 7476 1502 4E4F5F53 		.ascii	"NO_SEEK_COMPLETE\000"
 7476      45454B5F 
 7476      434F4D50 
 7476      4C455445 
 7476      00
 7477              	.LASF17:
 7478 1513 75696E74 		.ascii	"uint8\000"
 7478      3800
 7479              	.LASF268:
 7480 1519 6D73674F 		.ascii	"msgOut\000"
 7480      757400
 7481              	.LASF62:
 7482 1520 6D6F6465 		.ascii	"modePages\000"
 7482      50616765 
 7482      7300
 7483              	.LASF340:
 7484 152a 656E7465 		.ascii	"enter_SelectionPhase\000"
 7484      725F5365 
 7484      6C656374 
 7484      696F6E50 
 7484      68617365 
 7485              	.LASF2:
 7486 153f 73686F72 		.ascii	"short int\000"
 7486      7420696E 
ARM GAS  C:\Users\r\AppData\Local\Temp\ccbXJ1Li.s 			page 169


 7486      7400
 7487              	.LASF82:
 7488 1549 434F5059 		.ascii	"COPY_ABORTED\000"
 7488      5F41424F 
 7488      52544544 
 7488      00
 7489              	.LASF141:
 7490 1556 4D454449 		.ascii	"MEDIUM_FORMAT_CORRUPTED\000"
 7490      554D5F46 
 7490      4F524D41 
 7490      545F434F 
 7490      52525550 
 7491              	.LASF108:
 7492 156e 464F524D 		.ascii	"FORMAT_COMMAND_FAILED\000"
 7492      41545F43 
 7492      4F4D4D41 
 7492      4E445F46 
 7492      41494C45 
 7493              	.LASF117:
 7494 1584 494E5641 		.ascii	"INVALID_BITS_IN_IDENTIFY_MESSAGE\000"
 7494      4C49445F 
 7494      42495453 
 7494      5F494E5F 
 7494      4944454E 
 7495              	.LASF198:
 7496 15a5 5350494E 		.ascii	"SPINDLES_SYNCHRONIZED\000"
 7496      444C4553 
 7496      5F53594E 
 7496      4348524F 
 7496      4E495A45 
 7497              	.LASF302:
 7498 15bb 65787465 		.ascii	"extentReservation\000"
 7498      6E745265 
 7498      73657276 
 7498      6174696F 
 7498      6E00
 7499              	.LASF286:
 7500 15cd 63757272 		.ascii	"currentBlock\000"
 7500      656E7442 
 7500      6C6F636B 
 7500      00
 7501              	.LASF184:
 7502 15da 5245434F 		.ascii	"RECOVERED_DATA_WITH_NO_ERROR_CORRECTION_APPLIED\000"
 7502      56455245 
 7502      445F4441 
 7502      54415F57 
 7502      4954485F 
 7503              	.LASF107:
 7504 160a 4552524F 		.ascii	"ERROR_TOO_LONG_TO_CORRECT\000"
 7504      525F544F 
 7504      4F5F4C4F 
 7504      4E475F54 
 7504      4F5F434F 
 7505              	.LASF314:
 7506 1624 73637369 		.ascii	"scsiReset\000"
 7506      52657365 
 7506      7400
ARM GAS  C:\Users\r\AppData\Local\Temp\ccbXJ1Li.s 			page 170


 7507              	.LASF281:
 7508 162e 53435349 		.ascii	"SCSI_Filt_SEL\000"
 7508      5F46696C 
 7508      745F5345 
 7508      4C00
 7509              	.LASF225:
 7510 163c 44415441 		.ascii	"DATA_OUT\000"
 7510      5F4F5554 
 7510      00
 7511              	.LASF287:
 7512 1645 5472616E 		.ascii	"Transfer\000"
 7512      73666572 
 7512      00
 7513              	.LASF313:
 7514 164e 696E6974 		.ascii	"initiatorMask\000"
 7514      6961746F 
 7514      724D6173 
 7514      6B00
 7515              	.LASF78:
 7516 165c 554E4954 		.ascii	"UNIT_ATTENTION\000"
 7516      5F415454 
 7516      454E5449 
 7516      4F4E00
 7517              	.LASF319:
 7518 166b 53445452 		.ascii	"SDTR\000"
 7518      00
 7519              	.LASF135:
 7520 1670 4C4F4749 		.ascii	"LOGICAL_UNIT_NOT_READY_FORMAT_IN_PROGRESS\000"
 7520      43414C5F 
 7520      554E4954 
 7520      5F4E4F54 
 7520      5F524541 
 7521              	.LASF216:
 7522 169a 5F5F7363 		.ascii	"__scsiphase_io\000"
 7522      73697068 
 7522      6173655F 
 7522      696F00
 7523              	.LASF42:
 7524 16a9 434F4E46 		.ascii	"CONFIG_SEQUENTIAL\000"
 7524      49475F53 
 7524      45515545 
 7524      4E544941 
 7524      4C00
 7525              	.LASF336:
 7526 16bb 2E2E5C2E 		.ascii	"..\\..\\src\\scsi.c\000"
 7526      2E5C7372 
 7526      635C7363 
 7526      73692E63 
 7526      00
 7527              	.LASF251:
 7528 16cc 626F6172 		.ascii	"boardCfg\000"
 7528      64436667 
 7528      00
 7529              	.LASF49:
 7530 16d5 666C6167 		.ascii	"flagsDEPRECATED\000"
 7530      73444550 
 7530      52454341 
ARM GAS  C:\Users\r\AppData\Local\Temp\ccbXJ1Li.s 			page 171


 7530      54454400 
 7531              	.LASF154:
 7532 16e5 4E4F5F52 		.ascii	"NO_REFERENCE_POSITION_FOUND\000"
 7532      45464552 
 7532      454E4345 
 7532      5F504F53 
 7532      4954494F 
 7533              	.LASF90:
 7534 1701 43414E4E 		.ascii	"CANNOT_READ_MEDIUM_INCOMPATIBLE_FORMAT\000"
 7534      4F545F52 
 7534      4541445F 
 7534      4D454449 
 7534      554D5F49 
 7535              	.LASF98:
 7536 1728 44415441 		.ascii	"DATA_PHASE_ERROR\000"
 7536      5F504841 
 7536      53455F45 
 7536      52524F52 
 7536      00
 7537              	.LASF123:
 7538 1739 4C4F475F 		.ascii	"LOG_EXCEPTION\000"
 7538      45584345 
 7538      5054494F 
 7538      4E00
 7539              	.LASF285:
 7540 1747 626C6F63 		.ascii	"blocks\000"
 7540      6B7300
 7541              	.LASF151:
 7542 174e 4E4F5F41 		.ascii	"NO_ADDITIONAL_SENSE_INFORMATION\000"
 7542      44444954 
 7542      494F4E41 
 7542      4C5F5345 
 7542      4E53455F 
 7543              	.LASF278:
 7544 176e 53637369 		.ascii	"ScsiDevice\000"
 7544      44657669 
 7544      636500
 7545              	.LASF16:
 7546 1779 75696E74 		.ascii	"uint32_t\000"
 7546      33325F74 
 7546      00
 7547              	.LASF291:
 7548 1782 656E7465 		.ascii	"enter_Status\000"
 7548      725F5374 
 7548      61747573 
 7548      00
 7549              	.LASF261:
 7550 178f 64617461 		.ascii	"dataLen\000"
 7550      4C656E00 
 7551              	.LASF315:
 7552 1797 70726F63 		.ascii	"process_MessageOut\000"
 7552      6573735F 
 7552      4D657373 
 7552      6167654F 
 7552      757400
 7553              	.LASF30:
 7554 17aa 434F4E46 		.ascii	"CONFIG_ENABLE_PARITY\000"
ARM GAS  C:\Users\r\AppData\Local\Temp\ccbXJ1Li.s 			page 172


 7554      49475F45 
 7554      4E41424C 
 7554      455F5041 
 7554      52495459 
 7555              	.LASF76:
 7556 17bf 48415244 		.ascii	"HARDWARE_ERROR\000"
 7556      57415245 
 7556      5F455252 
 7556      4F5200
 7557              	.LASF61:
 7558 17ce 72657365 		.ascii	"reserved\000"
 7558      72766564 
 7558      00
 7559              	.LASF328:
 7560 17d7 73637369 		.ascii	"scsiIdMask\000"
 7560      49644D61 
 7560      736B00
 7561              	.LASF282:
 7562 17e2 53435349 		.ascii	"SCSI_Filt_RST\000"
 7562      5F46696C 
 7562      745F5253 
 7562      5400
 7563              	.LASF5:
 7564 17f0 73686F72 		.ascii	"short unsigned int\000"
 7564      7420756E 
 7564      7369676E 
 7564      65642069 
 7564      6E7400
 7565              	.LASF65:
 7566 1803 6D616769 		.ascii	"magic\000"
 7566      6300
 7567              	.LASF299:
 7568 1809 74677449 		.ascii	"tgtIndex\000"
 7568      6E646578 
 7568      00
 7569              	.LASF273:
 7570 1812 6D736743 		.ascii	"msgCount\000"
 7570      6F756E74 
 7570      00
 7571              	.LASF254:
 7572 181b 73656C46 		.ascii	"selFlag\000"
 7572      6C616700 
 7573              	.LASF252:
 7574 1823 61746E46 		.ascii	"atnFlag\000"
 7574      6C616700 
 7575              	.LASF127:
 7576 182b 4C4F4749 		.ascii	"LOGICAL_UNIT_COMMUNICATION_FAILURE\000"
 7576      43414C5F 
 7576      554E4954 
 7576      5F434F4D 
 7576      4D554E49 
 7577              	.LASF288:
 7578 184e 6D657373 		.ascii	"message\000"
 7578      61676500 
 7579              	.LASF256:
 7580 1856 73656C44 		.ascii	"selDBX\000"
 7580      425800
ARM GAS  C:\Users\r\AppData\Local\Temp\ccbXJ1Li.s 			page 173


 7581              	.LASF190:
 7582 185d 5245434F 		.ascii	"RECOVERED_ID_WITH_ECC_CORRECTION\000"
 7582      56455245 
 7582      445F4944 
 7582      5F574954 
 7582      485F4543 
 7583              	.LASF115:
 7584 187e 494E5155 		.ascii	"INQUIRY_DATA_HAS_CHANGED\000"
 7584      4952595F 
 7584      44415441 
 7584      5F484153 
 7584      5F434841 
 7585              	.LASF229:
 7586 1897 43484543 		.ascii	"CHECK_CONDITION\000"
 7586      4B5F434F 
 7586      4E444954 
 7586      494F4E00 
 7587              	.LASF6:
 7588 18a7 5F5F696E 		.ascii	"__int32_t\000"
 7588      7433325F 
 7588      7400
 7589              	.LASF57:
 7590 18b1 70726F64 		.ascii	"prodId\000"
 7590      496400
 7591              	.LASF133:
 7592 18b8 4C4F4749 		.ascii	"LOGICAL_UNIT_IS_IN_PROCESS_OF_BECOMING_READY\000"
 7592      43414C5F 
 7592      554E4954 
 7592      5F49535F 
 7592      494E5F50 
 7593              	.LASF300:
 7594 18e5 616C6C6F 		.ascii	"allocLength\000"
 7594      634C656E 
 7594      67746800 
 7595              	.LASF294:
 7596 18f1 70726F63 		.ascii	"process_DataIn\000"
 7596      6573735F 
 7596      44617461 
 7596      496E00
 7597              	.LASF102:
 7598 1900 44454645 		.ascii	"DEFECT_LIST_ERROR_IN_PRIMARY_LIST\000"
 7598      43545F4C 
 7598      4953545F 
 7598      4552524F 
 7598      525F494E 
 7599              	.LASF283:
 7600 1922 53435349 		.ascii	"SCSI_Filt_ACK\000"
 7600      5F46696C 
 7600      745F4143 
 7600      4B00
 7601              	.LASF73:
 7602 1930 5245434F 		.ascii	"RECOVERED_ERROR\000"
 7602      56455245 
 7602      445F4552 
 7602      524F5200 
 7603              	.LASF202:
 7604 1940 54485245 		.ascii	"THRESHOLD_PARAMETERS_NOT_SUPPORTED\000"
ARM GAS  C:\Users\r\AppData\Local\Temp\ccbXJ1Li.s 			page 174


 7604      53484F4C 
 7604      445F5041 
 7604      52414D45 
 7604      54455253 
 7605              	.LASF245:
 7606 1963 756E6974 		.ascii	"unitAttention\000"
 7606      41747465 
 7606      6E74696F 
 7606      6E00
 7607              	.LASF258:
 7608 1971 64617461 		.ascii	"data\000"
 7608      00
 7609              	.LASF46:
 7610 1976 434F4E46 		.ascii	"CONFIG_QUIRKS_XEBEC\000"
 7610      49475F51 
 7610      5549524B 
 7610      535F5845 
 7610      42454300 
 7611              	.LASF18:
 7612 198a 75696E74 		.ascii	"uint16\000"
 7612      313600
 7613              	.LASF125:
 7614 1991 4C4F475F 		.ascii	"LOG_PARAMETERS_CHANGED\000"
 7614      50415241 
 7614      4D455445 
 7614      52535F43 
 7614      48414E47 
 7615              	.LASF260:
 7616 19a8 73617665 		.ascii	"savedDataPtr\000"
 7616      64446174 
 7616      61507472 
 7616      00
 7617              	.LASF197:
 7618 19b5 5350494E 		.ascii	"SPINDLES_NOT_SYNCHRONIZED\000"
 7618      444C4553 
 7618      5F4E4F54 
 7618      5F53594E 
 7618      4348524F 
 7619              	.LASF205:
 7620 19cf 554E5245 		.ascii	"UNRECOVERED_READ_ERROR_AUTO_REALLOCATE_FAILED\000"
 7620      434F5645 
 7620      5245445F 
 7620      52454144 
 7620      5F455252 
 7621              		.ident	"GCC: (GNU Tools for ARM Embedded Processors) 5.4.1 20160609 (release) [ARM/embedded-5-bran
