ARM GAS  C:\Users\r\AppData\Local\Temp\ccbXJ1Li.s 			page 1


   1              		.syntax unified
   2              		.cpu cortex-m3
   3              		.fpu softvfp
   4              		.eabi_attribute 20, 1
   5              		.eabi_attribute 21, 1
   6              		.eabi_attribute 23, 3
   7              		.eabi_attribute 24, 1
   8              		.eabi_attribute 25, 1
   9              		.eabi_attribute 26, 1
  10              		.eabi_attribute 30, 6
  11              		.eabi_attribute 34, 1
  12              		.eabi_attribute 18, 4
  13              		.thumb
  14              		.syntax unified
  15              		.file	"scsi.c"
  16              		.text
  17              	.Ltext0:
  18              		.cfi_sections	.debug_frame
  19              		.comm	scsiDev,16816,4
  20              		.section	.text.enter_BusFree,"ax",%progbits
  21              		.align	2
  22              		.global	enter_BusFree
  23              		.thumb
  24              		.thumb_func
  25              		.type	enter_BusFree, %function
  26              	enter_BusFree:
  27              	.LFB64:
  28              		.file 1 "..\\..\\src\\scsi.c"
   1:..\..\src/scsi.c **** //	Copyright (C) 2014 Michael McMaster <michael@codesrc.com>
   2:..\..\src/scsi.c **** //
   3:..\..\src/scsi.c **** //	This file is part of SCSI2SD.
   4:..\..\src/scsi.c **** //
   5:..\..\src/scsi.c **** //	SCSI2SD is free software: you can redistribute it and/or modify
   6:..\..\src/scsi.c **** //	it under the terms of the GNU General Public License as published by
   7:..\..\src/scsi.c **** //	the Free Software Foundation, either version 3 of the License, or
   8:..\..\src/scsi.c **** //	(at your option) any later version.
   9:..\..\src/scsi.c **** //
  10:..\..\src/scsi.c **** //	SCSI2SD is distributed in the hope that it will be useful,
  11:..\..\src/scsi.c **** //	but WITHOUT ANY WARRANTY; without even the implied warranty of
  12:..\..\src/scsi.c **** //	MERCHANTABILITY or FITNESS FOR A PARTICULAR PURPOSE.  See the
  13:..\..\src/scsi.c **** //	GNU General Public License for more details.
  14:..\..\src/scsi.c **** //
  15:..\..\src/scsi.c **** //	You should have received a copy of the GNU General Public License
  16:..\..\src/scsi.c **** //	along with SCSI2SD.  If not, see <http://www.gnu.org/licenses/>.
  17:..\..\src/scsi.c **** 
  18:..\..\src/scsi.c **** #include "device.h"
  19:..\..\src/scsi.c **** #include "scsi.h"
  20:..\..\src/scsi.c **** #include "scsiPhy.h"
  21:..\..\src/scsi.c **** #include "config.h"
  22:..\..\src/scsi.c **** #include "bits.h"
  23:..\..\src/scsi.c **** #include "diagnostic.h"
  24:..\..\src/scsi.c **** #include "disk.h"
  25:..\..\src/scsi.c **** #include "inquiry.h"
  26:..\..\src/scsi.c **** #include "led.h"
  27:..\..\src/scsi.c **** #include "mode.h"
  28:..\..\src/scsi.c **** #include "disk.h"
  29:..\..\src/scsi.c **** #include "time.h"
ARM GAS  C:\Users\r\AppData\Local\Temp\ccbXJ1Li.s 			page 2


  30:..\..\src/scsi.c **** #include "cdrom.h"
  31:..\..\src/scsi.c **** #include "debug.h"
  32:..\..\src/scsi.c **** #include "tape.h"
  33:..\..\src/scsi.c **** #include "mo.h"
  34:..\..\src/scsi.c **** #include "vendor.h"
  35:..\..\src/scsi.c **** 
  36:..\..\src/scsi.c **** #include <string.h>
  37:..\..\src/scsi.c **** 
  38:..\..\src/scsi.c **** // Global SCSI device state.
  39:..\..\src/scsi.c **** ScsiDevice scsiDev;
  40:..\..\src/scsi.c **** 
  41:..\..\src/scsi.c **** static void enter_SelectionPhase(void);
  42:..\..\src/scsi.c **** static void process_SelectionPhase(void);
  43:..\..\src/scsi.c **** static void enter_MessageIn(uint8 message);
  44:..\..\src/scsi.c **** static void enter_Status(uint8 status);
  45:..\..\src/scsi.c **** static void enter_DataIn(int len);
  46:..\..\src/scsi.c **** static void process_DataIn(void);
  47:..\..\src/scsi.c **** static void process_DataOut(void);
  48:..\..\src/scsi.c **** static void process_Command(void);
  49:..\..\src/scsi.c **** 
  50:..\..\src/scsi.c **** static void doReserveRelease(void);
  51:..\..\src/scsi.c **** 
  52:..\..\src/scsi.c **** void enter_BusFree()
  53:..\..\src/scsi.c **** {
  29              		.loc 1 53 0
  30              		.cfi_startproc
  31              		@ args = 0, pretend = 0, frame = 0
  32              		@ frame_needed = 1, uses_anonymous_args = 0
  33 0000 80B5     		push	{r7, lr}
  34              		.cfi_def_cfa_offset 8
  35              		.cfi_offset 7, -8
  36              		.cfi_offset 14, -4
  37 0002 00AF     		add	r7, sp, #0
  38              		.cfi_def_cfa_register 7
  54:..\..\src/scsi.c **** 	// This delay probably isn't needed for most SCSI hosts, but it won't
  55:..\..\src/scsi.c **** 	// hurt either. It's possible some of the samplers needed this delay.
  56:..\..\src/scsi.c **** 	if (scsiDev.compatMode < COMPAT_SCSI2)
  39              		.loc 1 56 0
  40 0004 194B     		ldr	r3, .L4
  41 0006 03F58343 		add	r3, r3, #16768
  42 000a 1733     		adds	r3, r3, #23
  43 000c 1B78     		ldrb	r3, [r3]	@ zero_extendqisi2
  44 000e 022B     		cmp	r3, #2
  45 0010 02D8     		bhi	.L2
  57:..\..\src/scsi.c **** 	{
  58:..\..\src/scsi.c **** 		CyDelayUs(2);
  46              		.loc 1 58 0
  47 0012 0220     		movs	r0, #2
  48 0014 FFF7FEFF 		bl	CyDelayUs
  49              	.L2:
  59:..\..\src/scsi.c **** 	}
  60:..\..\src/scsi.c **** 
  61:..\..\src/scsi.c **** 	if (scsiDev.status != GOOD && isDebugEnabled())
  50              		.loc 1 61 0
  51 0018 144B     		ldr	r3, .L4
  52 001a 03F58343 		add	r3, r3, #16768
  53 001e 1C33     		adds	r3, r3, #28
ARM GAS  C:\Users\r\AppData\Local\Temp\ccbXJ1Li.s 			page 3


  54 0020 1B78     		ldrb	r3, [r3]	@ zero_extendqisi2
  55 0022 002B     		cmp	r3, #0
  56 0024 07D0     		beq	.L3
  57              		.loc 1 61 0 is_stmt 0 discriminator 1
  58 0026 FFF7FEFF 		bl	isDebugEnabled
  59 002a 0346     		mov	r3, r0
  60 002c 002B     		cmp	r3, #0
  61 002e 02D0     		beq	.L3
  62:..\..\src/scsi.c **** 	{
  63:..\..\src/scsi.c **** 		// We want to capture debug information for failure cases.
  64:..\..\src/scsi.c **** 		CyDelay(64);
  62              		.loc 1 64 0 is_stmt 1
  63 0030 4020     		movs	r0, #64
  64 0032 FFF7FEFF 		bl	CyDelay
  65              	.L3:
  65:..\..\src/scsi.c **** 	}
  66:..\..\src/scsi.c **** 
  67:..\..\src/scsi.c **** 	SCSI_ClearPin(SCSI_Out_BSY);
  66              		.loc 1 67 0
  67 0036 0E4A     		ldr	r2, .L4+4
  68 0038 0D4B     		ldr	r3, .L4+4
  69 003a 1B78     		ldrb	r3, [r3]
  70 003c DBB2     		uxtb	r3, r3
  71 003e 23F00103 		bic	r3, r3, #1
  72 0042 DBB2     		uxtb	r3, r3
  73 0044 1370     		strb	r3, [r2]
  68:..\..\src/scsi.c **** 	// We now have a Bus Clear Delay of 800ns to release remaining signals.
  69:..\..\src/scsi.c **** 	SCSI_CTL_PHASE_Write(0);
  74              		.loc 1 69 0
  75 0046 0020     		movs	r0, #0
  76 0048 FFF7FEFF 		bl	SCSI_CTL_PHASE_Write
  70:..\..\src/scsi.c **** 
  71:..\..\src/scsi.c **** 	// Wait for the initiator to cease driving signals
  72:..\..\src/scsi.c **** 	// Bus settle delay + bus clear delay = 1200ns
  73:..\..\src/scsi.c **** 	CyDelayUs(2);
  77              		.loc 1 73 0
  78 004c 0220     		movs	r0, #2
  79 004e FFF7FEFF 		bl	CyDelayUs
  74:..\..\src/scsi.c **** 
  75:..\..\src/scsi.c **** 	ledOff();
  80              		.loc 1 75 0
  81 0052 FFF7FEFF 		bl	ledOff
  76:..\..\src/scsi.c **** 	scsiDev.phase = BUS_FREE;
  82              		.loc 1 76 0
  83 0056 054B     		ldr	r3, .L4
  84 0058 4FF0FF32 		mov	r2, #-1
  85 005c C3F87821 		str	r2, [r3, #376]
  77:..\..\src/scsi.c **** 	scsiDev.selFlag = 0;
  86              		.loc 1 77 0
  87 0060 024B     		ldr	r3, .L4
  88 0062 0022     		movs	r2, #0
  89 0064 C3F86C21 		str	r2, [r3, #364]
  78:..\..\src/scsi.c **** }
  90              		.loc 1 78 0
  91 0068 00BF     		nop
  92 006a 80BD     		pop	{r7, pc}
  93              	.L5:
ARM GAS  C:\Users\r\AppData\Local\Temp\ccbXJ1Li.s 			page 4


  94              		.align	2
  95              	.L4:
  96 006c 00000000 		.word	scsiDev
  97 0070 31500040 		.word	1073762353
  98              		.cfi_endproc
  99              	.LFE64:
 100              		.size	enter_BusFree, .-enter_BusFree
 101              		.section	.text.enter_MessageIn,"ax",%progbits
 102              		.align	2
 103              		.thumb
 104              		.thumb_func
 105              		.type	enter_MessageIn, %function
 106              	enter_MessageIn:
 107              	.LFB65:
  79:..\..\src/scsi.c **** 
  80:..\..\src/scsi.c **** static void enter_MessageIn(uint8 message)
  81:..\..\src/scsi.c **** {
 108              		.loc 1 81 0
 109              		.cfi_startproc
 110              		@ args = 0, pretend = 0, frame = 8
 111              		@ frame_needed = 1, uses_anonymous_args = 0
 112              		@ link register save eliminated.
 113 0000 80B4     		push	{r7}
 114              		.cfi_def_cfa_offset 4
 115              		.cfi_offset 7, -4
 116 0002 83B0     		sub	sp, sp, #12
 117              		.cfi_def_cfa_offset 16
 118 0004 00AF     		add	r7, sp, #0
 119              		.cfi_def_cfa_register 7
 120 0006 0346     		mov	r3, r0
 121 0008 FB71     		strb	r3, [r7, #7]
  82:..\..\src/scsi.c **** 	scsiDev.msgIn = message;
 122              		.loc 1 82 0
 123 000a 074B     		ldr	r3, .L7
 124 000c 03F58343 		add	r3, r3, #16768
 125 0010 1D33     		adds	r3, r3, #29
 126 0012 FA79     		ldrb	r2, [r7, #7]
 127 0014 1A70     		strb	r2, [r3]
  83:..\..\src/scsi.c **** 	scsiDev.phase = MESSAGE_IN;
 128              		.loc 1 83 0
 129 0016 044B     		ldr	r3, .L7
 130 0018 0722     		movs	r2, #7
 131 001a C3F87821 		str	r2, [r3, #376]
  84:..\..\src/scsi.c **** }
 132              		.loc 1 84 0
 133 001e 00BF     		nop
 134 0020 0C37     		adds	r7, r7, #12
 135              		.cfi_def_cfa_offset 4
 136 0022 BD46     		mov	sp, r7
 137              		.cfi_def_cfa_register 13
 138              		@ sp needed
 139 0024 80BC     		pop	{r7}
 140              		.cfi_restore 7
 141              		.cfi_def_cfa_offset 0
 142 0026 7047     		bx	lr
 143              	.L8:
 144              		.align	2
ARM GAS  C:\Users\r\AppData\Local\Temp\ccbXJ1Li.s 			page 5


 145              	.L7:
 146 0028 00000000 		.word	scsiDev
 147              		.cfi_endproc
 148              	.LFE65:
 149              		.size	enter_MessageIn, .-enter_MessageIn
 150              		.section	.text.process_MessageIn,"ax",%progbits
 151              		.align	2
 152              		.global	process_MessageIn
 153              		.thumb
 154              		.thumb_func
 155              		.type	process_MessageIn, %function
 156              	process_MessageIn:
 157              	.LFB66:
  85:..\..\src/scsi.c **** 
  86:..\..\src/scsi.c **** int process_MessageIn(int releaseBusFree)
  87:..\..\src/scsi.c **** {
 158              		.loc 1 87 0
 159              		.cfi_startproc
 160              		@ args = 0, pretend = 0, frame = 8
 161              		@ frame_needed = 1, uses_anonymous_args = 0
 162 0000 80B5     		push	{r7, lr}
 163              		.cfi_def_cfa_offset 8
 164              		.cfi_offset 7, -8
 165              		.cfi_offset 14, -4
 166 0002 82B0     		sub	sp, sp, #8
 167              		.cfi_def_cfa_offset 16
 168 0004 00AF     		add	r7, sp, #0
 169              		.cfi_def_cfa_register 7
 170 0006 7860     		str	r0, [r7, #4]
  88:..\..\src/scsi.c **** 	scsiEnterPhase(MESSAGE_IN);
 171              		.loc 1 88 0
 172 0008 0720     		movs	r0, #7
 173 000a FFF7FEFF 		bl	scsiEnterPhase
  89:..\..\src/scsi.c **** 	scsiWriteByte(scsiDev.msgIn);
 174              		.loc 1 89 0
 175 000e 2A4B     		ldr	r3, .L15
 176 0010 03F58343 		add	r3, r3, #16768
 177 0014 1D33     		adds	r3, r3, #29
 178 0016 1B78     		ldrb	r3, [r3]	@ zero_extendqisi2
 179 0018 1846     		mov	r0, r3
 180 001a FFF7FEFF 		bl	scsiWriteByte
  90:..\..\src/scsi.c **** 
  91:..\..\src/scsi.c **** 	if (unlikely(scsiDev.atnFlag))
 181              		.loc 1 91 0
 182 001e 264B     		ldr	r3, .L15
 183 0020 D3F86431 		ldr	r3, [r3, #356]
 184 0024 002B     		cmp	r3, #0
 185 0026 14BF     		ite	ne
 186 0028 0123     		movne	r3, #1
 187 002a 0023     		moveq	r3, #0
 188 002c DBB2     		uxtb	r3, r3
 189 002e 002B     		cmp	r3, #0
 190 0030 01D0     		beq	.L10
  92:..\..\src/scsi.c **** 	{
  93:..\..\src/scsi.c **** 		// If there was a parity error, we go
  94:..\..\src/scsi.c **** 		// back to MESSAGE_OUT first, get out parity error message, then come
  95:..\..\src/scsi.c **** 		// back here.
ARM GAS  C:\Users\r\AppData\Local\Temp\ccbXJ1Li.s 			page 6


  96:..\..\src/scsi.c **** 		return 0;
 191              		.loc 1 96 0
 192 0032 0023     		movs	r3, #0
 193 0034 3CE0     		b	.L11
 194              	.L10:
  97:..\..\src/scsi.c **** 	}
  98:..\..\src/scsi.c **** 	else if ((scsiDev.msgIn == MSG_LINKED_COMMAND_COMPLETE) ||
 195              		.loc 1 98 0
 196 0036 204B     		ldr	r3, .L15
 197 0038 03F58343 		add	r3, r3, #16768
 198 003c 1D33     		adds	r3, r3, #29
 199 003e 1B78     		ldrb	r3, [r3]	@ zero_extendqisi2
 200 0040 0A2B     		cmp	r3, #10
 201 0042 06D0     		beq	.L12
  99:..\..\src/scsi.c **** 		(scsiDev.msgIn == MSG_LINKED_COMMAND_COMPLETE_WITH_FLAG))
 202              		.loc 1 99 0 discriminator 1
 203 0044 1C4B     		ldr	r3, .L15
 204 0046 03F58343 		add	r3, r3, #16768
 205 004a 1D33     		adds	r3, r3, #29
 206 004c 1B78     		ldrb	r3, [r3]	@ zero_extendqisi2
  98:..\..\src/scsi.c **** 		(scsiDev.msgIn == MSG_LINKED_COMMAND_COMPLETE_WITH_FLAG))
 207              		.loc 1 98 0 discriminator 1
 208 004e 0B2B     		cmp	r3, #11
 209 0050 26D1     		bne	.L13
 210              	.L12:
 100:..\..\src/scsi.c **** 	{
 101:..\..\src/scsi.c **** 		// Go back to the command phase and start again.
 102:..\..\src/scsi.c **** 		scsiDev.phase = COMMAND;
 211              		.loc 1 102 0
 212 0052 194B     		ldr	r3, .L15
 213 0054 0222     		movs	r2, #2
 214 0056 C3F87821 		str	r2, [r3, #376]
 103:..\..\src/scsi.c **** 		scsiDev.parityError = 0;
 215              		.loc 1 103 0
 216 005a 174B     		ldr	r3, .L15
 217 005c 0022     		movs	r2, #0
 218 005e C3F87021 		str	r2, [r3, #368]
 104:..\..\src/scsi.c **** 		scsiDev.dataPtr = 0;
 219              		.loc 1 104 0
 220 0062 154B     		ldr	r3, .L15
 221 0064 03F58243 		add	r3, r3, #16640
 222 0068 7C33     		adds	r3, r3, #124
 223 006a 0022     		movs	r2, #0
 224 006c 1A60     		str	r2, [r3]
 105:..\..\src/scsi.c **** 		scsiDev.savedDataPtr = 0;
 225              		.loc 1 105 0
 226 006e 124B     		ldr	r3, .L15
 227 0070 03F58343 		add	r3, r3, #16768
 228 0074 0022     		movs	r2, #0
 229 0076 1A60     		str	r2, [r3]
 106:..\..\src/scsi.c **** 		scsiDev.dataLen = 0;
 230              		.loc 1 106 0
 231 0078 0F4B     		ldr	r3, .L15
 232 007a 03F58343 		add	r3, r3, #16768
 233 007e 0433     		adds	r3, r3, #4
 234 0080 0022     		movs	r2, #0
 235 0082 1A60     		str	r2, [r3]
ARM GAS  C:\Users\r\AppData\Local\Temp\ccbXJ1Li.s 			page 7


 107:..\..\src/scsi.c **** 		scsiDev.status = GOOD;
 236              		.loc 1 107 0
 237 0084 0C4B     		ldr	r3, .L15
 238 0086 03F58343 		add	r3, r3, #16768
 239 008a 1C33     		adds	r3, r3, #28
 240 008c 0022     		movs	r2, #0
 241 008e 1A70     		strb	r2, [r3]
 108:..\..\src/scsi.c **** 		transfer.blocks = 0;
 242              		.loc 1 108 0
 243 0090 0A4B     		ldr	r3, .L15+4
 244 0092 0022     		movs	r2, #0
 245 0094 9A60     		str	r2, [r3, #8]
 109:..\..\src/scsi.c **** 		transfer.currentBlock = 0;
 246              		.loc 1 109 0
 247 0096 094B     		ldr	r3, .L15+4
 248 0098 0022     		movs	r2, #0
 249 009a DA60     		str	r2, [r3, #12]
 110:..\..\src/scsi.c **** 		return 0;
 250              		.loc 1 110 0
 251 009c 0023     		movs	r3, #0
 252 009e 07E0     		b	.L11
 253              	.L13:
 111:..\..\src/scsi.c **** 	}
 112:..\..\src/scsi.c **** 	else if (releaseBusFree) /*if (scsiDev.msgIn == MSG_COMMAND_COMPLETE)*/
 254              		.loc 1 112 0
 255 00a0 7B68     		ldr	r3, [r7, #4]
 256 00a2 002B     		cmp	r3, #0
 257 00a4 03D0     		beq	.L14
 113:..\..\src/scsi.c **** 	{
 114:..\..\src/scsi.c **** 		enter_BusFree();
 258              		.loc 1 114 0
 259 00a6 FFF7FEFF 		bl	enter_BusFree
 115:..\..\src/scsi.c **** 		return 1;
 260              		.loc 1 115 0
 261 00aa 0123     		movs	r3, #1
 262 00ac 00E0     		b	.L11
 263              	.L14:
 116:..\..\src/scsi.c **** 	}
 117:..\..\src/scsi.c **** 	else
 118:..\..\src/scsi.c **** 	{
 119:..\..\src/scsi.c **** 		return 1;
 264              		.loc 1 119 0
 265 00ae 0123     		movs	r3, #1
 266              	.L11:
 120:..\..\src/scsi.c **** 	}
 121:..\..\src/scsi.c **** }
 267              		.loc 1 121 0
 268 00b0 1846     		mov	r0, r3
 269 00b2 0837     		adds	r7, r7, #8
 270              		.cfi_def_cfa_offset 8
 271 00b4 BD46     		mov	sp, r7
 272              		.cfi_def_cfa_register 13
 273              		@ sp needed
 274 00b6 80BD     		pop	{r7, pc}
 275              	.L16:
 276              		.align	2
 277              	.L15:
ARM GAS  C:\Users\r\AppData\Local\Temp\ccbXJ1Li.s 			page 8


 278 00b8 00000000 		.word	scsiDev
 279 00bc 00000000 		.word	transfer
 280              		.cfi_endproc
 281              	.LFE66:
 282              		.size	process_MessageIn, .-process_MessageIn
 283              		.section	.text.messageReject,"ax",%progbits
 284              		.align	2
 285              		.thumb
 286              		.thumb_func
 287              		.type	messageReject, %function
 288              	messageReject:
 289              	.LFB67:
 122:..\..\src/scsi.c **** 
 123:..\..\src/scsi.c **** static void messageReject()
 124:..\..\src/scsi.c **** {
 290              		.loc 1 124 0
 291              		.cfi_startproc
 292              		@ args = 0, pretend = 0, frame = 0
 293              		@ frame_needed = 1, uses_anonymous_args = 0
 294 0000 80B5     		push	{r7, lr}
 295              		.cfi_def_cfa_offset 8
 296              		.cfi_offset 7, -8
 297              		.cfi_offset 14, -4
 298 0002 00AF     		add	r7, sp, #0
 299              		.cfi_def_cfa_register 7
 125:..\..\src/scsi.c **** 	scsiEnterPhase(MESSAGE_IN);
 300              		.loc 1 125 0
 301 0004 0720     		movs	r0, #7
 302 0006 FFF7FEFF 		bl	scsiEnterPhase
 126:..\..\src/scsi.c **** 	scsiWriteByte(MSG_REJECT);
 303              		.loc 1 126 0
 304 000a 0720     		movs	r0, #7
 305 000c FFF7FEFF 		bl	scsiWriteByte
 127:..\..\src/scsi.c **** }
 306              		.loc 1 127 0
 307 0010 00BF     		nop
 308 0012 80BD     		pop	{r7, pc}
 309              		.cfi_endproc
 310              	.LFE67:
 311              		.size	messageReject, .-messageReject
 312              		.section	.text.enter_Status,"ax",%progbits
 313              		.align	2
 314              		.thumb
 315              		.thumb_func
 316              		.type	enter_Status, %function
 317              	enter_Status:
 318              	.LFB68:
 128:..\..\src/scsi.c **** 
 129:..\..\src/scsi.c **** static void enter_Status(uint8 status)
 130:..\..\src/scsi.c **** {
 319              		.loc 1 130 0
 320              		.cfi_startproc
 321              		@ args = 0, pretend = 0, frame = 8
 322              		@ frame_needed = 1, uses_anonymous_args = 0
 323              		@ link register save eliminated.
 324 0000 80B4     		push	{r7}
 325              		.cfi_def_cfa_offset 4
ARM GAS  C:\Users\r\AppData\Local\Temp\ccbXJ1Li.s 			page 9


 326              		.cfi_offset 7, -4
 327 0002 83B0     		sub	sp, sp, #12
 328              		.cfi_def_cfa_offset 16
 329 0004 00AF     		add	r7, sp, #0
 330              		.cfi_def_cfa_register 7
 331 0006 0346     		mov	r3, r0
 332 0008 FB71     		strb	r3, [r7, #7]
 131:..\..\src/scsi.c **** 	scsiDev.status = status;
 333              		.loc 1 131 0
 334 000a 144B     		ldr	r3, .L19
 335 000c 03F58343 		add	r3, r3, #16768
 336 0010 1C33     		adds	r3, r3, #28
 337 0012 FA79     		ldrb	r2, [r7, #7]
 338 0014 1A70     		strb	r2, [r3]
 132:..\..\src/scsi.c **** 	scsiDev.phase = STATUS;
 339              		.loc 1 132 0
 340 0016 114B     		ldr	r3, .L19
 341 0018 0622     		movs	r2, #6
 342 001a C3F87821 		str	r2, [r3, #376]
 133:..\..\src/scsi.c **** 
 134:..\..\src/scsi.c **** 	scsiDev.lastStatus = scsiDev.status;
 343              		.loc 1 134 0
 344 001e 0F4B     		ldr	r3, .L19
 345 0020 03F58343 		add	r3, r3, #16768
 346 0024 1C33     		adds	r3, r3, #28
 347 0026 1A78     		ldrb	r2, [r3]	@ zero_extendqisi2
 348 0028 0C4B     		ldr	r3, .L19
 349 002a 03F58343 		add	r3, r3, #16768
 350 002e 2933     		adds	r3, r3, #41
 351 0030 1A70     		strb	r2, [r3]
 135:..\..\src/scsi.c **** 	scsiDev.lastSense = scsiDev.target->sense.code;
 352              		.loc 1 135 0
 353 0032 0A4B     		ldr	r3, .L19
 354 0034 1B6E     		ldr	r3, [r3, #96]
 355 0036 9A7A     		ldrb	r2, [r3, #10]	@ zero_extendqisi2
 356 0038 084B     		ldr	r3, .L19
 357 003a 03F58343 		add	r3, r3, #16768
 358 003e 2A33     		adds	r3, r3, #42
 359 0040 1A70     		strb	r2, [r3]
 136:..\..\src/scsi.c **** 	scsiDev.lastSenseASC = scsiDev.target->sense.asc;
 360              		.loc 1 136 0
 361 0042 064B     		ldr	r3, .L19
 362 0044 1B6E     		ldr	r3, [r3, #96]
 363 0046 9A89     		ldrh	r2, [r3, #12]
 364 0048 044B     		ldr	r3, .L19
 365 004a 03F58343 		add	r3, r3, #16768
 366 004e 2C33     		adds	r3, r3, #44
 367 0050 1A80     		strh	r2, [r3]	@ movhi
 137:..\..\src/scsi.c **** }
 368              		.loc 1 137 0
 369 0052 00BF     		nop
 370 0054 0C37     		adds	r7, r7, #12
 371              		.cfi_def_cfa_offset 4
 372 0056 BD46     		mov	sp, r7
 373              		.cfi_def_cfa_register 13
 374              		@ sp needed
 375 0058 80BC     		pop	{r7}
ARM GAS  C:\Users\r\AppData\Local\Temp\ccbXJ1Li.s 			page 10


 376              		.cfi_restore 7
 377              		.cfi_def_cfa_offset 0
 378 005a 7047     		bx	lr
 379              	.L20:
 380              		.align	2
 381              	.L19:
 382 005c 00000000 		.word	scsiDev
 383              		.cfi_endproc
 384              	.LFE68:
 385              		.size	enter_Status, .-enter_Status
 386              		.section	.text.process_Status,"ax",%progbits
 387              		.align	2
 388              		.global	process_Status
 389              		.thumb
 390              		.thumb_func
 391              		.type	process_Status, %function
 392              	process_Status:
 393              	.LFB69:
 138:..\..\src/scsi.c **** 
 139:..\..\src/scsi.c **** void process_Status()
 140:..\..\src/scsi.c **** {
 394              		.loc 1 140 0
 395              		.cfi_startproc
 396              		@ args = 0, pretend = 0, frame = 8
 397              		@ frame_needed = 1, uses_anonymous_args = 0
 398 0000 80B5     		push	{r7, lr}
 399              		.cfi_def_cfa_offset 8
 400              		.cfi_offset 7, -8
 401              		.cfi_offset 14, -4
 402 0002 82B0     		sub	sp, sp, #8
 403              		.cfi_def_cfa_offset 16
 404 0004 00AF     		add	r7, sp, #0
 405              		.cfi_def_cfa_register 7
 141:..\..\src/scsi.c **** 	scsiEnterPhase(STATUS);
 406              		.loc 1 141 0
 407 0006 0620     		movs	r0, #6
 408 0008 FFF7FEFF 		bl	scsiEnterPhase
 142:..\..\src/scsi.c **** 
 143:..\..\src/scsi.c **** 	uint8 message;
 144:..\..\src/scsi.c **** 
 145:..\..\src/scsi.c **** 	uint8 control = scsiDev.cdb[scsiDev.cdbLen - 1];
 409              		.loc 1 145 0
 410 000c 604B     		ldr	r3, .L33
 411 000e 03F58343 		add	r3, r3, #16768
 412 0012 1433     		adds	r3, r3, #20
 413 0014 1B78     		ldrb	r3, [r3]	@ zero_extendqisi2
 414 0016 013B     		subs	r3, r3, #1
 415 0018 5D4A     		ldr	r2, .L33
 416 001a 1344     		add	r3, r3, r2
 417 001c 03F58343 		add	r3, r3, #16768
 418 0020 0833     		adds	r3, r3, #8
 419 0022 1B78     		ldrb	r3, [r3]
 420 0024 BB71     		strb	r3, [r7, #6]
 146:..\..\src/scsi.c **** 
 147:..\..\src/scsi.c **** 	if (scsiDev.target->cfg->quirks == CONFIG_QUIRKS_OMTI)
 421              		.loc 1 147 0
 422 0026 5A4B     		ldr	r3, .L33
ARM GAS  C:\Users\r\AppData\Local\Temp\ccbXJ1Li.s 			page 11


 423 0028 1B6E     		ldr	r3, [r3, #96]
 424 002a 5B68     		ldr	r3, [r3, #4]
 425 002c DB8F     		ldrh	r3, [r3, #62]	@ unaligned
 426 002e 9BB2     		uxth	r3, r3
 427 0030 022B     		cmp	r3, #2
 428 0032 09D1     		bne	.L22
 148:..\..\src/scsi.c **** 	{
 149:..\..\src/scsi.c **** 		// OMTI non-standard LINK control
 150:..\..\src/scsi.c **** 		if (control & 0x01)
 429              		.loc 1 150 0
 430 0034 BB79     		ldrb	r3, [r7, #6]	@ zero_extendqisi2
 431 0036 03F00103 		and	r3, r3, #1
 432 003a 002B     		cmp	r3, #0
 433 003c 04D0     		beq	.L22
 151:..\..\src/scsi.c **** 		{
 152:..\..\src/scsi.c **** 			scsiDev.phase = COMMAND;
 434              		.loc 1 152 0
 435 003e 544B     		ldr	r3, .L33
 436 0040 0222     		movs	r2, #2
 437 0042 C3F87821 		str	r2, [r3, #376]
 153:..\..\src/scsi.c **** 			return;
 438              		.loc 1 153 0
 439 0046 9FE0     		b	.L21
 440              	.L22:
 154:..\..\src/scsi.c **** 		}
 155:..\..\src/scsi.c **** 	}
 156:..\..\src/scsi.c **** 
 157:..\..\src/scsi.c **** 	if ((scsiDev.status == GOOD) && (control & 0x01) &&
 441              		.loc 1 157 0
 442 0048 514B     		ldr	r3, .L33
 443 004a 03F58343 		add	r3, r3, #16768
 444 004e 1C33     		adds	r3, r3, #28
 445 0050 1B78     		ldrb	r3, [r3]	@ zero_extendqisi2
 446 0052 002B     		cmp	r3, #0
 447 0054 1CD1     		bne	.L24
 448              		.loc 1 157 0 is_stmt 0 discriminator 1
 449 0056 BB79     		ldrb	r3, [r7, #6]	@ zero_extendqisi2
 450 0058 03F00103 		and	r3, r3, #1
 451 005c 002B     		cmp	r3, #0
 452 005e 17D0     		beq	.L24
 158:..\..\src/scsi.c **** 		scsiDev.target->cfg->quirks != CONFIG_QUIRKS_XEBEC)
 453              		.loc 1 158 0 is_stmt 1 discriminator 2
 454 0060 4B4B     		ldr	r3, .L33
 455 0062 1B6E     		ldr	r3, [r3, #96]
 456 0064 5B68     		ldr	r3, [r3, #4]
 457 0066 DB8F     		ldrh	r3, [r3, #62]	@ unaligned
 458 0068 9BB2     		uxth	r3, r3
 157:..\..\src/scsi.c **** 		scsiDev.target->cfg->quirks != CONFIG_QUIRKS_XEBEC)
 459              		.loc 1 157 0 discriminator 2
 460 006a 042B     		cmp	r3, #4
 461 006c 10D0     		beq	.L24
 159:..\..\src/scsi.c **** 	{
 160:..\..\src/scsi.c **** 		// Linked command.
 161:..\..\src/scsi.c **** 		scsiDev.status = INTERMEDIATE;
 462              		.loc 1 161 0
 463 006e 484B     		ldr	r3, .L33
 464 0070 03F58343 		add	r3, r3, #16768
ARM GAS  C:\Users\r\AppData\Local\Temp\ccbXJ1Li.s 			page 12


 465 0074 1C33     		adds	r3, r3, #28
 466 0076 1022     		movs	r2, #16
 467 0078 1A70     		strb	r2, [r3]
 162:..\..\src/scsi.c **** 		if (control & 0x02)
 468              		.loc 1 162 0
 469 007a BB79     		ldrb	r3, [r7, #6]	@ zero_extendqisi2
 470 007c 03F00203 		and	r3, r3, #2
 471 0080 002B     		cmp	r3, #0
 472 0082 02D0     		beq	.L25
 163:..\..\src/scsi.c **** 		{
 164:..\..\src/scsi.c **** 			message = MSG_LINKED_COMMAND_COMPLETE_WITH_FLAG;
 473              		.loc 1 164 0
 474 0084 0B23     		movs	r3, #11
 475 0086 FB71     		strb	r3, [r7, #7]
 162:..\..\src/scsi.c **** 		if (control & 0x02)
 476              		.loc 1 162 0
 477 0088 04E0     		b	.L27
 478              	.L25:
 165:..\..\src/scsi.c **** 		}
 166:..\..\src/scsi.c **** 		else
 167:..\..\src/scsi.c **** 		{
 168:..\..\src/scsi.c **** 			message = MSG_LINKED_COMMAND_COMPLETE;
 479              		.loc 1 168 0
 480 008a 0A23     		movs	r3, #10
 481 008c FB71     		strb	r3, [r7, #7]
 162:..\..\src/scsi.c **** 		{
 482              		.loc 1 162 0
 483 008e 01E0     		b	.L27
 484              	.L24:
 169:..\..\src/scsi.c **** 		}
 170:..\..\src/scsi.c **** 	}
 171:..\..\src/scsi.c **** 	else
 172:..\..\src/scsi.c **** 	{
 173:..\..\src/scsi.c **** 		message = MSG_COMMAND_COMPLETE;
 485              		.loc 1 173 0
 486 0090 0023     		movs	r3, #0
 487 0092 FB71     		strb	r3, [r7, #7]
 488              	.L27:
 174:..\..\src/scsi.c **** 	}
 175:..\..\src/scsi.c **** 
 176:..\..\src/scsi.c **** 
 177:..\..\src/scsi.c **** 	if (scsiDev.target->cfg->quirks == CONFIG_QUIRKS_XEBEC)
 489              		.loc 1 177 0
 490 0094 3E4B     		ldr	r3, .L33
 491 0096 1B6E     		ldr	r3, [r3, #96]
 492 0098 5B68     		ldr	r3, [r3, #4]
 493 009a DB8F     		ldrh	r3, [r3, #62]	@ unaligned
 494 009c 9BB2     		uxth	r3, r3
 495 009e 042B     		cmp	r3, #4
 496 00a0 26D1     		bne	.L28
 178:..\..\src/scsi.c **** 	{
 179:..\..\src/scsi.c **** 		// More non-standardness. Expects 2 status bytes (really status + msg)
 180:..\..\src/scsi.c **** 		// 00 d 000 err 0
 181:..\..\src/scsi.c **** 		// d == disk number
 182:..\..\src/scsi.c **** 		// ERR = 1 if error.
 183:..\..\src/scsi.c **** 		if (scsiDev.status == GOOD)
 497              		.loc 1 183 0
ARM GAS  C:\Users\r\AppData\Local\Temp\ccbXJ1Li.s 			page 13


 498 00a2 3B4B     		ldr	r3, .L33
 499 00a4 03F58343 		add	r3, r3, #16768
 500 00a8 1C33     		adds	r3, r3, #28
 501 00aa 1B78     		ldrb	r3, [r3]	@ zero_extendqisi2
 502 00ac 002B     		cmp	r3, #0
 503 00ae 0BD1     		bne	.L29
 184:..\..\src/scsi.c **** 		{
 185:..\..\src/scsi.c **** 			scsiWriteByte(scsiDev.cdb[1] & 0x20);
 504              		.loc 1 185 0
 505 00b0 374B     		ldr	r3, .L33
 506 00b2 03F58343 		add	r3, r3, #16768
 507 00b6 0933     		adds	r3, r3, #9
 508 00b8 1B78     		ldrb	r3, [r3]	@ zero_extendqisi2
 509 00ba 03F02003 		and	r3, r3, #32
 510 00be DBB2     		uxtb	r3, r3
 511 00c0 1846     		mov	r0, r3
 512 00c2 FFF7FEFF 		bl	scsiWriteByte
 513 00c6 0FE0     		b	.L30
 514              	.L29:
 186:..\..\src/scsi.c **** 		}
 187:..\..\src/scsi.c **** 		else
 188:..\..\src/scsi.c **** 		{
 189:..\..\src/scsi.c **** 			scsiWriteByte((scsiDev.cdb[1] & 0x20) | 0x2);
 515              		.loc 1 189 0
 516 00c8 314B     		ldr	r3, .L33
 517 00ca 03F58343 		add	r3, r3, #16768
 518 00ce 0933     		adds	r3, r3, #9
 519 00d0 1B78     		ldrb	r3, [r3]	@ zero_extendqisi2
 520 00d2 5BB2     		sxtb	r3, r3
 521 00d4 03F02003 		and	r3, r3, #32
 522 00d8 5BB2     		sxtb	r3, r3
 523 00da 43F00203 		orr	r3, r3, #2
 524 00de 5BB2     		sxtb	r3, r3
 525 00e0 DBB2     		uxtb	r3, r3
 526 00e2 1846     		mov	r0, r3
 527 00e4 FFF7FEFF 		bl	scsiWriteByte
 528              	.L30:
 190:..\..\src/scsi.c **** 		}
 191:..\..\src/scsi.c **** 		CyDelayUs(10); // Seems to need a delay before changing phase bits.
 529              		.loc 1 191 0
 530 00e8 0A20     		movs	r0, #10
 531 00ea FFF7FEFF 		bl	CyDelayUs
 532 00ee 2DE0     		b	.L31
 533              	.L28:
 192:..\..\src/scsi.c **** 	}
 193:..\..\src/scsi.c **** 	else if (scsiDev.target->cfg->quirks == CONFIG_QUIRKS_OMTI)
 534              		.loc 1 193 0
 535 00f0 274B     		ldr	r3, .L33
 536 00f2 1B6E     		ldr	r3, [r3, #96]
 537 00f4 5B68     		ldr	r3, [r3, #4]
 538 00f6 DB8F     		ldrh	r3, [r3, #62]	@ unaligned
 539 00f8 9BB2     		uxth	r3, r3
 540 00fa 022B     		cmp	r3, #2
 541 00fc 1ED1     		bne	.L32
 194:..\..\src/scsi.c **** 	{
 195:..\..\src/scsi.c **** 		scsiDev.status |= (scsiDev.target->targetId & 0x03) << 5;
 542              		.loc 1 195 0
ARM GAS  C:\Users\r\AppData\Local\Temp\ccbXJ1Li.s 			page 14


 543 00fe 244B     		ldr	r3, .L33
 544 0100 03F58343 		add	r3, r3, #16768
 545 0104 1C33     		adds	r3, r3, #28
 546 0106 1B78     		ldrb	r3, [r3]	@ zero_extendqisi2
 547 0108 5AB2     		sxtb	r2, r3
 548 010a 214B     		ldr	r3, .L33
 549 010c 1B6E     		ldr	r3, [r3, #96]
 550 010e 1B78     		ldrb	r3, [r3]	@ zero_extendqisi2
 551 0110 5B01     		lsls	r3, r3, #5
 552 0112 5BB2     		sxtb	r3, r3
 553 0114 03F06003 		and	r3, r3, #96
 554 0118 5BB2     		sxtb	r3, r3
 555 011a 1343     		orrs	r3, r3, r2
 556 011c 5BB2     		sxtb	r3, r3
 557 011e DAB2     		uxtb	r2, r3
 558 0120 1B4B     		ldr	r3, .L33
 559 0122 03F58343 		add	r3, r3, #16768
 560 0126 1C33     		adds	r3, r3, #28
 561 0128 1A70     		strb	r2, [r3]
 196:..\..\src/scsi.c **** 		scsiWriteByte(scsiDev.status);
 562              		.loc 1 196 0
 563 012a 194B     		ldr	r3, .L33
 564 012c 03F58343 		add	r3, r3, #16768
 565 0130 1C33     		adds	r3, r3, #28
 566 0132 1B78     		ldrb	r3, [r3]	@ zero_extendqisi2
 567 0134 1846     		mov	r0, r3
 568 0136 FFF7FEFF 		bl	scsiWriteByte
 569 013a 07E0     		b	.L31
 570              	.L32:
 197:..\..\src/scsi.c **** 	}
 198:..\..\src/scsi.c **** 	else
 199:..\..\src/scsi.c **** 	{
 200:..\..\src/scsi.c **** 		scsiWriteByte(scsiDev.status);
 571              		.loc 1 200 0
 572 013c 144B     		ldr	r3, .L33
 573 013e 03F58343 		add	r3, r3, #16768
 574 0142 1C33     		adds	r3, r3, #28
 575 0144 1B78     		ldrb	r3, [r3]	@ zero_extendqisi2
 576 0146 1846     		mov	r0, r3
 577 0148 FFF7FEFF 		bl	scsiWriteByte
 578              	.L31:
 201:..\..\src/scsi.c **** 	}
 202:..\..\src/scsi.c **** 
 203:..\..\src/scsi.c **** 	scsiDev.lastStatus = scsiDev.status;
 579              		.loc 1 203 0
 580 014c 104B     		ldr	r3, .L33
 581 014e 03F58343 		add	r3, r3, #16768
 582 0152 1C33     		adds	r3, r3, #28
 583 0154 1A78     		ldrb	r2, [r3]	@ zero_extendqisi2
 584 0156 0E4B     		ldr	r3, .L33
 585 0158 03F58343 		add	r3, r3, #16768
 586 015c 2933     		adds	r3, r3, #41
 587 015e 1A70     		strb	r2, [r3]
 204:..\..\src/scsi.c **** 	scsiDev.lastSense = scsiDev.target->sense.code;
 588              		.loc 1 204 0
 589 0160 0B4B     		ldr	r3, .L33
 590 0162 1B6E     		ldr	r3, [r3, #96]
ARM GAS  C:\Users\r\AppData\Local\Temp\ccbXJ1Li.s 			page 15


 591 0164 9A7A     		ldrb	r2, [r3, #10]	@ zero_extendqisi2
 592 0166 0A4B     		ldr	r3, .L33
 593 0168 03F58343 		add	r3, r3, #16768
 594 016c 2A33     		adds	r3, r3, #42
 595 016e 1A70     		strb	r2, [r3]
 205:..\..\src/scsi.c **** 	scsiDev.lastSenseASC = scsiDev.target->sense.asc;
 596              		.loc 1 205 0
 597 0170 074B     		ldr	r3, .L33
 598 0172 1B6E     		ldr	r3, [r3, #96]
 599 0174 9A89     		ldrh	r2, [r3, #12]
 600 0176 064B     		ldr	r3, .L33
 601 0178 03F58343 		add	r3, r3, #16768
 602 017c 2C33     		adds	r3, r3, #44
 603 017e 1A80     		strh	r2, [r3]	@ movhi
 206:..\..\src/scsi.c **** 
 207:..\..\src/scsi.c **** 
 208:..\..\src/scsi.c **** 	// Command Complete occurs AFTER a valid status has been
 209:..\..\src/scsi.c **** 	// sent. then we go bus-free.
 210:..\..\src/scsi.c **** 	enter_MessageIn(message);
 604              		.loc 1 210 0
 605 0180 FB79     		ldrb	r3, [r7, #7]	@ zero_extendqisi2
 606 0182 1846     		mov	r0, r3
 607 0184 FFF7FEFF 		bl	enter_MessageIn
 608              	.L21:
 211:..\..\src/scsi.c **** }
 609              		.loc 1 211 0
 610 0188 0837     		adds	r7, r7, #8
 611              		.cfi_def_cfa_offset 8
 612 018a BD46     		mov	sp, r7
 613              		.cfi_def_cfa_register 13
 614              		@ sp needed
 615 018c 80BD     		pop	{r7, pc}
 616              	.L34:
 617 018e 00BF     		.align	2
 618              	.L33:
 619 0190 00000000 		.word	scsiDev
 620              		.cfi_endproc
 621              	.LFE69:
 622              		.size	process_Status, .-process_Status
 623              		.section	.text.enter_DataIn,"ax",%progbits
 624              		.align	2
 625              		.thumb
 626              		.thumb_func
 627              		.type	enter_DataIn, %function
 628              	enter_DataIn:
 629              	.LFB70:
 212:..\..\src/scsi.c **** 
 213:..\..\src/scsi.c **** static void enter_DataIn(int len)
 214:..\..\src/scsi.c **** {
 630              		.loc 1 214 0
 631              		.cfi_startproc
 632              		@ args = 0, pretend = 0, frame = 8
 633              		@ frame_needed = 1, uses_anonymous_args = 0
 634              		@ link register save eliminated.
 635 0000 80B4     		push	{r7}
 636              		.cfi_def_cfa_offset 4
 637              		.cfi_offset 7, -4
ARM GAS  C:\Users\r\AppData\Local\Temp\ccbXJ1Li.s 			page 16


 638 0002 83B0     		sub	sp, sp, #12
 639              		.cfi_def_cfa_offset 16
 640 0004 00AF     		add	r7, sp, #0
 641              		.cfi_def_cfa_register 7
 642 0006 7860     		str	r0, [r7, #4]
 215:..\..\src/scsi.c **** 	scsiDev.dataLen = len;
 643              		.loc 1 215 0
 644 0008 074B     		ldr	r3, .L36
 645 000a 03F58343 		add	r3, r3, #16768
 646 000e 0433     		adds	r3, r3, #4
 647 0010 7A68     		ldr	r2, [r7, #4]
 648 0012 1A60     		str	r2, [r3]
 216:..\..\src/scsi.c **** 	scsiDev.phase = DATA_IN;
 649              		.loc 1 216 0
 650 0014 044B     		ldr	r3, .L36
 651 0016 0422     		movs	r2, #4
 652 0018 C3F87821 		str	r2, [r3, #376]
 217:..\..\src/scsi.c **** }
 653              		.loc 1 217 0
 654 001c 00BF     		nop
 655 001e 0C37     		adds	r7, r7, #12
 656              		.cfi_def_cfa_offset 4
 657 0020 BD46     		mov	sp, r7
 658              		.cfi_def_cfa_register 13
 659              		@ sp needed
 660 0022 80BC     		pop	{r7}
 661              		.cfi_restore 7
 662              		.cfi_def_cfa_offset 0
 663 0024 7047     		bx	lr
 664              	.L37:
 665 0026 00BF     		.align	2
 666              	.L36:
 667 0028 00000000 		.word	scsiDev
 668              		.cfi_endproc
 669              	.LFE70:
 670              		.size	enter_DataIn, .-enter_DataIn
 671              		.section	.text.process_DataIn,"ax",%progbits
 672              		.align	2
 673              		.thumb
 674              		.thumb_func
 675              		.type	process_DataIn, %function
 676              	process_DataIn:
 677              	.LFB71:
 218:..\..\src/scsi.c **** 
 219:..\..\src/scsi.c **** static void process_DataIn()
 220:..\..\src/scsi.c **** {
 678              		.loc 1 220 0
 679              		.cfi_startproc
 680              		@ args = 0, pretend = 0, frame = 8
 681              		@ frame_needed = 1, uses_anonymous_args = 0
 682 0000 80B5     		push	{r7, lr}
 683              		.cfi_def_cfa_offset 8
 684              		.cfi_offset 7, -8
 685              		.cfi_offset 14, -4
 686 0002 82B0     		sub	sp, sp, #8
 687              		.cfi_def_cfa_offset 16
 688 0004 00AF     		add	r7, sp, #0
ARM GAS  C:\Users\r\AppData\Local\Temp\ccbXJ1Li.s 			page 17


 689              		.cfi_def_cfa_register 7
 221:..\..\src/scsi.c **** 	uint32 len;
 222:..\..\src/scsi.c **** 
 223:..\..\src/scsi.c **** 	if (scsiDev.dataLen > sizeof(scsiDev.data))
 690              		.loc 1 223 0
 691 0006 2A4B     		ldr	r3, .L43
 692 0008 03F58343 		add	r3, r3, #16768
 693 000c 0433     		adds	r3, r3, #4
 694 000e 1B68     		ldr	r3, [r3]
 695 0010 B3F5804F 		cmp	r3, #16384
 696 0014 06D9     		bls	.L39
 224:..\..\src/scsi.c **** 	{
 225:..\..\src/scsi.c **** 		scsiDev.dataLen = sizeof(scsiDev.data);
 697              		.loc 1 225 0
 698 0016 264B     		ldr	r3, .L43
 699 0018 03F58343 		add	r3, r3, #16768
 700 001c 0433     		adds	r3, r3, #4
 701 001e 4FF48042 		mov	r2, #16384
 702 0022 1A60     		str	r2, [r3]
 703              	.L39:
 226:..\..\src/scsi.c **** 	}
 227:..\..\src/scsi.c **** 
 228:..\..\src/scsi.c **** 	len = scsiDev.dataLen - scsiDev.dataPtr;
 704              		.loc 1 228 0
 705 0024 224B     		ldr	r3, .L43
 706 0026 03F58343 		add	r3, r3, #16768
 707 002a 0433     		adds	r3, r3, #4
 708 002c 1A68     		ldr	r2, [r3]
 709 002e 204B     		ldr	r3, .L43
 710 0030 03F58243 		add	r3, r3, #16640
 711 0034 7C33     		adds	r3, r3, #124
 712 0036 1B68     		ldr	r3, [r3]
 713 0038 D31A     		subs	r3, r2, r3
 714 003a 7B60     		str	r3, [r7, #4]
 229:..\..\src/scsi.c **** 	if (len > 0)
 715              		.loc 1 229 0
 716 003c 7B68     		ldr	r3, [r7, #4]
 717 003e 002B     		cmp	r3, #0
 718 0040 1CD0     		beq	.L40
 230:..\..\src/scsi.c **** 	{
 231:..\..\src/scsi.c **** 		scsiEnterPhase(DATA_IN);
 719              		.loc 1 231 0
 720 0042 0420     		movs	r0, #4
 721 0044 FFF7FEFF 		bl	scsiEnterPhase
 232:..\..\src/scsi.c **** 		scsiWrite(scsiDev.data + scsiDev.dataPtr, len);
 722              		.loc 1 232 0
 723 0048 194B     		ldr	r3, .L43
 724 004a 03F58243 		add	r3, r3, #16640
 725 004e 7C33     		adds	r3, r3, #124
 726 0050 1B68     		ldr	r3, [r3]
 727 0052 1A46     		mov	r2, r3
 728 0054 174B     		ldr	r3, .L43+4
 729 0056 1344     		add	r3, r3, r2
 730 0058 7968     		ldr	r1, [r7, #4]
 731 005a 1846     		mov	r0, r3
 732 005c FFF7FEFF 		bl	scsiWrite
 233:..\..\src/scsi.c **** 		scsiDev.dataPtr += len;
ARM GAS  C:\Users\r\AppData\Local\Temp\ccbXJ1Li.s 			page 18


 733              		.loc 1 233 0
 734 0060 134B     		ldr	r3, .L43
 735 0062 03F58243 		add	r3, r3, #16640
 736 0066 7C33     		adds	r3, r3, #124
 737 0068 1B68     		ldr	r3, [r3]
 738 006a 1A46     		mov	r2, r3
 739 006c 7B68     		ldr	r3, [r7, #4]
 740 006e 1344     		add	r3, r3, r2
 741 0070 1A46     		mov	r2, r3
 742 0072 0F4B     		ldr	r3, .L43
 743 0074 03F58243 		add	r3, r3, #16640
 744 0078 7C33     		adds	r3, r3, #124
 745 007a 1A60     		str	r2, [r3]
 746              	.L40:
 234:..\..\src/scsi.c **** 	}
 235:..\..\src/scsi.c **** 
 236:..\..\src/scsi.c **** 	if ((scsiDev.dataPtr >= scsiDev.dataLen) &&
 747              		.loc 1 236 0
 748 007c 0C4B     		ldr	r3, .L43
 749 007e 03F58243 		add	r3, r3, #16640
 750 0082 7C33     		adds	r3, r3, #124
 751 0084 1A68     		ldr	r2, [r3]
 752 0086 0A4B     		ldr	r3, .L43
 753 0088 03F58343 		add	r3, r3, #16768
 754 008c 0433     		adds	r3, r3, #4
 755 008e 1B68     		ldr	r3, [r3]
 756 0090 9A42     		cmp	r2, r3
 757 0092 08DB     		blt	.L42
 237:..\..\src/scsi.c **** 		(transfer.currentBlock == transfer.blocks))
 758              		.loc 1 237 0 discriminator 1
 759 0094 084B     		ldr	r3, .L43+8
 760 0096 DA68     		ldr	r2, [r3, #12]
 761 0098 074B     		ldr	r3, .L43+8
 762 009a 9B68     		ldr	r3, [r3, #8]
 236:..\..\src/scsi.c **** 		(transfer.currentBlock == transfer.blocks))
 763              		.loc 1 236 0 discriminator 1
 764 009c 9A42     		cmp	r2, r3
 765 009e 02D1     		bne	.L42
 238:..\..\src/scsi.c **** 	{
 239:..\..\src/scsi.c **** 		enter_Status(GOOD);
 766              		.loc 1 239 0
 767 00a0 0020     		movs	r0, #0
 768 00a2 FFF7FEFF 		bl	enter_Status
 769              	.L42:
 240:..\..\src/scsi.c **** 	}
 241:..\..\src/scsi.c **** }
 770              		.loc 1 241 0
 771 00a6 00BF     		nop
 772 00a8 0837     		adds	r7, r7, #8
 773              		.cfi_def_cfa_offset 8
 774 00aa BD46     		mov	sp, r7
 775              		.cfi_def_cfa_register 13
 776              		@ sp needed
 777 00ac 80BD     		pop	{r7, pc}
 778              	.L44:
 779 00ae 00BF     		.align	2
 780              	.L43:
ARM GAS  C:\Users\r\AppData\Local\Temp\ccbXJ1Li.s 			page 19


 781 00b0 00000000 		.word	scsiDev
 782 00b4 7C010000 		.word	scsiDev+380
 783 00b8 00000000 		.word	transfer
 784              		.cfi_endproc
 785              	.LFE71:
 786              		.size	process_DataIn, .-process_DataIn
 787              		.section	.text.process_DataOut,"ax",%progbits
 788              		.align	2
 789              		.thumb
 790              		.thumb_func
 791              		.type	process_DataOut, %function
 792              	process_DataOut:
 793              	.LFB72:
 242:..\..\src/scsi.c **** 
 243:..\..\src/scsi.c **** static void process_DataOut()
 244:..\..\src/scsi.c **** {
 794              		.loc 1 244 0
 795              		.cfi_startproc
 796              		@ args = 0, pretend = 0, frame = 8
 797              		@ frame_needed = 1, uses_anonymous_args = 0
 798 0000 80B5     		push	{r7, lr}
 799              		.cfi_def_cfa_offset 8
 800              		.cfi_offset 7, -8
 801              		.cfi_offset 14, -4
 802 0002 82B0     		sub	sp, sp, #8
 803              		.cfi_def_cfa_offset 16
 804 0004 00AF     		add	r7, sp, #0
 805              		.cfi_def_cfa_register 7
 245:..\..\src/scsi.c **** 	uint32 len;
 246:..\..\src/scsi.c **** 
 247:..\..\src/scsi.c **** 	if (scsiDev.dataLen > sizeof(scsiDev.data))
 806              		.loc 1 247 0
 807 0006 424B     		ldr	r3, .L51
 808 0008 03F58343 		add	r3, r3, #16768
 809 000c 0433     		adds	r3, r3, #4
 810 000e 1B68     		ldr	r3, [r3]
 811 0010 B3F5804F 		cmp	r3, #16384
 812 0014 06D9     		bls	.L46
 248:..\..\src/scsi.c **** 	{
 249:..\..\src/scsi.c **** 		scsiDev.dataLen = sizeof(scsiDev.data);
 813              		.loc 1 249 0
 814 0016 3E4B     		ldr	r3, .L51
 815 0018 03F58343 		add	r3, r3, #16768
 816 001c 0433     		adds	r3, r3, #4
 817 001e 4FF48042 		mov	r2, #16384
 818 0022 1A60     		str	r2, [r3]
 819              	.L46:
 250:..\..\src/scsi.c **** 	}
 251:..\..\src/scsi.c **** 
 252:..\..\src/scsi.c **** 	scsiDev.parityError = 0;
 820              		.loc 1 252 0
 821 0024 3A4B     		ldr	r3, .L51
 822 0026 0022     		movs	r2, #0
 823 0028 C3F87021 		str	r2, [r3, #368]
 253:..\..\src/scsi.c **** 	len = scsiDev.dataLen - scsiDev.dataPtr;
 824              		.loc 1 253 0
 825 002c 384B     		ldr	r3, .L51
ARM GAS  C:\Users\r\AppData\Local\Temp\ccbXJ1Li.s 			page 20


 826 002e 03F58343 		add	r3, r3, #16768
 827 0032 0433     		adds	r3, r3, #4
 828 0034 1A68     		ldr	r2, [r3]
 829 0036 364B     		ldr	r3, .L51
 830 0038 03F58243 		add	r3, r3, #16640
 831 003c 7C33     		adds	r3, r3, #124
 832 003e 1B68     		ldr	r3, [r3]
 833 0040 D31A     		subs	r3, r2, r3
 834 0042 7B60     		str	r3, [r7, #4]
 254:..\..\src/scsi.c **** 	if (len > 0)
 835              		.loc 1 254 0
 836 0044 7B68     		ldr	r3, [r7, #4]
 837 0046 002B     		cmp	r3, #0
 838 0048 3BD0     		beq	.L47
 255:..\..\src/scsi.c **** 	{
 256:..\..\src/scsi.c **** 		scsiEnterPhase(DATA_OUT);
 839              		.loc 1 256 0
 840 004a 0020     		movs	r0, #0
 841 004c FFF7FEFF 		bl	scsiEnterPhase
 257:..\..\src/scsi.c **** 
 258:..\..\src/scsi.c **** 		scsiRead(scsiDev.data + scsiDev.dataPtr, len);
 842              		.loc 1 258 0
 843 0050 2F4B     		ldr	r3, .L51
 844 0052 03F58243 		add	r3, r3, #16640
 845 0056 7C33     		adds	r3, r3, #124
 846 0058 1B68     		ldr	r3, [r3]
 847 005a 1A46     		mov	r2, r3
 848 005c 2D4B     		ldr	r3, .L51+4
 849 005e 1344     		add	r3, r3, r2
 850 0060 7968     		ldr	r1, [r7, #4]
 851 0062 1846     		mov	r0, r3
 852 0064 FFF7FEFF 		bl	scsiRead
 259:..\..\src/scsi.c **** 		scsiDev.dataPtr += len;
 853              		.loc 1 259 0
 854 0068 294B     		ldr	r3, .L51
 855 006a 03F58243 		add	r3, r3, #16640
 856 006e 7C33     		adds	r3, r3, #124
 857 0070 1B68     		ldr	r3, [r3]
 858 0072 1A46     		mov	r2, r3
 859 0074 7B68     		ldr	r3, [r7, #4]
 860 0076 1344     		add	r3, r3, r2
 861 0078 1A46     		mov	r2, r3
 862 007a 254B     		ldr	r3, .L51
 863 007c 03F58243 		add	r3, r3, #16640
 864 0080 7C33     		adds	r3, r3, #124
 865 0082 1A60     		str	r2, [r3]
 260:..\..\src/scsi.c **** 
 261:..\..\src/scsi.c **** 		if (scsiDev.parityError &&
 866              		.loc 1 261 0
 867 0084 224B     		ldr	r3, .L51
 868 0086 D3F87031 		ldr	r3, [r3, #368]
 869 008a 002B     		cmp	r3, #0
 870 008c 19D0     		beq	.L47
 262:..\..\src/scsi.c **** 			(scsiDev.boardCfg.flags & CONFIG_ENABLE_PARITY) &&
 871              		.loc 1 262 0 discriminator 1
 872 008e 204B     		ldr	r3, .L51
 873 0090 93F86830 		ldrb	r3, [r3, #104]	@ zero_extendqisi2
ARM GAS  C:\Users\r\AppData\Local\Temp\ccbXJ1Li.s 			page 21


 874 0094 03F00203 		and	r3, r3, #2
 261:..\..\src/scsi.c **** 			(scsiDev.boardCfg.flags & CONFIG_ENABLE_PARITY) &&
 875              		.loc 1 261 0 discriminator 1
 876 0098 002B     		cmp	r3, #0
 877 009a 12D0     		beq	.L47
 263:..\..\src/scsi.c **** 			(scsiDev.compatMode >= COMPAT_SCSI2))
 878              		.loc 1 263 0
 879 009c 1C4B     		ldr	r3, .L51
 880 009e 03F58343 		add	r3, r3, #16768
 881 00a2 1733     		adds	r3, r3, #23
 882 00a4 1B78     		ldrb	r3, [r3]	@ zero_extendqisi2
 262:..\..\src/scsi.c **** 			(scsiDev.boardCfg.flags & CONFIG_ENABLE_PARITY) &&
 883              		.loc 1 262 0
 884 00a6 022B     		cmp	r3, #2
 885 00a8 0BD9     		bls	.L47
 264:..\..\src/scsi.c **** 		{
 265:..\..\src/scsi.c **** 			scsiDev.target->sense.code = ABORTED_COMMAND;
 886              		.loc 1 265 0
 887 00aa 194B     		ldr	r3, .L51
 888 00ac 1B6E     		ldr	r3, [r3, #96]
 889 00ae 0B22     		movs	r2, #11
 890 00b0 9A72     		strb	r2, [r3, #10]
 266:..\..\src/scsi.c **** 			scsiDev.target->sense.asc = SCSI_PARITY_ERROR;
 891              		.loc 1 266 0
 892 00b2 174B     		ldr	r3, .L51
 893 00b4 1B6E     		ldr	r3, [r3, #96]
 894 00b6 4FF48E42 		mov	r2, #18176
 895 00ba 9A81     		strh	r2, [r3, #12]	@ movhi
 267:..\..\src/scsi.c **** 			enter_Status(CHECK_CONDITION);
 896              		.loc 1 267 0
 897 00bc 0220     		movs	r0, #2
 898 00be FFF7FEFF 		bl	enter_Status
 899              	.L47:
 268:..\..\src/scsi.c **** 		}
 269:..\..\src/scsi.c **** 	}
 270:..\..\src/scsi.c **** 
 271:..\..\src/scsi.c **** 	if ((scsiDev.dataPtr >= scsiDev.dataLen) &&
 900              		.loc 1 271 0
 901 00c2 134B     		ldr	r3, .L51
 902 00c4 03F58243 		add	r3, r3, #16640
 903 00c8 7C33     		adds	r3, r3, #124
 904 00ca 1A68     		ldr	r2, [r3]
 905 00cc 104B     		ldr	r3, .L51
 906 00ce 03F58343 		add	r3, r3, #16768
 907 00d2 0433     		adds	r3, r3, #4
 908 00d4 1B68     		ldr	r3, [r3]
 909 00d6 9A42     		cmp	r2, r3
 910 00d8 16DB     		blt	.L50
 272:..\..\src/scsi.c **** 		(transfer.currentBlock == transfer.blocks))
 911              		.loc 1 272 0 discriminator 1
 912 00da 0F4B     		ldr	r3, .L51+8
 913 00dc DA68     		ldr	r2, [r3, #12]
 914 00de 0E4B     		ldr	r3, .L51+8
 915 00e0 9B68     		ldr	r3, [r3, #8]
 271:..\..\src/scsi.c **** 		(transfer.currentBlock == transfer.blocks))
 916              		.loc 1 271 0 discriminator 1
 917 00e2 9A42     		cmp	r2, r3
ARM GAS  C:\Users\r\AppData\Local\Temp\ccbXJ1Li.s 			page 22


 918 00e4 10D1     		bne	.L50
 273:..\..\src/scsi.c **** 	{
 274:..\..\src/scsi.c **** 		if (scsiDev.postDataOutHook != NULL)
 919              		.loc 1 274 0
 920 00e6 0A4B     		ldr	r3, .L51
 921 00e8 03F58343 		add	r3, r3, #16768
 922 00ec 2033     		adds	r3, r3, #32
 923 00ee 1B68     		ldr	r3, [r3]
 924 00f0 002B     		cmp	r3, #0
 925 00f2 06D0     		beq	.L49
 275:..\..\src/scsi.c **** 		{
 276:..\..\src/scsi.c **** 			scsiDev.postDataOutHook();
 926              		.loc 1 276 0
 927 00f4 064B     		ldr	r3, .L51
 928 00f6 03F58343 		add	r3, r3, #16768
 929 00fa 2033     		adds	r3, r3, #32
 930 00fc 1B68     		ldr	r3, [r3]
 931 00fe 9847     		blx	r3
 277:..\..\src/scsi.c **** 		}
 278:..\..\src/scsi.c **** 		else
 279:..\..\src/scsi.c **** 		{
 280:..\..\src/scsi.c **** 			enter_Status(GOOD);
 281:..\..\src/scsi.c **** 		}
 282:..\..\src/scsi.c **** 	}
 283:..\..\src/scsi.c **** }
 932              		.loc 1 283 0
 933 0100 02E0     		b	.L50
 934              	.L49:
 280:..\..\src/scsi.c **** 		}
 935              		.loc 1 280 0
 936 0102 0020     		movs	r0, #0
 937 0104 FFF7FEFF 		bl	enter_Status
 938              	.L50:
 939              		.loc 1 283 0
 940 0108 00BF     		nop
 941 010a 0837     		adds	r7, r7, #8
 942              		.cfi_def_cfa_offset 8
 943 010c BD46     		mov	sp, r7
 944              		.cfi_def_cfa_register 13
 945              		@ sp needed
 946 010e 80BD     		pop	{r7, pc}
 947              	.L52:
 948              		.align	2
 949              	.L51:
 950 0110 00000000 		.word	scsiDev
 951 0114 7C010000 		.word	scsiDev+380
 952 0118 00000000 		.word	transfer
 953              		.cfi_endproc
 954              	.LFE72:
 955              		.size	process_DataOut, .-process_DataOut
 956              		.section	.rodata
 957              		.align	2
 958              		.type	CmdGroupBytes, %object
 959              		.size	CmdGroupBytes, 8
 960              	CmdGroupBytes:
 961 0000 06       		.byte	6
 962 0001 0A       		.byte	10
ARM GAS  C:\Users\r\AppData\Local\Temp\ccbXJ1Li.s 			page 23


 963 0002 0A       		.byte	10
 964 0003 06       		.byte	6
 965 0004 06       		.byte	6
 966 0005 0C       		.byte	12
 967 0006 06       		.byte	6
 968 0007 06       		.byte	6
 969              		.section	.text.process_Command,"ax",%progbits
 970              		.align	2
 971              		.thumb
 972              		.thumb_func
 973              		.type	process_Command, %function
 974              	process_Command:
 975              	.LFB73:
 284:..\..\src/scsi.c **** 
 285:..\..\src/scsi.c **** static const uint8 CmdGroupBytes[8] = {6, 10, 10, 6, 6, 12, 6, 6};
 286:..\..\src/scsi.c **** static void process_Command()
 287:..\..\src/scsi.c **** {
 976              		.loc 1 287 0
 977              		.cfi_startproc
 978              		@ args = 0, pretend = 0, frame = 24
 979              		@ frame_needed = 1, uses_anonymous_args = 0
 980 0000 80B5     		push	{r7, lr}
 981              		.cfi_def_cfa_offset 8
 982              		.cfi_offset 7, -8
 983              		.cfi_offset 14, -4
 984 0002 86B0     		sub	sp, sp, #24
 985              		.cfi_def_cfa_offset 32
 986 0004 00AF     		add	r7, sp, #0
 987              		.cfi_def_cfa_register 7
 288:..\..\src/scsi.c **** 	int group;
 289:..\..\src/scsi.c **** 	uint8 command;
 290:..\..\src/scsi.c **** 	uint8 control;
 291:..\..\src/scsi.c **** 
 292:..\..\src/scsi.c **** 	scsiEnterPhase(COMMAND);
 988              		.loc 1 292 0
 989 0006 0220     		movs	r0, #2
 990 0008 FFF7FEFF 		bl	scsiEnterPhase
 293:..\..\src/scsi.c **** 	scsiDev.parityError = 0;
 991              		.loc 1 293 0
 992 000c A04B     		ldr	r3, .L88
 993 000e 0022     		movs	r2, #0
 994 0010 C3F87021 		str	r2, [r3, #368]
 294:..\..\src/scsi.c **** 
 295:..\..\src/scsi.c **** 	memset(scsiDev.cdb, 0, sizeof(scsiDev.cdb));
 995              		.loc 1 295 0
 996 0014 0C22     		movs	r2, #12
 997 0016 0021     		movs	r1, #0
 998 0018 9E48     		ldr	r0, .L88+4
 999 001a FFF7FEFF 		bl	memset
 296:..\..\src/scsi.c **** 	scsiDev.cdb[0] = scsiReadByte();
 1000              		.loc 1 296 0
 1001 001e FFF7FEFF 		bl	scsiReadByte
 1002 0022 0346     		mov	r3, r0
 1003 0024 1A46     		mov	r2, r3
 1004 0026 9A4B     		ldr	r3, .L88
 1005 0028 03F58343 		add	r3, r3, #16768
 1006 002c 0833     		adds	r3, r3, #8
ARM GAS  C:\Users\r\AppData\Local\Temp\ccbXJ1Li.s 			page 24


 1007 002e 1A70     		strb	r2, [r3]
 297:..\..\src/scsi.c **** 
 298:..\..\src/scsi.c **** 	group = scsiDev.cdb[0] >> 5;
 1008              		.loc 1 298 0
 1009 0030 974B     		ldr	r3, .L88
 1010 0032 03F58343 		add	r3, r3, #16768
 1011 0036 0833     		adds	r3, r3, #8
 1012 0038 1B78     		ldrb	r3, [r3]	@ zero_extendqisi2
 1013 003a 5B09     		lsrs	r3, r3, #5
 1014 003c DBB2     		uxtb	r3, r3
 1015 003e FB60     		str	r3, [r7, #12]
 299:..\..\src/scsi.c **** 	scsiDev.cdbLen = CmdGroupBytes[group];
 1016              		.loc 1 299 0
 1017 0040 954A     		ldr	r2, .L88+8
 1018 0042 FB68     		ldr	r3, [r7, #12]
 1019 0044 1344     		add	r3, r3, r2
 1020 0046 1A78     		ldrb	r2, [r3]	@ zero_extendqisi2
 1021 0048 914B     		ldr	r3, .L88
 1022 004a 03F58343 		add	r3, r3, #16768
 1023 004e 1433     		adds	r3, r3, #20
 1024 0050 1A70     		strb	r2, [r3]
 300:..\..\src/scsi.c **** 	scsiRead(scsiDev.cdb + 1, scsiDev.cdbLen - 1);
 1025              		.loc 1 300 0
 1026 0052 924A     		ldr	r2, .L88+12
 1027 0054 8E4B     		ldr	r3, .L88
 1028 0056 03F58343 		add	r3, r3, #16768
 1029 005a 1433     		adds	r3, r3, #20
 1030 005c 1B78     		ldrb	r3, [r3]	@ zero_extendqisi2
 1031 005e 013B     		subs	r3, r3, #1
 1032 0060 1946     		mov	r1, r3
 1033 0062 1046     		mov	r0, r2
 1034 0064 FFF7FEFF 		bl	scsiRead
 301:..\..\src/scsi.c **** 
 302:..\..\src/scsi.c **** 	command = scsiDev.cdb[0];
 1035              		.loc 1 302 0
 1036 0068 894B     		ldr	r3, .L88
 1037 006a 03F58343 		add	r3, r3, #16768
 1038 006e 0833     		adds	r3, r3, #8
 1039 0070 1B78     		ldrb	r3, [r3]
 1040 0072 FB72     		strb	r3, [r7, #11]
 303:..\..\src/scsi.c **** 
 304:..\..\src/scsi.c **** 	// Prefer LUN's set by IDENTIFY messages for newer hosts.
 305:..\..\src/scsi.c **** 	if (scsiDev.lun < 0)
 1041              		.loc 1 305 0
 1042 0074 864B     		ldr	r3, .L88
 1043 0076 03F58343 		add	r3, r3, #16768
 1044 007a 1533     		adds	r3, r3, #21
 1045 007c 93F90030 		ldrsb	r3, [r3]
 1046 0080 002B     		cmp	r3, #0
 1047 0082 19DA     		bge	.L54
 306:..\..\src/scsi.c **** 	{
 307:..\..\src/scsi.c **** 		if (command == 0xE0 || command == 0xE4) // XEBEC s1410
 1048              		.loc 1 307 0
 1049 0084 FB7A     		ldrb	r3, [r7, #11]	@ zero_extendqisi2
 1050 0086 E02B     		cmp	r3, #224
 1051 0088 02D0     		beq	.L55
 1052              		.loc 1 307 0 is_stmt 0 discriminator 1
ARM GAS  C:\Users\r\AppData\Local\Temp\ccbXJ1Li.s 			page 25


 1053 008a FB7A     		ldrb	r3, [r7, #11]	@ zero_extendqisi2
 1054 008c E42B     		cmp	r3, #228
 1055 008e 06D1     		bne	.L56
 1056              	.L55:
 308:..\..\src/scsi.c **** 		{
 309:..\..\src/scsi.c **** 			scsiDev.lun = 0;
 1057              		.loc 1 309 0 is_stmt 1
 1058 0090 7F4B     		ldr	r3, .L88
 1059 0092 03F58343 		add	r3, r3, #16768
 1060 0096 1533     		adds	r3, r3, #21
 1061 0098 0022     		movs	r2, #0
 1062 009a 1A70     		strb	r2, [r3]
 1063 009c 0CE0     		b	.L54
 1064              	.L56:
 310:..\..\src/scsi.c **** 		}
 311:..\..\src/scsi.c **** 		else
 312:..\..\src/scsi.c **** 		{
 313:..\..\src/scsi.c **** 			scsiDev.lun = scsiDev.cdb[1] >> 5;
 1065              		.loc 1 313 0
 1066 009e 7C4B     		ldr	r3, .L88
 1067 00a0 03F58343 		add	r3, r3, #16768
 1068 00a4 0933     		adds	r3, r3, #9
 1069 00a6 1B78     		ldrb	r3, [r3]	@ zero_extendqisi2
 1070 00a8 5B09     		lsrs	r3, r3, #5
 1071 00aa DBB2     		uxtb	r3, r3
 1072 00ac 5AB2     		sxtb	r2, r3
 1073 00ae 784B     		ldr	r3, .L88
 1074 00b0 03F58343 		add	r3, r3, #16768
 1075 00b4 1533     		adds	r3, r3, #21
 1076 00b6 1A70     		strb	r2, [r3]
 1077              	.L54:
 314:..\..\src/scsi.c **** 		}
 315:..\..\src/scsi.c **** 	}
 316:..\..\src/scsi.c **** 
 317:..\..\src/scsi.c **** 	// For Philips P2000C with Xebec S1410 SASI/MFM adapter
 318:..\..\src/scsi.c **** 	// http://bitsavers.trailing-edge.com/pdf/xebec/104524C_S1410Man_Aug83.pdf
 319:..\..\src/scsi.c **** 	if ((scsiDev.lun > 0) && (scsiDev.boardCfg.flags & CONFIG_MAP_LUNS_TO_IDS))
 1078              		.loc 1 319 0
 1079 00b8 754B     		ldr	r3, .L88
 1080 00ba 03F58343 		add	r3, r3, #16768
 1081 00be 1533     		adds	r3, r3, #21
 1082 00c0 93F90030 		ldrsb	r3, [r3]
 1083 00c4 002B     		cmp	r3, #0
 1084 00c6 2FDD     		ble	.L57
 1085              		.loc 1 319 0 is_stmt 0 discriminator 1
 1086 00c8 714B     		ldr	r3, .L88
 1087 00ca 93F86830 		ldrb	r3, [r3, #104]	@ zero_extendqisi2
 1088 00ce 5BB2     		sxtb	r3, r3
 1089 00d0 002B     		cmp	r3, #0
 1090 00d2 29DA     		bge	.L57
 1091              	.LBB2:
 320:..\..\src/scsi.c **** 	{
 321:..\..\src/scsi.c **** 		int tgtIndex;
 322:..\..\src/scsi.c **** 		for (tgtIndex = 0; tgtIndex < MAX_SCSI_TARGETS; ++tgtIndex)
 1092              		.loc 1 322 0 is_stmt 1
 1093 00d4 0023     		movs	r3, #0
 1094 00d6 7B61     		str	r3, [r7, #20]
ARM GAS  C:\Users\r\AppData\Local\Temp\ccbXJ1Li.s 			page 26


 1095 00d8 23E0     		b	.L58
 1096              	.L60:
 323:..\..\src/scsi.c **** 		{
 324:..\..\src/scsi.c **** 			if (scsiDev.targets[tgtIndex].targetId == scsiDev.lun)
 1097              		.loc 1 324 0
 1098 00da 6D49     		ldr	r1, .L88
 1099 00dc 7A69     		ldr	r2, [r7, #20]
 1100 00de 1346     		mov	r3, r2
 1101 00e0 5B00     		lsls	r3, r3, #1
 1102 00e2 1344     		add	r3, r3, r2
 1103 00e4 DB00     		lsls	r3, r3, #3
 1104 00e6 0B44     		add	r3, r3, r1
 1105 00e8 1B78     		ldrb	r3, [r3]	@ zero_extendqisi2
 1106 00ea 1A46     		mov	r2, r3
 1107 00ec 684B     		ldr	r3, .L88
 1108 00ee 03F58343 		add	r3, r3, #16768
 1109 00f2 1533     		adds	r3, r3, #21
 1110 00f4 93F90030 		ldrsb	r3, [r3]
 1111 00f8 9A42     		cmp	r2, r3
 1112 00fa 0FD1     		bne	.L59
 325:..\..\src/scsi.c **** 			{
 326:..\..\src/scsi.c **** 				scsiDev.target = &scsiDev.targets[tgtIndex];
 1113              		.loc 1 326 0
 1114 00fc 7A69     		ldr	r2, [r7, #20]
 1115 00fe 1346     		mov	r3, r2
 1116 0100 5B00     		lsls	r3, r3, #1
 1117 0102 1344     		add	r3, r3, r2
 1118 0104 DB00     		lsls	r3, r3, #3
 1119 0106 624A     		ldr	r2, .L88
 1120 0108 1344     		add	r3, r3, r2
 1121 010a 614A     		ldr	r2, .L88
 1122 010c 1366     		str	r3, [r2, #96]
 327:..\..\src/scsi.c **** 				scsiDev.lun = 0;
 1123              		.loc 1 327 0
 1124 010e 604B     		ldr	r3, .L88
 1125 0110 03F58343 		add	r3, r3, #16768
 1126 0114 1533     		adds	r3, r3, #21
 1127 0116 0022     		movs	r2, #0
 1128 0118 1A70     		strb	r2, [r3]
 328:..\..\src/scsi.c **** 				break;
 1129              		.loc 1 328 0
 1130 011a 05E0     		b	.L57
 1131              	.L59:
 322:..\..\src/scsi.c **** 		{
 1132              		.loc 1 322 0 discriminator 2
 1133 011c 7B69     		ldr	r3, [r7, #20]
 1134 011e 0133     		adds	r3, r3, #1
 1135 0120 7B61     		str	r3, [r7, #20]
 1136              	.L58:
 322:..\..\src/scsi.c **** 		{
 1137              		.loc 1 322 0 is_stmt 0 discriminator 1
 1138 0122 7B69     		ldr	r3, [r7, #20]
 1139 0124 032B     		cmp	r3, #3
 1140 0126 D8DD     		ble	.L60
 1141              	.L57:
 1142              	.LBE2:
 329:..\..\src/scsi.c **** 			}
ARM GAS  C:\Users\r\AppData\Local\Temp\ccbXJ1Li.s 			page 27


 330:..\..\src/scsi.c **** 		}
 331:..\..\src/scsi.c **** 	}
 332:..\..\src/scsi.c **** 
 333:..\..\src/scsi.c **** 
 334:..\..\src/scsi.c **** 	control = scsiDev.cdb[scsiDev.cdbLen - 1];
 1143              		.loc 1 334 0 is_stmt 1
 1144 0128 594B     		ldr	r3, .L88
 1145 012a 03F58343 		add	r3, r3, #16768
 1146 012e 1433     		adds	r3, r3, #20
 1147 0130 1B78     		ldrb	r3, [r3]	@ zero_extendqisi2
 1148 0132 013B     		subs	r3, r3, #1
 1149 0134 564A     		ldr	r2, .L88
 1150 0136 1344     		add	r3, r3, r2
 1151 0138 03F58343 		add	r3, r3, #16768
 1152 013c 0833     		adds	r3, r3, #8
 1153 013e 1B78     		ldrb	r3, [r3]
 1154 0140 BB72     		strb	r3, [r7, #10]
 335:..\..\src/scsi.c **** 
 336:..\..\src/scsi.c **** 	scsiDev.cmdCount++;
 1155              		.loc 1 336 0
 1156 0142 534B     		ldr	r3, .L88
 1157 0144 03F58343 		add	r3, r3, #16768
 1158 0148 2433     		adds	r3, r3, #36
 1159 014a 1B78     		ldrb	r3, [r3]	@ zero_extendqisi2
 1160 014c 0133     		adds	r3, r3, #1
 1161 014e DAB2     		uxtb	r2, r3
 1162 0150 4F4B     		ldr	r3, .L88
 1163 0152 03F58343 		add	r3, r3, #16768
 1164 0156 2433     		adds	r3, r3, #36
 1165 0158 1A70     		strb	r2, [r3]
 337:..\..\src/scsi.c **** 	const TargetConfig* cfg = scsiDev.target->cfg;
 1166              		.loc 1 337 0
 1167 015a 4D4B     		ldr	r3, .L88
 1168 015c 1B6E     		ldr	r3, [r3, #96]
 1169 015e 5B68     		ldr	r3, [r3, #4]
 1170 0160 7B60     		str	r3, [r7, #4]
 338:..\..\src/scsi.c **** 
 339:..\..\src/scsi.c **** 	if (unlikely(scsiDev.resetFlag))
 1171              		.loc 1 339 0
 1172 0162 4B4B     		ldr	r3, .L88
 1173 0164 D3F86831 		ldr	r3, [r3, #360]
 1174 0168 002B     		cmp	r3, #0
 1175 016a 14BF     		ite	ne
 1176 016c 0123     		movne	r3, #1
 1177 016e 0023     		moveq	r3, #0
 1178 0170 DBB2     		uxtb	r3, r3
 1179 0172 002B     		cmp	r3, #0
 1180 0174 11D0     		beq	.L61
 340:..\..\src/scsi.c **** 	{
 341:..\..\src/scsi.c **** 		// Don't log bogus commands
 342:..\..\src/scsi.c **** 		scsiDev.cmdCount--;
 1181              		.loc 1 342 0
 1182 0176 464B     		ldr	r3, .L88
 1183 0178 03F58343 		add	r3, r3, #16768
 1184 017c 2433     		adds	r3, r3, #36
 1185 017e 1B78     		ldrb	r3, [r3]	@ zero_extendqisi2
 1186 0180 013B     		subs	r3, r3, #1
ARM GAS  C:\Users\r\AppData\Local\Temp\ccbXJ1Li.s 			page 28


 1187 0182 DAB2     		uxtb	r2, r3
 1188 0184 424B     		ldr	r3, .L88
 1189 0186 03F58343 		add	r3, r3, #16768
 1190 018a 2433     		adds	r3, r3, #36
 1191 018c 1A70     		strb	r2, [r3]
 343:..\..\src/scsi.c **** 		memset(scsiDev.cdb, 0xff, sizeof(scsiDev.cdb));
 1192              		.loc 1 343 0
 1193 018e 0C22     		movs	r2, #12
 1194 0190 FF21     		movs	r1, #255
 1195 0192 4048     		ldr	r0, .L88+4
 1196 0194 FFF7FEFF 		bl	memset
 344:..\..\src/scsi.c **** 		return;
 1197              		.loc 1 344 0
 1198 0198 AEE1     		b	.L53
 1199              	.L61:
 345:..\..\src/scsi.c **** 	}
 346:..\..\src/scsi.c **** 	else if (scsiDev.parityError &&
 1200              		.loc 1 346 0
 1201 019a 3D4B     		ldr	r3, .L88
 1202 019c D3F87031 		ldr	r3, [r3, #368]
 1203 01a0 002B     		cmp	r3, #0
 1204 01a2 1AD0     		beq	.L63
 347:..\..\src/scsi.c **** 		(scsiDev.boardCfg.flags & CONFIG_ENABLE_PARITY) &&
 1205              		.loc 1 347 0 discriminator 1
 1206 01a4 3A4B     		ldr	r3, .L88
 1207 01a6 93F86830 		ldrb	r3, [r3, #104]	@ zero_extendqisi2
 1208 01aa 03F00203 		and	r3, r3, #2
 346:..\..\src/scsi.c **** 		(scsiDev.boardCfg.flags & CONFIG_ENABLE_PARITY) &&
 1209              		.loc 1 346 0 discriminator 1
 1210 01ae 002B     		cmp	r3, #0
 1211 01b0 13D0     		beq	.L63
 348:..\..\src/scsi.c **** 		(scsiDev.compatMode >= COMPAT_SCSI2))
 1212              		.loc 1 348 0
 1213 01b2 374B     		ldr	r3, .L88
 1214 01b4 03F58343 		add	r3, r3, #16768
 1215 01b8 1733     		adds	r3, r3, #23
 1216 01ba 1B78     		ldrb	r3, [r3]	@ zero_extendqisi2
 347:..\..\src/scsi.c **** 		(scsiDev.boardCfg.flags & CONFIG_ENABLE_PARITY) &&
 1217              		.loc 1 347 0
 1218 01bc 022B     		cmp	r3, #2
 1219 01be 0CD9     		bls	.L63
 349:..\..\src/scsi.c **** 	{
 350:..\..\src/scsi.c **** 		scsiDev.target->sense.code = ABORTED_COMMAND;
 1220              		.loc 1 350 0
 1221 01c0 334B     		ldr	r3, .L88
 1222 01c2 1B6E     		ldr	r3, [r3, #96]
 1223 01c4 0B22     		movs	r2, #11
 1224 01c6 9A72     		strb	r2, [r3, #10]
 351:..\..\src/scsi.c **** 		scsiDev.target->sense.asc = SCSI_PARITY_ERROR;
 1225              		.loc 1 351 0
 1226 01c8 314B     		ldr	r3, .L88
 1227 01ca 1B6E     		ldr	r3, [r3, #96]
 1228 01cc 4FF48E42 		mov	r2, #18176
 1229 01d0 9A81     		strh	r2, [r3, #12]	@ movhi
 352:..\..\src/scsi.c **** 		enter_Status(CHECK_CONDITION);
 1230              		.loc 1 352 0
 1231 01d2 0220     		movs	r0, #2
ARM GAS  C:\Users\r\AppData\Local\Temp\ccbXJ1Li.s 			page 29


 1232 01d4 FFF7FEFF 		bl	enter_Status
 1233 01d8 86E1     		b	.L64
 1234              	.L63:
 353:..\..\src/scsi.c **** 	}
 354:..\..\src/scsi.c **** 	else if ((control & 0x02) && ((control & 0x01) == 0) &&
 1235              		.loc 1 354 0
 1236 01da BB7A     		ldrb	r3, [r7, #10]	@ zero_extendqisi2
 1237 01dc 03F00203 		and	r3, r3, #2
 1238 01e0 002B     		cmp	r3, #0
 1239 01e2 1DD0     		beq	.L65
 1240              		.loc 1 354 0 is_stmt 0 discriminator 1
 1241 01e4 BB7A     		ldrb	r3, [r7, #10]	@ zero_extendqisi2
 1242 01e6 03F00103 		and	r3, r3, #1
 1243 01ea 002B     		cmp	r3, #0
 1244 01ec 18D1     		bne	.L65
 355:..\..\src/scsi.c **** 		// used for head step options on xebec.
 356:..\..\src/scsi.c **** 		likely(scsiDev.target->cfg->quirks != CONFIG_QUIRKS_XEBEC))
 1245              		.loc 1 356 0 is_stmt 1 discriminator 2
 1246 01ee 284B     		ldr	r3, .L88
 1247 01f0 1B6E     		ldr	r3, [r3, #96]
 1248 01f2 5B68     		ldr	r3, [r3, #4]
 1249 01f4 DB8F     		ldrh	r3, [r3, #62]	@ unaligned
 1250 01f6 9BB2     		uxth	r3, r3
 1251 01f8 042B     		cmp	r3, #4
 1252 01fa 14BF     		ite	ne
 1253 01fc 0123     		movne	r3, #1
 1254 01fe 0023     		moveq	r3, #0
 1255 0200 DBB2     		uxtb	r3, r3
 354:..\..\src/scsi.c **** 		// used for head step options on xebec.
 1256              		.loc 1 354 0 discriminator 2
 1257 0202 002B     		cmp	r3, #0
 1258 0204 0CD0     		beq	.L65
 357:..\..\src/scsi.c **** 	{
 358:..\..\src/scsi.c **** 		// FLAG set without LINK flag.
 359:..\..\src/scsi.c **** 		scsiDev.target->sense.code = ILLEGAL_REQUEST;
 1259              		.loc 1 359 0
 1260 0206 224B     		ldr	r3, .L88
 1261 0208 1B6E     		ldr	r3, [r3, #96]
 1262 020a 0522     		movs	r2, #5
 1263 020c 9A72     		strb	r2, [r3, #10]
 360:..\..\src/scsi.c **** 		scsiDev.target->sense.asc = INVALID_FIELD_IN_CDB;
 1264              		.loc 1 360 0
 1265 020e 204B     		ldr	r3, .L88
 1266 0210 1B6E     		ldr	r3, [r3, #96]
 1267 0212 4FF41052 		mov	r2, #9216
 1268 0216 9A81     		strh	r2, [r3, #12]	@ movhi
 361:..\..\src/scsi.c **** 		enter_Status(CHECK_CONDITION);
 1269              		.loc 1 361 0
 1270 0218 0220     		movs	r0, #2
 1271 021a FFF7FEFF 		bl	enter_Status
 1272 021e 63E1     		b	.L64
 1273              	.L65:
 362:..\..\src/scsi.c **** 	}
 363:..\..\src/scsi.c **** 	else if (command == 0x12)
 1274              		.loc 1 363 0
 1275 0220 FB7A     		ldrb	r3, [r7, #11]	@ zero_extendqisi2
 1276 0222 122B     		cmp	r3, #18
ARM GAS  C:\Users\r\AppData\Local\Temp\ccbXJ1Li.s 			page 30


 1277 0224 02D1     		bne	.L66
 364:..\..\src/scsi.c **** 	{
 365:..\..\src/scsi.c **** 		scsiInquiry();
 1278              		.loc 1 365 0
 1279 0226 FFF7FEFF 		bl	scsiInquiry
 1280 022a 5DE1     		b	.L64
 1281              	.L66:
 366:..\..\src/scsi.c **** 	}
 367:..\..\src/scsi.c **** 	else if (command == 0x03)
 1282              		.loc 1 367 0
 1283 022c FB7A     		ldrb	r3, [r7, #11]	@ zero_extendqisi2
 1284 022e 032B     		cmp	r3, #3
 1285 0230 40F0B080 		bne	.L67
 1286              	.LBB3:
 368:..\..\src/scsi.c **** 	{
 369:..\..\src/scsi.c **** 		// REQUEST SENSE
 370:..\..\src/scsi.c **** 		uint32 allocLength = scsiDev.cdb[4];
 1287              		.loc 1 370 0
 1288 0234 164B     		ldr	r3, .L88
 1289 0236 03F58343 		add	r3, r3, #16768
 1290 023a 0C33     		adds	r3, r3, #12
 1291 023c 1B78     		ldrb	r3, [r3]	@ zero_extendqisi2
 1292 023e 3B61     		str	r3, [r7, #16]
 371:..\..\src/scsi.c **** 
 372:..\..\src/scsi.c **** 		if (scsiDev.target->cfg->quirks == CONFIG_QUIRKS_XEBEC)
 1293              		.loc 1 372 0
 1294 0240 134B     		ldr	r3, .L88
 1295 0242 1B6E     		ldr	r3, [r3, #96]
 1296 0244 5B68     		ldr	r3, [r3, #4]
 1297 0246 DB8F     		ldrh	r3, [r3, #62]	@ unaligned
 1298 0248 9BB2     		uxth	r3, r3
 1299 024a 042B     		cmp	r3, #4
 1300 024c 4ED1     		bne	.L68
 373:..\..\src/scsi.c **** 		{
 374:..\..\src/scsi.c **** 			// Completely non-standard
 375:..\..\src/scsi.c **** 			allocLength = 4;
 1301              		.loc 1 375 0
 1302 024e 0423     		movs	r3, #4
 1303 0250 3B61     		str	r3, [r7, #16]
 376:..\..\src/scsi.c **** 			if (scsiDev.target->sense.code == NO_SENSE)
 1304              		.loc 1 376 0
 1305 0252 0F4B     		ldr	r3, .L88
 1306 0254 1B6E     		ldr	r3, [r3, #96]
 1307 0256 9B7A     		ldrb	r3, [r3, #10]	@ zero_extendqisi2
 1308 0258 002B     		cmp	r3, #0
 1309 025a 04D1     		bne	.L69
 377:..\..\src/scsi.c **** 				scsiDev.data[0] = 0;
 1310              		.loc 1 377 0
 1311 025c 0C4B     		ldr	r3, .L88
 1312 025e 0022     		movs	r2, #0
 1313 0260 83F87C21 		strb	r2, [r3, #380]
 1314 0264 20E0     		b	.L70
 1315              	.L69:
 378:..\..\src/scsi.c **** 			else if (scsiDev.target->sense.code == ILLEGAL_REQUEST)
 1316              		.loc 1 378 0
 1317 0266 0A4B     		ldr	r3, .L88
 1318 0268 1B6E     		ldr	r3, [r3, #96]
ARM GAS  C:\Users\r\AppData\Local\Temp\ccbXJ1Li.s 			page 31


 1319 026a 9B7A     		ldrb	r3, [r3, #10]	@ zero_extendqisi2
 1320 026c 052B     		cmp	r3, #5
 1321 026e 04D1     		bne	.L71
 379:..\..\src/scsi.c **** 				scsiDev.data[0] = 0x20; // Illegal command
 1322              		.loc 1 379 0
 1323 0270 074B     		ldr	r3, .L88
 1324 0272 2022     		movs	r2, #32
 1325 0274 83F87C21 		strb	r2, [r3, #380]
 1326 0278 16E0     		b	.L70
 1327              	.L71:
 380:..\..\src/scsi.c **** 			else if (scsiDev.target->sense.code == NOT_READY)
 1328              		.loc 1 380 0
 1329 027a 054B     		ldr	r3, .L88
 1330 027c 1B6E     		ldr	r3, [r3, #96]
 1331 027e 9B7A     		ldrb	r3, [r3, #10]	@ zero_extendqisi2
 1332 0280 022B     		cmp	r3, #2
 1333 0282 0DD1     		bne	.L72
 381:..\..\src/scsi.c **** 				scsiDev.data[0] = 0x04; // Drive not ready
 1334              		.loc 1 381 0
 1335 0284 024B     		ldr	r3, .L88
 1336 0286 0422     		movs	r2, #4
 1337 0288 83F87C21 		strb	r2, [r3, #380]
 1338 028c 0CE0     		b	.L70
 1339              	.L89:
 1340 028e 00BF     		.align	2
 1341              	.L88:
 1342 0290 00000000 		.word	scsiDev
 1343 0294 88410000 		.word	scsiDev+16776
 1344 0298 00000000 		.word	CmdGroupBytes
 1345 029c 89410000 		.word	scsiDev+16777
 1346              	.L72:
 382:..\..\src/scsi.c **** 			else
 383:..\..\src/scsi.c **** 				scsiDev.data[0] = 0x11;  // Uncorrectable data error
 1347              		.loc 1 383 0
 1348 02a0 974B     		ldr	r3, .L90
 1349 02a2 1122     		movs	r2, #17
 1350 02a4 83F87C21 		strb	r2, [r3, #380]
 1351              	.L70:
 384:..\..\src/scsi.c **** 
 385:..\..\src/scsi.c **** 			scsiDev.data[1] = (scsiDev.cdb[1] & 0x20) | ((transfer.lba >> 16) & 0x1F);
 1352              		.loc 1 385 0
 1353 02a8 954B     		ldr	r3, .L90
 1354 02aa 03F58343 		add	r3, r3, #16768
 1355 02ae 0933     		adds	r3, r3, #9
 1356 02b0 1B78     		ldrb	r3, [r3]	@ zero_extendqisi2
 1357 02b2 03F02003 		and	r3, r3, #32
 1358 02b6 DAB2     		uxtb	r2, r3
 1359 02b8 924B     		ldr	r3, .L90+4
 1360 02ba 5B68     		ldr	r3, [r3, #4]
 1361 02bc 1B0C     		lsrs	r3, r3, #16
 1362 02be DBB2     		uxtb	r3, r3
 1363 02c0 03F01F03 		and	r3, r3, #31
 1364 02c4 DBB2     		uxtb	r3, r3
 1365 02c6 1343     		orrs	r3, r3, r2
 1366 02c8 DAB2     		uxtb	r2, r3
 1367 02ca 8D4B     		ldr	r3, .L90
 1368 02cc 83F87D21 		strb	r2, [r3, #381]
ARM GAS  C:\Users\r\AppData\Local\Temp\ccbXJ1Li.s 			page 32


 386:..\..\src/scsi.c **** 			scsiDev.data[2] = transfer.lba >> 8;
 1369              		.loc 1 386 0
 1370 02d0 8C4B     		ldr	r3, .L90+4
 1371 02d2 5B68     		ldr	r3, [r3, #4]
 1372 02d4 1B0A     		lsrs	r3, r3, #8
 1373 02d6 DAB2     		uxtb	r2, r3
 1374 02d8 894B     		ldr	r3, .L90
 1375 02da 83F87E21 		strb	r2, [r3, #382]
 387:..\..\src/scsi.c **** 			scsiDev.data[3] = transfer.lba;
 1376              		.loc 1 387 0
 1377 02de 894B     		ldr	r3, .L90+4
 1378 02e0 5B68     		ldr	r3, [r3, #4]
 1379 02e2 DAB2     		uxtb	r2, r3
 1380 02e4 864B     		ldr	r3, .L90
 1381 02e6 83F87F21 		strb	r2, [r3, #383]
 1382 02ea 46E0     		b	.L73
 1383              	.L68:
 388:..\..\src/scsi.c **** 
 389:..\..\src/scsi.c **** 		}
 390:..\..\src/scsi.c **** 		else
 391:..\..\src/scsi.c **** 		{
 392:..\..\src/scsi.c **** 		// As specified by the SASI and SCSI1 standard.
 393:..\..\src/scsi.c **** 		// Newer initiators won't be specifying 0 anyway.
 394:..\..\src/scsi.c **** 		if (allocLength == 0) allocLength = 4;
 1384              		.loc 1 394 0
 1385 02ec 3B69     		ldr	r3, [r7, #16]
 1386 02ee 002B     		cmp	r3, #0
 1387 02f0 01D1     		bne	.L74
 1388              		.loc 1 394 0 is_stmt 0 discriminator 1
 1389 02f2 0423     		movs	r3, #4
 1390 02f4 3B61     		str	r3, [r7, #16]
 1391              	.L74:
 395:..\..\src/scsi.c **** 
 396:..\..\src/scsi.c **** 		memset(scsiDev.data, 0, 256); // Max possible alloc length
 1392              		.loc 1 396 0 is_stmt 1
 1393 02f6 4FF48072 		mov	r2, #256
 1394 02fa 0021     		movs	r1, #0
 1395 02fc 8248     		ldr	r0, .L90+8
 1396 02fe FFF7FEFF 		bl	memset
 397:..\..\src/scsi.c **** 		scsiDev.data[0] = 0xF0;
 1397              		.loc 1 397 0
 1398 0302 7F4B     		ldr	r3, .L90
 1399 0304 F022     		movs	r2, #240
 1400 0306 83F87C21 		strb	r2, [r3, #380]
 398:..\..\src/scsi.c **** 		scsiDev.data[2] = scsiDev.target->sense.code & 0x0F;
 1401              		.loc 1 398 0
 1402 030a 7D4B     		ldr	r3, .L90
 1403 030c 1B6E     		ldr	r3, [r3, #96]
 1404 030e 9B7A     		ldrb	r3, [r3, #10]	@ zero_extendqisi2
 1405 0310 03F00F03 		and	r3, r3, #15
 1406 0314 DAB2     		uxtb	r2, r3
 1407 0316 7A4B     		ldr	r3, .L90
 1408 0318 83F87E21 		strb	r2, [r3, #382]
 399:..\..\src/scsi.c **** 
 400:..\..\src/scsi.c **** 		scsiDev.data[3] = transfer.lba >> 24;
 1409              		.loc 1 400 0
 1410 031c 794B     		ldr	r3, .L90+4
ARM GAS  C:\Users\r\AppData\Local\Temp\ccbXJ1Li.s 			page 33


 1411 031e 5B68     		ldr	r3, [r3, #4]
 1412 0320 1B0E     		lsrs	r3, r3, #24
 1413 0322 DAB2     		uxtb	r2, r3
 1414 0324 764B     		ldr	r3, .L90
 1415 0326 83F87F21 		strb	r2, [r3, #383]
 401:..\..\src/scsi.c **** 		scsiDev.data[4] = transfer.lba >> 16;
 1416              		.loc 1 401 0
 1417 032a 764B     		ldr	r3, .L90+4
 1418 032c 5B68     		ldr	r3, [r3, #4]
 1419 032e 1B0C     		lsrs	r3, r3, #16
 1420 0330 DAB2     		uxtb	r2, r3
 1421 0332 734B     		ldr	r3, .L90
 1422 0334 83F88021 		strb	r2, [r3, #384]
 402:..\..\src/scsi.c **** 		scsiDev.data[5] = transfer.lba >> 8;
 1423              		.loc 1 402 0
 1424 0338 724B     		ldr	r3, .L90+4
 1425 033a 5B68     		ldr	r3, [r3, #4]
 1426 033c 1B0A     		lsrs	r3, r3, #8
 1427 033e DAB2     		uxtb	r2, r3
 1428 0340 6F4B     		ldr	r3, .L90
 1429 0342 83F88121 		strb	r2, [r3, #385]
 403:..\..\src/scsi.c **** 		scsiDev.data[6] = transfer.lba;
 1430              		.loc 1 403 0
 1431 0346 6F4B     		ldr	r3, .L90+4
 1432 0348 5B68     		ldr	r3, [r3, #4]
 1433 034a DAB2     		uxtb	r2, r3
 1434 034c 6C4B     		ldr	r3, .L90
 1435 034e 83F88221 		strb	r2, [r3, #386]
 404:..\..\src/scsi.c **** 
 405:..\..\src/scsi.c **** 		// Additional bytes if there are errors to report
 406:..\..\src/scsi.c **** 		scsiDev.data[7] = 10; // additional length
 1436              		.loc 1 406 0
 1437 0352 6B4B     		ldr	r3, .L90
 1438 0354 0A22     		movs	r2, #10
 1439 0356 83F88321 		strb	r2, [r3, #387]
 407:..\..\src/scsi.c **** 		scsiDev.data[12] = scsiDev.target->sense.asc >> 8;
 1440              		.loc 1 407 0
 1441 035a 694B     		ldr	r3, .L90
 1442 035c 1B6E     		ldr	r3, [r3, #96]
 1443 035e 9B89     		ldrh	r3, [r3, #12]
 1444 0360 1B0A     		lsrs	r3, r3, #8
 1445 0362 9BB2     		uxth	r3, r3
 1446 0364 DAB2     		uxtb	r2, r3
 1447 0366 664B     		ldr	r3, .L90
 1448 0368 83F88821 		strb	r2, [r3, #392]
 408:..\..\src/scsi.c **** 		scsiDev.data[13] = scsiDev.target->sense.asc;
 1449              		.loc 1 408 0
 1450 036c 644B     		ldr	r3, .L90
 1451 036e 1B6E     		ldr	r3, [r3, #96]
 1452 0370 9B89     		ldrh	r3, [r3, #12]
 1453 0372 DAB2     		uxtb	r2, r3
 1454 0374 624B     		ldr	r3, .L90
 1455 0376 83F88921 		strb	r2, [r3, #393]
 1456              	.L73:
 409:..\..\src/scsi.c **** 		}
 410:..\..\src/scsi.c **** 
 411:..\..\src/scsi.c **** 		// Silently truncate results. SCSI-2 spec 8.2.14.
ARM GAS  C:\Users\r\AppData\Local\Temp\ccbXJ1Li.s 			page 34


 412:..\..\src/scsi.c **** 		enter_DataIn(allocLength);
 1457              		.loc 1 412 0
 1458 037a 3B69     		ldr	r3, [r7, #16]
 1459 037c 1846     		mov	r0, r3
 1460 037e FFF7FEFF 		bl	enter_DataIn
 413:..\..\src/scsi.c **** 
 414:..\..\src/scsi.c **** 		// This is a good time to clear out old sense information.
 415:..\..\src/scsi.c **** 		scsiDev.target->sense.code = NO_SENSE;
 1461              		.loc 1 415 0
 1462 0382 5F4B     		ldr	r3, .L90
 1463 0384 1B6E     		ldr	r3, [r3, #96]
 1464 0386 0022     		movs	r2, #0
 1465 0388 9A72     		strb	r2, [r3, #10]
 416:..\..\src/scsi.c **** 		scsiDev.target->sense.asc = NO_ADDITIONAL_SENSE_INFORMATION;
 1466              		.loc 1 416 0
 1467 038a 5D4B     		ldr	r3, .L90
 1468 038c 1B6E     		ldr	r3, [r3, #96]
 1469 038e 0022     		movs	r2, #0
 1470 0390 9A81     		strh	r2, [r3, #12]	@ movhi
 1471              	.LBE3:
 1472 0392 A9E0     		b	.L64
 1473              	.L67:
 417:..\..\src/scsi.c **** 	}
 418:..\..\src/scsi.c **** 	// Some old SCSI drivers do NOT properly support
 419:..\..\src/scsi.c **** 	// unitAttention. eg. the Mac Plus would trigger a SCSI reset
 420:..\..\src/scsi.c **** 	// on receiving the unit attention response on boot, thus
 421:..\..\src/scsi.c **** 	// triggering another unit attention condition.
 422:..\..\src/scsi.c **** 	else if (scsiDev.target->unitAttention &&
 1474              		.loc 1 422 0
 1475 0394 5A4B     		ldr	r3, .L90
 1476 0396 1B6E     		ldr	r3, [r3, #96]
 1477 0398 DB89     		ldrh	r3, [r3, #14]
 1478 039a 002B     		cmp	r3, #0
 1479 039c 18D0     		beq	.L75
 423:..\..\src/scsi.c **** 		(scsiDev.boardCfg.flags & CONFIG_ENABLE_UNIT_ATTENTION))
 1480              		.loc 1 423 0 discriminator 1
 1481 039e 584B     		ldr	r3, .L90
 1482 03a0 93F86830 		ldrb	r3, [r3, #104]	@ zero_extendqisi2
 1483 03a4 03F00103 		and	r3, r3, #1
 422:..\..\src/scsi.c **** 		(scsiDev.boardCfg.flags & CONFIG_ENABLE_UNIT_ATTENTION))
 1484              		.loc 1 422 0 discriminator 1
 1485 03a8 002B     		cmp	r3, #0
 1486 03aa 11D0     		beq	.L75
 424:..\..\src/scsi.c **** 	{
 425:..\..\src/scsi.c **** 		scsiDev.target->sense.code = UNIT_ATTENTION;
 1487              		.loc 1 425 0
 1488 03ac 544B     		ldr	r3, .L90
 1489 03ae 1B6E     		ldr	r3, [r3, #96]
 1490 03b0 0622     		movs	r2, #6
 1491 03b2 9A72     		strb	r2, [r3, #10]
 426:..\..\src/scsi.c **** 		scsiDev.target->sense.asc = scsiDev.target->unitAttention;
 1492              		.loc 1 426 0
 1493 03b4 524B     		ldr	r3, .L90
 1494 03b6 1B6E     		ldr	r3, [r3, #96]
 1495 03b8 514A     		ldr	r2, .L90
 1496 03ba 126E     		ldr	r2, [r2, #96]
 1497 03bc D289     		ldrh	r2, [r2, #14]
ARM GAS  C:\Users\r\AppData\Local\Temp\ccbXJ1Li.s 			page 35


 1498 03be 9A81     		strh	r2, [r3, #12]	@ movhi
 427:..\..\src/scsi.c **** 
 428:..\..\src/scsi.c **** 		// If initiator doesn't do REQUEST SENSE for the next command, then
 429:..\..\src/scsi.c **** 		// data is lost.
 430:..\..\src/scsi.c **** 		scsiDev.target->unitAttention = 0;
 1499              		.loc 1 430 0
 1500 03c0 4F4B     		ldr	r3, .L90
 1501 03c2 1B6E     		ldr	r3, [r3, #96]
 1502 03c4 0022     		movs	r2, #0
 1503 03c6 DA81     		strh	r2, [r3, #14]	@ movhi
 431:..\..\src/scsi.c **** 
 432:..\..\src/scsi.c **** 		enter_Status(CHECK_CONDITION);
 1504              		.loc 1 432 0
 1505 03c8 0220     		movs	r0, #2
 1506 03ca FFF7FEFF 		bl	enter_Status
 1507 03ce 8BE0     		b	.L64
 1508              	.L75:
 433:..\..\src/scsi.c **** 	}
 434:..\..\src/scsi.c **** 	else if (scsiDev.lun)
 1509              		.loc 1 434 0
 1510 03d0 4B4B     		ldr	r3, .L90
 1511 03d2 03F58343 		add	r3, r3, #16768
 1512 03d6 1533     		adds	r3, r3, #21
 1513 03d8 93F90030 		ldrsb	r3, [r3]
 1514 03dc 002B     		cmp	r3, #0
 1515 03de 0CD0     		beq	.L76
 435:..\..\src/scsi.c **** 	{
 436:..\..\src/scsi.c **** 		scsiDev.target->sense.code = ILLEGAL_REQUEST;
 1516              		.loc 1 436 0
 1517 03e0 474B     		ldr	r3, .L90
 1518 03e2 1B6E     		ldr	r3, [r3, #96]
 1519 03e4 0522     		movs	r2, #5
 1520 03e6 9A72     		strb	r2, [r3, #10]
 437:..\..\src/scsi.c **** 		scsiDev.target->sense.asc = LOGICAL_UNIT_NOT_SUPPORTED;
 1521              		.loc 1 437 0
 1522 03e8 454B     		ldr	r3, .L90
 1523 03ea 1B6E     		ldr	r3, [r3, #96]
 1524 03ec 4FF41452 		mov	r2, #9472
 1525 03f0 9A81     		strh	r2, [r3, #12]	@ movhi
 438:..\..\src/scsi.c **** 		enter_Status(CHECK_CONDITION);
 1526              		.loc 1 438 0
 1527 03f2 0220     		movs	r0, #2
 1528 03f4 FFF7FEFF 		bl	enter_Status
 1529 03f8 76E0     		b	.L64
 1530              	.L76:
 439:..\..\src/scsi.c **** 	}
 440:..\..\src/scsi.c **** 	else if (command == 0x17 || command == 0x16)
 1531              		.loc 1 440 0
 1532 03fa FB7A     		ldrb	r3, [r7, #11]	@ zero_extendqisi2
 1533 03fc 172B     		cmp	r3, #23
 1534 03fe 02D0     		beq	.L77
 1535              		.loc 1 440 0 is_stmt 0 discriminator 1
 1536 0400 FB7A     		ldrb	r3, [r7, #11]	@ zero_extendqisi2
 1537 0402 162B     		cmp	r3, #22
 1538 0404 02D1     		bne	.L78
 1539              	.L77:
 441:..\..\src/scsi.c **** 	{
ARM GAS  C:\Users\r\AppData\Local\Temp\ccbXJ1Li.s 			page 36


 442:..\..\src/scsi.c **** 		doReserveRelease();
 1540              		.loc 1 442 0 is_stmt 1
 1541 0406 FFF7FEFF 		bl	doReserveRelease
 1542 040a 6DE0     		b	.L64
 1543              	.L78:
 443:..\..\src/scsi.c **** 	}
 444:..\..\src/scsi.c **** 	else if ((scsiDev.target->reservedId >= 0) &&
 1544              		.loc 1 444 0
 1545 040c 3C4B     		ldr	r3, .L90
 1546 040e 1B6E     		ldr	r3, [r3, #96]
 1547 0410 1B69     		ldr	r3, [r3, #16]
 1548 0412 002B     		cmp	r3, #0
 1549 0414 0DDB     		blt	.L79
 445:..\..\src/scsi.c **** 		(scsiDev.target->reservedId != scsiDev.initiatorId))
 1550              		.loc 1 445 0 discriminator 1
 1551 0416 3A4B     		ldr	r3, .L90
 1552 0418 1B6E     		ldr	r3, [r3, #96]
 1553 041a 1A69     		ldr	r2, [r3, #16]
 1554 041c 384B     		ldr	r3, .L90
 1555 041e 03F58343 		add	r3, r3, #16768
 1556 0422 1833     		adds	r3, r3, #24
 1557 0424 1B68     		ldr	r3, [r3]
 444:..\..\src/scsi.c **** 		(scsiDev.target->reservedId != scsiDev.initiatorId))
 1558              		.loc 1 444 0 discriminator 1
 1559 0426 9A42     		cmp	r2, r3
 1560 0428 03D0     		beq	.L79
 446:..\..\src/scsi.c **** 	{
 447:..\..\src/scsi.c **** 		enter_Status(CONFLICT);
 1561              		.loc 1 447 0
 1562 042a 1820     		movs	r0, #24
 1563 042c FFF7FEFF 		bl	enter_Status
 1564 0430 5AE0     		b	.L64
 1565              	.L79:
 448:..\..\src/scsi.c **** 	}
 449:..\..\src/scsi.c **** 	// Handle odd device types first that may override basic read and
 450:..\..\src/scsi.c **** 	// write commands. Will fall-through to generic disk handling.
 451:..\..\src/scsi.c **** 	else if (((cfg->deviceType == CONFIG_OPTICAL) && scsiCDRomCommand()) ||
 1566              		.loc 1 451 0
 1567 0432 7B68     		ldr	r3, [r7, #4]
 1568 0434 5B78     		ldrb	r3, [r3, #1]	@ zero_extendqisi2
 1569 0436 022B     		cmp	r3, #2
 1570 0438 04D1     		bne	.L80
 1571              		.loc 1 451 0 is_stmt 0 discriminator 1
 1572 043a FFF7FEFF 		bl	scsiCDRomCommand
 1573 043e 0346     		mov	r3, r0
 1574 0440 002B     		cmp	r3, #0
 1575 0442 51D1     		bne	.L64
 1576              	.L80:
 452:..\..\src/scsi.c **** 		((cfg->deviceType == CONFIG_SEQUENTIAL) && scsiTapeCommand()) ||
 1577              		.loc 1 452 0 is_stmt 1 discriminator 3
 1578 0444 7B68     		ldr	r3, [r7, #4]
 1579 0446 5B78     		ldrb	r3, [r3, #1]	@ zero_extendqisi2
 451:..\..\src/scsi.c **** 		((cfg->deviceType == CONFIG_SEQUENTIAL) && scsiTapeCommand()) ||
 1580              		.loc 1 451 0 discriminator 3
 1581 0448 052B     		cmp	r3, #5
 1582 044a 04D1     		bne	.L81
 1583              		.loc 1 452 0
ARM GAS  C:\Users\r\AppData\Local\Temp\ccbXJ1Li.s 			page 37


 1584 044c FFF7FEFF 		bl	scsiTapeCommand
 1585 0450 0346     		mov	r3, r0
 1586 0452 002B     		cmp	r3, #0
 1587 0454 48D1     		bne	.L64
 1588              	.L81:
 453:..\..\src/scsi.c **** 		((cfg->deviceType == CONFIG_MO) && scsiMOCommand()))
 1589              		.loc 1 453 0 discriminator 1
 1590 0456 7B68     		ldr	r3, [r7, #4]
 1591 0458 5B78     		ldrb	r3, [r3, #1]	@ zero_extendqisi2
 452:..\..\src/scsi.c **** 		((cfg->deviceType == CONFIG_SEQUENTIAL) && scsiTapeCommand()) ||
 1592              		.loc 1 452 0 discriminator 1
 1593 045a 042B     		cmp	r3, #4
 1594 045c 04D1     		bne	.L82
 1595              		.loc 1 453 0
 1596 045e FFF7FEFF 		bl	scsiMOCommand
 1597 0462 0346     		mov	r3, r0
 1598 0464 002B     		cmp	r3, #0
 1599 0466 3FD1     		bne	.L64
 1600              	.L82:
 454:..\..\src/scsi.c **** 	{
 455:..\..\src/scsi.c **** 		// Already handled.
 456:..\..\src/scsi.c **** 	}
 457:..\..\src/scsi.c **** 	else if (scsiDiskCommand())
 1601              		.loc 1 457 0
 1602 0468 FFF7FEFF 		bl	scsiDiskCommand
 1603 046c 0346     		mov	r3, r0
 1604 046e 002B     		cmp	r3, #0
 1605 0470 3AD1     		bne	.L64
 458:..\..\src/scsi.c **** 	{
 459:..\..\src/scsi.c **** 		// Already handled.
 460:..\..\src/scsi.c **** 		// check for the performance-critical read/write
 461:..\..\src/scsi.c **** 		// commands ASAP.
 462:..\..\src/scsi.c **** 	}
 463:..\..\src/scsi.c **** 	else if (command == 0x1C)
 1606              		.loc 1 463 0
 1607 0472 FB7A     		ldrb	r3, [r7, #11]	@ zero_extendqisi2
 1608 0474 1C2B     		cmp	r3, #28
 1609 0476 02D1     		bne	.L83
 464:..\..\src/scsi.c **** 	{
 465:..\..\src/scsi.c **** 		scsiReceiveDiagnostic();
 1610              		.loc 1 465 0
 1611 0478 FFF7FEFF 		bl	scsiReceiveDiagnostic
 1612 047c 34E0     		b	.L64
 1613              	.L83:
 466:..\..\src/scsi.c **** 	}
 467:..\..\src/scsi.c **** 	else if (command == 0x1D)
 1614              		.loc 1 467 0
 1615 047e FB7A     		ldrb	r3, [r7, #11]	@ zero_extendqisi2
 1616 0480 1D2B     		cmp	r3, #29
 1617 0482 02D1     		bne	.L84
 468:..\..\src/scsi.c **** 	{
 469:..\..\src/scsi.c **** 		scsiSendDiagnostic();
 1618              		.loc 1 469 0
 1619 0484 FFF7FEFF 		bl	scsiSendDiagnostic
 1620 0488 2EE0     		b	.L64
 1621              	.L84:
 470:..\..\src/scsi.c **** 	}
ARM GAS  C:\Users\r\AppData\Local\Temp\ccbXJ1Li.s 			page 38


 471:..\..\src/scsi.c **** 	else if (command == 0x3B)
 1622              		.loc 1 471 0
 1623 048a FB7A     		ldrb	r3, [r7, #11]	@ zero_extendqisi2
 1624 048c 3B2B     		cmp	r3, #59
 1625 048e 02D1     		bne	.L85
 472:..\..\src/scsi.c **** 	{
 473:..\..\src/scsi.c **** 		scsiWriteBuffer();
 1626              		.loc 1 473 0
 1627 0490 FFF7FEFF 		bl	scsiWriteBuffer
 1628 0494 28E0     		b	.L64
 1629              	.L85:
 474:..\..\src/scsi.c **** 	}
 475:..\..\src/scsi.c ****     else if (command == 0x0f &&
 1630              		.loc 1 475 0
 1631 0496 FB7A     		ldrb	r3, [r7, #11]	@ zero_extendqisi2
 1632 0498 0F2B     		cmp	r3, #15
 1633 049a 09D1     		bne	.L86
 476:..\..\src/scsi.c ****             scsiDev.target->cfg->quirks == CONFIG_QUIRKS_XEBEC)
 1634              		.loc 1 476 0 discriminator 1
 1635 049c 184B     		ldr	r3, .L90
 1636 049e 1B6E     		ldr	r3, [r3, #96]
 1637 04a0 5B68     		ldr	r3, [r3, #4]
 1638 04a2 DB8F     		ldrh	r3, [r3, #62]	@ unaligned
 1639 04a4 9BB2     		uxth	r3, r3
 475:..\..\src/scsi.c ****             scsiDev.target->cfg->quirks == CONFIG_QUIRKS_XEBEC)
 1640              		.loc 1 475 0 discriminator 1
 1641 04a6 042B     		cmp	r3, #4
 1642 04a8 02D1     		bne	.L86
 477:..\..\src/scsi.c ****     {
 478:..\..\src/scsi.c ****             scsiWriteSectorBuffer();
 1643              		.loc 1 478 0
 1644 04aa FFF7FEFF 		bl	scsiWriteSectorBuffer
 1645 04ae 1BE0     		b	.L64
 1646              	.L86:
 479:..\..\src/scsi.c ****     }
 480:..\..\src/scsi.c **** 	else if (command == 0x3C)
 1647              		.loc 1 480 0
 1648 04b0 FB7A     		ldrb	r3, [r7, #11]	@ zero_extendqisi2
 1649 04b2 3C2B     		cmp	r3, #60
 1650 04b4 02D1     		bne	.L87
 481:..\..\src/scsi.c **** 	{
 482:..\..\src/scsi.c **** 		scsiReadBuffer();
 1651              		.loc 1 482 0
 1652 04b6 FFF7FEFF 		bl	scsiReadBuffer
 1653 04ba 15E0     		b	.L64
 1654              	.L87:
 483:..\..\src/scsi.c **** 	}
 484:..\..\src/scsi.c **** 	else if (!scsiModeCommand() && !scsiVendorCommand())
 1655              		.loc 1 484 0
 1656 04bc FFF7FEFF 		bl	scsiModeCommand
 1657 04c0 0346     		mov	r3, r0
 1658 04c2 002B     		cmp	r3, #0
 1659 04c4 10D1     		bne	.L64
 1660              		.loc 1 484 0 is_stmt 0 discriminator 1
 1661 04c6 FFF7FEFF 		bl	scsiVendorCommand
 1662 04ca 0346     		mov	r3, r0
 1663 04cc 002B     		cmp	r3, #0
ARM GAS  C:\Users\r\AppData\Local\Temp\ccbXJ1Li.s 			page 39


 1664 04ce 0BD1     		bne	.L64
 485:..\..\src/scsi.c **** 	{
 486:..\..\src/scsi.c **** 		scsiDev.target->sense.code = ILLEGAL_REQUEST;
 1665              		.loc 1 486 0 is_stmt 1
 1666 04d0 0B4B     		ldr	r3, .L90
 1667 04d2 1B6E     		ldr	r3, [r3, #96]
 1668 04d4 0522     		movs	r2, #5
 1669 04d6 9A72     		strb	r2, [r3, #10]
 487:..\..\src/scsi.c **** 		scsiDev.target->sense.asc = INVALID_COMMAND_OPERATION_CODE;
 1670              		.loc 1 487 0
 1671 04d8 094B     		ldr	r3, .L90
 1672 04da 1B6E     		ldr	r3, [r3, #96]
 1673 04dc 4FF40052 		mov	r2, #8192
 1674 04e0 9A81     		strh	r2, [r3, #12]	@ movhi
 488:..\..\src/scsi.c **** 		enter_Status(CHECK_CONDITION);
 1675              		.loc 1 488 0
 1676 04e2 0220     		movs	r0, #2
 1677 04e4 FFF7FEFF 		bl	enter_Status
 1678              	.L64:
 489:..\..\src/scsi.c **** 	}
 490:..\..\src/scsi.c **** 
 491:..\..\src/scsi.c **** 	// Successful
 492:..\..\src/scsi.c **** 	if (scsiDev.phase == COMMAND) // No status set, and not in DATA_IN
 1679              		.loc 1 492 0
 1680 04e8 054B     		ldr	r3, .L90
 1681 04ea D3F87831 		ldr	r3, [r3, #376]
 1682 04ee 022B     		cmp	r3, #2
 1683 04f0 02D1     		bne	.L53
 493:..\..\src/scsi.c **** 	{
 494:..\..\src/scsi.c **** 		enter_Status(GOOD);
 1684              		.loc 1 494 0
 1685 04f2 0020     		movs	r0, #0
 1686 04f4 FFF7FEFF 		bl	enter_Status
 1687              	.L53:
 495:..\..\src/scsi.c **** 	}
 496:..\..\src/scsi.c **** 
 497:..\..\src/scsi.c **** }
 1688              		.loc 1 497 0
 1689 04f8 1837     		adds	r7, r7, #24
 1690              		.cfi_def_cfa_offset 8
 1691 04fa BD46     		mov	sp, r7
 1692              		.cfi_def_cfa_register 13
 1693              		@ sp needed
 1694 04fc 80BD     		pop	{r7, pc}
 1695              	.L91:
 1696 04fe 00BF     		.align	2
 1697              	.L90:
 1698 0500 00000000 		.word	scsiDev
 1699 0504 00000000 		.word	transfer
 1700 0508 7C010000 		.word	scsiDev+380
 1701              		.cfi_endproc
 1702              	.LFE73:
 1703              		.size	process_Command, .-process_Command
 1704              		.section	.text.doReserveRelease,"ax",%progbits
 1705              		.align	2
 1706              		.thumb
 1707              		.thumb_func
ARM GAS  C:\Users\r\AppData\Local\Temp\ccbXJ1Li.s 			page 40


 1708              		.type	doReserveRelease, %function
 1709              	doReserveRelease:
 1710              	.LFB74:
 498:..\..\src/scsi.c **** 
 499:..\..\src/scsi.c **** static void doReserveRelease()
 500:..\..\src/scsi.c **** {
 1711              		.loc 1 500 0
 1712              		.cfi_startproc
 1713              		@ args = 0, pretend = 0, frame = 24
 1714              		@ frame_needed = 1, uses_anonymous_args = 0
 1715 0000 80B5     		push	{r7, lr}
 1716              		.cfi_def_cfa_offset 8
 1717              		.cfi_offset 7, -8
 1718              		.cfi_offset 14, -4
 1719 0002 86B0     		sub	sp, sp, #24
 1720              		.cfi_def_cfa_offset 32
 1721 0004 00AF     		add	r7, sp, #0
 1722              		.cfi_def_cfa_register 7
 501:..\..\src/scsi.c **** 	int extentReservation = scsiDev.cdb[1] & 1;
 1723              		.loc 1 501 0
 1724 0006 4B4B     		ldr	r3, .L108
 1725 0008 03F58343 		add	r3, r3, #16768
 1726 000c 0933     		adds	r3, r3, #9
 1727 000e 1B78     		ldrb	r3, [r3]	@ zero_extendqisi2
 1728 0010 03F00103 		and	r3, r3, #1
 1729 0014 7B61     		str	r3, [r7, #20]
 502:..\..\src/scsi.c **** 	int thirdPty = scsiDev.cdb[1] & 0x10;
 1730              		.loc 1 502 0
 1731 0016 474B     		ldr	r3, .L108
 1732 0018 03F58343 		add	r3, r3, #16768
 1733 001c 0933     		adds	r3, r3, #9
 1734 001e 1B78     		ldrb	r3, [r3]	@ zero_extendqisi2
 1735 0020 03F01003 		and	r3, r3, #16
 1736 0024 3B61     		str	r3, [r7, #16]
 503:..\..\src/scsi.c **** 	int thirdPtyId = (scsiDev.cdb[1] >> 1) & 0x7;
 1737              		.loc 1 503 0
 1738 0026 434B     		ldr	r3, .L108
 1739 0028 03F58343 		add	r3, r3, #16768
 1740 002c 0933     		adds	r3, r3, #9
 1741 002e 1B78     		ldrb	r3, [r3]	@ zero_extendqisi2
 1742 0030 5B08     		lsrs	r3, r3, #1
 1743 0032 DBB2     		uxtb	r3, r3
 1744 0034 03F00703 		and	r3, r3, #7
 1745 0038 FB60     		str	r3, [r7, #12]
 504:..\..\src/scsi.c **** 	uint8 command = scsiDev.cdb[0];
 1746              		.loc 1 504 0
 1747 003a 3E4B     		ldr	r3, .L108
 1748 003c 03F58343 		add	r3, r3, #16768
 1749 0040 0833     		adds	r3, r3, #8
 1750 0042 1B78     		ldrb	r3, [r3]
 1751 0044 FB72     		strb	r3, [r7, #11]
 505:..\..\src/scsi.c **** 
 506:..\..\src/scsi.c **** 	int canRelease =
 507:..\..\src/scsi.c **** 		(!thirdPty && (scsiDev.initiatorId == scsiDev.target->reservedId)) ||
 1752              		.loc 1 507 0
 1753 0046 3B69     		ldr	r3, [r7, #16]
 1754 0048 002B     		cmp	r3, #0
ARM GAS  C:\Users\r\AppData\Local\Temp\ccbXJ1Li.s 			page 41


 1755 004a 09D1     		bne	.L93
 1756              		.loc 1 507 0 is_stmt 0 discriminator 1
 1757 004c 394B     		ldr	r3, .L108
 1758 004e 03F58343 		add	r3, r3, #16768
 1759 0052 1833     		adds	r3, r3, #24
 1760 0054 1A68     		ldr	r2, [r3]
 1761 0056 374B     		ldr	r3, .L108
 1762 0058 1B6E     		ldr	r3, [r3, #96]
 1763 005a 1B69     		ldr	r3, [r3, #16]
 1764 005c 9A42     		cmp	r2, r3
 1765 005e 12D0     		beq	.L94
 1766              	.L93:
 1767              		.loc 1 507 0 discriminator 4
 1768 0060 3B69     		ldr	r3, [r7, #16]
 1769 0062 002B     		cmp	r3, #0
 1770 0064 11D0     		beq	.L95
 508:..\..\src/scsi.c **** 			(thirdPty &&
 509:..\..\src/scsi.c **** 				(scsiDev.target->reserverId == scsiDev.initiatorId) &&
 1771              		.loc 1 509 0 is_stmt 1
 1772 0066 334B     		ldr	r3, .L108
 1773 0068 1B6E     		ldr	r3, [r3, #96]
 1774 006a 5A69     		ldr	r2, [r3, #20]
 1775 006c 314B     		ldr	r3, .L108
 1776 006e 03F58343 		add	r3, r3, #16768
 1777 0072 1833     		adds	r3, r3, #24
 1778 0074 1B68     		ldr	r3, [r3]
 508:..\..\src/scsi.c **** 			(thirdPty &&
 1779              		.loc 1 508 0
 1780 0076 9A42     		cmp	r2, r3
 1781 0078 07D1     		bne	.L95
 510:..\..\src/scsi.c **** 				(scsiDev.target->reservedId == thirdPtyId)
 1782              		.loc 1 510 0
 1783 007a 2E4B     		ldr	r3, .L108
 1784 007c 1B6E     		ldr	r3, [r3, #96]
 1785 007e 1A69     		ldr	r2, [r3, #16]
 509:..\..\src/scsi.c **** 				(scsiDev.target->reservedId == thirdPtyId)
 1786              		.loc 1 509 0
 1787 0080 FB68     		ldr	r3, [r7, #12]
 1788 0082 9A42     		cmp	r2, r3
 1789 0084 01D1     		bne	.L95
 1790              	.L94:
 507:..\..\src/scsi.c **** 			(thirdPty &&
 1791              		.loc 1 507 0 discriminator 3
 1792 0086 0123     		movs	r3, #1
 1793 0088 00E0     		b	.L96
 1794              	.L95:
 507:..\..\src/scsi.c **** 			(thirdPty &&
 1795              		.loc 1 507 0 is_stmt 0 discriminator 5
 1796 008a 0023     		movs	r3, #0
 1797              	.L96:
 506:..\..\src/scsi.c **** 		(!thirdPty && (scsiDev.initiatorId == scsiDev.target->reservedId)) ||
 1798              		.loc 1 506 0 is_stmt 1
 1799 008c 7B60     		str	r3, [r7, #4]
 511:..\..\src/scsi.c **** 			);
 512:..\..\src/scsi.c **** 
 513:..\..\src/scsi.c **** 	if (extentReservation)
 1800              		.loc 1 513 0
ARM GAS  C:\Users\r\AppData\Local\Temp\ccbXJ1Li.s 			page 42


 1801 008e 7B69     		ldr	r3, [r7, #20]
 1802 0090 002B     		cmp	r3, #0
 1803 0092 0CD0     		beq	.L97
 514:..\..\src/scsi.c **** 	{
 515:..\..\src/scsi.c **** 		// Not supported.
 516:..\..\src/scsi.c **** 		scsiDev.target->sense.code = ILLEGAL_REQUEST;
 1804              		.loc 1 516 0
 1805 0094 274B     		ldr	r3, .L108
 1806 0096 1B6E     		ldr	r3, [r3, #96]
 1807 0098 0522     		movs	r2, #5
 1808 009a 9A72     		strb	r2, [r3, #10]
 517:..\..\src/scsi.c **** 		scsiDev.target->sense.asc = INVALID_FIELD_IN_CDB;
 1809              		.loc 1 517 0
 1810 009c 254B     		ldr	r3, .L108
 1811 009e 1B6E     		ldr	r3, [r3, #96]
 1812 00a0 4FF41052 		mov	r2, #9216
 1813 00a4 9A81     		strh	r2, [r3, #12]	@ movhi
 518:..\..\src/scsi.c **** 		enter_Status(CHECK_CONDITION);
 1814              		.loc 1 518 0
 1815 00a6 0220     		movs	r0, #2
 1816 00a8 FFF7FEFF 		bl	enter_Status
 519:..\..\src/scsi.c **** 	}
 520:..\..\src/scsi.c **** 	else if (command == 0x17) // release
 521:..\..\src/scsi.c **** 	{
 522:..\..\src/scsi.c **** 		if ((scsiDev.target->reservedId < 0) || canRelease)
 523:..\..\src/scsi.c **** 		{
 524:..\..\src/scsi.c **** 			scsiDev.target->reservedId = -1;
 525:..\..\src/scsi.c **** 			scsiDev.target->reserverId = -1;
 526:..\..\src/scsi.c **** 		}
 527:..\..\src/scsi.c **** 		else
 528:..\..\src/scsi.c **** 		{
 529:..\..\src/scsi.c **** 			enter_Status(CONFLICT);
 530:..\..\src/scsi.c **** 		}
 531:..\..\src/scsi.c **** 	}
 532:..\..\src/scsi.c **** 	else // assume reserve.
 533:..\..\src/scsi.c **** 	{
 534:..\..\src/scsi.c **** 		if ((scsiDev.target->reservedId < 0) || canRelease)
 535:..\..\src/scsi.c **** 		{
 536:..\..\src/scsi.c **** 			scsiDev.target->reserverId = scsiDev.initiatorId;
 537:..\..\src/scsi.c **** 			if (thirdPty)
 538:..\..\src/scsi.c **** 			{
 539:..\..\src/scsi.c **** 				scsiDev.target->reservedId = thirdPtyId;
 540:..\..\src/scsi.c **** 			}
 541:..\..\src/scsi.c **** 			else
 542:..\..\src/scsi.c **** 			{
 543:..\..\src/scsi.c **** 				scsiDev.target->reservedId = scsiDev.initiatorId;
 544:..\..\src/scsi.c **** 			}
 545:..\..\src/scsi.c **** 		}
 546:..\..\src/scsi.c **** 		else
 547:..\..\src/scsi.c **** 		{
 548:..\..\src/scsi.c **** 			// Already reserved by someone else!
 549:..\..\src/scsi.c **** 			enter_Status(CONFLICT);
 550:..\..\src/scsi.c **** 		}
 551:..\..\src/scsi.c **** 	}
 552:..\..\src/scsi.c **** }
 1817              		.loc 1 552 0
 1818 00ac 3EE0     		b	.L107
ARM GAS  C:\Users\r\AppData\Local\Temp\ccbXJ1Li.s 			page 43


 1819              	.L97:
 520:..\..\src/scsi.c **** 	{
 1820              		.loc 1 520 0
 1821 00ae FB7A     		ldrb	r3, [r7, #11]	@ zero_extendqisi2
 1822 00b0 172B     		cmp	r3, #23
 1823 00b2 16D1     		bne	.L99
 522:..\..\src/scsi.c **** 		{
 1824              		.loc 1 522 0
 1825 00b4 1F4B     		ldr	r3, .L108
 1826 00b6 1B6E     		ldr	r3, [r3, #96]
 1827 00b8 1B69     		ldr	r3, [r3, #16]
 1828 00ba 002B     		cmp	r3, #0
 1829 00bc 02DB     		blt	.L100
 522:..\..\src/scsi.c **** 		{
 1830              		.loc 1 522 0 is_stmt 0 discriminator 1
 1831 00be 7B68     		ldr	r3, [r7, #4]
 1832 00c0 002B     		cmp	r3, #0
 1833 00c2 0AD0     		beq	.L101
 1834              	.L100:
 524:..\..\src/scsi.c **** 			scsiDev.target->reserverId = -1;
 1835              		.loc 1 524 0 is_stmt 1
 1836 00c4 1B4B     		ldr	r3, .L108
 1837 00c6 1B6E     		ldr	r3, [r3, #96]
 1838 00c8 4FF0FF32 		mov	r2, #-1
 1839 00cc 1A61     		str	r2, [r3, #16]
 525:..\..\src/scsi.c **** 		}
 1840              		.loc 1 525 0
 1841 00ce 194B     		ldr	r3, .L108
 1842 00d0 1B6E     		ldr	r3, [r3, #96]
 1843 00d2 4FF0FF32 		mov	r2, #-1
 1844 00d6 5A61     		str	r2, [r3, #20]
 1845 00d8 28E0     		b	.L98
 1846              	.L101:
 529:..\..\src/scsi.c **** 		}
 1847              		.loc 1 529 0
 1848 00da 1820     		movs	r0, #24
 1849 00dc FFF7FEFF 		bl	enter_Status
 1850              		.loc 1 552 0
 1851 00e0 24E0     		b	.L107
 1852              	.L99:
 534:..\..\src/scsi.c **** 		{
 1853              		.loc 1 534 0
 1854 00e2 144B     		ldr	r3, .L108
 1855 00e4 1B6E     		ldr	r3, [r3, #96]
 1856 00e6 1B69     		ldr	r3, [r3, #16]
 1857 00e8 002B     		cmp	r3, #0
 1858 00ea 02DB     		blt	.L103
 534:..\..\src/scsi.c **** 		{
 1859              		.loc 1 534 0 is_stmt 0 discriminator 1
 1860 00ec 7B68     		ldr	r3, [r7, #4]
 1861 00ee 002B     		cmp	r3, #0
 1862 00f0 18D0     		beq	.L104
 1863              	.L103:
 536:..\..\src/scsi.c **** 			if (thirdPty)
 1864              		.loc 1 536 0 is_stmt 1
 1865 00f2 104B     		ldr	r3, .L108
 1866 00f4 1A6E     		ldr	r2, [r3, #96]
ARM GAS  C:\Users\r\AppData\Local\Temp\ccbXJ1Li.s 			page 44


 1867 00f6 0F4B     		ldr	r3, .L108
 1868 00f8 03F58343 		add	r3, r3, #16768
 1869 00fc 1833     		adds	r3, r3, #24
 1870 00fe 1B68     		ldr	r3, [r3]
 1871 0100 5361     		str	r3, [r2, #20]
 537:..\..\src/scsi.c **** 			{
 1872              		.loc 1 537 0
 1873 0102 3B69     		ldr	r3, [r7, #16]
 1874 0104 002B     		cmp	r3, #0
 1875 0106 04D0     		beq	.L105
 539:..\..\src/scsi.c **** 			}
 1876              		.loc 1 539 0
 1877 0108 0A4B     		ldr	r3, .L108
 1878 010a 1B6E     		ldr	r3, [r3, #96]
 1879 010c FA68     		ldr	r2, [r7, #12]
 1880 010e 1A61     		str	r2, [r3, #16]
 537:..\..\src/scsi.c **** 			{
 1881              		.loc 1 537 0
 1882 0110 0CE0     		b	.L98
 1883              	.L105:
 543:..\..\src/scsi.c **** 			}
 1884              		.loc 1 543 0
 1885 0112 084B     		ldr	r3, .L108
 1886 0114 1A6E     		ldr	r2, [r3, #96]
 1887 0116 074B     		ldr	r3, .L108
 1888 0118 03F58343 		add	r3, r3, #16768
 1889 011c 1833     		adds	r3, r3, #24
 1890 011e 1B68     		ldr	r3, [r3]
 1891 0120 1361     		str	r3, [r2, #16]
 537:..\..\src/scsi.c **** 			{
 1892              		.loc 1 537 0
 1893 0122 03E0     		b	.L98
 1894              	.L104:
 549:..\..\src/scsi.c **** 		}
 1895              		.loc 1 549 0
 1896 0124 1820     		movs	r0, #24
 1897 0126 FFF7FEFF 		bl	enter_Status
 1898              		.loc 1 552 0
 1899 012a FFE7     		b	.L107
 1900              	.L98:
 1901              	.L107:
 1902 012c 00BF     		nop
 1903 012e 1837     		adds	r7, r7, #24
 1904              		.cfi_def_cfa_offset 8
 1905 0130 BD46     		mov	sp, r7
 1906              		.cfi_def_cfa_register 13
 1907              		@ sp needed
 1908 0132 80BD     		pop	{r7, pc}
 1909              	.L109:
 1910              		.align	2
 1911              	.L108:
 1912 0134 00000000 		.word	scsiDev
 1913              		.cfi_endproc
 1914              	.LFE74:
 1915              		.size	doReserveRelease, .-doReserveRelease
 1916              		.section	.text.scsiReset,"ax",%progbits
 1917              		.align	2
ARM GAS  C:\Users\r\AppData\Local\Temp\ccbXJ1Li.s 			page 45


 1918              		.thumb
 1919              		.thumb_func
 1920              		.type	scsiReset, %function
 1921              	scsiReset:
 1922              	.LFB75:
 553:..\..\src/scsi.c **** 
 554:..\..\src/scsi.c **** static void scsiReset()
 555:..\..\src/scsi.c **** {
 1923              		.loc 1 555 0
 1924              		.cfi_startproc
 1925              		@ args = 0, pretend = 0, frame = 8
 1926              		@ frame_needed = 1, uses_anonymous_args = 0
 1927 0000 80B5     		push	{r7, lr}
 1928              		.cfi_def_cfa_offset 8
 1929              		.cfi_offset 7, -8
 1930              		.cfi_offset 14, -4
 1931 0002 82B0     		sub	sp, sp, #8
 1932              		.cfi_def_cfa_offset 16
 1933 0004 00AF     		add	r7, sp, #0
 1934              		.cfi_def_cfa_register 7
 556:..\..\src/scsi.c **** 	scsiDev.rstCount++;
 1935              		.loc 1 556 0
 1936 0006 3C4B     		ldr	r3, .L117
 1937 0008 03F58343 		add	r3, r3, #16768
 1938 000c 2633     		adds	r3, r3, #38
 1939 000e 1B78     		ldrb	r3, [r3]	@ zero_extendqisi2
 1940 0010 0133     		adds	r3, r3, #1
 1941 0012 DAB2     		uxtb	r2, r3
 1942 0014 384B     		ldr	r3, .L117
 1943 0016 03F58343 		add	r3, r3, #16768
 1944 001a 2633     		adds	r3, r3, #38
 1945 001c 1A70     		strb	r2, [r3]
 557:..\..\src/scsi.c **** 	ledOff();
 1946              		.loc 1 557 0
 1947 001e FFF7FEFF 		bl	ledOff
 558:..\..\src/scsi.c **** 
 559:..\..\src/scsi.c **** 	scsiPhyReset();
 1948              		.loc 1 559 0
 1949 0022 FFF7FEFF 		bl	scsiPhyReset
 560:..\..\src/scsi.c **** 	SCSI_Out_Ctl_Write(0);
 1950              		.loc 1 560 0
 1951 0026 0020     		movs	r0, #0
 1952 0028 FFF7FEFF 		bl	SCSI_Out_Ctl_Write
 561:..\..\src/scsi.c **** 
 562:..\..\src/scsi.c **** 	scsiDev.parityError = 0;
 1953              		.loc 1 562 0
 1954 002c 324B     		ldr	r3, .L117
 1955 002e 0022     		movs	r2, #0
 1956 0030 C3F87021 		str	r2, [r3, #368]
 563:..\..\src/scsi.c **** 	scsiDev.phase = BUS_FREE;
 1957              		.loc 1 563 0
 1958 0034 304B     		ldr	r3, .L117
 1959 0036 4FF0FF32 		mov	r2, #-1
 1960 003a C3F87821 		str	r2, [r3, #376]
 564:..\..\src/scsi.c **** 	scsiDev.atnFlag = 0;
 1961              		.loc 1 564 0
 1962 003e 2E4B     		ldr	r3, .L117
ARM GAS  C:\Users\r\AppData\Local\Temp\ccbXJ1Li.s 			page 46


 1963 0040 0022     		movs	r2, #0
 1964 0042 C3F86421 		str	r2, [r3, #356]
 565:..\..\src/scsi.c **** 	scsiDev.resetFlag = 0;
 1965              		.loc 1 565 0
 1966 0046 2C4B     		ldr	r3, .L117
 1967 0048 0022     		movs	r2, #0
 1968 004a C3F86821 		str	r2, [r3, #360]
 566:..\..\src/scsi.c **** 	scsiDev.selFlag = 0;
 1969              		.loc 1 566 0
 1970 004e 2A4B     		ldr	r3, .L117
 1971 0050 0022     		movs	r2, #0
 1972 0052 C3F86C21 		str	r2, [r3, #364]
 567:..\..\src/scsi.c **** 	scsiDev.lun = -1;
 1973              		.loc 1 567 0
 1974 0056 284B     		ldr	r3, .L117
 1975 0058 03F58343 		add	r3, r3, #16768
 1976 005c 1533     		adds	r3, r3, #21
 1977 005e FF22     		movs	r2, #255
 1978 0060 1A70     		strb	r2, [r3]
 568:..\..\src/scsi.c **** 	scsiDev.compatMode = COMPAT_UNKNOWN;
 1979              		.loc 1 568 0
 1980 0062 254B     		ldr	r3, .L117
 1981 0064 03F58343 		add	r3, r3, #16768
 1982 0068 1733     		adds	r3, r3, #23
 1983 006a 0022     		movs	r2, #0
 1984 006c 1A70     		strb	r2, [r3]
 569:..\..\src/scsi.c **** 
 570:..\..\src/scsi.c **** 	if (scsiDev.target)
 1985              		.loc 1 570 0
 1986 006e 224B     		ldr	r3, .L117
 1987 0070 1B6E     		ldr	r3, [r3, #96]
 1988 0072 002B     		cmp	r3, #0
 1989 0074 1DD0     		beq	.L111
 571:..\..\src/scsi.c **** 	{
 572:..\..\src/scsi.c **** 		if (scsiDev.target->unitAttention != POWER_ON_RESET)
 1990              		.loc 1 572 0
 1991 0076 204B     		ldr	r3, .L117
 1992 0078 1B6E     		ldr	r3, [r3, #96]
 1993 007a DB89     		ldrh	r3, [r3, #14]
 1994 007c 42F60112 		movw	r2, #10497
 1995 0080 9342     		cmp	r3, r2
 1996 0082 04D0     		beq	.L112
 573:..\..\src/scsi.c **** 		{
 574:..\..\src/scsi.c **** 			scsiDev.target->unitAttention = SCSI_BUS_RESET;
 1997              		.loc 1 574 0
 1998 0084 1C4B     		ldr	r3, .L117
 1999 0086 1B6E     		ldr	r3, [r3, #96]
 2000 0088 42F60212 		movw	r2, #10498
 2001 008c DA81     		strh	r2, [r3, #14]	@ movhi
 2002              	.L112:
 575:..\..\src/scsi.c **** 		}
 576:..\..\src/scsi.c **** 		scsiDev.target->reservedId = -1;
 2003              		.loc 1 576 0
 2004 008e 1A4B     		ldr	r3, .L117
 2005 0090 1B6E     		ldr	r3, [r3, #96]
 2006 0092 4FF0FF32 		mov	r2, #-1
 2007 0096 1A61     		str	r2, [r3, #16]
ARM GAS  C:\Users\r\AppData\Local\Temp\ccbXJ1Li.s 			page 47


 577:..\..\src/scsi.c **** 		scsiDev.target->reserverId = -1;
 2008              		.loc 1 577 0
 2009 0098 174B     		ldr	r3, .L117
 2010 009a 1B6E     		ldr	r3, [r3, #96]
 2011 009c 4FF0FF32 		mov	r2, #-1
 2012 00a0 5A61     		str	r2, [r3, #20]
 578:..\..\src/scsi.c **** 		scsiDev.target->sense.code = NO_SENSE;
 2013              		.loc 1 578 0
 2014 00a2 154B     		ldr	r3, .L117
 2015 00a4 1B6E     		ldr	r3, [r3, #96]
 2016 00a6 0022     		movs	r2, #0
 2017 00a8 9A72     		strb	r2, [r3, #10]
 579:..\..\src/scsi.c **** 		scsiDev.target->sense.asc = NO_ADDITIONAL_SENSE_INFORMATION;
 2018              		.loc 1 579 0
 2019 00aa 134B     		ldr	r3, .L117
 2020 00ac 1B6E     		ldr	r3, [r3, #96]
 2021 00ae 0022     		movs	r2, #0
 2022 00b0 9A81     		strh	r2, [r3, #12]	@ movhi
 2023              	.L111:
 580:..\..\src/scsi.c **** 	}
 581:..\..\src/scsi.c **** 	scsiDev.target = NULL;
 2024              		.loc 1 581 0
 2025 00b2 114B     		ldr	r3, .L117
 2026 00b4 0022     		movs	r2, #0
 2027 00b6 1A66     		str	r2, [r3, #96]
 582:..\..\src/scsi.c **** 	scsiDiskReset();
 2028              		.loc 1 582 0
 2029 00b8 FFF7FEFF 		bl	scsiDiskReset
 583:..\..\src/scsi.c **** 
 584:..\..\src/scsi.c **** 	scsiDev.postDataOutHook = NULL;
 2030              		.loc 1 584 0
 2031 00bc 0E4B     		ldr	r3, .L117
 2032 00be 03F58343 		add	r3, r3, #16768
 2033 00c2 2033     		adds	r3, r3, #32
 2034 00c4 0022     		movs	r2, #0
 2035 00c6 1A60     		str	r2, [r3]
 585:..\..\src/scsi.c **** 
 586:..\..\src/scsi.c **** 	// Sleep to allow the bus to settle down a bit.
 587:..\..\src/scsi.c **** 	// We must be ready again within the "Reset to selection time" of
 588:..\..\src/scsi.c **** 	// 250ms.
 589:..\..\src/scsi.c **** 	// There is no guarantee that the RST line will be negated by then.
 590:..\..\src/scsi.c **** 	// NOTE: We could be connected and powered by USB for configuration,
 591:..\..\src/scsi.c **** 	// in which case TERMPWR cannot be supplied, and reset will ALWAYS
 592:..\..\src/scsi.c **** 	// be true. Therefore, the sleep here must be slow to avoid slowing
 593:..\..\src/scsi.c **** 	// USB comms
 594:..\..\src/scsi.c ****     // Also, need to exit quickly for XEBEC controllers which may
 595:..\..\src/scsi.c ****     // assert RST immediately before pulsing a SEL.
 596:..\..\src/scsi.c ****     uint32_t rstTimerBegin = getTime_ms();
 2036              		.loc 1 596 0
 2037 00c8 FFF7FEFF 		bl	getTime_ms
 2038 00cc 7860     		str	r0, [r7, #4]
 597:..\..\src/scsi.c ****     while (SCSI_ReadFilt(SCSI_Filt_RST))
 2039              		.loc 1 597 0
 2040 00ce 05E0     		b	.L113
 2041              	.L115:
 598:..\..\src/scsi.c ****     {
 599:..\..\src/scsi.c ****             if (elapsedTime_ms(rstTimerBegin) >= 1)
ARM GAS  C:\Users\r\AppData\Local\Temp\ccbXJ1Li.s 			page 48


 2042              		.loc 1 599 0
 2043 00d0 7868     		ldr	r0, [r7, #4]
 2044 00d2 FFF7FEFF 		bl	elapsedTime_ms
 2045 00d6 0346     		mov	r3, r0
 2046 00d8 002B     		cmp	r3, #0
 2047 00da 07D1     		bne	.L116
 2048              	.L113:
 597:..\..\src/scsi.c ****     while (SCSI_ReadFilt(SCSI_Filt_RST))
 2049              		.loc 1 597 0
 2050 00dc FFF7FEFF 		bl	SCSI_Filtered_Read
 2051 00e0 0346     		mov	r3, r0
 2052 00e2 03F00803 		and	r3, r3, #8
 2053 00e6 002B     		cmp	r3, #0
 2054 00e8 F2D0     		beq	.L115
 600:..\..\src/scsi.c ****             {
 601:..\..\src/scsi.c ****                     break;
 602:..\..\src/scsi.c ****             }
 603:..\..\src/scsi.c ****     }
 604:..\..\src/scsi.c **** }
 2055              		.loc 1 604 0
 2056 00ea 00E0     		b	.L114
 2057              	.L116:
 601:..\..\src/scsi.c ****             }
 2058              		.loc 1 601 0
 2059 00ec 00BF     		nop
 2060              	.L114:
 2061              		.loc 1 604 0
 2062 00ee 00BF     		nop
 2063 00f0 0837     		adds	r7, r7, #8
 2064              		.cfi_def_cfa_offset 8
 2065 00f2 BD46     		mov	sp, r7
 2066              		.cfi_def_cfa_register 13
 2067              		@ sp needed
 2068 00f4 80BD     		pop	{r7, pc}
 2069              	.L118:
 2070 00f6 00BF     		.align	2
 2071              	.L117:
 2072 00f8 00000000 		.word	scsiDev
 2073              		.cfi_endproc
 2074              	.LFE75:
 2075              		.size	scsiReset, .-scsiReset
 2076              		.section	.text.enter_SelectionPhase,"ax",%progbits
 2077              		.align	2
 2078              		.thumb
 2079              		.thumb_func
 2080              		.type	enter_SelectionPhase, %function
 2081              	enter_SelectionPhase:
 2082              	.LFB76:
 605:..\..\src/scsi.c **** 
 606:..\..\src/scsi.c **** static void enter_SelectionPhase()
 607:..\..\src/scsi.c **** {
 2083              		.loc 1 607 0
 2084              		.cfi_startproc
 2085              		@ args = 0, pretend = 0, frame = 0
 2086              		@ frame_needed = 1, uses_anonymous_args = 0
 2087              		@ link register save eliminated.
 2088 0000 80B4     		push	{r7}
ARM GAS  C:\Users\r\AppData\Local\Temp\ccbXJ1Li.s 			page 49


 2089              		.cfi_def_cfa_offset 4
 2090              		.cfi_offset 7, -4
 2091 0002 00AF     		add	r7, sp, #0
 2092              		.cfi_def_cfa_register 7
 608:..\..\src/scsi.c **** 	// Ignore stale versions of this flag, but ensure we know the
 609:..\..\src/scsi.c **** 	// current value if the flag is still set.
 610:..\..\src/scsi.c **** 	scsiDev.atnFlag = 0;
 2093              		.loc 1 610 0
 2094 0004 244B     		ldr	r3, .L120
 2095 0006 0022     		movs	r2, #0
 2096 0008 C3F86421 		str	r2, [r3, #356]
 611:..\..\src/scsi.c **** 	scsiDev.parityError = 0;
 2097              		.loc 1 611 0
 2098 000c 224B     		ldr	r3, .L120
 2099 000e 0022     		movs	r2, #0
 2100 0010 C3F87021 		str	r2, [r3, #368]
 612:..\..\src/scsi.c **** 	scsiDev.dataPtr = 0;
 2101              		.loc 1 612 0
 2102 0014 204B     		ldr	r3, .L120
 2103 0016 03F58243 		add	r3, r3, #16640
 2104 001a 7C33     		adds	r3, r3, #124
 2105 001c 0022     		movs	r2, #0
 2106 001e 1A60     		str	r2, [r3]
 613:..\..\src/scsi.c **** 	scsiDev.savedDataPtr = 0;
 2107              		.loc 1 613 0
 2108 0020 1D4B     		ldr	r3, .L120
 2109 0022 03F58343 		add	r3, r3, #16768
 2110 0026 0022     		movs	r2, #0
 2111 0028 1A60     		str	r2, [r3]
 614:..\..\src/scsi.c **** 	scsiDev.dataLen = 0;
 2112              		.loc 1 614 0
 2113 002a 1B4B     		ldr	r3, .L120
 2114 002c 03F58343 		add	r3, r3, #16768
 2115 0030 0433     		adds	r3, r3, #4
 2116 0032 0022     		movs	r2, #0
 2117 0034 1A60     		str	r2, [r3]
 615:..\..\src/scsi.c **** 	scsiDev.status = GOOD;
 2118              		.loc 1 615 0
 2119 0036 184B     		ldr	r3, .L120
 2120 0038 03F58343 		add	r3, r3, #16768
 2121 003c 1C33     		adds	r3, r3, #28
 2122 003e 0022     		movs	r2, #0
 2123 0040 1A70     		strb	r2, [r3]
 616:..\..\src/scsi.c **** 	scsiDev.phase = SELECTION;
 2124              		.loc 1 616 0
 2125 0042 154B     		ldr	r3, .L120
 2126 0044 6FF00302 		mvn	r2, #3
 2127 0048 C3F87821 		str	r2, [r3, #376]
 617:..\..\src/scsi.c **** 	scsiDev.lun = -1;
 2128              		.loc 1 617 0
 2129 004c 124B     		ldr	r3, .L120
 2130 004e 03F58343 		add	r3, r3, #16768
 2131 0052 1533     		adds	r3, r3, #21
 2132 0054 FF22     		movs	r2, #255
 2133 0056 1A70     		strb	r2, [r3]
 618:..\..\src/scsi.c **** 	scsiDev.discPriv = 0;
 2134              		.loc 1 618 0
ARM GAS  C:\Users\r\AppData\Local\Temp\ccbXJ1Li.s 			page 50


 2135 0058 0F4B     		ldr	r3, .L120
 2136 005a 03F58343 		add	r3, r3, #16768
 2137 005e 1633     		adds	r3, r3, #22
 2138 0060 0022     		movs	r2, #0
 2139 0062 1A70     		strb	r2, [r3]
 619:..\..\src/scsi.c **** 
 620:..\..\src/scsi.c **** 	scsiDev.initiatorId = -1;
 2140              		.loc 1 620 0
 2141 0064 0C4B     		ldr	r3, .L120
 2142 0066 03F58343 		add	r3, r3, #16768
 2143 006a 1833     		adds	r3, r3, #24
 2144 006c 4FF0FF32 		mov	r2, #-1
 2145 0070 1A60     		str	r2, [r3]
 621:..\..\src/scsi.c **** 	scsiDev.target = NULL;
 2146              		.loc 1 621 0
 2147 0072 094B     		ldr	r3, .L120
 2148 0074 0022     		movs	r2, #0
 2149 0076 1A66     		str	r2, [r3, #96]
 622:..\..\src/scsi.c **** 
 623:..\..\src/scsi.c **** 	transfer.blocks = 0;
 2150              		.loc 1 623 0
 2151 0078 084B     		ldr	r3, .L120+4
 2152 007a 0022     		movs	r2, #0
 2153 007c 9A60     		str	r2, [r3, #8]
 624:..\..\src/scsi.c **** 	transfer.currentBlock = 0;
 2154              		.loc 1 624 0
 2155 007e 074B     		ldr	r3, .L120+4
 2156 0080 0022     		movs	r2, #0
 2157 0082 DA60     		str	r2, [r3, #12]
 625:..\..\src/scsi.c **** 
 626:..\..\src/scsi.c **** 	scsiDev.postDataOutHook = NULL;
 2158              		.loc 1 626 0
 2159 0084 044B     		ldr	r3, .L120
 2160 0086 03F58343 		add	r3, r3, #16768
 2161 008a 2033     		adds	r3, r3, #32
 2162 008c 0022     		movs	r2, #0
 2163 008e 1A60     		str	r2, [r3]
 627:..\..\src/scsi.c **** }
 2164              		.loc 1 627 0
 2165 0090 00BF     		nop
 2166 0092 BD46     		mov	sp, r7
 2167              		.cfi_def_cfa_register 13
 2168              		@ sp needed
 2169 0094 80BC     		pop	{r7}
 2170              		.cfi_restore 7
 2171              		.cfi_def_cfa_offset 0
 2172 0096 7047     		bx	lr
 2173              	.L121:
 2174              		.align	2
 2175              	.L120:
 2176 0098 00000000 		.word	scsiDev
 2177 009c 00000000 		.word	transfer
 2178              		.cfi_endproc
 2179              	.LFE76:
 2180              		.size	enter_SelectionPhase, .-enter_SelectionPhase
 2181              		.section	.text.process_SelectionPhase,"ax",%progbits
 2182              		.align	2
ARM GAS  C:\Users\r\AppData\Local\Temp\ccbXJ1Li.s 			page 51


 2183              		.thumb
 2184              		.thumb_func
 2185              		.type	process_SelectionPhase, %function
 2186              	process_SelectionPhase:
 2187              	.LFB77:
 628:..\..\src/scsi.c **** 
 629:..\..\src/scsi.c **** static void process_SelectionPhase()
 630:..\..\src/scsi.c **** {
 2188              		.loc 1 630 0
 2189              		.cfi_startproc
 2190              		@ args = 0, pretend = 0, frame = 56
 2191              		@ frame_needed = 1, uses_anonymous_args = 0
 2192 0000 80B5     		push	{r7, lr}
 2193              		.cfi_def_cfa_offset 8
 2194              		.cfi_offset 7, -8
 2195              		.cfi_offset 14, -4
 2196 0002 8EB0     		sub	sp, sp, #56
 2197              		.cfi_def_cfa_offset 64
 2198 0004 00AF     		add	r7, sp, #0
 2199              		.cfi_def_cfa_register 7
 631:..\..\src/scsi.c **** 	// Selection delays.
 632:..\..\src/scsi.c **** 	// Many SCSI1 samplers that use a 5380 chip need a delay of at least 1ms.
 633:..\..\src/scsi.c **** 	// The Mac Plus boot-time (ie. rom code) selection abort time
 634:..\..\src/scsi.c **** 	// is < 1ms and must have no delay (standard suggests 250ms abort time)
 635:..\..\src/scsi.c **** 	// Most newer SCSI2 hosts don't care either way.
 636:..\..\src/scsi.c **** 	if (scsiDev.target->cfg->quirks == CONFIG_QUIRKS_XEBEC)
 2200              		.loc 1 636 0
 2201 0006 AD4B     		ldr	r3, .L157
 2202 0008 1B6E     		ldr	r3, [r3, #96]
 2203 000a 5B68     		ldr	r3, [r3, #4]
 2204 000c DB8F     		ldrh	r3, [r3, #62]	@ unaligned
 2205 000e 9BB2     		uxth	r3, r3
 2206 0010 042B     		cmp	r3, #4
 2207 0012 03D1     		bne	.L123
 637:..\..\src/scsi.c **** 	{
 638:..\..\src/scsi.c **** 		CyDelay(1); // Simply won't work if set to 0.
 2208              		.loc 1 638 0
 2209 0014 0120     		movs	r0, #1
 2210 0016 FFF7FEFF 		bl	CyDelay
 2211 001a 1AE0     		b	.L124
 2212              	.L123:
 639:..\..\src/scsi.c **** 	}
 640:..\..\src/scsi.c **** 	else if (scsiDev.boardCfg.selectionDelay == 255) // auto
 2213              		.loc 1 640 0
 2214 001c A74B     		ldr	r3, .L157
 2215 001e 93F86A30 		ldrb	r3, [r3, #106]	@ zero_extendqisi2
 2216 0022 FF2B     		cmp	r3, #255
 2217 0024 0AD1     		bne	.L125
 641:..\..\src/scsi.c **** 	{
 642:..\..\src/scsi.c **** 		if (scsiDev.compatMode < COMPAT_SCSI2)
 2218              		.loc 1 642 0
 2219 0026 A54B     		ldr	r3, .L157
 2220 0028 03F58343 		add	r3, r3, #16768
 2221 002c 1733     		adds	r3, r3, #23
 2222 002e 1B78     		ldrb	r3, [r3]	@ zero_extendqisi2
 2223 0030 022B     		cmp	r3, #2
 2224 0032 0ED8     		bhi	.L124
ARM GAS  C:\Users\r\AppData\Local\Temp\ccbXJ1Li.s 			page 52


 643:..\..\src/scsi.c **** 		{
 644:..\..\src/scsi.c **** 			CyDelay(1);
 2225              		.loc 1 644 0
 2226 0034 0120     		movs	r0, #1
 2227 0036 FFF7FEFF 		bl	CyDelay
 2228 003a 0AE0     		b	.L124
 2229              	.L125:
 645:..\..\src/scsi.c **** 		}
 646:..\..\src/scsi.c **** 	}
 647:..\..\src/scsi.c **** 	else if (scsiDev.boardCfg.selectionDelay != 0)
 2230              		.loc 1 647 0
 2231 003c 9F4B     		ldr	r3, .L157
 2232 003e 93F86A30 		ldrb	r3, [r3, #106]	@ zero_extendqisi2
 2233 0042 002B     		cmp	r3, #0
 2234 0044 05D0     		beq	.L124
 648:..\..\src/scsi.c **** 	{
 649:..\..\src/scsi.c **** 		CyDelay(scsiDev.boardCfg.selectionDelay);
 2235              		.loc 1 649 0
 2236 0046 9D4B     		ldr	r3, .L157
 2237 0048 93F86A30 		ldrb	r3, [r3, #106]	@ zero_extendqisi2
 2238 004c 1846     		mov	r0, r3
 2239 004e FFF7FEFF 		bl	CyDelay
 2240              	.L124:
 650:..\..\src/scsi.c **** 	}
 651:..\..\src/scsi.c **** 
 652:..\..\src/scsi.c **** 	int selLatchCfg = scsiDev.boardCfg.flags & CONFIG_ENABLE_SEL_LATCH;
 2241              		.loc 1 652 0
 2242 0052 9A4B     		ldr	r3, .L157
 2243 0054 93F86830 		ldrb	r3, [r3, #104]	@ zero_extendqisi2
 2244 0058 03F04003 		and	r3, r3, #64
 2245 005c BB62     		str	r3, [r7, #40]
 653:..\..\src/scsi.c **** 	int sel = (selLatchCfg && scsiDev.selFlag) || SCSI_ReadFilt(SCSI_Filt_SEL);
 2246              		.loc 1 653 0
 2247 005e BB6A     		ldr	r3, [r7, #40]
 2248 0060 002B     		cmp	r3, #0
 2249 0062 04D0     		beq	.L127
 2250              		.loc 1 653 0 is_stmt 0 discriminator 1
 2251 0064 954B     		ldr	r3, .L157
 2252 0066 D3F86C31 		ldr	r3, [r3, #364]
 2253 006a 002B     		cmp	r3, #0
 2254 006c 06D1     		bne	.L128
 2255              	.L127:
 2256              		.loc 1 653 0 discriminator 4
 2257 006e FFF7FEFF 		bl	SCSI_Filtered_Read
 2258 0072 0346     		mov	r3, r0
 2259 0074 03F00403 		and	r3, r3, #4
 2260 0078 002B     		cmp	r3, #0
 2261 007a 01D1     		bne	.L129
 2262              	.L128:
 2263              		.loc 1 653 0 discriminator 5
 2264 007c 0123     		movs	r3, #1
 2265 007e 00E0     		b	.L130
 2266              	.L129:
 2267              		.loc 1 653 0 discriminator 6
 2268 0080 0023     		movs	r3, #0
 2269              	.L130:
 2270              		.loc 1 653 0 discriminator 8
ARM GAS  C:\Users\r\AppData\Local\Temp\ccbXJ1Li.s 			page 53


 2271 0082 7B62     		str	r3, [r7, #36]
 654:..\..\src/scsi.c **** 
 655:..\..\src/scsi.c **** 	int bsy = SCSI_ReadFilt(SCSI_Filt_BSY);
 2272              		.loc 1 655 0 is_stmt 1 discriminator 8
 2273 0084 FFF7FEFF 		bl	SCSI_Filtered_Read
 2274 0088 0346     		mov	r3, r0
 2275 008a 03F00203 		and	r3, r3, #2
 2276 008e 002B     		cmp	r3, #0
 2277 0090 0CBF     		ite	eq
 2278 0092 0123     		moveq	r3, #1
 2279 0094 0023     		movne	r3, #0
 2280 0096 DBB2     		uxtb	r3, r3
 2281 0098 3B62     		str	r3, [r7, #32]
 656:..\..\src/scsi.c **** #ifdef SCSI_In_IO
 657:..\..\src/scsi.c **** 	int io = SCSI_ReadPin(SCSI_In_IO);
 2282              		.loc 1 657 0 discriminator 8
 2283 009a 894B     		ldr	r3, .L157+4
 2284 009c 1B78     		ldrb	r3, [r3]
 2285 009e DBB2     		uxtb	r3, r3
 2286 00a0 03F01003 		and	r3, r3, #16
 2287 00a4 002B     		cmp	r3, #0
 2288 00a6 0CBF     		ite	eq
 2289 00a8 0123     		moveq	r3, #1
 2290 00aa 0023     		movne	r3, #0
 2291 00ac DBB2     		uxtb	r3, r3
 2292 00ae FB61     		str	r3, [r7, #28]
 658:..\..\src/scsi.c **** #else
 659:..\..\src/scsi.c **** 	int io = 0;
 660:..\..\src/scsi.c **** #endif
 661:..\..\src/scsi.c **** 
 662:..\..\src/scsi.c **** 	// Only read these pins AFTER SEL and BSY - we don't want to catch them
 663:..\..\src/scsi.c **** 	// during a transition period.
 664:..\..\src/scsi.c **** 	uint8 mask = (selLatchCfg && scsiDev.selFlag) ? scsiDev.selDBX : scsiReadDBxPins();
 2293              		.loc 1 664 0 discriminator 8
 2294 00b0 BB6A     		ldr	r3, [r7, #40]
 2295 00b2 002B     		cmp	r3, #0
 2296 00b4 09D0     		beq	.L131
 2297              		.loc 1 664 0 is_stmt 0 discriminator 1
 2298 00b6 814B     		ldr	r3, .L157
 2299 00b8 D3F86C31 		ldr	r3, [r3, #364]
 2300 00bc 002B     		cmp	r3, #0
 2301 00be 04D0     		beq	.L131
 2302              		.loc 1 664 0 discriminator 3
 2303 00c0 7E4B     		ldr	r3, .L157
 2304 00c2 D3F87431 		ldr	r3, [r3, #372]
 2305 00c6 DBB2     		uxtb	r3, r3
 2306 00c8 02E0     		b	.L132
 2307              	.L131:
 2308              		.loc 1 664 0 discriminator 4
 2309 00ca FFF7FEFF 		bl	scsiReadDBxPins
 2310 00ce 0346     		mov	r3, r0
 2311              	.L132:
 2312              		.loc 1 664 0 discriminator 6
 2313 00d0 FB76     		strb	r3, [r7, #27]
 665:..\..\src/scsi.c **** 	int maskBitCount = countBits(mask);
 2314              		.loc 1 665 0 is_stmt 1 discriminator 6
 2315 00d2 FB7E     		ldrb	r3, [r7, #27]	@ zero_extendqisi2
ARM GAS  C:\Users\r\AppData\Local\Temp\ccbXJ1Li.s 			page 54


 2316 00d4 1846     		mov	r0, r3
 2317 00d6 FFF7FEFF 		bl	countBits
 2318 00da 0346     		mov	r3, r0
 2319 00dc 7B61     		str	r3, [r7, #20]
 666:..\..\src/scsi.c **** 	int goodParity = (Lookup_OddParity[mask] == SCSI_ReadPin(SCSI_In_DBP));
 2320              		.loc 1 666 0 discriminator 6
 2321 00de FB7E     		ldrb	r3, [r7, #27]	@ zero_extendqisi2
 2322 00e0 784A     		ldr	r2, .L157+8
 2323 00e2 D35C     		ldrb	r3, [r2, r3]	@ zero_extendqisi2
 2324 00e4 1A46     		mov	r2, r3
 2325 00e6 784B     		ldr	r3, .L157+12
 2326 00e8 1B78     		ldrb	r3, [r3]
 2327 00ea DBB2     		uxtb	r3, r3
 2328 00ec 03F01003 		and	r3, r3, #16
 2329 00f0 002B     		cmp	r3, #0
 2330 00f2 0CBF     		ite	eq
 2331 00f4 0123     		moveq	r3, #1
 2332 00f6 0023     		movne	r3, #0
 2333 00f8 DBB2     		uxtb	r3, r3
 2334 00fa 9A42     		cmp	r2, r3
 2335 00fc 0CBF     		ite	eq
 2336 00fe 0123     		moveq	r3, #1
 2337 0100 0023     		movne	r3, #0
 2338 0102 DBB2     		uxtb	r3, r3
 2339 0104 3B61     		str	r3, [r7, #16]
 667:..\..\src/scsi.c **** 	int atnFlag = SCSI_ReadFilt(SCSI_Filt_ATN);
 2340              		.loc 1 667 0 discriminator 6
 2341 0106 FFF7FEFF 		bl	SCSI_Filtered_Read
 2342 010a 0346     		mov	r3, r0
 2343 010c 03F00103 		and	r3, r3, #1
 2344 0110 002B     		cmp	r3, #0
 2345 0112 0CBF     		ite	eq
 2346 0114 0123     		moveq	r3, #1
 2347 0116 0023     		movne	r3, #0
 2348 0118 DBB2     		uxtb	r3, r3
 2349 011a FB60     		str	r3, [r7, #12]
 668:..\..\src/scsi.c **** 
 669:..\..\src/scsi.c **** 	int tgtIndex;
 670:..\..\src/scsi.c **** 	TargetState* target = NULL;
 2350              		.loc 1 670 0 discriminator 6
 2351 011c 0023     		movs	r3, #0
 2352 011e 3B63     		str	r3, [r7, #48]
 671:..\..\src/scsi.c **** 	for (tgtIndex = 0; tgtIndex < MAX_SCSI_TARGETS; ++tgtIndex)
 2353              		.loc 1 671 0 discriminator 6
 2354 0120 0023     		movs	r3, #0
 2355 0122 7B63     		str	r3, [r7, #52]
 2356 0124 1AE0     		b	.L133
 2357              	.L136:
 672:..\..\src/scsi.c **** 	{
 673:..\..\src/scsi.c **** 		if (mask & (1 << scsiDev.targets[tgtIndex].targetId))
 2358              		.loc 1 673 0
 2359 0126 F97E     		ldrb	r1, [r7, #27]	@ zero_extendqisi2
 2360 0128 6448     		ldr	r0, .L157
 2361 012a 7A6B     		ldr	r2, [r7, #52]
 2362 012c 1346     		mov	r3, r2
 2363 012e 5B00     		lsls	r3, r3, #1
 2364 0130 1344     		add	r3, r3, r2
ARM GAS  C:\Users\r\AppData\Local\Temp\ccbXJ1Li.s 			page 55


 2365 0132 DB00     		lsls	r3, r3, #3
 2366 0134 0344     		add	r3, r3, r0
 2367 0136 1B78     		ldrb	r3, [r3]	@ zero_extendqisi2
 2368 0138 41FA03F3 		asr	r3, r1, r3
 2369 013c 03F00103 		and	r3, r3, #1
 2370 0140 002B     		cmp	r3, #0
 2371 0142 08D0     		beq	.L134
 674:..\..\src/scsi.c **** 		{
 675:..\..\src/scsi.c **** 			target = &scsiDev.targets[tgtIndex];
 2372              		.loc 1 675 0
 2373 0144 7A6B     		ldr	r2, [r7, #52]
 2374 0146 1346     		mov	r3, r2
 2375 0148 5B00     		lsls	r3, r3, #1
 2376 014a 1344     		add	r3, r3, r2
 2377 014c DB00     		lsls	r3, r3, #3
 2378 014e 5B4A     		ldr	r2, .L157
 2379 0150 1344     		add	r3, r3, r2
 2380 0152 3B63     		str	r3, [r7, #48]
 676:..\..\src/scsi.c **** 			break;
 2381              		.loc 1 676 0
 2382 0154 05E0     		b	.L135
 2383              	.L134:
 671:..\..\src/scsi.c **** 	{
 2384              		.loc 1 671 0 discriminator 2
 2385 0156 7B6B     		ldr	r3, [r7, #52]
 2386 0158 0133     		adds	r3, r3, #1
 2387 015a 7B63     		str	r3, [r7, #52]
 2388              	.L133:
 671:..\..\src/scsi.c **** 	{
 2389              		.loc 1 671 0 is_stmt 0 discriminator 1
 2390 015c 7B6B     		ldr	r3, [r7, #52]
 2391 015e 032B     		cmp	r3, #3
 2392 0160 E1DD     		ble	.L136
 2393              	.L135:
 677:..\..\src/scsi.c **** 		}
 678:..\..\src/scsi.c **** 	}
 679:..\..\src/scsi.c **** 	sel &= (selLatchCfg && scsiDev.selFlag) || SCSI_ReadFilt(SCSI_Filt_SEL);
 2394              		.loc 1 679 0 is_stmt 1
 2395 0162 BB6A     		ldr	r3, [r7, #40]
 2396 0164 002B     		cmp	r3, #0
 2397 0166 04D0     		beq	.L137
 2398              		.loc 1 679 0 is_stmt 0 discriminator 1
 2399 0168 544B     		ldr	r3, .L157
 2400 016a D3F86C31 		ldr	r3, [r3, #364]
 2401 016e 002B     		cmp	r3, #0
 2402 0170 06D1     		bne	.L138
 2403              	.L137:
 2404              		.loc 1 679 0 discriminator 4
 2405 0172 FFF7FEFF 		bl	SCSI_Filtered_Read
 2406 0176 0346     		mov	r3, r0
 2407 0178 03F00403 		and	r3, r3, #4
 2408 017c 002B     		cmp	r3, #0
 2409 017e 01D1     		bne	.L139
 2410              	.L138:
 2411              		.loc 1 679 0 discriminator 5
 2412 0180 0123     		movs	r3, #1
 2413 0182 00E0     		b	.L140
ARM GAS  C:\Users\r\AppData\Local\Temp\ccbXJ1Li.s 			page 56


 2414              	.L139:
 2415              		.loc 1 679 0 discriminator 6
 2416 0184 0023     		movs	r3, #0
 2417              	.L140:
 2418              		.loc 1 679 0 discriminator 8
 2419 0186 7A6A     		ldr	r2, [r7, #36]
 2420 0188 1340     		ands	r3, r3, r2
 2421 018a 7B62     		str	r3, [r7, #36]
 680:..\..\src/scsi.c **** 	bsy |= SCSI_ReadFilt(SCSI_Filt_BSY);
 2422              		.loc 1 680 0 is_stmt 1 discriminator 8
 2423 018c FFF7FEFF 		bl	SCSI_Filtered_Read
 2424 0190 0346     		mov	r3, r0
 2425 0192 03F00203 		and	r3, r3, #2
 2426 0196 002B     		cmp	r3, #0
 2427 0198 0CBF     		ite	eq
 2428 019a 0123     		moveq	r3, #1
 2429 019c 0023     		movne	r3, #0
 2430 019e DBB2     		uxtb	r3, r3
 2431 01a0 1A46     		mov	r2, r3
 2432 01a2 3B6A     		ldr	r3, [r7, #32]
 2433 01a4 1343     		orrs	r3, r3, r2
 2434 01a6 3B62     		str	r3, [r7, #32]
 681:..\..\src/scsi.c **** #ifdef SCSI_In_IO
 682:..\..\src/scsi.c **** 	io |= SCSI_ReadPin(SCSI_In_IO);
 2435              		.loc 1 682 0 discriminator 8
 2436 01a8 454B     		ldr	r3, .L157+4
 2437 01aa 1B78     		ldrb	r3, [r3]
 2438 01ac DBB2     		uxtb	r3, r3
 2439 01ae 03F01003 		and	r3, r3, #16
 2440 01b2 002B     		cmp	r3, #0
 2441 01b4 0CBF     		ite	eq
 2442 01b6 0123     		moveq	r3, #1
 2443 01b8 0023     		movne	r3, #0
 2444 01ba DBB2     		uxtb	r3, r3
 2445 01bc 1A46     		mov	r2, r3
 2446 01be FB69     		ldr	r3, [r7, #28]
 2447 01c0 1343     		orrs	r3, r3, r2
 2448 01c2 FB61     		str	r3, [r7, #28]
 683:..\..\src/scsi.c **** #endif
 684:..\..\src/scsi.c **** 	if (!bsy && !io && sel &&
 2449              		.loc 1 684 0 discriminator 8
 2450 01c4 3B6A     		ldr	r3, [r7, #32]
 2451 01c6 002B     		cmp	r3, #0
 2452 01c8 40F0D380 		bne	.L141
 2453              		.loc 1 684 0 is_stmt 0 discriminator 1
 2454 01cc FB69     		ldr	r3, [r7, #28]
 2455 01ce 002B     		cmp	r3, #0
 2456 01d0 40F0CF80 		bne	.L141
 2457              		.loc 1 684 0 discriminator 2
 2458 01d4 7B6A     		ldr	r3, [r7, #36]
 2459 01d6 002B     		cmp	r3, #0
 2460 01d8 00F0CB80 		beq	.L141
 2461              		.loc 1 684 0 discriminator 3
 2462 01dc 3B6B     		ldr	r3, [r7, #48]
 2463 01de 002B     		cmp	r3, #0
 2464 01e0 00F0C780 		beq	.L141
 685:..\..\src/scsi.c **** 		target &&
ARM GAS  C:\Users\r\AppData\Local\Temp\ccbXJ1Li.s 			page 57


 2465              		.loc 1 685 0 is_stmt 1
 2466 01e4 3B69     		ldr	r3, [r7, #16]
 2467 01e6 002B     		cmp	r3, #0
 2468 01e8 0AD1     		bne	.L142
 686:..\..\src/scsi.c **** 		(goodParity || !(scsiDev.boardCfg.flags & CONFIG_ENABLE_PARITY) || !atnFlag) &&
 2469              		.loc 1 686 0
 2470 01ea 344B     		ldr	r3, .L157
 2471 01ec 93F86830 		ldrb	r3, [r3, #104]	@ zero_extendqisi2
 2472 01f0 03F00203 		and	r3, r3, #2
 2473 01f4 002B     		cmp	r3, #0
 2474 01f6 03D0     		beq	.L142
 2475              		.loc 1 686 0 is_stmt 0 discriminator 2
 2476 01f8 FB68     		ldr	r3, [r7, #12]
 2477 01fa 002B     		cmp	r3, #0
 2478 01fc 40F0B980 		bne	.L141
 2479              	.L142:
 687:..\..\src/scsi.c **** 		likely(maskBitCount <= 2))
 2480              		.loc 1 687 0 is_stmt 1 discriminator 3
 2481 0200 7B69     		ldr	r3, [r7, #20]
 2482 0202 022B     		cmp	r3, #2
 2483 0204 D4BF     		ite	le
 2484 0206 0123     		movle	r3, #1
 2485 0208 0023     		movgt	r3, #0
 2486 020a DBB2     		uxtb	r3, r3
 686:..\..\src/scsi.c **** 		(goodParity || !(scsiDev.boardCfg.flags & CONFIG_ENABLE_PARITY) || !atnFlag) &&
 2487              		.loc 1 686 0 discriminator 3
 2488 020c 002B     		cmp	r3, #0
 2489 020e 00F0B080 		beq	.L141
 2490              	.LBB4:
 688:..\..\src/scsi.c **** 	{
 689:..\..\src/scsi.c **** 		// We've been selected!
 690:..\..\src/scsi.c **** 		// Assert BSY - Selection success!
 691:..\..\src/scsi.c **** 		// must happen within 200us (Selection abort time) of seeing our
 692:..\..\src/scsi.c **** 		// ID + SEL.
 693:..\..\src/scsi.c **** 		// (Note: the initiator will be waiting the "Selection time-out delay"
 694:..\..\src/scsi.c **** 		// for our BSY response, which is actually a very generous 250ms)
 695:..\..\src/scsi.c **** 		SCSI_SetPin(SCSI_Out_BSY);
 2491              		.loc 1 695 0
 2492 0212 2E4A     		ldr	r2, .L157+16
 2493 0214 2D4B     		ldr	r3, .L157+16
 2494 0216 1B78     		ldrb	r3, [r3]
 2495 0218 DBB2     		uxtb	r3, r3
 2496 021a 43F00103 		orr	r3, r3, #1
 2497 021e DBB2     		uxtb	r3, r3
 2498 0220 1370     		strb	r3, [r2]
 696:..\..\src/scsi.c **** 		ledOn();
 2499              		.loc 1 696 0
 2500 0222 FFF7FEFF 		bl	ledOn
 697:..\..\src/scsi.c **** 
 698:..\..\src/scsi.c **** 		scsiDev.target = target;
 2501              		.loc 1 698 0
 2502 0226 254A     		ldr	r2, .L157
 2503 0228 3B6B     		ldr	r3, [r7, #48]
 2504 022a 1366     		str	r3, [r2, #96]
 699:..\..\src/scsi.c **** 
 700:..\..\src/scsi.c **** 		// Do we enter MESSAGE OUT immediately ? SCSI 1 and 2 standards says
 701:..\..\src/scsi.c **** 		// move to MESSAGE OUT if ATN is true before we assert BSY.
ARM GAS  C:\Users\r\AppData\Local\Temp\ccbXJ1Li.s 			page 58


 702:..\..\src/scsi.c **** 		// The initiator should assert ATN with SEL.
 703:..\..\src/scsi.c **** 		scsiDev.atnFlag = atnFlag;
 2505              		.loc 1 703 0
 2506 022c 234A     		ldr	r2, .L157
 2507 022e FB68     		ldr	r3, [r7, #12]
 2508 0230 C2F86431 		str	r3, [r2, #356]
 704:..\..\src/scsi.c **** 
 705:..\..\src/scsi.c **** 
 706:..\..\src/scsi.c **** 		// Unit attention breaks many older SCSI hosts. Disable it completely
 707:..\..\src/scsi.c **** 		// for SCSI-1 (and older) hosts, regardless of our configured setting.
 708:..\..\src/scsi.c **** 		// Enable the compatability mode also as many SASI and SCSI1
 709:..\..\src/scsi.c **** 		// controllers don't generate parity bits.
 710:..\..\src/scsi.c **** 		if (!scsiDev.atnFlag)
 2509              		.loc 1 710 0
 2510 0234 214B     		ldr	r3, .L157
 2511 0236 D3F86431 		ldr	r3, [r3, #356]
 2512 023a 002B     		cmp	r3, #0
 2513 023c 09D1     		bne	.L143
 711:..\..\src/scsi.c **** 		{
 712:..\..\src/scsi.c **** 			target->unitAttention = 0;
 2514              		.loc 1 712 0
 2515 023e 3B6B     		ldr	r3, [r7, #48]
 2516 0240 0022     		movs	r2, #0
 2517 0242 DA81     		strh	r2, [r3, #14]	@ movhi
 713:..\..\src/scsi.c **** 			scsiDev.compatMode = COMPAT_SCSI1;
 2518              		.loc 1 713 0
 2519 0244 1D4B     		ldr	r3, .L157
 2520 0246 03F58343 		add	r3, r3, #16768
 2521 024a 1733     		adds	r3, r3, #23
 2522 024c 0122     		movs	r2, #1
 2523 024e 1A70     		strb	r2, [r3]
 2524 0250 13E0     		b	.L144
 2525              	.L143:
 714:..\..\src/scsi.c **** 		}
 715:..\..\src/scsi.c **** 		else if (!(scsiDev.boardCfg.flags & CONFIG_ENABLE_SCSI2))
 2526              		.loc 1 715 0
 2527 0252 1A4B     		ldr	r3, .L157
 2528 0254 93F86830 		ldrb	r3, [r3, #104]	@ zero_extendqisi2
 2529 0258 03F00403 		and	r3, r3, #4
 2530 025c 002B     		cmp	r3, #0
 2531 025e 06D1     		bne	.L145
 716:..\..\src/scsi.c **** 		{
 717:..\..\src/scsi.c **** 			scsiDev.compatMode = COMPAT_SCSI2_DISABLED;
 2532              		.loc 1 717 0
 2533 0260 164B     		ldr	r3, .L157
 2534 0262 03F58343 		add	r3, r3, #16768
 2535 0266 1733     		adds	r3, r3, #23
 2536 0268 0222     		movs	r2, #2
 2537 026a 1A70     		strb	r2, [r3]
 2538 026c 05E0     		b	.L144
 2539              	.L145:
 718:..\..\src/scsi.c **** 		}
 719:..\..\src/scsi.c **** 		else
 720:..\..\src/scsi.c **** 		{
 721:..\..\src/scsi.c **** 			scsiDev.compatMode = COMPAT_SCSI2;
 2540              		.loc 1 721 0
 2541 026e 134B     		ldr	r3, .L157
ARM GAS  C:\Users\r\AppData\Local\Temp\ccbXJ1Li.s 			page 59


 2542 0270 03F58343 		add	r3, r3, #16768
 2543 0274 1733     		adds	r3, r3, #23
 2544 0276 0322     		movs	r2, #3
 2545 0278 1A70     		strb	r2, [r3]
 2546              	.L144:
 722:..\..\src/scsi.c **** 		}
 723:..\..\src/scsi.c **** 
 724:..\..\src/scsi.c **** 		scsiDev.selCount++;
 2547              		.loc 1 724 0
 2548 027a 104B     		ldr	r3, .L157
 2549 027c 03F58343 		add	r3, r3, #16768
 2550 0280 2533     		adds	r3, r3, #37
 2551 0282 1B78     		ldrb	r3, [r3]	@ zero_extendqisi2
 2552 0284 0133     		adds	r3, r3, #1
 2553 0286 DAB2     		uxtb	r2, r3
 2554 0288 0C4B     		ldr	r3, .L157
 2555 028a 03F58343 		add	r3, r3, #16768
 2556 028e 2533     		adds	r3, r3, #37
 2557 0290 1A70     		strb	r2, [r3]
 2558              	.LBB5:
 725:..\..\src/scsi.c **** 
 726:..\..\src/scsi.c **** 
 727:..\..\src/scsi.c **** 		// Save our initiator now that we're no longer in a time-critical
 728:..\..\src/scsi.c **** 		// section.
 729:..\..\src/scsi.c **** 		// SCSI1/SASI initiators may not set their own ID.
 730:..\..\src/scsi.c **** 		{
 731:..\..\src/scsi.c **** 			int i;
 732:..\..\src/scsi.c **** 			uint8_t initiatorMask = mask ^ (1 << target->targetId);
 2559              		.loc 1 732 0
 2560 0292 3B6B     		ldr	r3, [r7, #48]
 2561 0294 1B78     		ldrb	r3, [r3]	@ zero_extendqisi2
 2562 0296 1A46     		mov	r2, r3
 2563 0298 0123     		movs	r3, #1
 2564 029a 9340     		lsls	r3, r3, r2
 2565 029c 5AB2     		sxtb	r2, r3
 2566 029e 97F91B30 		ldrsb	r3, [r7, #27]
 2567 02a2 5340     		eors	r3, r3, r2
 2568 02a4 5BB2     		sxtb	r3, r3
 2569 02a6 FB72     		strb	r3, [r7, #11]
 733:..\..\src/scsi.c **** 			scsiDev.initiatorId = -1;
 2570              		.loc 1 733 0
 2571 02a8 044B     		ldr	r3, .L157
 2572 02aa 03F58343 		add	r3, r3, #16768
 2573 02ae 1833     		adds	r3, r3, #24
 2574 02b0 4FF0FF32 		mov	r2, #-1
 2575 02b4 1A60     		str	r2, [r3]
 734:..\..\src/scsi.c **** 			for (i = 0; i < 8; ++i)
 2576              		.loc 1 734 0
 2577 02b6 0023     		movs	r3, #0
 2578 02b8 FB62     		str	r3, [r7, #44]
 2579 02ba 1BE0     		b	.L146
 2580              	.L158:
 2581              		.align	2
 2582              	.L157:
 2583 02bc 00000000 		.word	scsiDev
 2584 02c0 04500040 		.word	1073762308
 2585 02c4 00000000 		.word	Lookup_OddParity
ARM GAS  C:\Users\r\AppData\Local\Temp\ccbXJ1Li.s 			page 60


 2586 02c8 11500040 		.word	1073762321
 2587 02cc 31500040 		.word	1073762353
 2588              	.L149:
 735:..\..\src/scsi.c **** 			{
 736:..\..\src/scsi.c **** 				if (initiatorMask & (1 << i))
 2589              		.loc 1 736 0
 2590 02d0 FA7A     		ldrb	r2, [r7, #11]	@ zero_extendqisi2
 2591 02d2 FB6A     		ldr	r3, [r7, #44]
 2592 02d4 42FA03F3 		asr	r3, r2, r3
 2593 02d8 03F00103 		and	r3, r3, #1
 2594 02dc 002B     		cmp	r3, #0
 2595 02de 06D0     		beq	.L147
 737:..\..\src/scsi.c **** 				{
 738:..\..\src/scsi.c **** 					scsiDev.initiatorId = i;
 2596              		.loc 1 738 0
 2597 02e0 2C4B     		ldr	r3, .L159
 2598 02e2 03F58343 		add	r3, r3, #16768
 2599 02e6 1833     		adds	r3, r3, #24
 2600 02e8 FA6A     		ldr	r2, [r7, #44]
 2601 02ea 1A60     		str	r2, [r3]
 739:..\..\src/scsi.c **** 					break;
 2602              		.loc 1 739 0
 2603 02ec 05E0     		b	.L148
 2604              	.L147:
 734:..\..\src/scsi.c **** 			{
 2605              		.loc 1 734 0 discriminator 2
 2606 02ee FB6A     		ldr	r3, [r7, #44]
 2607 02f0 0133     		adds	r3, r3, #1
 2608 02f2 FB62     		str	r3, [r7, #44]
 2609              	.L146:
 734:..\..\src/scsi.c **** 			{
 2610              		.loc 1 734 0 is_stmt 0 discriminator 1
 2611 02f4 FB6A     		ldr	r3, [r7, #44]
 2612 02f6 072B     		cmp	r3, #7
 2613 02f8 EADD     		ble	.L149
 2614              	.L148:
 2615              	.LBE5:
 740:..\..\src/scsi.c **** 				}
 741:..\..\src/scsi.c **** 			}
 742:..\..\src/scsi.c **** 		}
 743:..\..\src/scsi.c **** 
 744:..\..\src/scsi.c **** 		// Wait until the end of the selection phase.
 745:..\..\src/scsi.c **** 		uint32_t selTimerBegin = getTime_ms();
 2616              		.loc 1 745 0 is_stmt 1
 2617 02fa FFF7FEFF 		bl	getTime_ms
 2618 02fe 7860     		str	r0, [r7, #4]
 746:..\..\src/scsi.c **** 		while (likely(!scsiDev.resetFlag))
 2619              		.loc 1 746 0
 2620 0300 26E0     		b	.L150
 2621              	.L154:
 747:..\..\src/scsi.c **** 		{
 748:..\..\src/scsi.c **** 			if (!SCSI_ReadFilt(SCSI_Filt_SEL))
 2622              		.loc 1 748 0
 2623 0302 FFF7FEFF 		bl	SCSI_Filtered_Read
 2624 0306 0346     		mov	r3, r0
 2625 0308 03F00403 		and	r3, r3, #4
 2626 030c 002B     		cmp	r3, #0
ARM GAS  C:\Users\r\AppData\Local\Temp\ccbXJ1Li.s 			page 61


 2627 030e 2AD1     		bne	.L156
 749:..\..\src/scsi.c **** 			{
 750:..\..\src/scsi.c **** 				break;
 751:..\..\src/scsi.c **** 			}
 752:..\..\src/scsi.c ****             else if (elapsedTime_ms(selTimerBegin) >= 10 &&
 2628              		.loc 1 752 0
 2629 0310 7868     		ldr	r0, [r7, #4]
 2630 0312 FFF7FEFF 		bl	elapsedTime_ms
 2631 0316 0346     		mov	r3, r0
 2632 0318 092B     		cmp	r3, #9
 2633 031a 06D9     		bls	.L153
 753:..\..\src/scsi.c ****                     scsiDev.target->cfg->quirks == CONFIG_QUIRKS_XEBEC)
 2634              		.loc 1 753 0 discriminator 1
 2635 031c 1D4B     		ldr	r3, .L159
 2636 031e 1B6E     		ldr	r3, [r3, #96]
 2637 0320 5B68     		ldr	r3, [r3, #4]
 2638 0322 DB8F     		ldrh	r3, [r3, #62]	@ unaligned
 2639 0324 9BB2     		uxth	r3, r3
 752:..\..\src/scsi.c ****                     scsiDev.target->cfg->quirks == CONFIG_QUIRKS_XEBEC)
 2640              		.loc 1 752 0 discriminator 1
 2641 0326 042B     		cmp	r3, #4
 2642 0328 1ED0     		beq	.L152
 2643              	.L153:
 754:..\..\src/scsi.c ****             {
 755:..\..\src/scsi.c ****                     // XEBEC hosts may not bother releasing SEL at all until
 756:..\..\src/scsi.c ****                     // just before the command ends.
 757:..\..\src/scsi.c ****                     break;
 758:..\..\src/scsi.c ****             }
 759:..\..\src/scsi.c **** 			else if (elapsedTime_ms(selTimerBegin) >= 250)
 2644              		.loc 1 759 0
 2645 032a 7868     		ldr	r0, [r7, #4]
 2646 032c FFF7FEFF 		bl	elapsedTime_ms
 2647 0330 0346     		mov	r3, r0
 2648 0332 F92B     		cmp	r3, #249
 2649 0334 0CD9     		bls	.L150
 760:..\..\src/scsi.c **** 			{
 761:..\..\src/scsi.c **** 				SCSI_ClearPin(SCSI_Out_BSY);
 2650              		.loc 1 761 0
 2651 0336 184A     		ldr	r2, .L159+4
 2652 0338 174B     		ldr	r3, .L159+4
 2653 033a 1B78     		ldrb	r3, [r3]
 2654 033c DBB2     		uxtb	r3, r3
 2655 033e 23F00103 		bic	r3, r3, #1
 2656 0342 DBB2     		uxtb	r3, r3
 2657 0344 1370     		strb	r3, [r2]
 762:..\..\src/scsi.c **** 				scsiDev.resetFlag = 1;
 2658              		.loc 1 762 0
 2659 0346 134B     		ldr	r3, .L159
 2660 0348 0122     		movs	r2, #1
 2661 034a C3F86821 		str	r2, [r3, #360]
 763:..\..\src/scsi.c **** 				break;
 2662              		.loc 1 763 0
 2663 034e 0BE0     		b	.L152
 2664              	.L150:
 746:..\..\src/scsi.c **** 		{
 2665              		.loc 1 746 0
 2666 0350 104B     		ldr	r3, .L159
ARM GAS  C:\Users\r\AppData\Local\Temp\ccbXJ1Li.s 			page 62


 2667 0352 D3F86831 		ldr	r3, [r3, #360]
 2668 0356 002B     		cmp	r3, #0
 2669 0358 0CBF     		ite	eq
 2670 035a 0123     		moveq	r3, #1
 2671 035c 0023     		movne	r3, #0
 2672 035e DBB2     		uxtb	r3, r3
 2673 0360 002B     		cmp	r3, #0
 2674 0362 CED1     		bne	.L154
 2675 0364 00E0     		b	.L152
 2676              	.L156:
 750:..\..\src/scsi.c **** 			}
 2677              		.loc 1 750 0
 2678 0366 00BF     		nop
 2679              	.L152:
 764:..\..\src/scsi.c **** 			}
 765:..\..\src/scsi.c **** 		}
 766:..\..\src/scsi.c **** 
 767:..\..\src/scsi.c **** 		scsiDev.phase = COMMAND;
 2680              		.loc 1 767 0
 2681 0368 0A4B     		ldr	r3, .L159
 2682 036a 0222     		movs	r2, #2
 2683 036c C3F87821 		str	r2, [r3, #376]
 2684              	.LBE4:
 688:..\..\src/scsi.c **** 		// We've been selected!
 2685              		.loc 1 688 0
 2686 0370 07E0     		b	.L155
 2687              	.L141:
 768:..\..\src/scsi.c **** 	}
 769:..\..\src/scsi.c **** 	else if (!sel)
 2688              		.loc 1 769 0
 2689 0372 7B6A     		ldr	r3, [r7, #36]
 2690 0374 002B     		cmp	r3, #0
 2691 0376 04D1     		bne	.L155
 770:..\..\src/scsi.c **** 	{
 771:..\..\src/scsi.c **** 		scsiDev.phase = BUS_BUSY;
 2692              		.loc 1 771 0
 2693 0378 064B     		ldr	r3, .L159
 2694 037a 6FF00102 		mvn	r2, #1
 2695 037e C3F87821 		str	r2, [r3, #376]
 2696              	.L155:
 772:..\..\src/scsi.c **** 	}
 773:..\..\src/scsi.c **** 
 774:..\..\src/scsi.c **** 	scsiDev.selFlag = 0;
 2697              		.loc 1 774 0
 2698 0382 044B     		ldr	r3, .L159
 2699 0384 0022     		movs	r2, #0
 2700 0386 C3F86C21 		str	r2, [r3, #364]
 775:..\..\src/scsi.c **** }
 2701              		.loc 1 775 0
 2702 038a 00BF     		nop
 2703 038c 3837     		adds	r7, r7, #56
 2704              		.cfi_def_cfa_offset 8
 2705 038e BD46     		mov	sp, r7
 2706              		.cfi_def_cfa_register 13
 2707              		@ sp needed
 2708 0390 80BD     		pop	{r7, pc}
 2709              	.L160:
ARM GAS  C:\Users\r\AppData\Local\Temp\ccbXJ1Li.s 			page 63


 2710 0392 00BF     		.align	2
 2711              	.L159:
 2712 0394 00000000 		.word	scsiDev
 2713 0398 31500040 		.word	1073762353
 2714              		.cfi_endproc
 2715              	.LFE77:
 2716              		.size	process_SelectionPhase, .-process_SelectionPhase
 2717              		.section	.text.process_MessageOut,"ax",%progbits
 2718              		.align	2
 2719              		.thumb
 2720              		.thumb_func
 2721              		.type	process_MessageOut, %function
 2722              	process_MessageOut:
 2723              	.LFB78:
 776:..\..\src/scsi.c **** 
 777:..\..\src/scsi.c **** static void process_MessageOut()
 778:..\..\src/scsi.c **** {
 2724              		.loc 1 778 0
 2725              		.cfi_startproc
 2726              		@ args = 0, pretend = 0, frame = 264
 2727              		@ frame_needed = 1, uses_anonymous_args = 0
 2728 0000 80B5     		push	{r7, lr}
 2729              		.cfi_def_cfa_offset 8
 2730              		.cfi_offset 7, -8
 2731              		.cfi_offset 14, -4
 2732 0002 C2B0     		sub	sp, sp, #264
 2733              		.cfi_def_cfa_offset 272
 2734 0004 00AF     		add	r7, sp, #0
 2735              		.cfi_def_cfa_register 7
 779:..\..\src/scsi.c **** 	scsiEnterPhase(MESSAGE_OUT);
 2736              		.loc 1 779 0
 2737 0006 0320     		movs	r0, #3
 2738 0008 FFF7FEFF 		bl	scsiEnterPhase
 780:..\..\src/scsi.c **** 
 781:..\..\src/scsi.c **** 	scsiDev.atnFlag = 0;
 2739              		.loc 1 781 0
 2740 000c BF4B     		ldr	r3, .L188
 2741 000e 0022     		movs	r2, #0
 2742 0010 C3F86421 		str	r2, [r3, #356]
 782:..\..\src/scsi.c **** 	scsiDev.parityError = 0;
 2743              		.loc 1 782 0
 2744 0014 BD4B     		ldr	r3, .L188
 2745 0016 0022     		movs	r2, #0
 2746 0018 C3F87021 		str	r2, [r3, #368]
 783:..\..\src/scsi.c **** 	scsiDev.msgOut = scsiReadByte();
 2747              		.loc 1 783 0
 2748 001c FFF7FEFF 		bl	scsiReadByte
 2749 0020 0346     		mov	r3, r0
 2750 0022 1A46     		mov	r2, r3
 2751 0024 B94B     		ldr	r3, .L188
 2752 0026 03F58343 		add	r3, r3, #16768
 2753 002a 1E33     		adds	r3, r3, #30
 2754 002c 1A70     		strb	r2, [r3]
 784:..\..\src/scsi.c **** 	scsiDev.msgCount++;
 2755              		.loc 1 784 0
 2756 002e B74B     		ldr	r3, .L188
 2757 0030 03F58343 		add	r3, r3, #16768
ARM GAS  C:\Users\r\AppData\Local\Temp\ccbXJ1Li.s 			page 64


 2758 0034 2733     		adds	r3, r3, #39
 2759 0036 1B78     		ldrb	r3, [r3]	@ zero_extendqisi2
 2760 0038 0133     		adds	r3, r3, #1
 2761 003a DAB2     		uxtb	r2, r3
 2762 003c B34B     		ldr	r3, .L188
 2763 003e 03F58343 		add	r3, r3, #16768
 2764 0042 2733     		adds	r3, r3, #39
 2765 0044 1A70     		strb	r2, [r3]
 785:..\..\src/scsi.c **** 
 786:..\..\src/scsi.c **** 	if (scsiDev.parityError &&
 2766              		.loc 1 786 0
 2767 0046 B14B     		ldr	r3, .L188
 2768 0048 D3F87031 		ldr	r3, [r3, #368]
 2769 004c 002B     		cmp	r3, #0
 2770 004e 25D0     		beq	.L162
 787:..\..\src/scsi.c **** 		(scsiDev.boardCfg.flags & CONFIG_ENABLE_PARITY) &&
 2771              		.loc 1 787 0 discriminator 1
 2772 0050 AE4B     		ldr	r3, .L188
 2773 0052 93F86830 		ldrb	r3, [r3, #104]	@ zero_extendqisi2
 2774 0056 03F00203 		and	r3, r3, #2
 786:..\..\src/scsi.c **** 		(scsiDev.boardCfg.flags & CONFIG_ENABLE_PARITY) &&
 2775              		.loc 1 786 0 discriminator 1
 2776 005a 002B     		cmp	r3, #0
 2777 005c 1ED0     		beq	.L162
 788:..\..\src/scsi.c **** 		(scsiDev.compatMode >= COMPAT_SCSI2))
 2778              		.loc 1 788 0
 2779 005e AB4B     		ldr	r3, .L188
 2780 0060 03F58343 		add	r3, r3, #16768
 2781 0064 1733     		adds	r3, r3, #23
 2782 0066 1B78     		ldrb	r3, [r3]	@ zero_extendqisi2
 787:..\..\src/scsi.c **** 		(scsiDev.boardCfg.flags & CONFIG_ENABLE_PARITY) &&
 2783              		.loc 1 787 0
 2784 0068 022B     		cmp	r3, #2
 2785 006a 17D9     		bls	.L162
 789:..\..\src/scsi.c **** 	{
 790:..\..\src/scsi.c **** 		// Skip the remaining message bytes, and then start the MESSAGE_OUT
 791:..\..\src/scsi.c **** 		// phase again from the start. The initiator will re-send the
 792:..\..\src/scsi.c **** 		// same set of messages.
 793:..\..\src/scsi.c **** 		while (SCSI_ReadFilt(SCSI_Filt_ATN) && !scsiDev.resetFlag)
 2786              		.loc 1 793 0
 2787 006c 01E0     		b	.L163
 2788              	.L165:
 794:..\..\src/scsi.c **** 		{
 795:..\..\src/scsi.c **** 			scsiReadByte();
 2789              		.loc 1 795 0
 2790 006e FFF7FEFF 		bl	scsiReadByte
 2791              	.L163:
 793:..\..\src/scsi.c **** 		{
 2792              		.loc 1 793 0
 2793 0072 FFF7FEFF 		bl	SCSI_Filtered_Read
 2794 0076 0346     		mov	r3, r0
 2795 0078 03F00103 		and	r3, r3, #1
 2796 007c 002B     		cmp	r3, #0
 2797 007e 04D1     		bne	.L164
 793:..\..\src/scsi.c **** 		{
 2798              		.loc 1 793 0 is_stmt 0 discriminator 1
 2799 0080 A24B     		ldr	r3, .L188
ARM GAS  C:\Users\r\AppData\Local\Temp\ccbXJ1Li.s 			page 65


 2800 0082 D3F86831 		ldr	r3, [r3, #360]
 2801 0086 002B     		cmp	r3, #0
 2802 0088 F1D0     		beq	.L165
 2803              	.L164:
 796:..\..\src/scsi.c **** 		}
 797:..\..\src/scsi.c **** 
 798:..\..\src/scsi.c **** 		// Go-back and try the message again.
 799:..\..\src/scsi.c **** 		scsiDev.atnFlag = 1;
 2804              		.loc 1 799 0 is_stmt 1
 2805 008a A04B     		ldr	r3, .L188
 2806 008c 0122     		movs	r2, #1
 2807 008e C3F86421 		str	r2, [r3, #356]
 800:..\..\src/scsi.c **** 		scsiDev.parityError = 0;
 2808              		.loc 1 800 0
 2809 0092 9E4B     		ldr	r3, .L188
 2810 0094 0022     		movs	r2, #0
 2811 0096 C3F87021 		str	r2, [r3, #368]
 2812 009a 1FE1     		b	.L166
 2813              	.L162:
 801:..\..\src/scsi.c **** 	}
 802:..\..\src/scsi.c **** 	else if (scsiDev.msgOut == 0x00)
 2814              		.loc 1 802 0
 2815 009c 9B4B     		ldr	r3, .L188
 2816 009e 03F58343 		add	r3, r3, #16768
 2817 00a2 1E33     		adds	r3, r3, #30
 2818 00a4 1B78     		ldrb	r3, [r3]	@ zero_extendqisi2
 2819 00a6 002B     		cmp	r3, #0
 2820 00a8 02D1     		bne	.L167
 803:..\..\src/scsi.c **** 	{
 804:..\..\src/scsi.c **** 		// COMMAND COMPLETE. but why would the target be receiving this ? nfi.
 805:..\..\src/scsi.c **** 		enter_BusFree();
 2821              		.loc 1 805 0
 2822 00aa FFF7FEFF 		bl	enter_BusFree
 2823 00ae 15E1     		b	.L166
 2824              	.L167:
 806:..\..\src/scsi.c **** 	}
 807:..\..\src/scsi.c **** 	else if (scsiDev.msgOut == 0x06)
 2825              		.loc 1 807 0
 2826 00b0 964B     		ldr	r3, .L188
 2827 00b2 03F58343 		add	r3, r3, #16768
 2828 00b6 1E33     		adds	r3, r3, #30
 2829 00b8 1B78     		ldrb	r3, [r3]	@ zero_extendqisi2
 2830 00ba 062B     		cmp	r3, #6
 2831 00bc 04D1     		bne	.L168
 808:..\..\src/scsi.c **** 	{
 809:..\..\src/scsi.c **** 		// ABORT
 810:..\..\src/scsi.c **** 		scsiDiskReset();
 2832              		.loc 1 810 0
 2833 00be FFF7FEFF 		bl	scsiDiskReset
 811:..\..\src/scsi.c **** 		enter_BusFree();
 2834              		.loc 1 811 0
 2835 00c2 FFF7FEFF 		bl	enter_BusFree
 2836 00c6 09E1     		b	.L166
 2837              	.L168:
 812:..\..\src/scsi.c **** 	}
 813:..\..\src/scsi.c **** 	else if (scsiDev.msgOut == 0x0C)
 2838              		.loc 1 813 0
ARM GAS  C:\Users\r\AppData\Local\Temp\ccbXJ1Li.s 			page 66


 2839 00c8 904B     		ldr	r3, .L188
 2840 00ca 03F58343 		add	r3, r3, #16768
 2841 00ce 1E33     		adds	r3, r3, #30
 2842 00d0 1B78     		ldrb	r3, [r3]	@ zero_extendqisi2
 2843 00d2 0C2B     		cmp	r3, #12
 2844 00d4 13D1     		bne	.L169
 814:..\..\src/scsi.c **** 	{
 815:..\..\src/scsi.c **** 		// BUS DEVICE RESET
 816:..\..\src/scsi.c **** 
 817:..\..\src/scsi.c **** 		scsiDiskReset();
 2845              		.loc 1 817 0
 2846 00d6 FFF7FEFF 		bl	scsiDiskReset
 818:..\..\src/scsi.c **** 
 819:..\..\src/scsi.c **** 		scsiDev.target->unitAttention = SCSI_BUS_RESET;
 2847              		.loc 1 819 0
 2848 00da 8C4B     		ldr	r3, .L188
 2849 00dc 1B6E     		ldr	r3, [r3, #96]
 2850 00de 42F60212 		movw	r2, #10498
 2851 00e2 DA81     		strh	r2, [r3, #14]	@ movhi
 820:..\..\src/scsi.c **** 
 821:..\..\src/scsi.c **** 		// ANY initiator can reset the reservation state via this message.
 822:..\..\src/scsi.c **** 		scsiDev.target->reservedId = -1;
 2852              		.loc 1 822 0
 2853 00e4 894B     		ldr	r3, .L188
 2854 00e6 1B6E     		ldr	r3, [r3, #96]
 2855 00e8 4FF0FF32 		mov	r2, #-1
 2856 00ec 1A61     		str	r2, [r3, #16]
 823:..\..\src/scsi.c **** 		scsiDev.target->reserverId = -1;
 2857              		.loc 1 823 0
 2858 00ee 874B     		ldr	r3, .L188
 2859 00f0 1B6E     		ldr	r3, [r3, #96]
 2860 00f2 4FF0FF32 		mov	r2, #-1
 2861 00f6 5A61     		str	r2, [r3, #20]
 824:..\..\src/scsi.c **** 		enter_BusFree();
 2862              		.loc 1 824 0
 2863 00f8 FFF7FEFF 		bl	enter_BusFree
 2864 00fc EEE0     		b	.L166
 2865              	.L169:
 825:..\..\src/scsi.c **** 	}
 826:..\..\src/scsi.c **** 	else if (scsiDev.msgOut == 0x05)
 2866              		.loc 1 826 0
 2867 00fe 834B     		ldr	r3, .L188
 2868 0100 03F58343 		add	r3, r3, #16768
 2869 0104 1E33     		adds	r3, r3, #30
 2870 0106 1B78     		ldrb	r3, [r3]	@ zero_extendqisi2
 2871 0108 052B     		cmp	r3, #5
 2872 010a 00F0E780 		beq	.L166
 827:..\..\src/scsi.c **** 	{
 828:..\..\src/scsi.c **** 		// Initiate Detected Error
 829:..\..\src/scsi.c **** 		// Ignore for now
 830:..\..\src/scsi.c **** 	}
 831:..\..\src/scsi.c **** 	else if (scsiDev.msgOut == 0x0F)
 2873              		.loc 1 831 0
 2874 010e 7F4B     		ldr	r3, .L188
 2875 0110 03F58343 		add	r3, r3, #16768
 2876 0114 1E33     		adds	r3, r3, #30
 2877 0116 1B78     		ldrb	r3, [r3]	@ zero_extendqisi2
ARM GAS  C:\Users\r\AppData\Local\Temp\ccbXJ1Li.s 			page 67


 2878 0118 0F2B     		cmp	r3, #15
 2879 011a 00F0DF80 		beq	.L166
 832:..\..\src/scsi.c **** 	{
 833:..\..\src/scsi.c **** 		// INITIATE RECOVERY
 834:..\..\src/scsi.c **** 		// Ignore for now
 835:..\..\src/scsi.c **** 	}
 836:..\..\src/scsi.c **** 	else if (scsiDev.msgOut == 0x10)
 2880              		.loc 1 836 0
 2881 011e 7B4B     		ldr	r3, .L188
 2882 0120 03F58343 		add	r3, r3, #16768
 2883 0124 1E33     		adds	r3, r3, #30
 2884 0126 1B78     		ldrb	r3, [r3]	@ zero_extendqisi2
 2885 0128 102B     		cmp	r3, #16
 2886 012a 02D1     		bne	.L170
 837:..\..\src/scsi.c **** 	{
 838:..\..\src/scsi.c **** 		// RELEASE RECOVERY
 839:..\..\src/scsi.c **** 		// Ignore for now
 840:..\..\src/scsi.c **** 		enter_BusFree();
 2887              		.loc 1 840 0
 2888 012c FFF7FEFF 		bl	enter_BusFree
 2889 0130 D4E0     		b	.L166
 2890              	.L170:
 841:..\..\src/scsi.c **** 	}
 842:..\..\src/scsi.c **** 	else if (scsiDev.msgOut == MSG_REJECT)
 2891              		.loc 1 842 0
 2892 0132 764B     		ldr	r3, .L188
 2893 0134 03F58343 		add	r3, r3, #16768
 2894 0138 1E33     		adds	r3, r3, #30
 2895 013a 1B78     		ldrb	r3, [r3]	@ zero_extendqisi2
 2896 013c 072B     		cmp	r3, #7
 2897 013e 04D1     		bne	.L171
 843:..\..\src/scsi.c **** 	{
 844:..\..\src/scsi.c **** 		// Message Reject
 845:..\..\src/scsi.c **** 		// Oh well.
 846:..\..\src/scsi.c **** 		scsiDev.resetFlag = 1;
 2898              		.loc 1 846 0
 2899 0140 724B     		ldr	r3, .L188
 2900 0142 0122     		movs	r2, #1
 2901 0144 C3F86821 		str	r2, [r3, #360]
 2902 0148 C8E0     		b	.L166
 2903              	.L171:
 847:..\..\src/scsi.c **** 	}
 848:..\..\src/scsi.c **** 	else if (scsiDev.msgOut == 0x08)
 2904              		.loc 1 848 0
 2905 014a 704B     		ldr	r3, .L188
 2906 014c 03F58343 		add	r3, r3, #16768
 2907 0150 1E33     		adds	r3, r3, #30
 2908 0152 1B78     		ldrb	r3, [r3]	@ zero_extendqisi2
 2909 0154 082B     		cmp	r3, #8
 2910 0156 00F0C180 		beq	.L166
 849:..\..\src/scsi.c **** 	{
 850:..\..\src/scsi.c **** 		// NOP
 851:..\..\src/scsi.c **** 	}
 852:..\..\src/scsi.c **** 	else if (scsiDev.msgOut == 0x09)
 2911              		.loc 1 852 0
 2912 015a 6C4B     		ldr	r3, .L188
 2913 015c 03F58343 		add	r3, r3, #16768
ARM GAS  C:\Users\r\AppData\Local\Temp\ccbXJ1Li.s 			page 68


 2914 0160 1E33     		adds	r3, r3, #30
 2915 0162 1B78     		ldrb	r3, [r3]	@ zero_extendqisi2
 2916 0164 092B     		cmp	r3, #9
 2917 0166 04D1     		bne	.L172
 853:..\..\src/scsi.c **** 	{
 854:..\..\src/scsi.c **** 		// Message Parity Error
 855:..\..\src/scsi.c **** 		// Go back and re-send the last message.
 856:..\..\src/scsi.c **** 		scsiDev.phase = MESSAGE_IN;
 2918              		.loc 1 856 0
 2919 0168 684B     		ldr	r3, .L188
 2920 016a 0722     		movs	r2, #7
 2921 016c C3F87821 		str	r2, [r3, #376]
 2922 0170 B4E0     		b	.L166
 2923              	.L172:
 857:..\..\src/scsi.c **** 	}
 858:..\..\src/scsi.c **** 	else if (scsiDev.msgOut & 0x80) // 0x80 -> 0xFF
 2924              		.loc 1 858 0
 2925 0172 664B     		ldr	r3, .L188
 2926 0174 03F58343 		add	r3, r3, #16768
 2927 0178 1E33     		adds	r3, r3, #30
 2928 017a 1B78     		ldrb	r3, [r3]	@ zero_extendqisi2
 2929 017c 5BB2     		sxtb	r3, r3
 2930 017e 002B     		cmp	r3, #0
 2931 0180 3BDA     		bge	.L173
 859:..\..\src/scsi.c **** 	{
 860:..\..\src/scsi.c **** 		// IDENTIFY
 861:..\..\src/scsi.c **** 		if ((scsiDev.msgOut & 0x18) || // Reserved bits set.
 2932              		.loc 1 861 0
 2933 0182 624B     		ldr	r3, .L188
 2934 0184 03F58343 		add	r3, r3, #16768
 2935 0188 1E33     		adds	r3, r3, #30
 2936 018a 1B78     		ldrb	r3, [r3]	@ zero_extendqisi2
 2937 018c 03F01803 		and	r3, r3, #24
 2938 0190 002B     		cmp	r3, #0
 2939 0192 08D1     		bne	.L174
 862:..\..\src/scsi.c **** 			(scsiDev.msgOut & 0x20))  // We don't have any target routines!
 2940              		.loc 1 862 0 discriminator 1
 2941 0194 5D4B     		ldr	r3, .L188
 2942 0196 03F58343 		add	r3, r3, #16768
 2943 019a 1E33     		adds	r3, r3, #30
 2944 019c 1B78     		ldrb	r3, [r3]	@ zero_extendqisi2
 2945 019e 03F02003 		and	r3, r3, #32
 861:..\..\src/scsi.c **** 			(scsiDev.msgOut & 0x20))  // We don't have any target routines!
 2946              		.loc 1 861 0 discriminator 1
 2947 01a2 002B     		cmp	r3, #0
 2948 01a4 01D0     		beq	.L175
 2949              	.L174:
 863:..\..\src/scsi.c **** 		{
 864:..\..\src/scsi.c **** 			messageReject();
 2950              		.loc 1 864 0
 2951 01a6 FFF7FEFF 		bl	messageReject
 2952              	.L175:
 865:..\..\src/scsi.c **** 		}
 866:..\..\src/scsi.c **** 
 867:..\..\src/scsi.c **** 		scsiDev.lun = scsiDev.msgOut & 0x7;
 2953              		.loc 1 867 0
 2954 01aa 584B     		ldr	r3, .L188
ARM GAS  C:\Users\r\AppData\Local\Temp\ccbXJ1Li.s 			page 69


 2955 01ac 03F58343 		add	r3, r3, #16768
 2956 01b0 1E33     		adds	r3, r3, #30
 2957 01b2 1B78     		ldrb	r3, [r3]	@ zero_extendqisi2
 2958 01b4 5BB2     		sxtb	r3, r3
 2959 01b6 03F00703 		and	r3, r3, #7
 2960 01ba 5AB2     		sxtb	r2, r3
 2961 01bc 534B     		ldr	r3, .L188
 2962 01be 03F58343 		add	r3, r3, #16768
 2963 01c2 1533     		adds	r3, r3, #21
 2964 01c4 1A70     		strb	r2, [r3]
 868:..\..\src/scsi.c **** 		scsiDev.discPriv = 
 869:..\..\src/scsi.c **** 			((scsiDev.msgOut & 0x40) && (scsiDev.initiatorId >= 0))
 2965              		.loc 1 869 0
 2966 01c6 514B     		ldr	r3, .L188
 2967 01c8 03F58343 		add	r3, r3, #16768
 2968 01cc 1E33     		adds	r3, r3, #30
 2969 01ce 1B78     		ldrb	r3, [r3]	@ zero_extendqisi2
 2970 01d0 03F04003 		and	r3, r3, #64
 870:..\..\src/scsi.c **** 				? 1 : 0;
 2971              		.loc 1 870 0
 2972 01d4 002B     		cmp	r3, #0
 2973 01d6 08D0     		beq	.L176
 869:..\..\src/scsi.c **** 				? 1 : 0;
 2974              		.loc 1 869 0 discriminator 1
 2975 01d8 4C4B     		ldr	r3, .L188
 2976 01da 03F58343 		add	r3, r3, #16768
 2977 01de 1833     		adds	r3, r3, #24
 2978 01e0 1B68     		ldr	r3, [r3]
 2979              		.loc 1 870 0 discriminator 1
 2980 01e2 002B     		cmp	r3, #0
 2981 01e4 01DB     		blt	.L176
 2982              		.loc 1 870 0 is_stmt 0 discriminator 3
 2983 01e6 0123     		movs	r3, #1
 2984 01e8 00E0     		b	.L177
 2985              	.L176:
 2986              		.loc 1 870 0 discriminator 4
 2987 01ea 0023     		movs	r3, #0
 2988              	.L177:
 868:..\..\src/scsi.c **** 		scsiDev.discPriv = 
 2989              		.loc 1 868 0 is_stmt 1
 2990 01ec DAB2     		uxtb	r2, r3
 2991 01ee 474B     		ldr	r3, .L188
 2992 01f0 03F58343 		add	r3, r3, #16768
 2993 01f4 1633     		adds	r3, r3, #22
 2994 01f6 1A70     		strb	r2, [r3]
 2995 01f8 70E0     		b	.L166
 2996              	.L173:
 871:..\..\src/scsi.c **** 	}
 872:..\..\src/scsi.c **** 	else if (scsiDev.msgOut >= 0x20 && scsiDev.msgOut <= 0x2F)
 2997              		.loc 1 872 0
 2998 01fa 444B     		ldr	r3, .L188
 2999 01fc 03F58343 		add	r3, r3, #16768
 3000 0200 1E33     		adds	r3, r3, #30
 3001 0202 1B78     		ldrb	r3, [r3]	@ zero_extendqisi2
 3002 0204 1F2B     		cmp	r3, #31
 3003 0206 12D9     		bls	.L178
 3004              		.loc 1 872 0 is_stmt 0 discriminator 1
ARM GAS  C:\Users\r\AppData\Local\Temp\ccbXJ1Li.s 			page 70


 3005 0208 404B     		ldr	r3, .L188
 3006 020a 03F58343 		add	r3, r3, #16768
 3007 020e 1E33     		adds	r3, r3, #30
 3008 0210 1B78     		ldrb	r3, [r3]	@ zero_extendqisi2
 3009 0212 2F2B     		cmp	r3, #47
 3010 0214 0BD8     		bhi	.L178
 873:..\..\src/scsi.c **** 	{
 874:..\..\src/scsi.c **** 		// Two byte message. We don't support these. read and discard.
 875:..\..\src/scsi.c **** 		scsiReadByte();
 3011              		.loc 1 875 0 is_stmt 1
 3012 0216 FFF7FEFF 		bl	scsiReadByte
 876:..\..\src/scsi.c **** 
 877:..\..\src/scsi.c **** 		if (scsiDev.msgOut == 0x23) {
 3013              		.loc 1 877 0
 3014 021a 3C4B     		ldr	r3, .L188
 3015 021c 03F58343 		add	r3, r3, #16768
 3016 0220 1E33     		adds	r3, r3, #30
 3017 0222 1B78     		ldrb	r3, [r3]	@ zero_extendqisi2
 3018 0224 232B     		cmp	r3, #35
 3019 0226 59D0     		beq	.L166
 878:..\..\src/scsi.c **** 			// Ignore Wide Residue. We're only 8 bit anyway.
 879:..\..\src/scsi.c **** 		} else {
 880:..\..\src/scsi.c **** 			messageReject();
 3020              		.loc 1 880 0
 3021 0228 FFF7FEFF 		bl	messageReject
 877:..\..\src/scsi.c **** 			// Ignore Wide Residue. We're only 8 bit anyway.
 3022              		.loc 1 877 0
 3023 022c 56E0     		b	.L166
 3024              	.L178:
 881:..\..\src/scsi.c **** 		}
 882:..\..\src/scsi.c **** 	}
 883:..\..\src/scsi.c **** 	else if (scsiDev.msgOut == 0x01)
 3025              		.loc 1 883 0
 3026 022e 374B     		ldr	r3, .L188
 3027 0230 03F58343 		add	r3, r3, #16768
 3028 0234 1E33     		adds	r3, r3, #30
 3029 0236 1B78     		ldrb	r3, [r3]	@ zero_extendqisi2
 3030 0238 012B     		cmp	r3, #1
 3031 023a 4DD1     		bne	.L180
 3032              	.LBB6:
 884:..\..\src/scsi.c **** 	{
 885:..\..\src/scsi.c **** 		int i;
 886:..\..\src/scsi.c **** 
 887:..\..\src/scsi.c **** 		// Extended message.
 888:..\..\src/scsi.c **** 		int msgLen = scsiReadByte();
 3033              		.loc 1 888 0
 3034 023c FFF7FEFF 		bl	scsiReadByte
 3035 0240 0346     		mov	r3, r0
 3036 0242 C7F80031 		str	r3, [r7, #256]
 889:..\..\src/scsi.c **** 		if (msgLen == 0) msgLen = 256;
 3037              		.loc 1 889 0
 3038 0246 D7F80031 		ldr	r3, [r7, #256]
 3039 024a 002B     		cmp	r3, #0
 3040 024c 03D1     		bne	.L181
 3041              		.loc 1 889 0 is_stmt 0 discriminator 1
 3042 024e 4FF48073 		mov	r3, #256
 3043 0252 C7F80031 		str	r3, [r7, #256]
ARM GAS  C:\Users\r\AppData\Local\Temp\ccbXJ1Li.s 			page 71


 3044              	.L181:
 890:..\..\src/scsi.c **** 		uint8_t extmsg[256];
 891:..\..\src/scsi.c **** 		for (i = 0; i < msgLen && !scsiDev.resetFlag; ++i)
 3045              		.loc 1 891 0 is_stmt 1
 3046 0256 0023     		movs	r3, #0
 3047 0258 C7F80431 		str	r3, [r7, #260]
 3048 025c 0EE0     		b	.L182
 3049              	.L184:
 892:..\..\src/scsi.c **** 		{
 893:..\..\src/scsi.c **** 			// Discard bytes.
 894:..\..\src/scsi.c **** 			extmsg[i] = scsiReadByte();
 3050              		.loc 1 894 0 discriminator 4
 3051 025e FFF7FEFF 		bl	scsiReadByte
 3052 0262 0346     		mov	r3, r0
 3053 0264 1946     		mov	r1, r3
 3054 0266 3A46     		mov	r2, r7
 3055 0268 D7F80431 		ldr	r3, [r7, #260]
 3056 026c 1344     		add	r3, r3, r2
 3057 026e 0A46     		mov	r2, r1
 3058 0270 1A70     		strb	r2, [r3]
 891:..\..\src/scsi.c **** 		{
 3059              		.loc 1 891 0 discriminator 4
 3060 0272 D7F80431 		ldr	r3, [r7, #260]
 3061 0276 0133     		adds	r3, r3, #1
 3062 0278 C7F80431 		str	r3, [r7, #260]
 3063              	.L182:
 891:..\..\src/scsi.c **** 		{
 3064              		.loc 1 891 0 is_stmt 0 discriminator 1
 3065 027c D7F80421 		ldr	r2, [r7, #260]
 3066 0280 D7F80031 		ldr	r3, [r7, #256]
 3067 0284 9A42     		cmp	r2, r3
 3068 0286 04DA     		bge	.L183
 891:..\..\src/scsi.c **** 		{
 3069              		.loc 1 891 0 discriminator 3
 3070 0288 204B     		ldr	r3, .L188
 3071 028a D3F86831 		ldr	r3, [r3, #360]
 3072 028e 002B     		cmp	r3, #0
 3073 0290 E5D0     		beq	.L184
 3074              	.L183:
 895:..\..\src/scsi.c **** 		}
 896:..\..\src/scsi.c **** 
 897:..\..\src/scsi.c **** 		if (extmsg[0] == 3 && msgLen == 2) // Wide Data Request
 3075              		.loc 1 897 0 is_stmt 1
 3076 0292 3B46     		mov	r3, r7
 3077 0294 1B78     		ldrb	r3, [r3]	@ zero_extendqisi2
 3078 0296 032B     		cmp	r3, #3
 3079 0298 0BD1     		bne	.L185
 3080              		.loc 1 897 0 is_stmt 0 discriminator 1
 3081 029a D7F80031 		ldr	r3, [r7, #256]
 3082 029e 022B     		cmp	r3, #2
 3083 02a0 07D1     		bne	.L185
 3084              	.LBB7:
 898:..\..\src/scsi.c **** 		{
 899:..\..\src/scsi.c **** 			// Negotiate down to 8bit
 900:..\..\src/scsi.c **** 			scsiEnterPhase(MESSAGE_IN);
 3085              		.loc 1 900 0 is_stmt 1
 3086 02a2 0720     		movs	r0, #7
ARM GAS  C:\Users\r\AppData\Local\Temp\ccbXJ1Li.s 			page 72


 3087 02a4 FFF7FEFF 		bl	scsiEnterPhase
 901:..\..\src/scsi.c **** 			static const uint8_t WDTR[] = {0x01, 0x02, 0x03, 0x00};
 902:..\..\src/scsi.c **** 			scsiWrite(WDTR, sizeof(WDTR));
 3088              		.loc 1 902 0
 3089 02a8 0421     		movs	r1, #4
 3090 02aa 1948     		ldr	r0, .L188+4
 3091 02ac FFF7FEFF 		bl	scsiWrite
 3092              	.LBE7:
 898:..\..\src/scsi.c **** 		{
 3093              		.loc 1 898 0
 3094 02b0 14E0     		b	.L166
 3095              	.L185:
 903:..\..\src/scsi.c **** 		}
 904:..\..\src/scsi.c **** 		else if (extmsg[0] == 1 && msgLen == 3) // Synchronous data request
 3096              		.loc 1 904 0
 3097 02b2 3B46     		mov	r3, r7
 3098 02b4 1B78     		ldrb	r3, [r3]	@ zero_extendqisi2
 3099 02b6 012B     		cmp	r3, #1
 3100 02b8 0BD1     		bne	.L187
 3101              		.loc 1 904 0 is_stmt 0 discriminator 1
 3102 02ba D7F80031 		ldr	r3, [r7, #256]
 3103 02be 032B     		cmp	r3, #3
 3104 02c0 07D1     		bne	.L187
 3105              	.LBB8:
 905:..\..\src/scsi.c **** 		{
 906:..\..\src/scsi.c **** 			// Negotiate back to async
 907:..\..\src/scsi.c **** 			scsiEnterPhase(MESSAGE_IN);
 3106              		.loc 1 907 0 is_stmt 1
 3107 02c2 0720     		movs	r0, #7
 3108 02c4 FFF7FEFF 		bl	scsiEnterPhase
 908:..\..\src/scsi.c **** 			static const uint8_t SDTR[] = {0x01, 0x03, 0x01, 0x00, 0x00};
 909:..\..\src/scsi.c **** 			scsiWrite(SDTR, sizeof(SDTR));
 3109              		.loc 1 909 0
 3110 02c8 0521     		movs	r1, #5
 3111 02ca 1248     		ldr	r0, .L188+8
 3112 02cc FFF7FEFF 		bl	scsiWrite
 3113              	.LBE8:
 905:..\..\src/scsi.c **** 		{
 3114              		.loc 1 905 0
 3115 02d0 04E0     		b	.L166
 3116              	.L187:
 910:..\..\src/scsi.c **** 		}
 911:..\..\src/scsi.c **** 		else
 912:..\..\src/scsi.c **** 		{
 913:..\..\src/scsi.c **** 			// Not supported
 914:..\..\src/scsi.c **** 			messageReject();
 3117              		.loc 1 914 0
 3118 02d2 FFF7FEFF 		bl	messageReject
 3119 02d6 01E0     		b	.L166
 3120              	.L180:
 3121              	.LBE6:
 915:..\..\src/scsi.c **** 		}
 916:..\..\src/scsi.c **** 	}
 917:..\..\src/scsi.c **** 	else
 918:..\..\src/scsi.c **** 	{
 919:..\..\src/scsi.c **** 		messageReject();
 3122              		.loc 1 919 0
ARM GAS  C:\Users\r\AppData\Local\Temp\ccbXJ1Li.s 			page 73


 3123 02d8 FFF7FEFF 		bl	messageReject
 3124              	.L166:
 920:..\..\src/scsi.c **** 	}
 921:..\..\src/scsi.c **** 
 922:..\..\src/scsi.c **** 	// Re-check the ATN flag in case it stays asserted.
 923:..\..\src/scsi.c **** 	scsiDev.atnFlag |= SCSI_ReadFilt(SCSI_Filt_ATN);
 3125              		.loc 1 923 0
 3126 02dc FFF7FEFF 		bl	SCSI_Filtered_Read
 3127 02e0 0346     		mov	r3, r0
 3128 02e2 03F00103 		and	r3, r3, #1
 3129 02e6 002B     		cmp	r3, #0
 3130 02e8 0CBF     		ite	eq
 3131 02ea 0123     		moveq	r3, #1
 3132 02ec 0023     		movne	r3, #0
 3133 02ee DBB2     		uxtb	r3, r3
 3134 02f0 1A46     		mov	r2, r3
 3135 02f2 064B     		ldr	r3, .L188
 3136 02f4 D3F86431 		ldr	r3, [r3, #356]
 3137 02f8 1343     		orrs	r3, r3, r2
 3138 02fa 044A     		ldr	r2, .L188
 3139 02fc C2F86431 		str	r3, [r2, #356]
 924:..\..\src/scsi.c **** }
 3140              		.loc 1 924 0
 3141 0300 00BF     		nop
 3142 0302 07F58477 		add	r7, r7, #264
 3143              		.cfi_def_cfa_offset 8
 3144 0306 BD46     		mov	sp, r7
 3145              		.cfi_def_cfa_register 13
 3146              		@ sp needed
 3147 0308 80BD     		pop	{r7, pc}
 3148              	.L189:
 3149 030a 00BF     		.align	2
 3150              	.L188:
 3151 030c 00000000 		.word	scsiDev
 3152 0310 08000000 		.word	WDTR.7238
 3153 0314 0C000000 		.word	SDTR.7239
 3154              		.cfi_endproc
 3155              	.LFE78:
 3156              		.size	process_MessageOut, .-process_MessageOut
 3157              		.section	.text.scsiPoll,"ax",%progbits
 3158              		.align	2
 3159              		.global	scsiPoll
 3160              		.thumb
 3161              		.thumb_func
 3162              		.type	scsiPoll, %function
 3163              	scsiPoll:
 3164              	.LFB79:
 925:..\..\src/scsi.c **** 
 926:..\..\src/scsi.c **** void scsiPoll(void)
 927:..\..\src/scsi.c **** {
 3165              		.loc 1 927 0
 3166              		.cfi_startproc
 3167              		@ args = 0, pretend = 0, frame = 0
 3168              		@ frame_needed = 1, uses_anonymous_args = 0
 3169 0000 80B5     		push	{r7, lr}
 3170              		.cfi_def_cfa_offset 8
 3171              		.cfi_offset 7, -8
ARM GAS  C:\Users\r\AppData\Local\Temp\ccbXJ1Li.s 			page 74


 3172              		.cfi_offset 14, -4
 3173 0002 00AF     		add	r7, sp, #0
 3174              		.cfi_def_cfa_register 7
 928:..\..\src/scsi.c **** 	if (unlikely(scsiDev.resetFlag))
 3175              		.loc 1 928 0
 3176 0004 834B     		ldr	r3, .L224
 3177 0006 D3F86831 		ldr	r3, [r3, #360]
 3178 000a 002B     		cmp	r3, #0
 3179 000c 14BF     		ite	ne
 3180 000e 0123     		movne	r3, #1
 3181 0010 0023     		moveq	r3, #0
 3182 0012 DBB2     		uxtb	r3, r3
 3183 0014 002B     		cmp	r3, #0
 3184 0016 11D0     		beq	.L191
 929:..\..\src/scsi.c **** 	{
 930:..\..\src/scsi.c **** 		scsiReset();
 3185              		.loc 1 930 0
 3186 0018 FFF7FEFF 		bl	scsiReset
 931:..\..\src/scsi.c **** 		if ((scsiDev.resetFlag = SCSI_ReadFilt(SCSI_Filt_RST)))
 3187              		.loc 1 931 0
 3188 001c FFF7FEFF 		bl	SCSI_Filtered_Read
 3189 0020 0346     		mov	r3, r0
 3190 0022 03F00803 		and	r3, r3, #8
 3191 0026 002B     		cmp	r3, #0
 3192 0028 0CBF     		ite	eq
 3193 002a 0123     		moveq	r3, #1
 3194 002c 0023     		movne	r3, #0
 3195 002e DBB2     		uxtb	r3, r3
 3196 0030 784A     		ldr	r2, .L224
 3197 0032 C2F86831 		str	r3, [r2, #360]
 3198 0036 002B     		cmp	r3, #0
 3199 0038 40F0E580 		bne	.L221
 3200              	.L191:
 932:..\..\src/scsi.c **** 		{
 933:..\..\src/scsi.c **** 			// Still in reset phase. Do not try and process any commands.
 934:..\..\src/scsi.c **** 			return;
 935:..\..\src/scsi.c **** 		}
 936:..\..\src/scsi.c **** 	}
 937:..\..\src/scsi.c **** 
 938:..\..\src/scsi.c **** 	switch (scsiDev.phase)
 3201              		.loc 1 938 0
 3202 003c 754B     		ldr	r3, .L224
 3203 003e D3F87831 		ldr	r3, [r3, #376]
 3204 0042 0533     		adds	r3, r3, #5
 3205 0044 0C2B     		cmp	r3, #12
 3206 0046 00F2E380 		bhi	.L190
 3207 004a 01A2     		adr	r2, .L194
 3208 004c 52F823F0 		ldr	pc, [r2, r3, lsl #2]
 3209              		.p2align 2
 3210              	.L194:
 3211 0050 11020000 		.word	.L190+1
 3212 0054 F9000000 		.word	.L195+1
 3213 0058 11020000 		.word	.L190+1
 3214 005c BF000000 		.word	.L197+1
 3215 0060 85000000 		.word	.L198+1
 3216 0064 4F010000 		.word	.L199+1
 3217 0068 11020000 		.word	.L190+1
ARM GAS  C:\Users\r\AppData\Local\Temp\ccbXJ1Li.s 			page 75


 3218 006c FF000000 		.word	.L200+1
 3219 0070 FF010000 		.word	.L201+1
 3220 0074 15010000 		.word	.L202+1
 3221 0078 11020000 		.word	.L190+1
 3222 007c 89010000 		.word	.L203+1
 3223 0080 C3010000 		.word	.L204+1
 3224              		.p2align 1
 3225              	.L198:
 939:..\..\src/scsi.c **** 	{
 940:..\..\src/scsi.c **** 	case BUS_FREE:
 941:..\..\src/scsi.c **** 		if (SCSI_ReadFilt(SCSI_Filt_BSY))
 3226              		.loc 1 941 0
 3227 0084 FFF7FEFF 		bl	SCSI_Filtered_Read
 3228 0088 0346     		mov	r3, r0
 3229 008a 03F00203 		and	r3, r3, #2
 3230 008e 002B     		cmp	r3, #0
 3231 0090 05D1     		bne	.L205
 942:..\..\src/scsi.c **** 		{
 943:..\..\src/scsi.c **** 			scsiDev.phase = BUS_BUSY;
 3232              		.loc 1 943 0
 3233 0092 604B     		ldr	r3, .L224
 3234 0094 6FF00102 		mvn	r2, #1
 3235 0098 C3F87821 		str	r2, [r3, #376]
 944:..\..\src/scsi.c **** 		}
 945:..\..\src/scsi.c **** 		// The Arbitration phase is optional for SCSI1/SASI hosts if there is only
 946:..\..\src/scsi.c **** 		// one initiator in the chain. Support this by moving
 947:..\..\src/scsi.c **** 		// straight to selection if SEL is asserted.
 948:..\..\src/scsi.c **** 		// ie. the initiator won't assert BSY and it's own ID before moving to selection.
 949:..\..\src/scsi.c **** 		else if (SCSI_ReadFilt(SCSI_Filt_SEL) || scsiDev.selFlag)
 950:..\..\src/scsi.c **** 		{
 951:..\..\src/scsi.c **** 			enter_SelectionPhase();
 952:..\..\src/scsi.c **** 		}
 953:..\..\src/scsi.c **** 	break;
 3236              		.loc 1 953 0
 3237 009c B5E0     		b	.L222
 3238              	.L205:
 949:..\..\src/scsi.c **** 		{
 3239              		.loc 1 949 0
 3240 009e FFF7FEFF 		bl	SCSI_Filtered_Read
 3241 00a2 0346     		mov	r3, r0
 3242 00a4 03F00403 		and	r3, r3, #4
 3243 00a8 002B     		cmp	r3, #0
 3244 00aa 05D0     		beq	.L207
 949:..\..\src/scsi.c **** 		{
 3245              		.loc 1 949 0 is_stmt 0 discriminator 1
 3246 00ac 594B     		ldr	r3, .L224
 3247 00ae D3F86C31 		ldr	r3, [r3, #364]
 3248 00b2 002B     		cmp	r3, #0
 3249 00b4 00F0A980 		beq	.L222
 3250              	.L207:
 951:..\..\src/scsi.c **** 		}
 3251              		.loc 1 951 0 is_stmt 1
 3252 00b8 FFF7FEFF 		bl	enter_SelectionPhase
 3253              		.loc 1 953 0
 3254 00bc A5E0     		b	.L222
 3255              	.L197:
 954:..\..\src/scsi.c **** 
ARM GAS  C:\Users\r\AppData\Local\Temp\ccbXJ1Li.s 			page 76


 955:..\..\src/scsi.c **** 	case BUS_BUSY:
 956:..\..\src/scsi.c **** 		// Someone is using the bus. Perhaps they are trying to
 957:..\..\src/scsi.c **** 		// select us.
 958:..\..\src/scsi.c **** 		if (SCSI_ReadFilt(SCSI_Filt_SEL) || scsiDev.selFlag)
 3256              		.loc 1 958 0
 3257 00be FFF7FEFF 		bl	SCSI_Filtered_Read
 3258 00c2 0346     		mov	r3, r0
 3259 00c4 03F00403 		and	r3, r3, #4
 3260 00c8 002B     		cmp	r3, #0
 3261 00ca 04D0     		beq	.L208
 3262              		.loc 1 958 0 is_stmt 0 discriminator 1
 3263 00cc 514B     		ldr	r3, .L224
 3264 00ce D3F86C31 		ldr	r3, [r3, #364]
 3265 00d2 002B     		cmp	r3, #0
 3266 00d4 02D0     		beq	.L209
 3267              	.L208:
 959:..\..\src/scsi.c **** 		{
 960:..\..\src/scsi.c **** 			enter_SelectionPhase();
 3268              		.loc 1 960 0 is_stmt 1
 3269 00d6 FFF7FEFF 		bl	enter_SelectionPhase
 961:..\..\src/scsi.c **** 		}
 962:..\..\src/scsi.c **** 		else if (!SCSI_ReadFilt(SCSI_Filt_BSY))
 963:..\..\src/scsi.c **** 		{
 964:..\..\src/scsi.c **** 			scsiDev.phase = BUS_FREE;
 965:..\..\src/scsi.c **** 		}
 966:..\..\src/scsi.c **** 	break;
 3270              		.loc 1 966 0
 3271 00da 98E0     		b	.L223
 3272              	.L209:
 962:..\..\src/scsi.c **** 		{
 3273              		.loc 1 962 0
 3274 00dc FFF7FEFF 		bl	SCSI_Filtered_Read
 3275 00e0 0346     		mov	r3, r0
 3276 00e2 03F00203 		and	r3, r3, #2
 3277 00e6 002B     		cmp	r3, #0
 3278 00e8 00F09180 		beq	.L223
 964:..\..\src/scsi.c **** 		}
 3279              		.loc 1 964 0
 3280 00ec 494B     		ldr	r3, .L224
 3281 00ee 4FF0FF32 		mov	r2, #-1
 3282 00f2 C3F87821 		str	r2, [r3, #376]
 3283              		.loc 1 966 0
 3284 00f6 8AE0     		b	.L223
 3285              	.L195:
 967:..\..\src/scsi.c **** 
 968:..\..\src/scsi.c **** 	case ARBITRATION:
 969:..\..\src/scsi.c **** 		// TODO Support reselection.
 970:..\..\src/scsi.c **** 		break;
 971:..\..\src/scsi.c **** 
 972:..\..\src/scsi.c **** 	case SELECTION:
 973:..\..\src/scsi.c **** 		process_SelectionPhase();
 3286              		.loc 1 973 0
 3287 00f8 FFF7FEFF 		bl	process_SelectionPhase
 974:..\..\src/scsi.c **** 	break;
 3288              		.loc 1 974 0
 3289 00fc 88E0     		b	.L190
 3290              	.L200:
ARM GAS  C:\Users\r\AppData\Local\Temp\ccbXJ1Li.s 			page 77


 975:..\..\src/scsi.c **** 
 976:..\..\src/scsi.c **** 	case RESELECTION:
 977:..\..\src/scsi.c **** 		// Not currently supported!
 978:..\..\src/scsi.c **** 	break;
 979:..\..\src/scsi.c **** 
 980:..\..\src/scsi.c **** 	case COMMAND:
 981:..\..\src/scsi.c **** 		// Do not check ATN here. SCSI 1 & 2 initiators must set ATN
 982:..\..\src/scsi.c **** 		// and SEL together upon entering the selection phase if they
 983:..\..\src/scsi.c **** 		// want to send a message (IDENTIFY) immediately.
 984:..\..\src/scsi.c **** 		if (scsiDev.atnFlag)
 3291              		.loc 1 984 0
 3292 00fe 454B     		ldr	r3, .L224
 3293 0100 D3F86431 		ldr	r3, [r3, #356]
 3294 0104 002B     		cmp	r3, #0
 3295 0106 02D0     		beq	.L211
 985:..\..\src/scsi.c **** 		{
 986:..\..\src/scsi.c **** 			process_MessageOut();
 3296              		.loc 1 986 0
 3297 0108 FFF7FEFF 		bl	process_MessageOut
 987:..\..\src/scsi.c **** 		}
 988:..\..\src/scsi.c **** 		else
 989:..\..\src/scsi.c **** 		{
 990:..\..\src/scsi.c **** 			process_Command();
 991:..\..\src/scsi.c **** 		}
 992:..\..\src/scsi.c **** 	break;
 3298              		.loc 1 992 0
 3299 010c 80E0     		b	.L190
 3300              	.L211:
 990:..\..\src/scsi.c **** 		}
 3301              		.loc 1 990 0
 3302 010e FFF7FEFF 		bl	process_Command
 3303              		.loc 1 992 0
 3304 0112 7DE0     		b	.L190
 3305              	.L202:
 993:..\..\src/scsi.c **** 
 994:..\..\src/scsi.c **** 	case DATA_IN:
 995:..\..\src/scsi.c **** 		scsiDev.atnFlag |= SCSI_ReadFilt(SCSI_Filt_ATN);
 3306              		.loc 1 995 0
 3307 0114 FFF7FEFF 		bl	SCSI_Filtered_Read
 3308 0118 0346     		mov	r3, r0
 3309 011a 03F00103 		and	r3, r3, #1
 3310 011e 002B     		cmp	r3, #0
 3311 0120 0CBF     		ite	eq
 3312 0122 0123     		moveq	r3, #1
 3313 0124 0023     		movne	r3, #0
 3314 0126 DBB2     		uxtb	r3, r3
 3315 0128 1A46     		mov	r2, r3
 3316 012a 3A4B     		ldr	r3, .L224
 3317 012c D3F86431 		ldr	r3, [r3, #356]
 3318 0130 1343     		orrs	r3, r3, r2
 3319 0132 384A     		ldr	r2, .L224
 3320 0134 C2F86431 		str	r3, [r2, #356]
 996:..\..\src/scsi.c **** 		if (scsiDev.atnFlag)
 3321              		.loc 1 996 0
 3322 0138 364B     		ldr	r3, .L224
 3323 013a D3F86431 		ldr	r3, [r3, #356]
 3324 013e 002B     		cmp	r3, #0
ARM GAS  C:\Users\r\AppData\Local\Temp\ccbXJ1Li.s 			page 78


 3325 0140 02D0     		beq	.L213
 997:..\..\src/scsi.c **** 		{
 998:..\..\src/scsi.c **** 			process_MessageOut();
 3326              		.loc 1 998 0
 3327 0142 FFF7FEFF 		bl	process_MessageOut
 999:..\..\src/scsi.c **** 		}
1000:..\..\src/scsi.c **** 		else
1001:..\..\src/scsi.c **** 		{
1002:..\..\src/scsi.c **** 			process_DataIn();
1003:..\..\src/scsi.c **** 		}
1004:..\..\src/scsi.c **** 	break;
 3328              		.loc 1 1004 0
 3329 0146 63E0     		b	.L190
 3330              	.L213:
1002:..\..\src/scsi.c **** 		}
 3331              		.loc 1 1002 0
 3332 0148 FFF7FEFF 		bl	process_DataIn
 3333              		.loc 1 1004 0
 3334 014c 60E0     		b	.L190
 3335              	.L199:
1005:..\..\src/scsi.c **** 
1006:..\..\src/scsi.c **** 	case DATA_OUT:
1007:..\..\src/scsi.c **** 		scsiDev.atnFlag |= SCSI_ReadFilt(SCSI_Filt_ATN);
 3336              		.loc 1 1007 0
 3337 014e FFF7FEFF 		bl	SCSI_Filtered_Read
 3338 0152 0346     		mov	r3, r0
 3339 0154 03F00103 		and	r3, r3, #1
 3340 0158 002B     		cmp	r3, #0
 3341 015a 0CBF     		ite	eq
 3342 015c 0123     		moveq	r3, #1
 3343 015e 0023     		movne	r3, #0
 3344 0160 DBB2     		uxtb	r3, r3
 3345 0162 1A46     		mov	r2, r3
 3346 0164 2B4B     		ldr	r3, .L224
 3347 0166 D3F86431 		ldr	r3, [r3, #356]
 3348 016a 1343     		orrs	r3, r3, r2
 3349 016c 294A     		ldr	r2, .L224
 3350 016e C2F86431 		str	r3, [r2, #356]
1008:..\..\src/scsi.c **** 		if (scsiDev.atnFlag)
 3351              		.loc 1 1008 0
 3352 0172 284B     		ldr	r3, .L224
 3353 0174 D3F86431 		ldr	r3, [r3, #356]
 3354 0178 002B     		cmp	r3, #0
 3355 017a 02D0     		beq	.L215
1009:..\..\src/scsi.c **** 		{
1010:..\..\src/scsi.c **** 			process_MessageOut();
 3356              		.loc 1 1010 0
 3357 017c FFF7FEFF 		bl	process_MessageOut
1011:..\..\src/scsi.c **** 		}
1012:..\..\src/scsi.c **** 		else
1013:..\..\src/scsi.c **** 		{
1014:..\..\src/scsi.c **** 			process_DataOut();
1015:..\..\src/scsi.c **** 		}
1016:..\..\src/scsi.c **** 	break;
 3358              		.loc 1 1016 0
 3359 0180 46E0     		b	.L190
 3360              	.L215:
ARM GAS  C:\Users\r\AppData\Local\Temp\ccbXJ1Li.s 			page 79


1014:..\..\src/scsi.c **** 		}
 3361              		.loc 1 1014 0
 3362 0182 FFF7FEFF 		bl	process_DataOut
 3363              		.loc 1 1016 0
 3364 0186 43E0     		b	.L190
 3365              	.L203:
1017:..\..\src/scsi.c **** 
1018:..\..\src/scsi.c **** 	case STATUS:
1019:..\..\src/scsi.c **** 		scsiDev.atnFlag |= SCSI_ReadFilt(SCSI_Filt_ATN);
 3366              		.loc 1 1019 0
 3367 0188 FFF7FEFF 		bl	SCSI_Filtered_Read
 3368 018c 0346     		mov	r3, r0
 3369 018e 03F00103 		and	r3, r3, #1
 3370 0192 002B     		cmp	r3, #0
 3371 0194 0CBF     		ite	eq
 3372 0196 0123     		moveq	r3, #1
 3373 0198 0023     		movne	r3, #0
 3374 019a DBB2     		uxtb	r3, r3
 3375 019c 1A46     		mov	r2, r3
 3376 019e 1D4B     		ldr	r3, .L224
 3377 01a0 D3F86431 		ldr	r3, [r3, #356]
 3378 01a4 1343     		orrs	r3, r3, r2
 3379 01a6 1B4A     		ldr	r2, .L224
 3380 01a8 C2F86431 		str	r3, [r2, #356]
1020:..\..\src/scsi.c **** 		if (scsiDev.atnFlag)
 3381              		.loc 1 1020 0
 3382 01ac 194B     		ldr	r3, .L224
 3383 01ae D3F86431 		ldr	r3, [r3, #356]
 3384 01b2 002B     		cmp	r3, #0
 3385 01b4 02D0     		beq	.L217
1021:..\..\src/scsi.c **** 		{
1022:..\..\src/scsi.c **** 			process_MessageOut();
 3386              		.loc 1 1022 0
 3387 01b6 FFF7FEFF 		bl	process_MessageOut
1023:..\..\src/scsi.c **** 		}
1024:..\..\src/scsi.c **** 		else
1025:..\..\src/scsi.c **** 		{
1026:..\..\src/scsi.c **** 			process_Status();
1027:..\..\src/scsi.c **** 		}
1028:..\..\src/scsi.c **** 	break;
 3388              		.loc 1 1028 0
 3389 01ba 29E0     		b	.L190
 3390              	.L217:
1026:..\..\src/scsi.c **** 		}
 3391              		.loc 1 1026 0
 3392 01bc FFF7FEFF 		bl	process_Status
 3393              		.loc 1 1028 0
 3394 01c0 26E0     		b	.L190
 3395              	.L204:
1029:..\..\src/scsi.c **** 
1030:..\..\src/scsi.c **** 	case MESSAGE_IN:
1031:..\..\src/scsi.c **** 		scsiDev.atnFlag |= SCSI_ReadFilt(SCSI_Filt_ATN);
 3396              		.loc 1 1031 0
 3397 01c2 FFF7FEFF 		bl	SCSI_Filtered_Read
 3398 01c6 0346     		mov	r3, r0
 3399 01c8 03F00103 		and	r3, r3, #1
 3400 01cc 002B     		cmp	r3, #0
ARM GAS  C:\Users\r\AppData\Local\Temp\ccbXJ1Li.s 			page 80


 3401 01ce 0CBF     		ite	eq
 3402 01d0 0123     		moveq	r3, #1
 3403 01d2 0023     		movne	r3, #0
 3404 01d4 DBB2     		uxtb	r3, r3
 3405 01d6 1A46     		mov	r2, r3
 3406 01d8 0E4B     		ldr	r3, .L224
 3407 01da D3F86431 		ldr	r3, [r3, #356]
 3408 01de 1343     		orrs	r3, r3, r2
 3409 01e0 0C4A     		ldr	r2, .L224
 3410 01e2 C2F86431 		str	r3, [r2, #356]
1032:..\..\src/scsi.c **** 		if (scsiDev.atnFlag)
 3411              		.loc 1 1032 0
 3412 01e6 0B4B     		ldr	r3, .L224
 3413 01e8 D3F86431 		ldr	r3, [r3, #356]
 3414 01ec 002B     		cmp	r3, #0
 3415 01ee 02D0     		beq	.L219
1033:..\..\src/scsi.c **** 		{
1034:..\..\src/scsi.c **** 			process_MessageOut();
 3416              		.loc 1 1034 0
 3417 01f0 FFF7FEFF 		bl	process_MessageOut
1035:..\..\src/scsi.c **** 		}
1036:..\..\src/scsi.c **** 		else
1037:..\..\src/scsi.c **** 		{
1038:..\..\src/scsi.c **** 			process_MessageIn(1);
1039:..\..\src/scsi.c **** 		}
1040:..\..\src/scsi.c **** 
1041:..\..\src/scsi.c **** 	break;
 3418              		.loc 1 1041 0
 3419 01f4 0CE0     		b	.L190
 3420              	.L219:
1038:..\..\src/scsi.c **** 		}
 3421              		.loc 1 1038 0
 3422 01f6 0120     		movs	r0, #1
 3423 01f8 FFF7FEFF 		bl	process_MessageIn
 3424              		.loc 1 1041 0
 3425 01fc 08E0     		b	.L190
 3426              	.L201:
1042:..\..\src/scsi.c **** 
1043:..\..\src/scsi.c **** 	case MESSAGE_OUT:
1044:..\..\src/scsi.c **** 		process_MessageOut();
 3427              		.loc 1 1044 0
 3428 01fe FFF7FEFF 		bl	process_MessageOut
1045:..\..\src/scsi.c **** 	break;
 3429              		.loc 1 1045 0
 3430 0202 00BF     		nop
 3431 0204 04E0     		b	.L190
 3432              	.L221:
 934:..\..\src/scsi.c **** 		}
 3433              		.loc 1 934 0
 3434 0206 00BF     		nop
 3435 0208 02E0     		b	.L190
 3436              	.L222:
 953:..\..\src/scsi.c **** 
 3437              		.loc 1 953 0
 3438 020a 00BF     		nop
 3439 020c 00E0     		b	.L190
 3440              	.L223:
ARM GAS  C:\Users\r\AppData\Local\Temp\ccbXJ1Li.s 			page 81


 966:..\..\src/scsi.c **** 
 3441              		.loc 1 966 0
 3442 020e 00BF     		nop
 3443              	.L190:
1046:..\..\src/scsi.c **** 	}
1047:..\..\src/scsi.c **** }
 3444              		.loc 1 1047 0
 3445 0210 80BD     		pop	{r7, pc}
 3446              	.L225:
 3447 0212 00BF     		.align	2
 3448              	.L224:
 3449 0214 00000000 		.word	scsiDev
 3450              		.cfi_endproc
 3451              	.LFE79:
 3452              		.size	scsiPoll, .-scsiPoll
 3453              		.section	.text.scsiInit,"ax",%progbits
 3454              		.align	2
 3455              		.global	scsiInit
 3456              		.thumb
 3457              		.thumb_func
 3458              		.type	scsiInit, %function
 3459              	scsiInit:
 3460              	.LFB80:
1048:..\..\src/scsi.c **** 
1049:..\..\src/scsi.c **** void scsiInit()
1050:..\..\src/scsi.c **** {
 3461              		.loc 1 1050 0
 3462              		.cfi_startproc
 3463              		@ args = 0, pretend = 0, frame = 8
 3464              		@ frame_needed = 1, uses_anonymous_args = 0
 3465 0000 80B5     		push	{r7, lr}
 3466              		.cfi_def_cfa_offset 8
 3467              		.cfi_offset 7, -8
 3468              		.cfi_offset 14, -4
 3469 0002 82B0     		sub	sp, sp, #8
 3470              		.cfi_def_cfa_offset 16
 3471 0004 00AF     		add	r7, sp, #0
 3472              		.cfi_def_cfa_register 7
1051:..\..\src/scsi.c **** 	scsiDev.atnFlag = 0;
 3473              		.loc 1 1051 0
 3474 0006 514B     		ldr	r3, .L231
 3475 0008 0022     		movs	r2, #0
 3476 000a C3F86421 		str	r2, [r3, #356]
1052:..\..\src/scsi.c **** 	scsiDev.resetFlag = 1;
 3477              		.loc 1 1052 0
 3478 000e 4F4B     		ldr	r3, .L231
 3479 0010 0122     		movs	r2, #1
 3480 0012 C3F86821 		str	r2, [r3, #360]
1053:..\..\src/scsi.c **** 	scsiDev.selFlag = 0;
 3481              		.loc 1 1053 0
 3482 0016 4D4B     		ldr	r3, .L231
 3483 0018 0022     		movs	r2, #0
 3484 001a C3F86C21 		str	r2, [r3, #364]
1054:..\..\src/scsi.c **** 	scsiDev.phase = BUS_FREE;
 3485              		.loc 1 1054 0
 3486 001e 4B4B     		ldr	r3, .L231
 3487 0020 4FF0FF32 		mov	r2, #-1
ARM GAS  C:\Users\r\AppData\Local\Temp\ccbXJ1Li.s 			page 82


 3488 0024 C3F87821 		str	r2, [r3, #376]
1055:..\..\src/scsi.c **** 	scsiDev.target = NULL;
 3489              		.loc 1 1055 0
 3490 0028 484B     		ldr	r3, .L231
 3491 002a 0022     		movs	r2, #0
 3492 002c 1A66     		str	r2, [r3, #96]
1056:..\..\src/scsi.c **** 	scsiDev.compatMode = COMPAT_UNKNOWN;
 3493              		.loc 1 1056 0
 3494 002e 474B     		ldr	r3, .L231
 3495 0030 03F58343 		add	r3, r3, #16768
 3496 0034 1733     		adds	r3, r3, #23
 3497 0036 0022     		movs	r2, #0
 3498 0038 1A70     		strb	r2, [r3]
1057:..\..\src/scsi.c **** 
1058:..\..\src/scsi.c **** 	int i;
1059:..\..\src/scsi.c **** 	for (i = 0; i < MAX_SCSI_TARGETS; ++i)
 3499              		.loc 1 1059 0
 3500 003a 0023     		movs	r3, #0
 3501 003c 7B60     		str	r3, [r7, #4]
 3502 003e 7CE0     		b	.L227
 3503              	.L230:
 3504              	.LBB9:
1060:..\..\src/scsi.c **** 	{
1061:..\..\src/scsi.c **** 		const TargetConfig* cfg = getConfigByIndex(i);
 3505              		.loc 1 1061 0
 3506 0040 7868     		ldr	r0, [r7, #4]
 3507 0042 FFF7FEFF 		bl	getConfigByIndex
 3508 0046 3860     		str	r0, [r7]
1062:..\..\src/scsi.c **** 		if (cfg && (cfg->scsiId & CONFIG_TARGET_ENABLED))
 3509              		.loc 1 1062 0
 3510 0048 3B68     		ldr	r3, [r7]
 3511 004a 002B     		cmp	r3, #0
 3512 004c 2AD0     		beq	.L228
 3513              		.loc 1 1062 0 is_stmt 0 discriminator 1
 3514 004e 3B68     		ldr	r3, [r7]
 3515 0050 1B78     		ldrb	r3, [r3]	@ zero_extendqisi2
 3516 0052 5BB2     		sxtb	r3, r3
 3517 0054 002B     		cmp	r3, #0
 3518 0056 25DA     		bge	.L228
1063:..\..\src/scsi.c **** 		{
1064:..\..\src/scsi.c **** 			scsiDev.targets[i].targetId = cfg->scsiId & CONFIG_TARGET_ID_BITS;
 3519              		.loc 1 1064 0 is_stmt 1
 3520 0058 3B68     		ldr	r3, [r7]
 3521 005a 1B78     		ldrb	r3, [r3]	@ zero_extendqisi2
 3522 005c 03F00703 		and	r3, r3, #7
 3523 0060 D8B2     		uxtb	r0, r3
 3524 0062 3A49     		ldr	r1, .L231
 3525 0064 7A68     		ldr	r2, [r7, #4]
 3526 0066 1346     		mov	r3, r2
 3527 0068 5B00     		lsls	r3, r3, #1
 3528 006a 1344     		add	r3, r3, r2
 3529 006c DB00     		lsls	r3, r3, #3
 3530 006e 0B44     		add	r3, r3, r1
 3531 0070 0246     		mov	r2, r0
 3532 0072 1A70     		strb	r2, [r3]
1065:..\..\src/scsi.c **** 			scsiDev.targets[i].cfg = cfg;
 3533              		.loc 1 1065 0
ARM GAS  C:\Users\r\AppData\Local\Temp\ccbXJ1Li.s 			page 83


 3534 0074 3549     		ldr	r1, .L231
 3535 0076 7A68     		ldr	r2, [r7, #4]
 3536 0078 1346     		mov	r3, r2
 3537 007a 5B00     		lsls	r3, r3, #1
 3538 007c 1344     		add	r3, r3, r2
 3539 007e DB00     		lsls	r3, r3, #3
 3540 0080 0B44     		add	r3, r3, r1
 3541 0082 0433     		adds	r3, r3, #4
 3542 0084 3A68     		ldr	r2, [r7]
 3543 0086 1A60     		str	r2, [r3]
1066:..\..\src/scsi.c **** 
1067:..\..\src/scsi.c **** 			scsiDev.targets[i].liveCfg.bytesPerSector = cfg->bytesPerSector;
 3544              		.loc 1 1067 0
 3545 0088 3B68     		ldr	r3, [r7]
 3546 008a 9B89     		ldrh	r3, [r3, #12]	@ unaligned
 3547 008c 98B2     		uxth	r0, r3
 3548 008e 2F49     		ldr	r1, .L231
 3549 0090 7A68     		ldr	r2, [r7, #4]
 3550 0092 1346     		mov	r3, r2
 3551 0094 5B00     		lsls	r3, r3, #1
 3552 0096 1344     		add	r3, r3, r2
 3553 0098 DB00     		lsls	r3, r3, #3
 3554 009a 0B44     		add	r3, r3, r1
 3555 009c 0833     		adds	r3, r3, #8
 3556 009e 0246     		mov	r2, r0	@ movhi
 3557 00a0 1A80     		strh	r2, [r3]	@ movhi
 3558 00a2 12E0     		b	.L229
 3559              	.L228:
1068:..\..\src/scsi.c **** 		}
1069:..\..\src/scsi.c **** 		else
1070:..\..\src/scsi.c **** 		{
1071:..\..\src/scsi.c **** 			scsiDev.targets[i].targetId = 0xff;
 3560              		.loc 1 1071 0
 3561 00a4 2949     		ldr	r1, .L231
 3562 00a6 7A68     		ldr	r2, [r7, #4]
 3563 00a8 1346     		mov	r3, r2
 3564 00aa 5B00     		lsls	r3, r3, #1
 3565 00ac 1344     		add	r3, r3, r2
 3566 00ae DB00     		lsls	r3, r3, #3
 3567 00b0 0B44     		add	r3, r3, r1
 3568 00b2 FF22     		movs	r2, #255
 3569 00b4 1A70     		strb	r2, [r3]
1072:..\..\src/scsi.c **** 			scsiDev.targets[i].cfg = NULL;
 3570              		.loc 1 1072 0
 3571 00b6 2549     		ldr	r1, .L231
 3572 00b8 7A68     		ldr	r2, [r7, #4]
 3573 00ba 1346     		mov	r3, r2
 3574 00bc 5B00     		lsls	r3, r3, #1
 3575 00be 1344     		add	r3, r3, r2
 3576 00c0 DB00     		lsls	r3, r3, #3
 3577 00c2 0B44     		add	r3, r3, r1
 3578 00c4 0433     		adds	r3, r3, #4
 3579 00c6 0022     		movs	r2, #0
 3580 00c8 1A60     		str	r2, [r3]
 3581              	.L229:
1073:..\..\src/scsi.c **** 		}
1074:..\..\src/scsi.c **** 		scsiDev.targets[i].reservedId = -1;
ARM GAS  C:\Users\r\AppData\Local\Temp\ccbXJ1Li.s 			page 84


 3582              		.loc 1 1074 0 discriminator 2
 3583 00ca 2049     		ldr	r1, .L231
 3584 00cc 7A68     		ldr	r2, [r7, #4]
 3585 00ce 1346     		mov	r3, r2
 3586 00d0 5B00     		lsls	r3, r3, #1
 3587 00d2 1344     		add	r3, r3, r2
 3588 00d4 DB00     		lsls	r3, r3, #3
 3589 00d6 0B44     		add	r3, r3, r1
 3590 00d8 1033     		adds	r3, r3, #16
 3591 00da 4FF0FF32 		mov	r2, #-1
 3592 00de 1A60     		str	r2, [r3]
1075:..\..\src/scsi.c **** 		scsiDev.targets[i].reserverId = -1;
 3593              		.loc 1 1075 0 discriminator 2
 3594 00e0 1A49     		ldr	r1, .L231
 3595 00e2 7A68     		ldr	r2, [r7, #4]
 3596 00e4 1346     		mov	r3, r2
 3597 00e6 5B00     		lsls	r3, r3, #1
 3598 00e8 1344     		add	r3, r3, r2
 3599 00ea DB00     		lsls	r3, r3, #3
 3600 00ec 0B44     		add	r3, r3, r1
 3601 00ee 1433     		adds	r3, r3, #20
 3602 00f0 4FF0FF32 		mov	r2, #-1
 3603 00f4 1A60     		str	r2, [r3]
1076:..\..\src/scsi.c **** 		scsiDev.targets[i].unitAttention = POWER_ON_RESET;
 3604              		.loc 1 1076 0 discriminator 2
 3605 00f6 1549     		ldr	r1, .L231
 3606 00f8 7A68     		ldr	r2, [r7, #4]
 3607 00fa 1346     		mov	r3, r2
 3608 00fc 5B00     		lsls	r3, r3, #1
 3609 00fe 1344     		add	r3, r3, r2
 3610 0100 DB00     		lsls	r3, r3, #3
 3611 0102 0B44     		add	r3, r3, r1
 3612 0104 0E33     		adds	r3, r3, #14
 3613 0106 42F60112 		movw	r2, #10497
 3614 010a 1A80     		strh	r2, [r3]	@ movhi
1077:..\..\src/scsi.c **** 		scsiDev.targets[i].sense.code = NO_SENSE;
 3615              		.loc 1 1077 0 discriminator 2
 3616 010c 0F49     		ldr	r1, .L231
 3617 010e 7A68     		ldr	r2, [r7, #4]
 3618 0110 1346     		mov	r3, r2
 3619 0112 5B00     		lsls	r3, r3, #1
 3620 0114 1344     		add	r3, r3, r2
 3621 0116 DB00     		lsls	r3, r3, #3
 3622 0118 0B44     		add	r3, r3, r1
 3623 011a 0A33     		adds	r3, r3, #10
 3624 011c 0022     		movs	r2, #0
 3625 011e 1A70     		strb	r2, [r3]
1078:..\..\src/scsi.c **** 		scsiDev.targets[i].sense.asc = NO_ADDITIONAL_SENSE_INFORMATION;
 3626              		.loc 1 1078 0 discriminator 2
 3627 0120 0A49     		ldr	r1, .L231
 3628 0122 7A68     		ldr	r2, [r7, #4]
 3629 0124 1346     		mov	r3, r2
 3630 0126 5B00     		lsls	r3, r3, #1
 3631 0128 1344     		add	r3, r3, r2
 3632 012a DB00     		lsls	r3, r3, #3
 3633 012c 0B44     		add	r3, r3, r1
 3634 012e 0C33     		adds	r3, r3, #12
ARM GAS  C:\Users\r\AppData\Local\Temp\ccbXJ1Li.s 			page 85


 3635 0130 0022     		movs	r2, #0
 3636 0132 1A80     		strh	r2, [r3]	@ movhi
 3637              	.LBE9:
1059:..\..\src/scsi.c **** 	{
 3638              		.loc 1 1059 0 discriminator 2
 3639 0134 7B68     		ldr	r3, [r7, #4]
 3640 0136 0133     		adds	r3, r3, #1
 3641 0138 7B60     		str	r3, [r7, #4]
 3642              	.L227:
1059:..\..\src/scsi.c **** 	{
 3643              		.loc 1 1059 0 is_stmt 0 discriminator 1
 3644 013a 7B68     		ldr	r3, [r7, #4]
 3645 013c 032B     		cmp	r3, #3
 3646 013e 7FF77FAF 		ble	.L230
1079:..\..\src/scsi.c **** 	}
1080:..\..\src/scsi.c **** }
 3647              		.loc 1 1080 0 is_stmt 1
 3648 0142 00BF     		nop
 3649 0144 0837     		adds	r7, r7, #8
 3650              		.cfi_def_cfa_offset 8
 3651 0146 BD46     		mov	sp, r7
 3652              		.cfi_def_cfa_register 13
 3653              		@ sp needed
 3654 0148 80BD     		pop	{r7, pc}
 3655              	.L232:
 3656 014a 00BF     		.align	2
 3657              	.L231:
 3658 014c 00000000 		.word	scsiDev
 3659              		.cfi_endproc
 3660              	.LFE80:
 3661              		.size	scsiInit, .-scsiInit
 3662              		.section	.text.scsiDisconnect,"ax",%progbits
 3663              		.align	2
 3664              		.global	scsiDisconnect
 3665              		.thumb
 3666              		.thumb_func
 3667              		.type	scsiDisconnect, %function
 3668              	scsiDisconnect:
 3669              	.LFB81:
1081:..\..\src/scsi.c **** 
1082:..\..\src/scsi.c **** void scsiDisconnect()
1083:..\..\src/scsi.c **** {
 3670              		.loc 1 1083 0
 3671              		.cfi_startproc
 3672              		@ args = 0, pretend = 0, frame = 8
 3673              		@ frame_needed = 1, uses_anonymous_args = 0
 3674 0000 80B5     		push	{r7, lr}
 3675              		.cfi_def_cfa_offset 8
 3676              		.cfi_offset 7, -8
 3677              		.cfi_offset 14, -4
 3678 0002 82B0     		sub	sp, sp, #8
 3679              		.cfi_def_cfa_offset 16
 3680 0004 00AF     		add	r7, sp, #0
 3681              		.cfi_def_cfa_register 7
1084:..\..\src/scsi.c **** 	scsiEnterPhase(MESSAGE_IN);
 3682              		.loc 1 1084 0
 3683 0006 0720     		movs	r0, #7
ARM GAS  C:\Users\r\AppData\Local\Temp\ccbXJ1Li.s 			page 86


 3684 0008 FFF7FEFF 		bl	scsiEnterPhase
1085:..\..\src/scsi.c **** 	scsiWriteByte(0x02); // save data pointer
 3685              		.loc 1 1085 0
 3686 000c 0220     		movs	r0, #2
 3687 000e FFF7FEFF 		bl	scsiWriteByte
1086:..\..\src/scsi.c **** 	scsiWriteByte(0x04); // disconnect msg.
 3688              		.loc 1 1086 0
 3689 0012 0420     		movs	r0, #4
 3690 0014 FFF7FEFF 		bl	scsiWriteByte
1087:..\..\src/scsi.c **** 
1088:..\..\src/scsi.c **** 	// For now, the caller is responsible for tracking the disconnected
1089:..\..\src/scsi.c **** 	// state, and calling scsiReconnect.
1090:..\..\src/scsi.c **** 	// Ideally the client would exit their loop and we'd implement this
1091:..\..\src/scsi.c **** 	// as part of scsiPoll
1092:..\..\src/scsi.c **** 	int phase = scsiDev.phase;
 3691              		.loc 1 1092 0
 3692 0018 064B     		ldr	r3, .L234
 3693 001a D3F87831 		ldr	r3, [r3, #376]
 3694 001e 7B60     		str	r3, [r7, #4]
1093:..\..\src/scsi.c **** 	enter_BusFree();
 3695              		.loc 1 1093 0
 3696 0020 FFF7FEFF 		bl	enter_BusFree
1094:..\..\src/scsi.c **** 	scsiDev.phase = phase;
 3697              		.loc 1 1094 0
 3698 0024 034A     		ldr	r2, .L234
 3699 0026 7B68     		ldr	r3, [r7, #4]
 3700 0028 C2F87831 		str	r3, [r2, #376]
1095:..\..\src/scsi.c **** }
 3701              		.loc 1 1095 0
 3702 002c 00BF     		nop
 3703 002e 0837     		adds	r7, r7, #8
 3704              		.cfi_def_cfa_offset 8
 3705 0030 BD46     		mov	sp, r7
 3706              		.cfi_def_cfa_register 13
 3707              		@ sp needed
 3708 0032 80BD     		pop	{r7, pc}
 3709              	.L235:
 3710              		.align	2
 3711              	.L234:
 3712 0034 00000000 		.word	scsiDev
 3713              		.cfi_endproc
 3714              	.LFE81:
 3715              		.size	scsiDisconnect, .-scsiDisconnect
 3716              		.section	.text.scsiReconnect,"ax",%progbits
 3717              		.align	2
 3718              		.global	scsiReconnect
 3719              		.thumb
 3720              		.thumb_func
 3721              		.type	scsiReconnect, %function
 3722              	scsiReconnect:
 3723              	.LFB82:
1096:..\..\src/scsi.c **** 
1097:..\..\src/scsi.c **** int scsiReconnect()
1098:..\..\src/scsi.c **** {
 3724              		.loc 1 1098 0
 3725              		.cfi_startproc
 3726              		@ args = 0, pretend = 0, frame = 24
ARM GAS  C:\Users\r\AppData\Local\Temp\ccbXJ1Li.s 			page 87


 3727              		@ frame_needed = 1, uses_anonymous_args = 0
 3728 0000 80B5     		push	{r7, lr}
 3729              		.cfi_def_cfa_offset 8
 3730              		.cfi_offset 7, -8
 3731              		.cfi_offset 14, -4
 3732 0002 86B0     		sub	sp, sp, #24
 3733              		.cfi_def_cfa_offset 32
 3734 0004 00AF     		add	r7, sp, #0
 3735              		.cfi_def_cfa_register 7
1099:..\..\src/scsi.c **** 	int reconnected = 0;
 3736              		.loc 1 1099 0
 3737 0006 0023     		movs	r3, #0
 3738 0008 7B61     		str	r3, [r7, #20]
1100:..\..\src/scsi.c **** 
1101:..\..\src/scsi.c **** 	int sel = SCSI_ReadFilt(SCSI_Filt_SEL);
 3739              		.loc 1 1101 0
 3740 000a FFF7FEFF 		bl	SCSI_Filtered_Read
 3741 000e 0346     		mov	r3, r0
 3742 0010 03F00403 		and	r3, r3, #4
 3743 0014 002B     		cmp	r3, #0
 3744 0016 0CBF     		ite	eq
 3745 0018 0123     		moveq	r3, #1
 3746 001a 0023     		movne	r3, #0
 3747 001c DBB2     		uxtb	r3, r3
 3748 001e 3B61     		str	r3, [r7, #16]
1102:..\..\src/scsi.c **** 	int bsy = SCSI_ReadFilt(SCSI_Filt_BSY);
 3749              		.loc 1 1102 0
 3750 0020 FFF7FEFF 		bl	SCSI_Filtered_Read
 3751 0024 0346     		mov	r3, r0
 3752 0026 03F00203 		and	r3, r3, #2
 3753 002a 002B     		cmp	r3, #0
 3754 002c 0CBF     		ite	eq
 3755 002e 0123     		moveq	r3, #1
 3756 0030 0023     		movne	r3, #0
 3757 0032 DBB2     		uxtb	r3, r3
 3758 0034 FB60     		str	r3, [r7, #12]
1103:..\..\src/scsi.c **** 	if (!sel && !bsy)
 3759              		.loc 1 1103 0
 3760 0036 3B69     		ldr	r3, [r7, #16]
 3761 0038 002B     		cmp	r3, #0
 3762 003a 1BD1     		bne	.L237
 3763              		.loc 1 1103 0 is_stmt 0 discriminator 1
 3764 003c FB68     		ldr	r3, [r7, #12]
 3765 003e 002B     		cmp	r3, #0
 3766 0040 18D1     		bne	.L237
1104:..\..\src/scsi.c **** 	{
1105:..\..\src/scsi.c **** 		CyDelayUs(1);
 3767              		.loc 1 1105 0 is_stmt 1
 3768 0042 0120     		movs	r0, #1
 3769 0044 FFF7FEFF 		bl	CyDelayUs
1106:..\..\src/scsi.c **** 		sel = SCSI_ReadFilt(SCSI_Filt_SEL);
 3770              		.loc 1 1106 0
 3771 0048 FFF7FEFF 		bl	SCSI_Filtered_Read
 3772 004c 0346     		mov	r3, r0
 3773 004e 03F00403 		and	r3, r3, #4
 3774 0052 002B     		cmp	r3, #0
 3775 0054 0CBF     		ite	eq
ARM GAS  C:\Users\r\AppData\Local\Temp\ccbXJ1Li.s 			page 88


 3776 0056 0123     		moveq	r3, #1
 3777 0058 0023     		movne	r3, #0
 3778 005a DBB2     		uxtb	r3, r3
 3779 005c 3B61     		str	r3, [r7, #16]
1107:..\..\src/scsi.c **** 		bsy = SCSI_ReadFilt(SCSI_Filt_BSY);
 3780              		.loc 1 1107 0
 3781 005e FFF7FEFF 		bl	SCSI_Filtered_Read
 3782 0062 0346     		mov	r3, r0
 3783 0064 03F00203 		and	r3, r3, #2
 3784 0068 002B     		cmp	r3, #0
 3785 006a 0CBF     		ite	eq
 3786 006c 0123     		moveq	r3, #1
 3787 006e 0023     		movne	r3, #0
 3788 0070 DBB2     		uxtb	r3, r3
 3789 0072 FB60     		str	r3, [r7, #12]
 3790              	.L237:
1108:..\..\src/scsi.c **** 	}
1109:..\..\src/scsi.c **** 
1110:..\..\src/scsi.c **** 	if (!sel && !bsy)
 3791              		.loc 1 1110 0
 3792 0074 3B69     		ldr	r3, [r7, #16]
 3793 0076 002B     		cmp	r3, #0
 3794 0078 40F0D980 		bne	.L238
 3795              		.loc 1 1110 0 is_stmt 0 discriminator 1
 3796 007c FB68     		ldr	r3, [r7, #12]
 3797 007e 002B     		cmp	r3, #0
 3798 0080 40F0D580 		bne	.L238
 3799              	.LBB10:
1111:..\..\src/scsi.c **** 	{
1112:..\..\src/scsi.c **** 		// Arbitrate.
1113:..\..\src/scsi.c **** 		ledOn();
 3800              		.loc 1 1113 0 is_stmt 1
 3801 0084 FFF7FEFF 		bl	ledOn
1114:..\..\src/scsi.c **** 		uint8_t scsiIdMask = 1 << scsiDev.target->targetId;
 3802              		.loc 1 1114 0
 3803 0088 6B4B     		ldr	r3, .L246
 3804 008a 1B6E     		ldr	r3, [r3, #96]
 3805 008c 1B78     		ldrb	r3, [r3]	@ zero_extendqisi2
 3806 008e 1A46     		mov	r2, r3
 3807 0090 0123     		movs	r3, #1
 3808 0092 9340     		lsls	r3, r3, r2
 3809 0094 FB72     		strb	r3, [r7, #11]
1115:..\..\src/scsi.c **** 		SCSI_Out_Bits_Write(scsiIdMask);
 3810              		.loc 1 1115 0
 3811 0096 FB7A     		ldrb	r3, [r7, #11]	@ zero_extendqisi2
 3812 0098 1846     		mov	r0, r3
 3813 009a FFF7FEFF 		bl	SCSI_Out_Bits_Write
1116:..\..\src/scsi.c **** 		SCSI_Out_Ctl_Write(1); // Write bits manually.
 3814              		.loc 1 1116 0
 3815 009e 0120     		movs	r0, #1
 3816 00a0 FFF7FEFF 		bl	SCSI_Out_Ctl_Write
1117:..\..\src/scsi.c **** 		SCSI_SetPin(SCSI_Out_BSY);
 3817              		.loc 1 1117 0
 3818 00a4 654A     		ldr	r2, .L246+4
 3819 00a6 654B     		ldr	r3, .L246+4
 3820 00a8 1B78     		ldrb	r3, [r3]
 3821 00aa DBB2     		uxtb	r3, r3
ARM GAS  C:\Users\r\AppData\Local\Temp\ccbXJ1Li.s 			page 89


 3822 00ac 43F00103 		orr	r3, r3, #1
 3823 00b0 DBB2     		uxtb	r3, r3
 3824 00b2 1370     		strb	r3, [r2]
1118:..\..\src/scsi.c **** 
1119:..\..\src/scsi.c **** 		CyDelayUs(3); // arbitrate delay. 2.4us.
 3825              		.loc 1 1119 0
 3826 00b4 0320     		movs	r0, #3
 3827 00b6 FFF7FEFF 		bl	CyDelayUs
1120:..\..\src/scsi.c **** 
1121:..\..\src/scsi.c **** 		uint8_t dbx = scsiReadDBxPins();
 3828              		.loc 1 1121 0
 3829 00ba FFF7FEFF 		bl	scsiReadDBxPins
 3830 00be 0346     		mov	r3, r0
 3831 00c0 BB72     		strb	r3, [r7, #10]
1122:..\..\src/scsi.c **** 		sel = SCSI_ReadFilt(SCSI_Filt_SEL);
 3832              		.loc 1 1122 0
 3833 00c2 FFF7FEFF 		bl	SCSI_Filtered_Read
 3834 00c6 0346     		mov	r3, r0
 3835 00c8 03F00403 		and	r3, r3, #4
 3836 00cc 002B     		cmp	r3, #0
 3837 00ce 0CBF     		ite	eq
 3838 00d0 0123     		moveq	r3, #1
 3839 00d2 0023     		movne	r3, #0
 3840 00d4 DBB2     		uxtb	r3, r3
 3841 00d6 3B61     		str	r3, [r7, #16]
1123:..\..\src/scsi.c **** 		if (sel || ((dbx ^ scsiIdMask) > scsiIdMask))
 3842              		.loc 1 1123 0
 3843 00d8 3B69     		ldr	r3, [r7, #16]
 3844 00da 002B     		cmp	r3, #0
 3845 00dc 06D1     		bne	.L239
 3846              		.loc 1 1123 0 is_stmt 0 discriminator 1
 3847 00de BA7A     		ldrb	r2, [r7, #10]
 3848 00e0 FB7A     		ldrb	r3, [r7, #11]
 3849 00e2 5340     		eors	r3, r3, r2
 3850 00e4 DBB2     		uxtb	r3, r3
 3851 00e6 FA7A     		ldrb	r2, [r7, #11]	@ zero_extendqisi2
 3852 00e8 9A42     		cmp	r2, r3
 3853 00ea 0DD2     		bcs	.L240
 3854              	.L239:
1124:..\..\src/scsi.c **** 		{
1125:..\..\src/scsi.c **** 			// Lost arbitration.
1126:..\..\src/scsi.c **** 			SCSI_Out_Ctl_Write(0);
 3855              		.loc 1 1126 0 is_stmt 1
 3856 00ec 0020     		movs	r0, #0
 3857 00ee FFF7FEFF 		bl	SCSI_Out_Ctl_Write
1127:..\..\src/scsi.c **** 			SCSI_ClearPin(SCSI_Out_BSY);
 3858              		.loc 1 1127 0
 3859 00f2 524A     		ldr	r2, .L246+4
 3860 00f4 514B     		ldr	r3, .L246+4
 3861 00f6 1B78     		ldrb	r3, [r3]
 3862 00f8 DBB2     		uxtb	r3, r3
 3863 00fa 23F00103 		bic	r3, r3, #1
 3864 00fe DBB2     		uxtb	r3, r3
 3865 0100 1370     		strb	r3, [r2]
1128:..\..\src/scsi.c **** 			ledOff();
 3866              		.loc 1 1128 0
 3867 0102 FFF7FEFF 		bl	ledOff
ARM GAS  C:\Users\r\AppData\Local\Temp\ccbXJ1Li.s 			page 90


 3868 0106 92E0     		b	.L238
 3869              	.L240:
 3870              	.LBB11:
1129:..\..\src/scsi.c **** 		}
1130:..\..\src/scsi.c **** 		else
1131:..\..\src/scsi.c **** 		{
1132:..\..\src/scsi.c **** 			// Won arbitration
1133:..\..\src/scsi.c **** 			SCSI_SetPin(SCSI_Out_SEL);
 3871              		.loc 1 1133 0
 3872 0108 4D4A     		ldr	r2, .L246+8
 3873 010a 4D4B     		ldr	r3, .L246+8
 3874 010c 1B78     		ldrb	r3, [r3]
 3875 010e DBB2     		uxtb	r3, r3
 3876 0110 43F00103 		orr	r3, r3, #1
 3877 0114 DBB2     		uxtb	r3, r3
 3878 0116 1370     		strb	r3, [r2]
1134:..\..\src/scsi.c **** 			CyDelayUs(1); // Bus clear + Bus settle.
 3879              		.loc 1 1134 0
 3880 0118 0120     		movs	r0, #1
 3881 011a FFF7FEFF 		bl	CyDelayUs
1135:..\..\src/scsi.c **** 
1136:..\..\src/scsi.c **** 			// Reselection phase
1137:..\..\src/scsi.c **** 			SCSI_CTL_PHASE_Write(__scsiphase_io);
 3882              		.loc 1 1137 0
 3883 011e 0420     		movs	r0, #4
 3884 0120 FFF7FEFF 		bl	SCSI_CTL_PHASE_Write
1138:..\..\src/scsi.c **** 			SCSI_Out_Bits_Write(scsiIdMask | (1 << scsiDev.initiatorId));
 3885              		.loc 1 1138 0
 3886 0124 444B     		ldr	r3, .L246
 3887 0126 03F58343 		add	r3, r3, #16768
 3888 012a 1833     		adds	r3, r3, #24
 3889 012c 1B68     		ldr	r3, [r3]
 3890 012e 0122     		movs	r2, #1
 3891 0130 02FA03F3 		lsl	r3, r2, r3
 3892 0134 5AB2     		sxtb	r2, r3
 3893 0136 97F90B30 		ldrsb	r3, [r7, #11]
 3894 013a 1343     		orrs	r3, r3, r2
 3895 013c 5BB2     		sxtb	r3, r3
 3896 013e DBB2     		uxtb	r3, r3
 3897 0140 1846     		mov	r0, r3
 3898 0142 FFF7FEFF 		bl	SCSI_Out_Bits_Write
1139:..\..\src/scsi.c **** 			scsiDeskewDelay(); // 2 deskew delays
 3899              		.loc 1 1139 0
 3900 0146 0320     		movs	r0, #3
 3901 0148 FFF7FEFF 		bl	CyDelayCycles
1140:..\..\src/scsi.c **** 			scsiDeskewDelay(); // 2 deskew delays
 3902              		.loc 1 1140 0
 3903 014c 0320     		movs	r0, #3
 3904 014e FFF7FEFF 		bl	CyDelayCycles
1141:..\..\src/scsi.c **** 			SCSI_ClearPin(SCSI_Out_BSY);
 3905              		.loc 1 1141 0
 3906 0152 3A4A     		ldr	r2, .L246+4
 3907 0154 394B     		ldr	r3, .L246+4
 3908 0156 1B78     		ldrb	r3, [r3]
 3909 0158 DBB2     		uxtb	r3, r3
 3910 015a 23F00103 		bic	r3, r3, #1
 3911 015e DBB2     		uxtb	r3, r3
ARM GAS  C:\Users\r\AppData\Local\Temp\ccbXJ1Li.s 			page 91


 3912 0160 1370     		strb	r3, [r2]
1142:..\..\src/scsi.c **** 			CyDelayUs(1);  // Bus Settle Delay
 3913              		.loc 1 1142 0
 3914 0162 0120     		movs	r0, #1
 3915 0164 FFF7FEFF 		bl	CyDelayUs
1143:..\..\src/scsi.c **** 
1144:..\..\src/scsi.c **** 			uint32_t waitStart_ms = getTime_ms();
 3916              		.loc 1 1144 0
 3917 0168 FFF7FEFF 		bl	getTime_ms
 3918 016c 7860     		str	r0, [r7, #4]
1145:..\..\src/scsi.c **** 			bsy = SCSI_ReadFilt(SCSI_Filt_BSY);
 3919              		.loc 1 1145 0
 3920 016e FFF7FEFF 		bl	SCSI_Filtered_Read
 3921 0172 0346     		mov	r3, r0
 3922 0174 03F00203 		and	r3, r3, #2
 3923 0178 002B     		cmp	r3, #0
 3924 017a 0CBF     		ite	eq
 3925 017c 0123     		moveq	r3, #1
 3926 017e 0023     		movne	r3, #0
 3927 0180 DBB2     		uxtb	r3, r3
 3928 0182 FB60     		str	r3, [r7, #12]
1146:..\..\src/scsi.c **** 			// Wait for initiator.
1147:..\..\src/scsi.c **** 			while (
 3929              		.loc 1 1147 0
 3930 0184 0AE0     		b	.L241
 3931              	.L243:
1148:..\..\src/scsi.c **** 				!bsy &&
1149:..\..\src/scsi.c **** 				!scsiDev.resetFlag &&
1150:..\..\src/scsi.c **** 				(elapsedTime_ms(waitStart_ms) < 250))
1151:..\..\src/scsi.c **** 			{
1152:..\..\src/scsi.c **** 				bsy = SCSI_ReadFilt(SCSI_Filt_BSY);
 3932              		.loc 1 1152 0
 3933 0186 FFF7FEFF 		bl	SCSI_Filtered_Read
 3934 018a 0346     		mov	r3, r0
 3935 018c 03F00203 		and	r3, r3, #2
 3936 0190 002B     		cmp	r3, #0
 3937 0192 0CBF     		ite	eq
 3938 0194 0123     		moveq	r3, #1
 3939 0196 0023     		movne	r3, #0
 3940 0198 DBB2     		uxtb	r3, r3
 3941 019a FB60     		str	r3, [r7, #12]
 3942              	.L241:
1147:..\..\src/scsi.c **** 				!bsy &&
 3943              		.loc 1 1147 0
 3944 019c FB68     		ldr	r3, [r7, #12]
 3945 019e 002B     		cmp	r3, #0
 3946 01a0 0AD1     		bne	.L242
1149:..\..\src/scsi.c **** 				(elapsedTime_ms(waitStart_ms) < 250))
 3947              		.loc 1 1149 0
 3948 01a2 254B     		ldr	r3, .L246
 3949 01a4 D3F86831 		ldr	r3, [r3, #360]
1148:..\..\src/scsi.c **** 				!bsy &&
 3950              		.loc 1 1148 0
 3951 01a8 002B     		cmp	r3, #0
 3952 01aa 05D1     		bne	.L242
1150:..\..\src/scsi.c **** 			{
 3953              		.loc 1 1150 0
ARM GAS  C:\Users\r\AppData\Local\Temp\ccbXJ1Li.s 			page 92


 3954 01ac 7868     		ldr	r0, [r7, #4]
 3955 01ae FFF7FEFF 		bl	elapsedTime_ms
 3956 01b2 0346     		mov	r3, r0
1149:..\..\src/scsi.c **** 				(elapsedTime_ms(waitStart_ms) < 250))
 3957              		.loc 1 1149 0
 3958 01b4 F92B     		cmp	r3, #249
 3959 01b6 E6D9     		bls	.L243
 3960              	.L242:
1153:..\..\src/scsi.c **** 			}
1154:..\..\src/scsi.c **** 
1155:..\..\src/scsi.c **** 			if (bsy)
 3961              		.loc 1 1155 0
 3962 01b8 FB68     		ldr	r3, [r7, #12]
 3963 01ba 002B     		cmp	r3, #0
 3964 01bc 27D0     		beq	.L244
1156:..\..\src/scsi.c **** 			{
1157:..\..\src/scsi.c **** 				SCSI_SetPin(SCSI_Out_BSY);
 3965              		.loc 1 1157 0
 3966 01be 1F4A     		ldr	r2, .L246+4
 3967 01c0 1E4B     		ldr	r3, .L246+4
 3968 01c2 1B78     		ldrb	r3, [r3]
 3969 01c4 DBB2     		uxtb	r3, r3
 3970 01c6 43F00103 		orr	r3, r3, #1
 3971 01ca DBB2     		uxtb	r3, r3
 3972 01cc 1370     		strb	r3, [r2]
1158:..\..\src/scsi.c **** 				scsiDeskewDelay(); // 2 deskew delays
 3973              		.loc 1 1158 0
 3974 01ce 0320     		movs	r0, #3
 3975 01d0 FFF7FEFF 		bl	CyDelayCycles
1159:..\..\src/scsi.c **** 				scsiDeskewDelay(); // 2 deskew delays
 3976              		.loc 1 1159 0
 3977 01d4 0320     		movs	r0, #3
 3978 01d6 FFF7FEFF 		bl	CyDelayCycles
1160:..\..\src/scsi.c **** 				SCSI_ClearPin(SCSI_Out_SEL);
 3979              		.loc 1 1160 0
 3980 01da 194A     		ldr	r2, .L246+8
 3981 01dc 184B     		ldr	r3, .L246+8
 3982 01de 1B78     		ldrb	r3, [r3]
 3983 01e0 DBB2     		uxtb	r3, r3
 3984 01e2 23F00103 		bic	r3, r3, #1
 3985 01e6 DBB2     		uxtb	r3, r3
 3986 01e8 1370     		strb	r3, [r2]
1161:..\..\src/scsi.c **** 
1162:..\..\src/scsi.c **** 				// Prepare for the initial IDENTIFY message.
1163:..\..\src/scsi.c **** 				SCSI_Out_Ctl_Write(0);
 3987              		.loc 1 1163 0
 3988 01ea 0020     		movs	r0, #0
 3989 01ec FFF7FEFF 		bl	SCSI_Out_Ctl_Write
1164:..\..\src/scsi.c **** 				scsiEnterPhase(MESSAGE_IN);
 3990              		.loc 1 1164 0
 3991 01f0 0720     		movs	r0, #7
 3992 01f2 FFF7FEFF 		bl	scsiEnterPhase
1165:..\..\src/scsi.c **** 
1166:..\..\src/scsi.c **** 				// Send identify command
1167:..\..\src/scsi.c **** 				scsiWriteByte(0x80);
 3993              		.loc 1 1167 0
 3994 01f6 8020     		movs	r0, #128
ARM GAS  C:\Users\r\AppData\Local\Temp\ccbXJ1Li.s 			page 93


 3995 01f8 FFF7FEFF 		bl	scsiWriteByte
1168:..\..\src/scsi.c **** 
1169:..\..\src/scsi.c **** 				scsiEnterPhase(scsiDev.phase);
 3996              		.loc 1 1169 0
 3997 01fc 0E4B     		ldr	r3, .L246
 3998 01fe D3F87831 		ldr	r3, [r3, #376]
 3999 0202 1846     		mov	r0, r3
 4000 0204 FFF7FEFF 		bl	scsiEnterPhase
1170:..\..\src/scsi.c **** 				reconnected = 1;
 4001              		.loc 1 1170 0
 4002 0208 0123     		movs	r3, #1
 4003 020a 7B61     		str	r3, [r7, #20]
 4004 020c 0FE0     		b	.L238
 4005              	.L244:
1171:..\..\src/scsi.c **** 			}
1172:..\..\src/scsi.c **** 			else
1173:..\..\src/scsi.c **** 			{
1174:..\..\src/scsi.c **** 				// reselect timeout.
1175:..\..\src/scsi.c **** 				SCSI_Out_Ctl_Write(0);
 4006              		.loc 1 1175 0
 4007 020e 0020     		movs	r0, #0
 4008 0210 FFF7FEFF 		bl	SCSI_Out_Ctl_Write
1176:..\..\src/scsi.c **** 				SCSI_ClearPin(SCSI_Out_SEL);
 4009              		.loc 1 1176 0
 4010 0214 0A4A     		ldr	r2, .L246+8
 4011 0216 0A4B     		ldr	r3, .L246+8
 4012 0218 1B78     		ldrb	r3, [r3]
 4013 021a DBB2     		uxtb	r3, r3
 4014 021c 23F00103 		bic	r3, r3, #1
 4015 0220 DBB2     		uxtb	r3, r3
 4016 0222 1370     		strb	r3, [r2]
1177:..\..\src/scsi.c **** 				SCSI_CTL_PHASE_Write(0);
 4017              		.loc 1 1177 0
 4018 0224 0020     		movs	r0, #0
 4019 0226 FFF7FEFF 		bl	SCSI_CTL_PHASE_Write
1178:..\..\src/scsi.c **** 				ledOff();
 4020              		.loc 1 1178 0
 4021 022a FFF7FEFF 		bl	ledOff
 4022              	.L238:
 4023              	.LBE11:
 4024              	.LBE10:
1179:..\..\src/scsi.c **** 			}
1180:..\..\src/scsi.c **** 		}
1181:..\..\src/scsi.c **** 	}
1182:..\..\src/scsi.c **** 	return reconnected;
 4025              		.loc 1 1182 0
 4026 022e 7B69     		ldr	r3, [r7, #20]
1183:..\..\src/scsi.c **** }
 4027              		.loc 1 1183 0
 4028 0230 1846     		mov	r0, r3
 4029 0232 1837     		adds	r7, r7, #24
 4030              		.cfi_def_cfa_offset 8
 4031 0234 BD46     		mov	sp, r7
 4032              		.cfi_def_cfa_register 13
 4033              		@ sp needed
 4034 0236 80BD     		pop	{r7, pc}
 4035              	.L247:
ARM GAS  C:\Users\r\AppData\Local\Temp\ccbXJ1Li.s 			page 94


 4036              		.align	2
 4037              	.L246:
 4038 0238 00000000 		.word	scsiDev
 4039 023c 31500040 		.word	1073762353
 4040 0240 07500040 		.word	1073762311
 4041              		.cfi_endproc
 4042              	.LFE82:
 4043              		.size	scsiReconnect, .-scsiReconnect
 4044              		.section	.rodata
 4045              		.align	2
 4046              		.type	WDTR.7238, %object
 4047              		.size	WDTR.7238, 4
 4048              	WDTR.7238:
 4049 0008 01       		.byte	1
 4050 0009 02       		.byte	2
 4051 000a 03       		.byte	3
 4052 000b 00       		.byte	0
 4053              		.align	2
 4054              		.type	SDTR.7239, %object
 4055              		.size	SDTR.7239, 5
 4056              	SDTR.7239:
 4057 000c 01       		.byte	1
 4058 000d 03       		.byte	3
 4059 000e 01       		.byte	1
 4060 000f 00       		.byte	0
 4061 0010 00       		.byte	0
 4062              		.text
 4063              	.Letext0:
 4064              		.file 2 "c:\\program files (x86)\\cypress\\psoc creator\\4.2\\psoc creator\\import\\gnu\\arm\\5.4.
 4065              		.file 3 "c:\\program files (x86)\\cypress\\psoc creator\\4.2\\psoc creator\\import\\gnu\\arm\\5.4.
 4066              		.file 4 "Generated_Source\\PSoC5/cytypes.h"
 4067              		.file 5 "../../../include/scsi2sd.h"
 4068              		.file 6 "..\\..\\src\\sense.h"
 4069              		.file 7 "..\\..\\src\\scsi.h"
 4070              		.file 8 "..\\..\\src\\disk.h"
 4071              		.file 9 "Generated_Source\\PSoC5/core_cm3.h"
 4072              		.file 10 "..\\..\\src\\bits.h"
 4073              		.file 11 "..\\..\\src\\scsiPhy.h"