ARM GAS  C:\Users\r\AppData\Local\Temp\ccqe305w.s 			page 1


   1              		.syntax unified
   2              		.cpu cortex-m3
   3              		.fpu softvfp
   4              		.eabi_attribute 20, 1
   5              		.eabi_attribute 21, 1
   6              		.eabi_attribute 23, 3
   7              		.eabi_attribute 24, 1
   8              		.eabi_attribute 25, 1
   9              		.eabi_attribute 26, 1
  10              		.eabi_attribute 30, 6
  11              		.eabi_attribute 34, 1
  12              		.eabi_attribute 18, 4
  13              		.thumb
  14              		.syntax unified
  15              		.file	"scsiPhy.c"
  16              		.text
  17              	.Ltext0:
  18              		.cfi_sections	.debug_frame
  19              		.bss
  20              		.align	2
  21              	dmaInProgress:
  22 0000 00000000 		.space	4
  23              		.align	2
  24              	dmaBuffer:
  25 0004 00000000 		.space	4
  26              		.align	2
  27              	dmaSentCount:
  28 0008 00000000 		.space	4
  29              		.align	2
  30              	dmaTotalCount:
  31 000c 00000000 		.space	4
  32              		.data
  33              		.type	scsiDmaRxChan, %object
  34              		.size	scsiDmaRxChan, 1
  35              	scsiDmaRxChan:
  36 0000 FF       		.byte	-1
  37              		.type	scsiDmaTxChan, %object
  38              		.size	scsiDmaTxChan, 1
  39              	scsiDmaTxChan:
  40 0001 FF       		.byte	-1
  41 0002 0000     		.align	2
  42              		.type	scsiDmaRxTd, %object
  43              		.size	scsiDmaRxTd, 1
  44              	scsiDmaRxTd:
  45 0004 FF       		.byte	-1
  46 0005 000000   		.align	2
  47              		.type	scsiDmaTxTd, %object
  48              		.size	scsiDmaTxTd, 1
  49              	scsiDmaTxTd:
  50 0008 FF       		.byte	-1
  51              		.type	dummyBuffer, %object
  52              		.size	dummyBuffer, 1
  53              	dummyBuffer:
  54 0009 FF       		.byte	-1
  55              		.comm	scsiRxDMAComplete,1,1
  56              		.comm	scsiTxDMAComplete,1,1
  57              		.section	.text.scsiRxCompleteISR,"ax",%progbits
ARM GAS  C:\Users\r\AppData\Local\Temp\ccqe305w.s 			page 2


  58              		.align	2
  59              		.global	scsiRxCompleteISR
  60              		.thumb
  61              		.thumb_func
  62              		.type	scsiRxCompleteISR, %function
  63              	scsiRxCompleteISR:
  64              	.LFB64:
  65              		.file 1 "..\\..\\src\\scsiPhy.c"
   1:..\..\src/scsiPhy.c **** //	Copyright (C) 2013 Michael McMaster <michael@codesrc.com>
   2:..\..\src/scsiPhy.c **** //
   3:..\..\src/scsiPhy.c **** //	This file is part of SCSI2SD.
   4:..\..\src/scsiPhy.c **** //
   5:..\..\src/scsiPhy.c **** //	SCSI2SD is free software: you can redistribute it and/or modify
   6:..\..\src/scsiPhy.c **** //	it under the terms of the GNU General Public License as published by
   7:..\..\src/scsiPhy.c **** //	the Free Software Foundation, either version 3 of the License, or
   8:..\..\src/scsiPhy.c **** //	(at your option) any later version.
   9:..\..\src/scsiPhy.c **** //
  10:..\..\src/scsiPhy.c **** //	SCSI2SD is distributed in the hope that it will be useful,
  11:..\..\src/scsiPhy.c **** //	but WITHOUT ANY WARRANTY; without even the implied warranty of
  12:..\..\src/scsiPhy.c **** //	MERCHANTABILITY or FITNESS FOR A PARTICULAR PURPOSE.  See the
  13:..\..\src/scsiPhy.c **** //	GNU General Public License for more details.
  14:..\..\src/scsiPhy.c **** //
  15:..\..\src/scsiPhy.c **** //	You should have received a copy of the GNU General Public License
  16:..\..\src/scsiPhy.c **** //	along with SCSI2SD.  If not, see <http://www.gnu.org/licenses/>.
  17:..\..\src/scsiPhy.c **** #include "device.h"
  18:..\..\src/scsiPhy.c **** #include "scsi.h"
  19:..\..\src/scsiPhy.c **** #include "scsiPhy.h"
  20:..\..\src/scsiPhy.c **** #include "bits.h"
  21:..\..\src/scsiPhy.c **** #include "trace.h"
  22:..\..\src/scsiPhy.c **** 
  23:..\..\src/scsiPhy.c **** #define scsiTarget_AUX_CTL (* (reg8 *) scsiTarget_datapath__DP_AUX_CTL_REG)
  24:..\..\src/scsiPhy.c **** 
  25:..\..\src/scsiPhy.c **** // DMA controller can't handle any more than 4095 bytes,
  26:..\..\src/scsiPhy.c **** // but we round down to nearest multiple of 4 bytes..
  27:..\..\src/scsiPhy.c **** #define MAX_DMA_BYTES 4088
  28:..\..\src/scsiPhy.c **** 
  29:..\..\src/scsiPhy.c **** // Private DMA variables.
  30:..\..\src/scsiPhy.c **** static int dmaInProgress = 0;
  31:..\..\src/scsiPhy.c **** // used when transferring > MAX_DMA_BYTES.
  32:..\..\src/scsiPhy.c **** static uint8_t* dmaBuffer = NULL;
  33:..\..\src/scsiPhy.c **** static uint32_t dmaSentCount = 0;
  34:..\..\src/scsiPhy.c **** static uint32_t dmaTotalCount = 0;
  35:..\..\src/scsiPhy.c **** 
  36:..\..\src/scsiPhy.c **** static uint8 scsiDmaRxChan = CY_DMA_INVALID_CHANNEL;
  37:..\..\src/scsiPhy.c **** static uint8 scsiDmaTxChan = CY_DMA_INVALID_CHANNEL;
  38:..\..\src/scsiPhy.c **** 
  39:..\..\src/scsiPhy.c **** // DMA descriptors
  40:..\..\src/scsiPhy.c **** static uint8 scsiDmaRxTd[1] = { CY_DMA_INVALID_TD };
  41:..\..\src/scsiPhy.c **** static uint8 scsiDmaTxTd[1] = { CY_DMA_INVALID_TD };
  42:..\..\src/scsiPhy.c **** 
  43:..\..\src/scsiPhy.c **** // Source of dummy bytes for DMA reads
  44:..\..\src/scsiPhy.c **** static uint8 dummyBuffer = 0xFF;
  45:..\..\src/scsiPhy.c **** 
  46:..\..\src/scsiPhy.c **** volatile uint8_t scsiRxDMAComplete;
  47:..\..\src/scsiPhy.c **** volatile uint8_t scsiTxDMAComplete;
  48:..\..\src/scsiPhy.c **** 
  49:..\..\src/scsiPhy.c **** CY_ISR_PROTO(scsiRxCompleteISR);
ARM GAS  C:\Users\r\AppData\Local\Temp\ccqe305w.s 			page 3


  50:..\..\src/scsiPhy.c **** CY_ISR(scsiRxCompleteISR)
  51:..\..\src/scsiPhy.c **** {
  66              		.loc 1 51 0
  67              		.cfi_startproc
  68              		@ args = 0, pretend = 0, frame = 0
  69              		@ frame_needed = 1, uses_anonymous_args = 0
  70              		@ link register save eliminated.
  71 0000 80B4     		push	{r7}
  72              		.cfi_def_cfa_offset 4
  73              		.cfi_offset 7, -4
  74 0002 00AF     		add	r7, sp, #0
  75              		.cfi_def_cfa_register 7
  52:..\..\src/scsiPhy.c **** 	traceIrq(trace_scsiRxCompleteISR);
  76              		.loc 1 52 0
  77 0004 044B     		ldr	r3, .L2
  78 0006 5022     		movs	r2, #80
  79 0008 1A70     		strb	r2, [r3]
  53:..\..\src/scsiPhy.c **** 	scsiRxDMAComplete = 1;
  80              		.loc 1 53 0
  81 000a 044B     		ldr	r3, .L2+4
  82 000c 0122     		movs	r2, #1
  83 000e 1A70     		strb	r2, [r3]
  54:..\..\src/scsiPhy.c **** }
  84              		.loc 1 54 0
  85 0010 00BF     		nop
  86 0012 BD46     		mov	sp, r7
  87              		.cfi_def_cfa_register 13
  88              		@ sp needed
  89 0014 80BC     		pop	{r7}
  90              		.cfi_restore 7
  91              		.cfi_def_cfa_offset 0
  92 0016 7047     		bx	lr
  93              	.L3:
  94              		.align	2
  95              	.L2:
  96 0018 00000000 		.word	LastTrace
  97 001c 00000000 		.word	scsiRxDMAComplete
  98              		.cfi_endproc
  99              	.LFE64:
 100              		.size	scsiRxCompleteISR, .-scsiRxCompleteISR
 101              		.section	.text.scsiTxCompleteISR,"ax",%progbits
 102              		.align	2
 103              		.global	scsiTxCompleteISR
 104              		.thumb
 105              		.thumb_func
 106              		.type	scsiTxCompleteISR, %function
 107              	scsiTxCompleteISR:
 108              	.LFB65:
  55:..\..\src/scsiPhy.c **** 
  56:..\..\src/scsiPhy.c **** CY_ISR_PROTO(scsiTxCompleteISR);
  57:..\..\src/scsiPhy.c **** CY_ISR(scsiTxCompleteISR)
  58:..\..\src/scsiPhy.c **** {
 109              		.loc 1 58 0
 110              		.cfi_startproc
 111              		@ args = 0, pretend = 0, frame = 0
 112              		@ frame_needed = 1, uses_anonymous_args = 0
 113              		@ link register save eliminated.
ARM GAS  C:\Users\r\AppData\Local\Temp\ccqe305w.s 			page 4


 114 0000 80B4     		push	{r7}
 115              		.cfi_def_cfa_offset 4
 116              		.cfi_offset 7, -4
 117 0002 00AF     		add	r7, sp, #0
 118              		.cfi_def_cfa_register 7
  59:..\..\src/scsiPhy.c **** 	traceIrq(trace_scsiTxCompleteISR);
 119              		.loc 1 59 0
 120 0004 044B     		ldr	r3, .L5
 121 0006 5122     		movs	r2, #81
 122 0008 1A70     		strb	r2, [r3]
  60:..\..\src/scsiPhy.c **** 	scsiTxDMAComplete = 1;
 123              		.loc 1 60 0
 124 000a 044B     		ldr	r3, .L5+4
 125 000c 0122     		movs	r2, #1
 126 000e 1A70     		strb	r2, [r3]
  61:..\..\src/scsiPhy.c **** }
 127              		.loc 1 61 0
 128 0010 00BF     		nop
 129 0012 BD46     		mov	sp, r7
 130              		.cfi_def_cfa_register 13
 131              		@ sp needed
 132 0014 80BC     		pop	{r7}
 133              		.cfi_restore 7
 134              		.cfi_def_cfa_offset 0
 135 0016 7047     		bx	lr
 136              	.L6:
 137              		.align	2
 138              	.L5:
 139 0018 00000000 		.word	LastTrace
 140 001c 00000000 		.word	scsiTxDMAComplete
 141              		.cfi_endproc
 142              	.LFE65:
 143              		.size	scsiTxCompleteISR, .-scsiTxCompleteISR
 144              		.section	.text.scsiResetISR,"ax",%progbits
 145              		.align	2
 146              		.global	scsiResetISR
 147              		.thumb
 148              		.thumb_func
 149              		.type	scsiResetISR, %function
 150              	scsiResetISR:
 151              	.LFB66:
  62:..\..\src/scsiPhy.c **** 
  63:..\..\src/scsiPhy.c **** CY_ISR_PROTO(scsiResetISR);
  64:..\..\src/scsiPhy.c **** CY_ISR(scsiResetISR)
  65:..\..\src/scsiPhy.c **** {
 152              		.loc 1 65 0
 153              		.cfi_startproc
 154              		@ args = 0, pretend = 0, frame = 0
 155              		@ frame_needed = 1, uses_anonymous_args = 0
 156              		@ link register save eliminated.
 157 0000 80B4     		push	{r7}
 158              		.cfi_def_cfa_offset 4
 159              		.cfi_offset 7, -4
 160 0002 00AF     		add	r7, sp, #0
 161              		.cfi_def_cfa_register 7
  66:..\..\src/scsiPhy.c **** 	traceIrq(trace_scsiResetISR);
 162              		.loc 1 66 0
ARM GAS  C:\Users\r\AppData\Local\Temp\ccqe305w.s 			page 5


 163 0004 054B     		ldr	r3, .L8
 164 0006 5222     		movs	r2, #82
 165 0008 1A70     		strb	r2, [r3]
  67:..\..\src/scsiPhy.c **** 	scsiDev.resetFlag = 1;
 166              		.loc 1 67 0
 167 000a 054B     		ldr	r3, .L8+4
 168 000c 0122     		movs	r2, #1
 169 000e C3F86821 		str	r2, [r3, #360]
  68:..\..\src/scsiPhy.c **** }
 170              		.loc 1 68 0
 171 0012 00BF     		nop
 172 0014 BD46     		mov	sp, r7
 173              		.cfi_def_cfa_register 13
 174              		@ sp needed
 175 0016 80BC     		pop	{r7}
 176              		.cfi_restore 7
 177              		.cfi_def_cfa_offset 0
 178 0018 7047     		bx	lr
 179              	.L9:
 180 001a 00BF     		.align	2
 181              	.L8:
 182 001c 00000000 		.word	LastTrace
 183 0020 00000000 		.word	scsiDev
 184              		.cfi_endproc
 185              	.LFE66:
 186              		.size	scsiResetISR, .-scsiResetISR
 187              		.section	.text.scsiSelectionISR,"ax",%progbits
 188              		.align	2
 189              		.global	scsiSelectionISR
 190              		.thumb
 191              		.thumb_func
 192              		.type	scsiSelectionISR, %function
 193              	scsiSelectionISR:
 194              	.LFB67:
  69:..\..\src/scsiPhy.c **** 
  70:..\..\src/scsiPhy.c **** CY_ISR_PROTO(scsiSelectionISR);
  71:..\..\src/scsiPhy.c **** CY_ISR(scsiSelectionISR)
  72:..\..\src/scsiPhy.c **** {
 195              		.loc 1 72 0
 196              		.cfi_startproc
 197              		@ args = 0, pretend = 0, frame = 0
 198              		@ frame_needed = 1, uses_anonymous_args = 0
 199 0000 80B5     		push	{r7, lr}
 200              		.cfi_def_cfa_offset 8
 201              		.cfi_offset 7, -8
 202              		.cfi_offset 14, -4
 203 0002 00AF     		add	r7, sp, #0
 204              		.cfi_def_cfa_register 7
  73:..\..\src/scsiPhy.c **** 	// The SEL signal ISR ensures we wake up from a _WFI() (wait-for-interrupt)
  74:..\..\src/scsiPhy.c **** 	// call in the main loop without waiting for our 1ms timer to
  75:..\..\src/scsiPhy.c **** 	// expire. This is done to meet the 250us selection abort time.
  76:..\..\src/scsiPhy.c **** 	
  77:..\..\src/scsiPhy.c **** 	// selFlag is required for Philips P2000C which releases it after 600ns
  78:..\..\src/scsiPhy.c **** 	// without waiting for BSY.
  79:..\..\src/scsiPhy.c **** 	scsiDev.selFlag = 1;
 205              		.loc 1 79 0
 206 0004 064B     		ldr	r3, .L11
ARM GAS  C:\Users\r\AppData\Local\Temp\ccqe305w.s 			page 6


 207 0006 0122     		movs	r2, #1
 208 0008 C3F86C21 		str	r2, [r3, #364]
  80:..\..\src/scsiPhy.c **** 
  81:..\..\src/scsiPhy.c **** 	// Required for some early Mac Plus roms
  82:..\..\src/scsiPhy.c **** 	scsiDev.selDBX = scsiReadDBxPins();
 209              		.loc 1 82 0
 210 000c FFF7FEFF 		bl	scsiReadDBxPins
 211 0010 0346     		mov	r3, r0
 212 0012 1A46     		mov	r2, r3
 213 0014 024B     		ldr	r3, .L11
 214 0016 C3F87421 		str	r2, [r3, #372]
  83:..\..\src/scsiPhy.c **** }
 215              		.loc 1 83 0
 216 001a 00BF     		nop
 217 001c 80BD     		pop	{r7, pc}
 218              	.L12:
 219 001e 00BF     		.align	2
 220              	.L11:
 221 0020 00000000 		.word	scsiDev
 222              		.cfi_endproc
 223              	.LFE67:
 224              		.size	scsiSelectionISR, .-scsiSelectionISR
 225              		.section	.text.scsiReadDBxPins,"ax",%progbits
 226              		.align	2
 227              		.global	scsiReadDBxPins
 228              		.thumb
 229              		.thumb_func
 230              		.type	scsiReadDBxPins, %function
 231              	scsiReadDBxPins:
 232              	.LFB68:
  84:..\..\src/scsiPhy.c **** 
  85:..\..\src/scsiPhy.c **** uint8_t
  86:..\..\src/scsiPhy.c **** scsiReadDBxPins()
  87:..\..\src/scsiPhy.c **** {
 233              		.loc 1 87 0
 234              		.cfi_startproc
 235              		@ args = 0, pretend = 0, frame = 0
 236              		@ frame_needed = 1, uses_anonymous_args = 0
 237              		@ link register save eliminated.
 238 0000 80B4     		push	{r7}
 239              		.cfi_def_cfa_offset 4
 240              		.cfi_offset 7, -4
 241 0002 00AF     		add	r7, sp, #0
 242              		.cfi_def_cfa_register 7
  88:..\..\src/scsiPhy.c **** 	return
  89:..\..\src/scsiPhy.c **** 		(SCSI_ReadPin(SCSI_In_DBx_DB7) << 7) |
 243              		.loc 1 89 0
 244 0004 324B     		ldr	r3, .L29
 245 0006 1B78     		ldrb	r3, [r3]
 246 0008 DBB2     		uxtb	r3, r3
 247 000a 03F01003 		and	r3, r3, #16
 248 000e 002B     		cmp	r3, #0
 249 0010 02D1     		bne	.L14
 250              		.loc 1 89 0 is_stmt 0 discriminator 1
 251 0012 6FF07F02 		mvn	r2, #127
 252 0016 00E0     		b	.L15
 253              	.L14:
ARM GAS  C:\Users\r\AppData\Local\Temp\ccqe305w.s 			page 7


 254              		.loc 1 89 0 discriminator 2
 255 0018 0022     		movs	r2, #0
 256              	.L15:
  90:..\..\src/scsiPhy.c **** 		(SCSI_ReadPin(SCSI_In_DBx_DB6) << 6) |
 257              		.loc 1 90 0 is_stmt 1 discriminator 4
 258 001a 2E4B     		ldr	r3, .L29+4
 259 001c 1B78     		ldrb	r3, [r3]
 260 001e DBB2     		uxtb	r3, r3
 261 0020 03F01003 		and	r3, r3, #16
  89:..\..\src/scsiPhy.c **** 		(SCSI_ReadPin(SCSI_In_DBx_DB6) << 6) |
 262              		.loc 1 89 0 discriminator 4
 263 0024 002B     		cmp	r3, #0
 264 0026 01D1     		bne	.L16
  89:..\..\src/scsiPhy.c **** 		(SCSI_ReadPin(SCSI_In_DBx_DB6) << 6) |
 265              		.loc 1 89 0 is_stmt 0 discriminator 5
 266 0028 4023     		movs	r3, #64
 267 002a 00E0     		b	.L17
 268              	.L16:
  89:..\..\src/scsiPhy.c **** 		(SCSI_ReadPin(SCSI_In_DBx_DB6) << 6) |
 269              		.loc 1 89 0 discriminator 6
 270 002c 0023     		movs	r3, #0
 271              	.L17:
  89:..\..\src/scsiPhy.c **** 		(SCSI_ReadPin(SCSI_In_DBx_DB6) << 6) |
 272              		.loc 1 89 0 discriminator 8
 273 002e 1343     		orrs	r3, r3, r2
 274 0030 5AB2     		sxtb	r2, r3
  91:..\..\src/scsiPhy.c **** 		(SCSI_ReadPin(SCSI_In_DBx_DB5) << 5) |
 275              		.loc 1 91 0 is_stmt 1 discriminator 8
 276 0032 294B     		ldr	r3, .L29+8
 277 0034 1B78     		ldrb	r3, [r3]
 278 0036 DBB2     		uxtb	r3, r3
 279 0038 03F01003 		and	r3, r3, #16
  89:..\..\src/scsiPhy.c **** 		(SCSI_ReadPin(SCSI_In_DBx_DB6) << 6) |
 280              		.loc 1 89 0 discriminator 8
 281 003c 002B     		cmp	r3, #0
 282 003e 01D1     		bne	.L18
  89:..\..\src/scsiPhy.c **** 		(SCSI_ReadPin(SCSI_In_DBx_DB6) << 6) |
 283              		.loc 1 89 0 is_stmt 0 discriminator 9
 284 0040 2023     		movs	r3, #32
 285 0042 00E0     		b	.L19
 286              	.L18:
  89:..\..\src/scsiPhy.c **** 		(SCSI_ReadPin(SCSI_In_DBx_DB6) << 6) |
 287              		.loc 1 89 0 discriminator 10
 288 0044 0023     		movs	r3, #0
 289              	.L19:
  89:..\..\src/scsiPhy.c **** 		(SCSI_ReadPin(SCSI_In_DBx_DB6) << 6) |
 290              		.loc 1 89 0 discriminator 12
 291 0046 1343     		orrs	r3, r3, r2
 292 0048 5AB2     		sxtb	r2, r3
  92:..\..\src/scsiPhy.c **** 		(SCSI_ReadPin(SCSI_In_DBx_DB4) << 4) |
 293              		.loc 1 92 0 is_stmt 1 discriminator 12
 294 004a 244B     		ldr	r3, .L29+12
 295 004c 1B78     		ldrb	r3, [r3]
 296 004e DBB2     		uxtb	r3, r3
 297 0050 03F01003 		and	r3, r3, #16
  89:..\..\src/scsiPhy.c **** 		(SCSI_ReadPin(SCSI_In_DBx_DB6) << 6) |
 298              		.loc 1 89 0 discriminator 12
ARM GAS  C:\Users\r\AppData\Local\Temp\ccqe305w.s 			page 8


 299 0054 002B     		cmp	r3, #0
 300 0056 01D1     		bne	.L20
  89:..\..\src/scsiPhy.c **** 		(SCSI_ReadPin(SCSI_In_DBx_DB6) << 6) |
 301              		.loc 1 89 0 is_stmt 0 discriminator 13
 302 0058 1023     		movs	r3, #16
 303 005a 00E0     		b	.L21
 304              	.L20:
  89:..\..\src/scsiPhy.c **** 		(SCSI_ReadPin(SCSI_In_DBx_DB6) << 6) |
 305              		.loc 1 89 0 discriminator 14
 306 005c 0023     		movs	r3, #0
 307              	.L21:
  89:..\..\src/scsiPhy.c **** 		(SCSI_ReadPin(SCSI_In_DBx_DB6) << 6) |
 308              		.loc 1 89 0 discriminator 16
 309 005e 1343     		orrs	r3, r3, r2
 310 0060 5AB2     		sxtb	r2, r3
  93:..\..\src/scsiPhy.c **** 		(SCSI_ReadPin(SCSI_In_DBx_DB3) << 3) |
 311              		.loc 1 93 0 is_stmt 1 discriminator 16
 312 0062 1F4B     		ldr	r3, .L29+16
 313 0064 1B78     		ldrb	r3, [r3]
 314 0066 DBB2     		uxtb	r3, r3
 315 0068 03F01003 		and	r3, r3, #16
  89:..\..\src/scsiPhy.c **** 		(SCSI_ReadPin(SCSI_In_DBx_DB6) << 6) |
 316              		.loc 1 89 0 discriminator 16
 317 006c 002B     		cmp	r3, #0
 318 006e 01D1     		bne	.L22
  89:..\..\src/scsiPhy.c **** 		(SCSI_ReadPin(SCSI_In_DBx_DB6) << 6) |
 319              		.loc 1 89 0 is_stmt 0 discriminator 17
 320 0070 0823     		movs	r3, #8
 321 0072 00E0     		b	.L23
 322              	.L22:
  89:..\..\src/scsiPhy.c **** 		(SCSI_ReadPin(SCSI_In_DBx_DB6) << 6) |
 323              		.loc 1 89 0 discriminator 18
 324 0074 0023     		movs	r3, #0
 325              	.L23:
  89:..\..\src/scsiPhy.c **** 		(SCSI_ReadPin(SCSI_In_DBx_DB6) << 6) |
 326              		.loc 1 89 0 discriminator 20
 327 0076 1343     		orrs	r3, r3, r2
 328 0078 5AB2     		sxtb	r2, r3
  94:..\..\src/scsiPhy.c **** 		(SCSI_ReadPin(SCSI_In_DBx_DB2) << 2) |
 329              		.loc 1 94 0 is_stmt 1 discriminator 20
 330 007a 1A4B     		ldr	r3, .L29+20
 331 007c 1B78     		ldrb	r3, [r3]
 332 007e DBB2     		uxtb	r3, r3
 333 0080 03F01003 		and	r3, r3, #16
  89:..\..\src/scsiPhy.c **** 		(SCSI_ReadPin(SCSI_In_DBx_DB6) << 6) |
 334              		.loc 1 89 0 discriminator 20
 335 0084 002B     		cmp	r3, #0
 336 0086 01D1     		bne	.L24
  89:..\..\src/scsiPhy.c **** 		(SCSI_ReadPin(SCSI_In_DBx_DB6) << 6) |
 337              		.loc 1 89 0 is_stmt 0 discriminator 21
 338 0088 0423     		movs	r3, #4
 339 008a 00E0     		b	.L25
 340              	.L24:
  89:..\..\src/scsiPhy.c **** 		(SCSI_ReadPin(SCSI_In_DBx_DB6) << 6) |
 341              		.loc 1 89 0 discriminator 22
 342 008c 0023     		movs	r3, #0
 343              	.L25:
ARM GAS  C:\Users\r\AppData\Local\Temp\ccqe305w.s 			page 9


  89:..\..\src/scsiPhy.c **** 		(SCSI_ReadPin(SCSI_In_DBx_DB6) << 6) |
 344              		.loc 1 89 0 discriminator 24
 345 008e 1343     		orrs	r3, r3, r2
 346 0090 5AB2     		sxtb	r2, r3
  95:..\..\src/scsiPhy.c **** 		(SCSI_ReadPin(SCSI_In_DBx_DB1) << 1) |
 347              		.loc 1 95 0 is_stmt 1 discriminator 24
 348 0092 154B     		ldr	r3, .L29+24
 349 0094 1B78     		ldrb	r3, [r3]
 350 0096 DBB2     		uxtb	r3, r3
 351 0098 03F01003 		and	r3, r3, #16
  89:..\..\src/scsiPhy.c **** 		(SCSI_ReadPin(SCSI_In_DBx_DB6) << 6) |
 352              		.loc 1 89 0 discriminator 24
 353 009c 002B     		cmp	r3, #0
 354 009e 01D1     		bne	.L26
  89:..\..\src/scsiPhy.c **** 		(SCSI_ReadPin(SCSI_In_DBx_DB6) << 6) |
 355              		.loc 1 89 0 is_stmt 0 discriminator 25
 356 00a0 0223     		movs	r3, #2
 357 00a2 00E0     		b	.L27
 358              	.L26:
  89:..\..\src/scsiPhy.c **** 		(SCSI_ReadPin(SCSI_In_DBx_DB6) << 6) |
 359              		.loc 1 89 0 discriminator 26
 360 00a4 0023     		movs	r3, #0
 361              	.L27:
  89:..\..\src/scsiPhy.c **** 		(SCSI_ReadPin(SCSI_In_DBx_DB6) << 6) |
 362              		.loc 1 89 0 discriminator 28
 363 00a6 1343     		orrs	r3, r3, r2
 364 00a8 5AB2     		sxtb	r2, r3
  96:..\..\src/scsiPhy.c **** 		SCSI_ReadPin(SCSI_In_DBx_DB0);
 365              		.loc 1 96 0 is_stmt 1 discriminator 28
 366 00aa 104B     		ldr	r3, .L29+28
 367 00ac 1B78     		ldrb	r3, [r3]
 368 00ae DBB2     		uxtb	r3, r3
 369 00b0 03F01003 		and	r3, r3, #16
 370 00b4 002B     		cmp	r3, #0
 371 00b6 0CBF     		ite	eq
 372 00b8 0123     		moveq	r3, #1
 373 00ba 0023     		movne	r3, #0
 374 00bc DBB2     		uxtb	r3, r3
 375 00be 5BB2     		sxtb	r3, r3
  89:..\..\src/scsiPhy.c **** 		(SCSI_ReadPin(SCSI_In_DBx_DB6) << 6) |
 376              		.loc 1 89 0 discriminator 28
 377 00c0 1343     		orrs	r3, r3, r2
 378 00c2 5BB2     		sxtb	r3, r3
 379 00c4 DBB2     		uxtb	r3, r3
  97:..\..\src/scsiPhy.c **** }
 380              		.loc 1 97 0 discriminator 28
 381 00c6 1846     		mov	r0, r3
 382 00c8 BD46     		mov	sp, r7
 383              		.cfi_def_cfa_register 13
 384              		@ sp needed
 385 00ca 80BC     		pop	{r7}
 386              		.cfi_restore 7
 387              		.cfi_def_cfa_offset 0
 388 00cc 7047     		bx	lr
 389              	.L30:
 390 00ce 00BF     		.align	2
 391              	.L29:
ARM GAS  C:\Users\r\AppData\Local\Temp\ccqe305w.s 			page 10


 392 00d0 14500040 		.word	1073762324
 393 00d4 15500040 		.word	1073762325
 394 00d8 64500040 		.word	1073762404
 395 00dc 65500040 		.word	1073762405
 396 00e0 36500040 		.word	1073762358
 397 00e4 37500040 		.word	1073762359
 398 00e8 2A500040 		.word	1073762346
 399 00ec 2B500040 		.word	1073762347
 400              		.cfi_endproc
 401              	.LFE68:
 402              		.size	scsiReadDBxPins, .-scsiReadDBxPins
 403              		.section	.text.scsiReadByte,"ax",%progbits
 404              		.align	2
 405              		.global	scsiReadByte
 406              		.thumb
 407              		.thumb_func
 408              		.type	scsiReadByte, %function
 409              	scsiReadByte:
 410              	.LFB69:
  98:..\..\src/scsiPhy.c **** 
  99:..\..\src/scsiPhy.c **** uint8_t
 100:..\..\src/scsiPhy.c **** scsiReadByte(void)
 101:..\..\src/scsiPhy.c **** {
 411              		.loc 1 101 0
 412              		.cfi_startproc
 413              		@ args = 0, pretend = 0, frame = 8
 414              		@ frame_needed = 1, uses_anonymous_args = 0
 415 0000 80B5     		push	{r7, lr}
 416              		.cfi_def_cfa_offset 8
 417              		.cfi_offset 7, -8
 418              		.cfi_offset 14, -4
 419 0002 82B0     		sub	sp, sp, #8
 420              		.cfi_def_cfa_offset 16
 421 0004 00AF     		add	r7, sp, #0
 422              		.cfi_def_cfa_register 7
 102:..\..\src/scsiPhy.c **** 	trace(trace_spinPhyTxFifo);
 423              		.loc 1 102 0
 424 0006 254B     		ldr	r3, .L40
 425 0008 2322     		movs	r2, #35
 426 000a 1A70     		strb	r2, [r3]
 103:..\..\src/scsiPhy.c **** 	while (unlikely(scsiPhyTxFifoFull()) && likely(!scsiDev.resetFlag)) {}
 427              		.loc 1 103 0
 428 000c 00BF     		nop
 429              	.L33:
 430              		.loc 1 103 0 is_stmt 0 discriminator 2
 431 000e 244B     		ldr	r3, .L40+4
 432 0010 1B78     		ldrb	r3, [r3]
 433 0012 DBB2     		uxtb	r3, r3
 434 0014 03F00103 		and	r3, r3, #1
 435 0018 002B     		cmp	r3, #0
 436 001a 0CBF     		ite	eq
 437 001c 0123     		moveq	r3, #1
 438 001e 0023     		movne	r3, #0
 439 0020 DBB2     		uxtb	r3, r3
 440 0022 002B     		cmp	r3, #0
 441 0024 09D0     		beq	.L32
 442              		.loc 1 103 0 discriminator 1
ARM GAS  C:\Users\r\AppData\Local\Temp\ccqe305w.s 			page 11


 443 0026 1F4B     		ldr	r3, .L40+8
 444 0028 D3F86831 		ldr	r3, [r3, #360]
 445 002c 002B     		cmp	r3, #0
 446 002e 0CBF     		ite	eq
 447 0030 0123     		moveq	r3, #1
 448 0032 0023     		movne	r3, #0
 449 0034 DBB2     		uxtb	r3, r3
 450 0036 002B     		cmp	r3, #0
 451 0038 E9D1     		bne	.L33
 452              	.L32:
 104:..\..\src/scsiPhy.c **** 	scsiPhyTx(0);
 453              		.loc 1 104 0 is_stmt 1
 454 003a 1B4B     		ldr	r3, .L40+12
 455 003c 0022     		movs	r2, #0
 456 003e 1A70     		strb	r2, [r3]
 105:..\..\src/scsiPhy.c **** 
 106:..\..\src/scsiPhy.c **** 	trace(trace_spinPhyRxFifo);
 457              		.loc 1 106 0
 458 0040 164B     		ldr	r3, .L40
 459 0042 2422     		movs	r2, #36
 460 0044 1A70     		strb	r2, [r3]
 107:..\..\src/scsiPhy.c **** 	while (scsiPhyRxFifoEmpty() && likely(!scsiDev.resetFlag)) {}
 461              		.loc 1 107 0
 462 0046 00BF     		nop
 463              	.L35:
 464              		.loc 1 107 0 is_stmt 0 discriminator 2
 465 0048 154B     		ldr	r3, .L40+4
 466 004a 1B78     		ldrb	r3, [r3]
 467 004c DBB2     		uxtb	r3, r3
 468 004e 03F00203 		and	r3, r3, #2
 469 0052 002B     		cmp	r3, #0
 470 0054 09D1     		bne	.L34
 471              		.loc 1 107 0 discriminator 1
 472 0056 134B     		ldr	r3, .L40+8
 473 0058 D3F86831 		ldr	r3, [r3, #360]
 474 005c 002B     		cmp	r3, #0
 475 005e 0CBF     		ite	eq
 476 0060 0123     		moveq	r3, #1
 477 0062 0023     		movne	r3, #0
 478 0064 DBB2     		uxtb	r3, r3
 479 0066 002B     		cmp	r3, #0
 480 0068 EED1     		bne	.L35
 481              	.L34:
 108:..\..\src/scsiPhy.c **** 	uint8_t val = scsiPhyRx();
 482              		.loc 1 108 0 is_stmt 1
 483 006a 104B     		ldr	r3, .L40+16
 484 006c 1B78     		ldrb	r3, [r3]
 485 006e FB71     		strb	r3, [r7, #7]
 109:..\..\src/scsiPhy.c **** 	scsiDev.parityError = scsiDev.parityError || SCSI_Parity_Error_Read();
 486              		.loc 1 109 0
 487 0070 0C4B     		ldr	r3, .L40+8
 488 0072 D3F87031 		ldr	r3, [r3, #368]
 489 0076 002B     		cmp	r3, #0
 490 0078 04D1     		bne	.L36
 491              		.loc 1 109 0 is_stmt 0 discriminator 2
 492 007a FFF7FEFF 		bl	SCSI_Parity_Error_Read
 493 007e 0346     		mov	r3, r0
ARM GAS  C:\Users\r\AppData\Local\Temp\ccqe305w.s 			page 12


 494 0080 002B     		cmp	r3, #0
 495 0082 01D0     		beq	.L37
 496              	.L36:
 497              		.loc 1 109 0 discriminator 3
 498 0084 0123     		movs	r3, #1
 499 0086 00E0     		b	.L38
 500              	.L37:
 501              		.loc 1 109 0 discriminator 4
 502 0088 0023     		movs	r3, #0
 503              	.L38:
 504              		.loc 1 109 0 discriminator 6
 505 008a 064A     		ldr	r2, .L40+8
 506 008c C2F87031 		str	r3, [r2, #368]
 110:..\..\src/scsiPhy.c **** 
 111:..\..\src/scsiPhy.c **** 	return val;
 507              		.loc 1 111 0 is_stmt 1 discriminator 6
 508 0090 FB79     		ldrb	r3, [r7, #7]	@ zero_extendqisi2
 112:..\..\src/scsiPhy.c **** }
 509              		.loc 1 112 0 discriminator 6
 510 0092 1846     		mov	r0, r3
 511 0094 0837     		adds	r7, r7, #8
 512              		.cfi_def_cfa_offset 8
 513 0096 BD46     		mov	sp, r7
 514              		.cfi_def_cfa_register 13
 515              		@ sp needed
 516 0098 80BD     		pop	{r7, pc}
 517              	.L41:
 518 009a 00BF     		.align	2
 519              	.L40:
 520 009c 00000000 		.word	LastTrace
 521 00a0 67640040 		.word	1073767527
 522 00a4 00000000 		.word	scsiDev
 523 00a8 40640040 		.word	1073767488
 524 00ac 50640040 		.word	1073767504
 525              		.cfi_endproc
 526              	.LFE69:
 527              		.size	scsiReadByte, .-scsiReadByte
 528              		.section	.text.scsiReadPIO,"ax",%progbits
 529              		.align	2
 530              		.thumb
 531              		.thumb_func
 532              		.type	scsiReadPIO, %function
 533              	scsiReadPIO:
 534              	.LFB70:
 113:..\..\src/scsiPhy.c **** 
 114:..\..\src/scsiPhy.c **** static void
 115:..\..\src/scsiPhy.c **** scsiReadPIO(uint8* data, uint32 count)
 116:..\..\src/scsiPhy.c **** {
 535              		.loc 1 116 0
 536              		.cfi_startproc
 537              		@ args = 0, pretend = 0, frame = 24
 538              		@ frame_needed = 1, uses_anonymous_args = 0
 539 0000 80B5     		push	{r7, lr}
 540              		.cfi_def_cfa_offset 8
 541              		.cfi_offset 7, -8
 542              		.cfi_offset 14, -4
 543 0002 86B0     		sub	sp, sp, #24
ARM GAS  C:\Users\r\AppData\Local\Temp\ccqe305w.s 			page 13


 544              		.cfi_def_cfa_offset 32
 545 0004 00AF     		add	r7, sp, #0
 546              		.cfi_def_cfa_register 7
 547 0006 7860     		str	r0, [r7, #4]
 548 0008 3960     		str	r1, [r7]
 117:..\..\src/scsiPhy.c **** 	int prep = 0;
 549              		.loc 1 117 0
 550 000a 0023     		movs	r3, #0
 551 000c 7B61     		str	r3, [r7, #20]
 118:..\..\src/scsiPhy.c **** 	int i = 0;
 552              		.loc 1 118 0
 553 000e 0023     		movs	r3, #0
 554 0010 3B61     		str	r3, [r7, #16]
 119:..\..\src/scsiPhy.c **** 
 120:..\..\src/scsiPhy.c **** 	while (i < count && likely(!scsiDev.resetFlag))
 555              		.loc 1 120 0
 556 0012 20E0     		b	.L43
 557              	.L46:
 558              	.LBB2:
 121:..\..\src/scsiPhy.c **** 	{
 122:..\..\src/scsiPhy.c **** 		uint8_t status = scsiPhyStatus();
 559              		.loc 1 122 0
 560 0014 214B     		ldr	r3, .L50
 561 0016 1B78     		ldrb	r3, [r3]
 562 0018 FB73     		strb	r3, [r7, #15]
 123:..\..\src/scsiPhy.c **** 
 124:..\..\src/scsiPhy.c **** 		if (prep < count && (status & SCSI_PHY_TX_FIFO_NOT_FULL))
 563              		.loc 1 124 0
 564 001a 7A69     		ldr	r2, [r7, #20]
 565 001c 3B68     		ldr	r3, [r7]
 566 001e 9A42     		cmp	r2, r3
 567 0020 0AD2     		bcs	.L44
 568              		.loc 1 124 0 is_stmt 0 discriminator 1
 569 0022 FB7B     		ldrb	r3, [r7, #15]	@ zero_extendqisi2
 570 0024 03F00103 		and	r3, r3, #1
 571 0028 002B     		cmp	r3, #0
 572 002a 05D0     		beq	.L44
 125:..\..\src/scsiPhy.c **** 		{
 126:..\..\src/scsiPhy.c **** 			scsiPhyTx(0);
 573              		.loc 1 126 0 is_stmt 1
 574 002c 1C4B     		ldr	r3, .L50+4
 575 002e 0022     		movs	r2, #0
 576 0030 1A70     		strb	r2, [r3]
 127:..\..\src/scsiPhy.c **** 			++prep;
 577              		.loc 1 127 0
 578 0032 7B69     		ldr	r3, [r7, #20]
 579 0034 0133     		adds	r3, r3, #1
 580 0036 7B61     		str	r3, [r7, #20]
 581              	.L44:
 128:..\..\src/scsiPhy.c **** 		}
 129:..\..\src/scsiPhy.c **** 		if (status & SCSI_PHY_RX_FIFO_NOT_EMPTY)
 582              		.loc 1 129 0
 583 0038 FB7B     		ldrb	r3, [r7, #15]	@ zero_extendqisi2
 584 003a 03F00203 		and	r3, r3, #2
 585 003e 002B     		cmp	r3, #0
 586 0040 09D0     		beq	.L43
 130:..\..\src/scsiPhy.c **** 		{
ARM GAS  C:\Users\r\AppData\Local\Temp\ccqe305w.s 			page 14


 131:..\..\src/scsiPhy.c **** 			data[i] = scsiPhyRx();
 587              		.loc 1 131 0
 588 0042 3B69     		ldr	r3, [r7, #16]
 589 0044 7A68     		ldr	r2, [r7, #4]
 590 0046 1344     		add	r3, r3, r2
 591 0048 164A     		ldr	r2, .L50+8
 592 004a 1278     		ldrb	r2, [r2]
 593 004c D2B2     		uxtb	r2, r2
 594 004e 1A70     		strb	r2, [r3]
 132:..\..\src/scsiPhy.c **** 			++i;
 595              		.loc 1 132 0
 596 0050 3B69     		ldr	r3, [r7, #16]
 597 0052 0133     		adds	r3, r3, #1
 598 0054 3B61     		str	r3, [r7, #16]
 599              	.L43:
 600              	.LBE2:
 120:..\..\src/scsiPhy.c **** 	{
 601              		.loc 1 120 0
 602 0056 3A69     		ldr	r2, [r7, #16]
 603 0058 3B68     		ldr	r3, [r7]
 604 005a 9A42     		cmp	r2, r3
 605 005c 09D2     		bcs	.L45
 120:..\..\src/scsiPhy.c **** 	{
 606              		.loc 1 120 0 is_stmt 0 discriminator 1
 607 005e 124B     		ldr	r3, .L50+12
 608 0060 D3F86831 		ldr	r3, [r3, #360]
 609 0064 002B     		cmp	r3, #0
 610 0066 0CBF     		ite	eq
 611 0068 0123     		moveq	r3, #1
 612 006a 0023     		movne	r3, #0
 613 006c DBB2     		uxtb	r3, r3
 614 006e 002B     		cmp	r3, #0
 615 0070 D0D1     		bne	.L46
 616              	.L45:
 133:..\..\src/scsiPhy.c **** 		}
 134:..\..\src/scsiPhy.c **** 	}
 135:..\..\src/scsiPhy.c **** 	scsiDev.parityError = scsiDev.parityError || SCSI_Parity_Error_Read();
 617              		.loc 1 135 0 is_stmt 1
 618 0072 0D4B     		ldr	r3, .L50+12
 619 0074 D3F87031 		ldr	r3, [r3, #368]
 620 0078 002B     		cmp	r3, #0
 621 007a 04D1     		bne	.L47
 622              		.loc 1 135 0 is_stmt 0 discriminator 2
 623 007c FFF7FEFF 		bl	SCSI_Parity_Error_Read
 624 0080 0346     		mov	r3, r0
 625 0082 002B     		cmp	r3, #0
 626 0084 01D0     		beq	.L48
 627              	.L47:
 628              		.loc 1 135 0 discriminator 3
 629 0086 0123     		movs	r3, #1
 630 0088 00E0     		b	.L49
 631              	.L48:
 632              		.loc 1 135 0 discriminator 4
 633 008a 0023     		movs	r3, #0
 634              	.L49:
 635              		.loc 1 135 0 discriminator 6
 636 008c 064A     		ldr	r2, .L50+12
ARM GAS  C:\Users\r\AppData\Local\Temp\ccqe305w.s 			page 15


 637 008e C2F87031 		str	r3, [r2, #368]
 136:..\..\src/scsiPhy.c **** }
 638              		.loc 1 136 0 is_stmt 1 discriminator 6
 639 0092 00BF     		nop
 640 0094 1837     		adds	r7, r7, #24
 641              		.cfi_def_cfa_offset 8
 642 0096 BD46     		mov	sp, r7
 643              		.cfi_def_cfa_register 13
 644              		@ sp needed
 645 0098 80BD     		pop	{r7, pc}
 646              	.L51:
 647 009a 00BF     		.align	2
 648              	.L50:
 649 009c 67640040 		.word	1073767527
 650 00a0 40640040 		.word	1073767488
 651 00a4 50640040 		.word	1073767504
 652 00a8 00000000 		.word	scsiDev
 653              		.cfi_endproc
 654              	.LFE70:
 655              		.size	scsiReadPIO, .-scsiReadPIO
 656              		.section	.text.doRxSingleDMA,"ax",%progbits
 657              		.align	2
 658              		.thumb
 659              		.thumb_func
 660              		.type	doRxSingleDMA, %function
 661              	doRxSingleDMA:
 662              	.LFB71:
 137:..\..\src/scsiPhy.c **** 
 138:..\..\src/scsiPhy.c **** static void
 139:..\..\src/scsiPhy.c **** doRxSingleDMA(uint8* data, uint32 count)
 140:..\..\src/scsiPhy.c **** {
 663              		.loc 1 140 0
 664              		.cfi_startproc
 665              		@ args = 0, pretend = 0, frame = 8
 666              		@ frame_needed = 1, uses_anonymous_args = 0
 667 0000 80B5     		push	{r7, lr}
 668              		.cfi_def_cfa_offset 8
 669              		.cfi_offset 7, -8
 670              		.cfi_offset 14, -4
 671 0002 82B0     		sub	sp, sp, #8
 672              		.cfi_def_cfa_offset 16
 673 0004 00AF     		add	r7, sp, #0
 674              		.cfi_def_cfa_register 7
 675 0006 7860     		str	r0, [r7, #4]
 676 0008 3960     		str	r1, [r7]
 141:..\..\src/scsiPhy.c **** 	// Prepare DMA transfer
 142:..\..\src/scsiPhy.c **** 	dmaInProgress = 1;
 677              		.loc 1 142 0
 678 000a 2C4B     		ldr	r3, .L53
 679 000c 0122     		movs	r2, #1
 680 000e 1A60     		str	r2, [r3]
 143:..\..\src/scsiPhy.c **** 	trace(trace_doRxSingleDMA);
 681              		.loc 1 143 0
 682 0010 2B4B     		ldr	r3, .L53+4
 683 0012 5322     		movs	r2, #83
 684 0014 1A70     		strb	r2, [r3]
 144:..\..\src/scsiPhy.c **** 
ARM GAS  C:\Users\r\AppData\Local\Temp\ccqe305w.s 			page 16


 145:..\..\src/scsiPhy.c **** 	CyDmaTdSetConfiguration(
 685              		.loc 1 145 0
 686 0016 2B4B     		ldr	r3, .L53+8
 687 0018 1878     		ldrb	r0, [r3]	@ zero_extendqisi2
 688 001a 3B68     		ldr	r3, [r7]
 689 001c 99B2     		uxth	r1, r3
 690 001e 0423     		movs	r3, #4
 691 0020 FE22     		movs	r2, #254
 692 0022 FFF7FEFF 		bl	CyDmaTdSetConfiguration
 146:..\..\src/scsiPhy.c **** 		scsiDmaTxTd[0],
 147:..\..\src/scsiPhy.c **** 		count,
 148:..\..\src/scsiPhy.c **** 		CY_DMA_DISABLE_TD, // Disable the DMA channel when TD completes count bytes
 149:..\..\src/scsiPhy.c **** 		SCSI_TX_DMA__TD_TERMOUT_EN // Trigger interrupt when complete
 150:..\..\src/scsiPhy.c **** 		);
 151:..\..\src/scsiPhy.c **** 	CyDmaTdSetConfiguration(
 693              		.loc 1 151 0
 694 0026 284B     		ldr	r3, .L53+12
 695 0028 1878     		ldrb	r0, [r3]	@ zero_extendqisi2
 696 002a 3B68     		ldr	r3, [r7]
 697 002c 99B2     		uxth	r1, r3
 698 002e 0623     		movs	r3, #6
 699 0030 FE22     		movs	r2, #254
 700 0032 FFF7FEFF 		bl	CyDmaTdSetConfiguration
 152:..\..\src/scsiPhy.c **** 		scsiDmaRxTd[0],
 153:..\..\src/scsiPhy.c **** 		count,
 154:..\..\src/scsiPhy.c **** 		CY_DMA_DISABLE_TD, // Disable the DMA channel when TD completes count bytes
 155:..\..\src/scsiPhy.c **** 		TD_INC_DST_ADR |
 156:..\..\src/scsiPhy.c **** 			SCSI_RX_DMA__TD_TERMOUT_EN // Trigger interrupt when complete
 157:..\..\src/scsiPhy.c **** 		);
 158:..\..\src/scsiPhy.c **** 
 159:..\..\src/scsiPhy.c **** 	CyDmaTdSetAddress(
 701              		.loc 1 159 0
 702 0036 234B     		ldr	r3, .L53+8
 703 0038 1B78     		ldrb	r3, [r3]	@ zero_extendqisi2
 704 003a 244A     		ldr	r2, .L53+16
 705 003c 91B2     		uxth	r1, r2
 706 003e 46F24042 		movw	r2, #25664
 707 0042 1846     		mov	r0, r3
 708 0044 FFF7FEFF 		bl	CyDmaTdSetAddress
 160:..\..\src/scsiPhy.c **** 		scsiDmaTxTd[0],
 161:..\..\src/scsiPhy.c **** 		LO16((uint32)&dummyBuffer),
 162:..\..\src/scsiPhy.c **** 		LO16((uint32)scsiTarget_datapath__F0_REG));
 163:..\..\src/scsiPhy.c **** 	CyDmaTdSetAddress(
 709              		.loc 1 163 0
 710 0048 1F4B     		ldr	r3, .L53+12
 711 004a 1B78     		ldrb	r3, [r3]	@ zero_extendqisi2
 712 004c 7A68     		ldr	r2, [r7, #4]
 713 004e 92B2     		uxth	r2, r2
 714 0050 46F25041 		movw	r1, #25680
 715 0054 1846     		mov	r0, r3
 716 0056 FFF7FEFF 		bl	CyDmaTdSetAddress
 164:..\..\src/scsiPhy.c **** 		scsiDmaRxTd[0],
 165:..\..\src/scsiPhy.c **** 		LO16((uint32)scsiTarget_datapath__F1_REG),
 166:..\..\src/scsiPhy.c **** 		LO16((uint32)data)
 167:..\..\src/scsiPhy.c **** 		);
 168:..\..\src/scsiPhy.c **** 
 169:..\..\src/scsiPhy.c **** 	CyDmaChSetInitialTd(scsiDmaTxChan, scsiDmaTxTd[0]);
ARM GAS  C:\Users\r\AppData\Local\Temp\ccqe305w.s 			page 17


 717              		.loc 1 169 0
 718 005a 1D4B     		ldr	r3, .L53+20
 719 005c 1A78     		ldrb	r2, [r3]	@ zero_extendqisi2
 720 005e 194B     		ldr	r3, .L53+8
 721 0060 1B78     		ldrb	r3, [r3]	@ zero_extendqisi2
 722 0062 1946     		mov	r1, r3
 723 0064 1046     		mov	r0, r2
 724 0066 FFF7FEFF 		bl	CyDmaChSetInitialTd
 170:..\..\src/scsiPhy.c **** 	CyDmaChSetInitialTd(scsiDmaRxChan, scsiDmaRxTd[0]);
 725              		.loc 1 170 0
 726 006a 1A4B     		ldr	r3, .L53+24
 727 006c 1A78     		ldrb	r2, [r3]	@ zero_extendqisi2
 728 006e 164B     		ldr	r3, .L53+12
 729 0070 1B78     		ldrb	r3, [r3]	@ zero_extendqisi2
 730 0072 1946     		mov	r1, r3
 731 0074 1046     		mov	r0, r2
 732 0076 FFF7FEFF 		bl	CyDmaChSetInitialTd
 171:..\..\src/scsiPhy.c **** 
 172:..\..\src/scsiPhy.c **** 	// The DMA controller is a bit trigger-happy. It will retain
 173:..\..\src/scsiPhy.c **** 	// a drq request that was triggered while the channel was
 174:..\..\src/scsiPhy.c **** 	// disabled.
 175:..\..\src/scsiPhy.c **** 	CyDmaClearPendingDrq(scsiDmaTxChan);
 733              		.loc 1 175 0
 734 007a 154B     		ldr	r3, .L53+20
 735 007c 1B78     		ldrb	r3, [r3]	@ zero_extendqisi2
 736 007e 1846     		mov	r0, r3
 737 0080 FFF7FEFF 		bl	CyDmaClearPendingDrq
 176:..\..\src/scsiPhy.c **** 	CyDmaClearPendingDrq(scsiDmaRxChan);
 738              		.loc 1 176 0
 739 0084 134B     		ldr	r3, .L53+24
 740 0086 1B78     		ldrb	r3, [r3]	@ zero_extendqisi2
 741 0088 1846     		mov	r0, r3
 742 008a FFF7FEFF 		bl	CyDmaClearPendingDrq
 177:..\..\src/scsiPhy.c **** 
 178:..\..\src/scsiPhy.c **** 	scsiTxDMAComplete = 0;
 743              		.loc 1 178 0
 744 008e 124B     		ldr	r3, .L53+28
 745 0090 0022     		movs	r2, #0
 746 0092 1A70     		strb	r2, [r3]
 179:..\..\src/scsiPhy.c **** 	scsiRxDMAComplete = 0;
 747              		.loc 1 179 0
 748 0094 114B     		ldr	r3, .L53+32
 749 0096 0022     		movs	r2, #0
 750 0098 1A70     		strb	r2, [r3]
 180:..\..\src/scsiPhy.c **** 
 181:..\..\src/scsiPhy.c **** 	CyDmaChEnable(scsiDmaRxChan, 1);
 751              		.loc 1 181 0
 752 009a 0E4B     		ldr	r3, .L53+24
 753 009c 1B78     		ldrb	r3, [r3]	@ zero_extendqisi2
 754 009e 0121     		movs	r1, #1
 755 00a0 1846     		mov	r0, r3
 756 00a2 FFF7FEFF 		bl	CyDmaChEnable
 182:..\..\src/scsiPhy.c **** 	CyDmaChEnable(scsiDmaTxChan, 1);
 757              		.loc 1 182 0
 758 00a6 0A4B     		ldr	r3, .L53+20
 759 00a8 1B78     		ldrb	r3, [r3]	@ zero_extendqisi2
 760 00aa 0121     		movs	r1, #1
ARM GAS  C:\Users\r\AppData\Local\Temp\ccqe305w.s 			page 18


 761 00ac 1846     		mov	r0, r3
 762 00ae FFF7FEFF 		bl	CyDmaChEnable
 183:..\..\src/scsiPhy.c **** }
 763              		.loc 1 183 0
 764 00b2 00BF     		nop
 765 00b4 0837     		adds	r7, r7, #8
 766              		.cfi_def_cfa_offset 8
 767 00b6 BD46     		mov	sp, r7
 768              		.cfi_def_cfa_register 13
 769              		@ sp needed
 770 00b8 80BD     		pop	{r7, pc}
 771              	.L54:
 772 00ba 00BF     		.align	2
 773              	.L53:
 774 00bc 00000000 		.word	dmaInProgress
 775 00c0 00000000 		.word	LastTrace
 776 00c4 08000000 		.word	scsiDmaTxTd
 777 00c8 04000000 		.word	scsiDmaRxTd
 778 00cc 09000000 		.word	dummyBuffer
 779 00d0 01000000 		.word	scsiDmaTxChan
 780 00d4 00000000 		.word	scsiDmaRxChan
 781 00d8 00000000 		.word	scsiTxDMAComplete
 782 00dc 00000000 		.word	scsiRxDMAComplete
 783              		.cfi_endproc
 784              	.LFE71:
 785              		.size	doRxSingleDMA, .-doRxSingleDMA
 786              		.section	.text.scsiReadDMA,"ax",%progbits
 787              		.align	2
 788              		.global	scsiReadDMA
 789              		.thumb
 790              		.thumb_func
 791              		.type	scsiReadDMA, %function
 792              	scsiReadDMA:
 793              	.LFB72:
 184:..\..\src/scsiPhy.c **** 
 185:..\..\src/scsiPhy.c **** void
 186:..\..\src/scsiPhy.c **** scsiReadDMA(uint8* data, uint32 count)
 187:..\..\src/scsiPhy.c **** {
 794              		.loc 1 187 0
 795              		.cfi_startproc
 796              		@ args = 0, pretend = 0, frame = 16
 797              		@ frame_needed = 1, uses_anonymous_args = 0
 798 0000 80B5     		push	{r7, lr}
 799              		.cfi_def_cfa_offset 8
 800              		.cfi_offset 7, -8
 801              		.cfi_offset 14, -4
 802 0002 84B0     		sub	sp, sp, #16
 803              		.cfi_def_cfa_offset 24
 804 0004 00AF     		add	r7, sp, #0
 805              		.cfi_def_cfa_register 7
 806 0006 7860     		str	r0, [r7, #4]
 807 0008 3960     		str	r1, [r7]
 188:..\..\src/scsiPhy.c **** 	dmaSentCount = 0;
 808              		.loc 1 188 0
 809 000a 0F4B     		ldr	r3, .L56
 810 000c 0022     		movs	r2, #0
 811 000e 1A60     		str	r2, [r3]
ARM GAS  C:\Users\r\AppData\Local\Temp\ccqe305w.s 			page 19


 189:..\..\src/scsiPhy.c **** 	dmaTotalCount = count;
 812              		.loc 1 189 0
 813 0010 0E4A     		ldr	r2, .L56+4
 814 0012 3B68     		ldr	r3, [r7]
 815 0014 1360     		str	r3, [r2]
 190:..\..\src/scsiPhy.c **** 	dmaBuffer = data;
 816              		.loc 1 190 0
 817 0016 0E4A     		ldr	r2, .L56+8
 818 0018 7B68     		ldr	r3, [r7, #4]
 819 001a 1360     		str	r3, [r2]
 191:..\..\src/scsiPhy.c **** 
 192:..\..\src/scsiPhy.c **** 	uint32_t singleCount = (count > MAX_DMA_BYTES) ? MAX_DMA_BYTES : count;
 820              		.loc 1 192 0
 821 001c 3B68     		ldr	r3, [r7]
 822 001e 40F6F872 		movw	r2, #4088
 823 0022 9342     		cmp	r3, r2
 824 0024 28BF     		it	cs
 825 0026 1346     		movcs	r3, r2
 826 0028 FB60     		str	r3, [r7, #12]
 193:..\..\src/scsiPhy.c **** 	doRxSingleDMA(data, singleCount);
 827              		.loc 1 193 0
 828 002a F968     		ldr	r1, [r7, #12]
 829 002c 7868     		ldr	r0, [r7, #4]
 830 002e FFF7FEFF 		bl	doRxSingleDMA
 194:..\..\src/scsiPhy.c **** 	dmaSentCount += count;
 831              		.loc 1 194 0
 832 0032 054B     		ldr	r3, .L56
 833 0034 1A68     		ldr	r2, [r3]
 834 0036 3B68     		ldr	r3, [r7]
 835 0038 1344     		add	r3, r3, r2
 836 003a 034A     		ldr	r2, .L56
 837 003c 1360     		str	r3, [r2]
 195:..\..\src/scsiPhy.c **** }
 838              		.loc 1 195 0
 839 003e 00BF     		nop
 840 0040 1037     		adds	r7, r7, #16
 841              		.cfi_def_cfa_offset 8
 842 0042 BD46     		mov	sp, r7
 843              		.cfi_def_cfa_register 13
 844              		@ sp needed
 845 0044 80BD     		pop	{r7, pc}
 846              	.L57:
 847 0046 00BF     		.align	2
 848              	.L56:
 849 0048 08000000 		.word	dmaSentCount
 850 004c 0C000000 		.word	dmaTotalCount
 851 0050 04000000 		.word	dmaBuffer
 852              		.cfi_endproc
 853              	.LFE72:
 854              		.size	scsiReadDMA, .-scsiReadDMA
 855              		.section	.text.scsiReadDMAPoll,"ax",%progbits
 856              		.align	2
 857              		.global	scsiReadDMAPoll
 858              		.thumb
 859              		.thumb_func
 860              		.type	scsiReadDMAPoll, %function
 861              	scsiReadDMAPoll:
ARM GAS  C:\Users\r\AppData\Local\Temp\ccqe305w.s 			page 20


 862              	.LFB73:
 196:..\..\src/scsiPhy.c **** 
 197:..\..\src/scsiPhy.c **** int
 198:..\..\src/scsiPhy.c **** scsiReadDMAPoll()
 199:..\..\src/scsiPhy.c **** {
 863              		.loc 1 199 0
 864              		.cfi_startproc
 865              		@ args = 0, pretend = 0, frame = 8
 866              		@ frame_needed = 1, uses_anonymous_args = 0
 867 0000 80B5     		push	{r7, lr}
 868              		.cfi_def_cfa_offset 8
 869              		.cfi_offset 7, -8
 870              		.cfi_offset 14, -4
 871 0002 82B0     		sub	sp, sp, #8
 872              		.cfi_def_cfa_offset 16
 873 0004 00AF     		add	r7, sp, #0
 874              		.cfi_def_cfa_register 7
 200:..\..\src/scsiPhy.c **** 	if (scsiTxDMAComplete && scsiRxDMAComplete)
 875              		.loc 1 200 0
 876 0006 294B     		ldr	r3, .L66
 877 0008 1B78     		ldrb	r3, [r3]
 878 000a DBB2     		uxtb	r3, r3
 879 000c 002B     		cmp	r3, #0
 880 000e 48D0     		beq	.L59
 881              		.loc 1 200 0 is_stmt 0 discriminator 1
 882 0010 274B     		ldr	r3, .L66+4
 883 0012 1B78     		ldrb	r3, [r3]
 884 0014 DBB2     		uxtb	r3, r3
 885 0016 002B     		cmp	r3, #0
 886 0018 43D0     		beq	.L59
 201:..\..\src/scsiPhy.c **** 	{
 202:..\..\src/scsiPhy.c **** 		if (likely(dmaSentCount == dmaTotalCount))
 887              		.loc 1 202 0 is_stmt 1
 888 001a 264B     		ldr	r3, .L66+8
 889 001c 1A68     		ldr	r2, [r3]
 890 001e 264B     		ldr	r3, .L66+12
 891 0020 1B68     		ldr	r3, [r3]
 892 0022 9A42     		cmp	r2, r3
 893 0024 0CBF     		ite	eq
 894 0026 0123     		moveq	r3, #1
 895 0028 0023     		movne	r3, #0
 896 002a DBB2     		uxtb	r3, r3
 897 002c 002B     		cmp	r3, #0
 898 002e 14D0     		beq	.L60
 203:..\..\src/scsiPhy.c **** 		{
 204:..\..\src/scsiPhy.c **** 			dmaInProgress = 0;
 899              		.loc 1 204 0
 900 0030 224B     		ldr	r3, .L66+16
 901 0032 0022     		movs	r2, #0
 902 0034 1A60     		str	r2, [r3]
 205:..\..\src/scsiPhy.c **** 			scsiDev.parityError = scsiDev.parityError || SCSI_Parity_Error_Read();
 903              		.loc 1 205 0
 904 0036 224B     		ldr	r3, .L66+20
 905 0038 D3F87031 		ldr	r3, [r3, #368]
 906 003c 002B     		cmp	r3, #0
 907 003e 04D1     		bne	.L61
 908              		.loc 1 205 0 is_stmt 0 discriminator 2
ARM GAS  C:\Users\r\AppData\Local\Temp\ccqe305w.s 			page 21


 909 0040 FFF7FEFF 		bl	SCSI_Parity_Error_Read
 910 0044 0346     		mov	r3, r0
 911 0046 002B     		cmp	r3, #0
 912 0048 01D0     		beq	.L62
 913              	.L61:
 914              		.loc 1 205 0 discriminator 3
 915 004a 0123     		movs	r3, #1
 916 004c 00E0     		b	.L63
 917              	.L62:
 918              		.loc 1 205 0 discriminator 4
 919 004e 0023     		movs	r3, #0
 920              	.L63:
 921              		.loc 1 205 0 discriminator 6
 922 0050 1B4A     		ldr	r2, .L66+20
 923 0052 C2F87031 		str	r3, [r2, #368]
 206:..\..\src/scsiPhy.c **** 			return 1;
 924              		.loc 1 206 0 is_stmt 1 discriminator 6
 925 0056 0123     		movs	r3, #1
 926 0058 24E0     		b	.L64
 927              	.L60:
 928              	.LBB3:
 207:..\..\src/scsiPhy.c **** 		}
 208:..\..\src/scsiPhy.c **** 		else
 209:..\..\src/scsiPhy.c **** 		{
 210:..\..\src/scsiPhy.c **** 			// Transfer was too large for a single DMA transfer. Continue
 211:..\..\src/scsiPhy.c **** 			// to send remaining bytes.
 212:..\..\src/scsiPhy.c **** 			uint32_t count = dmaTotalCount - dmaSentCount;
 929              		.loc 1 212 0
 930 005a 174B     		ldr	r3, .L66+12
 931 005c 1A68     		ldr	r2, [r3]
 932 005e 154B     		ldr	r3, .L66+8
 933 0060 1B68     		ldr	r3, [r3]
 934 0062 D31A     		subs	r3, r2, r3
 935 0064 7B60     		str	r3, [r7, #4]
 213:..\..\src/scsiPhy.c **** 			if (unlikely(count > MAX_DMA_BYTES)) count = MAX_DMA_BYTES;
 936              		.loc 1 213 0
 937 0066 7B68     		ldr	r3, [r7, #4]
 938 0068 40F6F872 		movw	r2, #4088
 939 006c 9342     		cmp	r3, r2
 940 006e 8CBF     		ite	hi
 941 0070 0123     		movhi	r3, #1
 942 0072 0023     		movls	r3, #0
 943 0074 DBB2     		uxtb	r3, r3
 944 0076 002B     		cmp	r3, #0
 945 0078 02D0     		beq	.L65
 946              		.loc 1 213 0 is_stmt 0 discriminator 1
 947 007a 40F6F873 		movw	r3, #4088
 948 007e 7B60     		str	r3, [r7, #4]
 949              	.L65:
 214:..\..\src/scsiPhy.c **** 			doRxSingleDMA(dmaBuffer + dmaSentCount, count);
 950              		.loc 1 214 0 is_stmt 1
 951 0080 104B     		ldr	r3, .L66+24
 952 0082 1A68     		ldr	r2, [r3]
 953 0084 0B4B     		ldr	r3, .L66+8
 954 0086 1B68     		ldr	r3, [r3]
 955 0088 1344     		add	r3, r3, r2
 956 008a 7968     		ldr	r1, [r7, #4]
ARM GAS  C:\Users\r\AppData\Local\Temp\ccqe305w.s 			page 22


 957 008c 1846     		mov	r0, r3
 958 008e FFF7FEFF 		bl	doRxSingleDMA
 215:..\..\src/scsiPhy.c **** 			dmaSentCount += count;
 959              		.loc 1 215 0
 960 0092 084B     		ldr	r3, .L66+8
 961 0094 1A68     		ldr	r2, [r3]
 962 0096 7B68     		ldr	r3, [r7, #4]
 963 0098 1344     		add	r3, r3, r2
 964 009a 064A     		ldr	r2, .L66+8
 965 009c 1360     		str	r3, [r2]
 216:..\..\src/scsiPhy.c **** 			return 0;
 966              		.loc 1 216 0
 967 009e 0023     		movs	r3, #0
 968 00a0 00E0     		b	.L64
 969              	.L59:
 970              	.LBE3:
 217:..\..\src/scsiPhy.c **** 		}
 218:..\..\src/scsiPhy.c **** 	}
 219:..\..\src/scsiPhy.c **** 	else
 220:..\..\src/scsiPhy.c **** 	{
 221:..\..\src/scsiPhy.c **** 		return 0;
 971              		.loc 1 221 0
 972 00a2 0023     		movs	r3, #0
 973              	.L64:
 222:..\..\src/scsiPhy.c **** 	}
 223:..\..\src/scsiPhy.c **** }
 974              		.loc 1 223 0
 975 00a4 1846     		mov	r0, r3
 976 00a6 0837     		adds	r7, r7, #8
 977              		.cfi_def_cfa_offset 8
 978 00a8 BD46     		mov	sp, r7
 979              		.cfi_def_cfa_register 13
 980              		@ sp needed
 981 00aa 80BD     		pop	{r7, pc}
 982              	.L67:
 983              		.align	2
 984              	.L66:
 985 00ac 00000000 		.word	scsiTxDMAComplete
 986 00b0 00000000 		.word	scsiRxDMAComplete
 987 00b4 08000000 		.word	dmaSentCount
 988 00b8 0C000000 		.word	dmaTotalCount
 989 00bc 00000000 		.word	dmaInProgress
 990 00c0 00000000 		.word	scsiDev
 991 00c4 04000000 		.word	dmaBuffer
 992              		.cfi_endproc
 993              	.LFE73:
 994              		.size	scsiReadDMAPoll, .-scsiReadDMAPoll
 995              		.section	.text.scsiRead,"ax",%progbits
 996              		.align	2
 997              		.global	scsiRead
 998              		.thumb
 999              		.thumb_func
 1000              		.type	scsiRead, %function
 1001              	scsiRead:
 1002              	.LFB74:
 224:..\..\src/scsiPhy.c **** 
 225:..\..\src/scsiPhy.c **** void
ARM GAS  C:\Users\r\AppData\Local\Temp\ccqe305w.s 			page 23


 226:..\..\src/scsiPhy.c **** scsiRead(uint8_t* data, uint32_t count)
 227:..\..\src/scsiPhy.c **** {
 1003              		.loc 1 227 0
 1004              		.cfi_startproc
 1005              		@ args = 0, pretend = 0, frame = 8
 1006              		@ frame_needed = 1, uses_anonymous_args = 0
 1007 0000 80B5     		push	{r7, lr}
 1008              		.cfi_def_cfa_offset 8
 1009              		.cfi_offset 7, -8
 1010              		.cfi_offset 14, -4
 1011 0002 82B0     		sub	sp, sp, #8
 1012              		.cfi_def_cfa_offset 16
 1013 0004 00AF     		add	r7, sp, #0
 1014              		.cfi_def_cfa_register 7
 1015 0006 7860     		str	r0, [r7, #4]
 1016 0008 3960     		str	r1, [r7]
 228:..\..\src/scsiPhy.c **** 	if (count < 12)
 1017              		.loc 1 228 0
 1018 000a 3B68     		ldr	r3, [r7]
 1019 000c 0B2B     		cmp	r3, #11
 1020 000e 04D8     		bhi	.L69
 229:..\..\src/scsiPhy.c **** 	{
 230:..\..\src/scsiPhy.c **** 		scsiReadPIO(data, count);
 1021              		.loc 1 230 0
 1022 0010 3968     		ldr	r1, [r7]
 1023 0012 7868     		ldr	r0, [r7, #4]
 1024 0014 FFF7FEFF 		bl	scsiReadPIO
 231:..\..\src/scsiPhy.c **** 	}
 232:..\..\src/scsiPhy.c **** 	else
 233:..\..\src/scsiPhy.c **** 	{
 234:..\..\src/scsiPhy.c **** 		scsiReadDMA(data, count);
 235:..\..\src/scsiPhy.c **** 
 236:..\..\src/scsiPhy.c **** 		// Wait for the next DMA interrupt (or the 1ms systick)
 237:..\..\src/scsiPhy.c **** 		// It's beneficial to halt the processor to
 238:..\..\src/scsiPhy.c **** 		// give the DMA controller more memory bandwidth to work with.
 239:..\..\src/scsiPhy.c **** 		__WFI();
 240:..\..\src/scsiPhy.c **** 
 241:..\..\src/scsiPhy.c **** 		trace(trace_spinReadDMAPoll);
 242:..\..\src/scsiPhy.c **** 		while (!scsiReadDMAPoll() && likely(!scsiDev.resetFlag))
 243:..\..\src/scsiPhy.c **** 		{
 244:..\..\src/scsiPhy.c **** 			__WFI();
 245:..\..\src/scsiPhy.c **** 		};
 246:..\..\src/scsiPhy.c **** 	}
 247:..\..\src/scsiPhy.c **** }
 1025              		.loc 1 247 0
 1026 0018 18E0     		b	.L73
 1027              	.L69:
 234:..\..\src/scsiPhy.c **** 
 1028              		.loc 1 234 0
 1029 001a 3968     		ldr	r1, [r7]
 1030 001c 7868     		ldr	r0, [r7, #4]
 1031 001e FFF7FEFF 		bl	scsiReadDMA
 239:..\..\src/scsiPhy.c **** 
 1032              		.loc 1 239 0
 1033              		.syntax unified
 1034              	@ 239 "..\..\src\scsiPhy.c" 1
 1035 0022 30BF     		wfi
ARM GAS  C:\Users\r\AppData\Local\Temp\ccqe305w.s 			page 24


 1036              	@ 0 "" 2
 241:..\..\src/scsiPhy.c **** 		while (!scsiReadDMAPoll() && likely(!scsiDev.resetFlag))
 1037              		.loc 1 241 0
 1038              		.thumb
 1039              		.syntax unified
 1040 0024 0B4B     		ldr	r3, .L74
 1041 0026 2122     		movs	r2, #33
 1042 0028 1A70     		strb	r2, [r3]
 242:..\..\src/scsiPhy.c **** 		{
 1043              		.loc 1 242 0
 1044 002a 00E0     		b	.L71
 1045              	.L72:
 244:..\..\src/scsiPhy.c **** 		};
 1046              		.loc 1 244 0
 1047              		.syntax unified
 1048              	@ 244 "..\..\src\scsiPhy.c" 1
 1049 002c 30BF     		wfi
 1050              	@ 0 "" 2
 1051              		.thumb
 1052              		.syntax unified
 1053              	.L71:
 242:..\..\src/scsiPhy.c **** 		{
 1054              		.loc 1 242 0
 1055 002e FFF7FEFF 		bl	scsiReadDMAPoll
 1056 0032 0346     		mov	r3, r0
 1057 0034 002B     		cmp	r3, #0
 1058 0036 09D1     		bne	.L73
 242:..\..\src/scsiPhy.c **** 		{
 1059              		.loc 1 242 0 is_stmt 0 discriminator 1
 1060 0038 074B     		ldr	r3, .L74+4
 1061 003a D3F86831 		ldr	r3, [r3, #360]
 1062 003e 002B     		cmp	r3, #0
 1063 0040 0CBF     		ite	eq
 1064 0042 0123     		moveq	r3, #1
 1065 0044 0023     		movne	r3, #0
 1066 0046 DBB2     		uxtb	r3, r3
 1067 0048 002B     		cmp	r3, #0
 1068 004a EFD1     		bne	.L72
 1069              	.L73:
 1070              		.loc 1 247 0 is_stmt 1
 1071 004c 00BF     		nop
 1072 004e 0837     		adds	r7, r7, #8
 1073              		.cfi_def_cfa_offset 8
 1074 0050 BD46     		mov	sp, r7
 1075              		.cfi_def_cfa_register 13
 1076              		@ sp needed
 1077 0052 80BD     		pop	{r7, pc}
 1078              	.L75:
 1079              		.align	2
 1080              	.L74:
 1081 0054 00000000 		.word	LastTrace
 1082 0058 00000000 		.word	scsiDev
 1083              		.cfi_endproc
 1084              	.LFE74:
 1085              		.size	scsiRead, .-scsiRead
 1086              		.section	.text.scsiWriteByte,"ax",%progbits
 1087              		.align	2
ARM GAS  C:\Users\r\AppData\Local\Temp\ccqe305w.s 			page 25


 1088              		.global	scsiWriteByte
 1089              		.thumb
 1090              		.thumb_func
 1091              		.type	scsiWriteByte, %function
 1092              	scsiWriteByte:
 1093              	.LFB75:
 248:..\..\src/scsiPhy.c **** 
 249:..\..\src/scsiPhy.c **** void
 250:..\..\src/scsiPhy.c **** scsiWriteByte(uint8 value)
 251:..\..\src/scsiPhy.c **** {
 1094              		.loc 1 251 0
 1095              		.cfi_startproc
 1096              		@ args = 0, pretend = 0, frame = 8
 1097              		@ frame_needed = 1, uses_anonymous_args = 0
 1098              		@ link register save eliminated.
 1099 0000 80B4     		push	{r7}
 1100              		.cfi_def_cfa_offset 4
 1101              		.cfi_offset 7, -4
 1102 0002 83B0     		sub	sp, sp, #12
 1103              		.cfi_def_cfa_offset 16
 1104 0004 00AF     		add	r7, sp, #0
 1105              		.cfi_def_cfa_register 7
 1106 0006 0346     		mov	r3, r0
 1107 0008 FB71     		strb	r3, [r7, #7]
 252:..\..\src/scsiPhy.c **** 	trace(trace_spinPhyTxFifo);
 1108              		.loc 1 252 0
 1109 000a 1C4B     		ldr	r3, .L81
 1110 000c 2322     		movs	r2, #35
 1111 000e 1A70     		strb	r2, [r3]
 253:..\..\src/scsiPhy.c **** 	while (unlikely(scsiPhyTxFifoFull()) && likely(!scsiDev.resetFlag)) {}
 1112              		.loc 1 253 0
 1113 0010 00BF     		nop
 1114              	.L78:
 1115              		.loc 1 253 0 is_stmt 0 discriminator 2
 1116 0012 1B4B     		ldr	r3, .L81+4
 1117 0014 1B78     		ldrb	r3, [r3]
 1118 0016 DBB2     		uxtb	r3, r3
 1119 0018 03F00103 		and	r3, r3, #1
 1120 001c 002B     		cmp	r3, #0
 1121 001e 0CBF     		ite	eq
 1122 0020 0123     		moveq	r3, #1
 1123 0022 0023     		movne	r3, #0
 1124 0024 DBB2     		uxtb	r3, r3
 1125 0026 002B     		cmp	r3, #0
 1126 0028 09D0     		beq	.L77
 1127              		.loc 1 253 0 discriminator 1
 1128 002a 164B     		ldr	r3, .L81+8
 1129 002c D3F86831 		ldr	r3, [r3, #360]
 1130 0030 002B     		cmp	r3, #0
 1131 0032 0CBF     		ite	eq
 1132 0034 0123     		moveq	r3, #1
 1133 0036 0023     		movne	r3, #0
 1134 0038 DBB2     		uxtb	r3, r3
 1135 003a 002B     		cmp	r3, #0
 1136 003c E9D1     		bne	.L78
 1137              	.L77:
 254:..\..\src/scsiPhy.c **** 	scsiPhyTx(value);
ARM GAS  C:\Users\r\AppData\Local\Temp\ccqe305w.s 			page 26


 1138              		.loc 1 254 0 is_stmt 1
 1139 003e 124A     		ldr	r2, .L81+12
 1140 0040 FB79     		ldrb	r3, [r7, #7]
 1141 0042 1370     		strb	r3, [r2]
 255:..\..\src/scsiPhy.c **** 
 256:..\..\src/scsiPhy.c **** 	trace(trace_spinTxComplete);
 1142              		.loc 1 256 0
 1143 0044 0D4B     		ldr	r3, .L81
 1144 0046 2022     		movs	r2, #32
 1145 0048 1A70     		strb	r2, [r3]
 257:..\..\src/scsiPhy.c **** 	while (!(scsiPhyStatus() & SCSI_PHY_TX_COMPLETE) && likely(!scsiDev.resetFlag)) {}
 1146              		.loc 1 257 0
 1147 004a 00BF     		nop
 1148              	.L80:
 1149              		.loc 1 257 0 is_stmt 0 discriminator 2
 1150 004c 0C4B     		ldr	r3, .L81+4
 1151 004e 1B78     		ldrb	r3, [r3]
 1152 0050 DBB2     		uxtb	r3, r3
 1153 0052 03F01003 		and	r3, r3, #16
 1154 0056 002B     		cmp	r3, #0
 1155 0058 09D1     		bne	.L79
 1156              		.loc 1 257 0 discriminator 1
 1157 005a 0A4B     		ldr	r3, .L81+8
 1158 005c D3F86831 		ldr	r3, [r3, #360]
 1159 0060 002B     		cmp	r3, #0
 1160 0062 0CBF     		ite	eq
 1161 0064 0123     		moveq	r3, #1
 1162 0066 0023     		movne	r3, #0
 1163 0068 DBB2     		uxtb	r3, r3
 1164 006a 002B     		cmp	r3, #0
 1165 006c EED1     		bne	.L80
 1166              	.L79:
 258:..\..\src/scsiPhy.c **** 	scsiPhyRx();
 1167              		.loc 1 258 0 is_stmt 1
 1168 006e 074B     		ldr	r3, .L81+16
 1169 0070 1B78     		ldrb	r3, [r3]
 259:..\..\src/scsiPhy.c **** }
 1170              		.loc 1 259 0
 1171 0072 00BF     		nop
 1172 0074 0C37     		adds	r7, r7, #12
 1173              		.cfi_def_cfa_offset 4
 1174 0076 BD46     		mov	sp, r7
 1175              		.cfi_def_cfa_register 13
 1176              		@ sp needed
 1177 0078 80BC     		pop	{r7}
 1178              		.cfi_restore 7
 1179              		.cfi_def_cfa_offset 0
 1180 007a 7047     		bx	lr
 1181              	.L82:
 1182              		.align	2
 1183              	.L81:
 1184 007c 00000000 		.word	LastTrace
 1185 0080 67640040 		.word	1073767527
 1186 0084 00000000 		.word	scsiDev
 1187 0088 40640040 		.word	1073767488
 1188 008c 50640040 		.word	1073767504
 1189              		.cfi_endproc
ARM GAS  C:\Users\r\AppData\Local\Temp\ccqe305w.s 			page 27


 1190              	.LFE75:
 1191              		.size	scsiWriteByte, .-scsiWriteByte
 1192              		.section	.text.scsiWritePIO,"ax",%progbits
 1193              		.align	2
 1194              		.thumb
 1195              		.thumb_func
 1196              		.type	scsiWritePIO, %function
 1197              	scsiWritePIO:
 1198              	.LFB76:
 260:..\..\src/scsiPhy.c **** 
 261:..\..\src/scsiPhy.c **** static void
 262:..\..\src/scsiPhy.c **** scsiWritePIO(const uint8_t* data, uint32_t count)
 263:..\..\src/scsiPhy.c **** {
 1199              		.loc 1 263 0
 1200              		.cfi_startproc
 1201              		@ args = 0, pretend = 0, frame = 16
 1202              		@ frame_needed = 1, uses_anonymous_args = 0
 1203              		@ link register save eliminated.
 1204 0000 80B4     		push	{r7}
 1205              		.cfi_def_cfa_offset 4
 1206              		.cfi_offset 7, -4
 1207 0002 85B0     		sub	sp, sp, #20
 1208              		.cfi_def_cfa_offset 24
 1209 0004 00AF     		add	r7, sp, #0
 1210              		.cfi_def_cfa_register 7
 1211 0006 7860     		str	r0, [r7, #4]
 1212 0008 3960     		str	r1, [r7]
 264:..\..\src/scsiPhy.c **** 	int i = 0;
 1213              		.loc 1 264 0
 1214 000a 0023     		movs	r3, #0
 1215 000c FB60     		str	r3, [r7, #12]
 265:..\..\src/scsiPhy.c **** 
 266:..\..\src/scsiPhy.c **** 	while (i < count && likely(!scsiDev.resetFlag))
 1216              		.loc 1 266 0
 1217 000e 0FE0     		b	.L84
 1218              	.L86:
 267:..\..\src/scsiPhy.c **** 	{
 268:..\..\src/scsiPhy.c **** 		if (!scsiPhyTxFifoFull())
 1219              		.loc 1 268 0
 1220 0010 1F4B     		ldr	r3, .L89
 1221 0012 1B78     		ldrb	r3, [r3]
 1222 0014 DBB2     		uxtb	r3, r3
 1223 0016 03F00103 		and	r3, r3, #1
 1224 001a 002B     		cmp	r3, #0
 1225 001c 08D0     		beq	.L84
 269:..\..\src/scsiPhy.c **** 		{
 270:..\..\src/scsiPhy.c **** 			scsiPhyTx(data[i]);
 1226              		.loc 1 270 0
 1227 001e 1D49     		ldr	r1, .L89+4
 1228 0020 FB68     		ldr	r3, [r7, #12]
 1229 0022 7A68     		ldr	r2, [r7, #4]
 1230 0024 1344     		add	r3, r3, r2
 1231 0026 1B78     		ldrb	r3, [r3]	@ zero_extendqisi2
 1232 0028 0B70     		strb	r3, [r1]
 271:..\..\src/scsiPhy.c **** 			++i;
 1233              		.loc 1 271 0
 1234 002a FB68     		ldr	r3, [r7, #12]
ARM GAS  C:\Users\r\AppData\Local\Temp\ccqe305w.s 			page 28


 1235 002c 0133     		adds	r3, r3, #1
 1236 002e FB60     		str	r3, [r7, #12]
 1237              	.L84:
 266:..\..\src/scsiPhy.c **** 	{
 1238              		.loc 1 266 0
 1239 0030 FA68     		ldr	r2, [r7, #12]
 1240 0032 3B68     		ldr	r3, [r7]
 1241 0034 9A42     		cmp	r2, r3
 1242 0036 09D2     		bcs	.L85
 266:..\..\src/scsiPhy.c **** 	{
 1243              		.loc 1 266 0 is_stmt 0 discriminator 1
 1244 0038 174B     		ldr	r3, .L89+8
 1245 003a D3F86831 		ldr	r3, [r3, #360]
 1246 003e 002B     		cmp	r3, #0
 1247 0040 0CBF     		ite	eq
 1248 0042 0123     		moveq	r3, #1
 1249 0044 0023     		movne	r3, #0
 1250 0046 DBB2     		uxtb	r3, r3
 1251 0048 002B     		cmp	r3, #0
 1252 004a E1D1     		bne	.L86
 1253              	.L85:
 272:..\..\src/scsiPhy.c **** 		}
 273:..\..\src/scsiPhy.c **** 	}
 274:..\..\src/scsiPhy.c **** 
 275:..\..\src/scsiPhy.c **** 	trace(trace_spinTxComplete);
 1254              		.loc 1 275 0 is_stmt 1
 1255 004c 134B     		ldr	r3, .L89+12
 1256 004e 2022     		movs	r2, #32
 1257 0050 1A70     		strb	r2, [r3]
 276:..\..\src/scsiPhy.c **** 	while (!(scsiPhyStatus() & SCSI_PHY_TX_COMPLETE) && likely(!scsiDev.resetFlag)) {}
 1258              		.loc 1 276 0
 1259 0052 00BF     		nop
 1260              	.L88:
 1261              		.loc 1 276 0 is_stmt 0 discriminator 2
 1262 0054 0E4B     		ldr	r3, .L89
 1263 0056 1B78     		ldrb	r3, [r3]
 1264 0058 DBB2     		uxtb	r3, r3
 1265 005a 03F01003 		and	r3, r3, #16
 1266 005e 002B     		cmp	r3, #0
 1267 0060 09D1     		bne	.L87
 1268              		.loc 1 276 0 discriminator 1
 1269 0062 0D4B     		ldr	r3, .L89+8
 1270 0064 D3F86831 		ldr	r3, [r3, #360]
 1271 0068 002B     		cmp	r3, #0
 1272 006a 0CBF     		ite	eq
 1273 006c 0123     		moveq	r3, #1
 1274 006e 0023     		movne	r3, #0
 1275 0070 DBB2     		uxtb	r3, r3
 1276 0072 002B     		cmp	r3, #0
 1277 0074 EED1     		bne	.L88
 1278              	.L87:
 277:..\..\src/scsiPhy.c **** 	scsiPhyRxFifoClear();
 1279              		.loc 1 277 0 is_stmt 1
 1280 0076 0A4B     		ldr	r3, .L89+16
 1281 0078 1B78     		ldrb	r3, [r3]
 1282 007a 094B     		ldr	r3, .L89+16
 1283 007c 1B78     		ldrb	r3, [r3]
ARM GAS  C:\Users\r\AppData\Local\Temp\ccqe305w.s 			page 29


 1284 007e 084B     		ldr	r3, .L89+16
 1285 0080 1B78     		ldrb	r3, [r3]
 1286 0082 074B     		ldr	r3, .L89+16
 1287 0084 1B78     		ldrb	r3, [r3]
 278:..\..\src/scsiPhy.c **** }
 1288              		.loc 1 278 0
 1289 0086 00BF     		nop
 1290 0088 1437     		adds	r7, r7, #20
 1291              		.cfi_def_cfa_offset 4
 1292 008a BD46     		mov	sp, r7
 1293              		.cfi_def_cfa_register 13
 1294              		@ sp needed
 1295 008c 80BC     		pop	{r7}
 1296              		.cfi_restore 7
 1297              		.cfi_def_cfa_offset 0
 1298 008e 7047     		bx	lr
 1299              	.L90:
 1300              		.align	2
 1301              	.L89:
 1302 0090 67640040 		.word	1073767527
 1303 0094 40640040 		.word	1073767488
 1304 0098 00000000 		.word	scsiDev
 1305 009c 00000000 		.word	LastTrace
 1306 00a0 50640040 		.word	1073767504
 1307              		.cfi_endproc
 1308              	.LFE76:
 1309              		.size	scsiWritePIO, .-scsiWritePIO
 1310              		.section	.text.doTxSingleDMA,"ax",%progbits
 1311              		.align	2
 1312              		.thumb
 1313              		.thumb_func
 1314              		.type	doTxSingleDMA, %function
 1315              	doTxSingleDMA:
 1316              	.LFB77:
 279:..\..\src/scsiPhy.c **** 
 280:..\..\src/scsiPhy.c **** static void
 281:..\..\src/scsiPhy.c **** doTxSingleDMA(const uint8* data, uint32 count)
 282:..\..\src/scsiPhy.c **** {
 1317              		.loc 1 282 0
 1318              		.cfi_startproc
 1319              		@ args = 0, pretend = 0, frame = 8
 1320              		@ frame_needed = 1, uses_anonymous_args = 0
 1321 0000 80B5     		push	{r7, lr}
 1322              		.cfi_def_cfa_offset 8
 1323              		.cfi_offset 7, -8
 1324              		.cfi_offset 14, -4
 1325 0002 82B0     		sub	sp, sp, #8
 1326              		.cfi_def_cfa_offset 16
 1327 0004 00AF     		add	r7, sp, #0
 1328              		.cfi_def_cfa_register 7
 1329 0006 7860     		str	r0, [r7, #4]
 1330 0008 3960     		str	r1, [r7]
 283:..\..\src/scsiPhy.c **** 	// Prepare DMA transfer
 284:..\..\src/scsiPhy.c **** 	dmaInProgress = 1;
 1331              		.loc 1 284 0
 1332 000a 1A4B     		ldr	r3, .L92
 1333 000c 0122     		movs	r2, #1
ARM GAS  C:\Users\r\AppData\Local\Temp\ccqe305w.s 			page 30


 1334 000e 1A60     		str	r2, [r3]
 285:..\..\src/scsiPhy.c **** 	trace(trace_doTxSingleDMA);
 1335              		.loc 1 285 0
 1336 0010 194B     		ldr	r3, .L92+4
 1337 0012 5422     		movs	r2, #84
 1338 0014 1A70     		strb	r2, [r3]
 286:..\..\src/scsiPhy.c **** 
 287:..\..\src/scsiPhy.c **** 	CyDmaTdSetConfiguration(
 1339              		.loc 1 287 0
 1340 0016 194B     		ldr	r3, .L92+8
 1341 0018 1878     		ldrb	r0, [r3]	@ zero_extendqisi2
 1342 001a 3B68     		ldr	r3, [r7]
 1343 001c 99B2     		uxth	r1, r3
 1344 001e 0523     		movs	r3, #5
 1345 0020 FE22     		movs	r2, #254
 1346 0022 FFF7FEFF 		bl	CyDmaTdSetConfiguration
 288:..\..\src/scsiPhy.c **** 		scsiDmaTxTd[0],
 289:..\..\src/scsiPhy.c **** 		count,
 290:..\..\src/scsiPhy.c **** 		CY_DMA_DISABLE_TD, // Disable the DMA channel when TD completes count bytes
 291:..\..\src/scsiPhy.c **** 		TD_INC_SRC_ADR |
 292:..\..\src/scsiPhy.c **** 			SCSI_TX_DMA__TD_TERMOUT_EN // Trigger interrupt when complete
 293:..\..\src/scsiPhy.c **** 		);
 294:..\..\src/scsiPhy.c **** 	CyDmaTdSetAddress(
 1347              		.loc 1 294 0
 1348 0026 154B     		ldr	r3, .L92+8
 1349 0028 1B78     		ldrb	r3, [r3]	@ zero_extendqisi2
 1350 002a 7A68     		ldr	r2, [r7, #4]
 1351 002c 91B2     		uxth	r1, r2
 1352 002e 46F24042 		movw	r2, #25664
 1353 0032 1846     		mov	r0, r3
 1354 0034 FFF7FEFF 		bl	CyDmaTdSetAddress
 295:..\..\src/scsiPhy.c **** 		scsiDmaTxTd[0],
 296:..\..\src/scsiPhy.c **** 		LO16((uint32)data),
 297:..\..\src/scsiPhy.c **** 		LO16((uint32)scsiTarget_datapath__F0_REG));
 298:..\..\src/scsiPhy.c **** 	CyDmaChSetInitialTd(scsiDmaTxChan, scsiDmaTxTd[0]);
 1355              		.loc 1 298 0
 1356 0038 114B     		ldr	r3, .L92+12
 1357 003a 1A78     		ldrb	r2, [r3]	@ zero_extendqisi2
 1358 003c 0F4B     		ldr	r3, .L92+8
 1359 003e 1B78     		ldrb	r3, [r3]	@ zero_extendqisi2
 1360 0040 1946     		mov	r1, r3
 1361 0042 1046     		mov	r0, r2
 1362 0044 FFF7FEFF 		bl	CyDmaChSetInitialTd
 299:..\..\src/scsiPhy.c **** 
 300:..\..\src/scsiPhy.c **** 	// The DMA controller is a bit trigger-happy. It will retain
 301:..\..\src/scsiPhy.c **** 	// a drq request that was triggered while the channel was
 302:..\..\src/scsiPhy.c **** 	// disabled.
 303:..\..\src/scsiPhy.c **** 	CyDmaClearPendingDrq(scsiDmaTxChan);
 1363              		.loc 1 303 0
 1364 0048 0D4B     		ldr	r3, .L92+12
 1365 004a 1B78     		ldrb	r3, [r3]	@ zero_extendqisi2
 1366 004c 1846     		mov	r0, r3
 1367 004e FFF7FEFF 		bl	CyDmaClearPendingDrq
 304:..\..\src/scsiPhy.c **** 
 305:..\..\src/scsiPhy.c **** 	scsiTxDMAComplete = 0;
 1368              		.loc 1 305 0
 1369 0052 0C4B     		ldr	r3, .L92+16
ARM GAS  C:\Users\r\AppData\Local\Temp\ccqe305w.s 			page 31


 1370 0054 0022     		movs	r2, #0
 1371 0056 1A70     		strb	r2, [r3]
 306:..\..\src/scsiPhy.c **** 	scsiRxDMAComplete = 1;
 1372              		.loc 1 306 0
 1373 0058 0B4B     		ldr	r3, .L92+20
 1374 005a 0122     		movs	r2, #1
 1375 005c 1A70     		strb	r2, [r3]
 307:..\..\src/scsiPhy.c **** 
 308:..\..\src/scsiPhy.c **** 	CyDmaChEnable(scsiDmaTxChan, 1);
 1376              		.loc 1 308 0
 1377 005e 084B     		ldr	r3, .L92+12
 1378 0060 1B78     		ldrb	r3, [r3]	@ zero_extendqisi2
 1379 0062 0121     		movs	r1, #1
 1380 0064 1846     		mov	r0, r3
 1381 0066 FFF7FEFF 		bl	CyDmaChEnable
 309:..\..\src/scsiPhy.c **** }
 1382              		.loc 1 309 0
 1383 006a 00BF     		nop
 1384 006c 0837     		adds	r7, r7, #8
 1385              		.cfi_def_cfa_offset 8
 1386 006e BD46     		mov	sp, r7
 1387              		.cfi_def_cfa_register 13
 1388              		@ sp needed
 1389 0070 80BD     		pop	{r7, pc}
 1390              	.L93:
 1391 0072 00BF     		.align	2
 1392              	.L92:
 1393 0074 00000000 		.word	dmaInProgress
 1394 0078 00000000 		.word	LastTrace
 1395 007c 08000000 		.word	scsiDmaTxTd
 1396 0080 01000000 		.word	scsiDmaTxChan
 1397 0084 00000000 		.word	scsiTxDMAComplete
 1398 0088 00000000 		.word	scsiRxDMAComplete
 1399              		.cfi_endproc
 1400              	.LFE77:
 1401              		.size	doTxSingleDMA, .-doTxSingleDMA
 1402              		.section	.text.scsiWriteDMA,"ax",%progbits
 1403              		.align	2
 1404              		.global	scsiWriteDMA
 1405              		.thumb
 1406              		.thumb_func
 1407              		.type	scsiWriteDMA, %function
 1408              	scsiWriteDMA:
 1409              	.LFB78:
 310:..\..\src/scsiPhy.c **** 
 311:..\..\src/scsiPhy.c **** void
 312:..\..\src/scsiPhy.c **** scsiWriteDMA(const uint8* data, uint32 count)
 313:..\..\src/scsiPhy.c **** {
 1410              		.loc 1 313 0
 1411              		.cfi_startproc
 1412              		@ args = 0, pretend = 0, frame = 16
 1413              		@ frame_needed = 1, uses_anonymous_args = 0
 1414 0000 80B5     		push	{r7, lr}
 1415              		.cfi_def_cfa_offset 8
 1416              		.cfi_offset 7, -8
 1417              		.cfi_offset 14, -4
 1418 0002 84B0     		sub	sp, sp, #16
ARM GAS  C:\Users\r\AppData\Local\Temp\ccqe305w.s 			page 32


 1419              		.cfi_def_cfa_offset 24
 1420 0004 00AF     		add	r7, sp, #0
 1421              		.cfi_def_cfa_register 7
 1422 0006 7860     		str	r0, [r7, #4]
 1423 0008 3960     		str	r1, [r7]
 314:..\..\src/scsiPhy.c **** 	dmaSentCount = 0;
 1424              		.loc 1 314 0
 1425 000a 0F4B     		ldr	r3, .L95
 1426 000c 0022     		movs	r2, #0
 1427 000e 1A60     		str	r2, [r3]
 315:..\..\src/scsiPhy.c **** 	dmaTotalCount = count;
 1428              		.loc 1 315 0
 1429 0010 0E4A     		ldr	r2, .L95+4
 1430 0012 3B68     		ldr	r3, [r7]
 1431 0014 1360     		str	r3, [r2]
 316:..\..\src/scsiPhy.c **** 	dmaBuffer = data;
 1432              		.loc 1 316 0
 1433 0016 0E4A     		ldr	r2, .L95+8
 1434 0018 7B68     		ldr	r3, [r7, #4]
 1435 001a 1360     		str	r3, [r2]
 317:..\..\src/scsiPhy.c **** 
 318:..\..\src/scsiPhy.c **** 	uint32_t singleCount = (count > MAX_DMA_BYTES) ? MAX_DMA_BYTES : count;
 1436              		.loc 1 318 0
 1437 001c 3B68     		ldr	r3, [r7]
 1438 001e 40F6F872 		movw	r2, #4088
 1439 0022 9342     		cmp	r3, r2
 1440 0024 28BF     		it	cs
 1441 0026 1346     		movcs	r3, r2
 1442 0028 FB60     		str	r3, [r7, #12]
 319:..\..\src/scsiPhy.c **** 	doTxSingleDMA(data, singleCount);
 1443              		.loc 1 319 0
 1444 002a F968     		ldr	r1, [r7, #12]
 1445 002c 7868     		ldr	r0, [r7, #4]
 1446 002e FFF7FEFF 		bl	doTxSingleDMA
 320:..\..\src/scsiPhy.c **** 	dmaSentCount += count;
 1447              		.loc 1 320 0
 1448 0032 054B     		ldr	r3, .L95
 1449 0034 1A68     		ldr	r2, [r3]
 1450 0036 3B68     		ldr	r3, [r7]
 1451 0038 1344     		add	r3, r3, r2
 1452 003a 034A     		ldr	r2, .L95
 1453 003c 1360     		str	r3, [r2]
 321:..\..\src/scsiPhy.c **** }
 1454              		.loc 1 321 0
 1455 003e 00BF     		nop
 1456 0040 1037     		adds	r7, r7, #16
 1457              		.cfi_def_cfa_offset 8
 1458 0042 BD46     		mov	sp, r7
 1459              		.cfi_def_cfa_register 13
 1460              		@ sp needed
 1461 0044 80BD     		pop	{r7, pc}
 1462              	.L96:
 1463 0046 00BF     		.align	2
 1464              	.L95:
 1465 0048 08000000 		.word	dmaSentCount
 1466 004c 0C000000 		.word	dmaTotalCount
 1467 0050 04000000 		.word	dmaBuffer
ARM GAS  C:\Users\r\AppData\Local\Temp\ccqe305w.s 			page 33


 1468              		.cfi_endproc
 1469              	.LFE78:
 1470              		.size	scsiWriteDMA, .-scsiWriteDMA
 1471              		.section	.text.scsiWriteDMAPoll,"ax",%progbits
 1472              		.align	2
 1473              		.global	scsiWriteDMAPoll
 1474              		.thumb
 1475              		.thumb_func
 1476              		.type	scsiWriteDMAPoll, %function
 1477              	scsiWriteDMAPoll:
 1478              	.LFB79:
 322:..\..\src/scsiPhy.c **** 
 323:..\..\src/scsiPhy.c **** int
 324:..\..\src/scsiPhy.c **** scsiWriteDMAPoll()
 325:..\..\src/scsiPhy.c **** {
 1479              		.loc 1 325 0
 1480              		.cfi_startproc
 1481              		@ args = 0, pretend = 0, frame = 8
 1482              		@ frame_needed = 1, uses_anonymous_args = 0
 1483 0000 80B5     		push	{r7, lr}
 1484              		.cfi_def_cfa_offset 8
 1485              		.cfi_offset 7, -8
 1486              		.cfi_offset 14, -4
 1487 0002 82B0     		sub	sp, sp, #8
 1488              		.cfi_def_cfa_offset 16
 1489 0004 00AF     		add	r7, sp, #0
 1490              		.cfi_def_cfa_register 7
 326:..\..\src/scsiPhy.c **** 	if (scsiTxDMAComplete)
 1491              		.loc 1 326 0
 1492 0006 284B     		ldr	r3, .L103
 1493 0008 1B78     		ldrb	r3, [r3]
 1494 000a DBB2     		uxtb	r3, r3
 1495 000c 002B     		cmp	r3, #0
 1496 000e 46D0     		beq	.L98
 327:..\..\src/scsiPhy.c **** 	{
 328:..\..\src/scsiPhy.c **** 		// Wait until our scsi signals are consistent. This should only be
 329:..\..\src/scsiPhy.c **** 		// a few cycles.
 330:..\..\src/scsiPhy.c **** 		trace(trace_spinTxComplete);
 1497              		.loc 1 330 0
 1498 0010 264B     		ldr	r3, .L103+4
 1499 0012 2022     		movs	r2, #32
 1500 0014 1A70     		strb	r2, [r3]
 331:..\..\src/scsiPhy.c **** 		while (!(scsiPhyStatus() & SCSI_PHY_TX_COMPLETE)) {}
 1501              		.loc 1 331 0
 1502 0016 00BF     		nop
 1503              	.L99:
 1504              		.loc 1 331 0 is_stmt 0 discriminator 1
 1505 0018 254B     		ldr	r3, .L103+8
 1506 001a 1B78     		ldrb	r3, [r3]
 1507 001c DBB2     		uxtb	r3, r3
 1508 001e 03F01003 		and	r3, r3, #16
 1509 0022 002B     		cmp	r3, #0
 1510 0024 F8D0     		beq	.L99
 332:..\..\src/scsiPhy.c **** 
 333:..\..\src/scsiPhy.c **** 		if (likely(dmaSentCount == dmaTotalCount))
 1511              		.loc 1 333 0 is_stmt 1
 1512 0026 234B     		ldr	r3, .L103+12
ARM GAS  C:\Users\r\AppData\Local\Temp\ccqe305w.s 			page 34


 1513 0028 1A68     		ldr	r2, [r3]
 1514 002a 234B     		ldr	r3, .L103+16
 1515 002c 1B68     		ldr	r3, [r3]
 1516 002e 9A42     		cmp	r2, r3
 1517 0030 0CBF     		ite	eq
 1518 0032 0123     		moveq	r3, #1
 1519 0034 0023     		movne	r3, #0
 1520 0036 DBB2     		uxtb	r3, r3
 1521 0038 002B     		cmp	r3, #0
 1522 003a 0CD0     		beq	.L100
 334:..\..\src/scsiPhy.c **** 		{
 335:..\..\src/scsiPhy.c **** 			scsiPhyRxFifoClear();
 1523              		.loc 1 335 0
 1524 003c 1F4B     		ldr	r3, .L103+20
 1525 003e 1B78     		ldrb	r3, [r3]
 1526 0040 1E4B     		ldr	r3, .L103+20
 1527 0042 1B78     		ldrb	r3, [r3]
 1528 0044 1D4B     		ldr	r3, .L103+20
 1529 0046 1B78     		ldrb	r3, [r3]
 1530 0048 1C4B     		ldr	r3, .L103+20
 1531 004a 1B78     		ldrb	r3, [r3]
 336:..\..\src/scsiPhy.c **** 			dmaInProgress = 0;
 1532              		.loc 1 336 0
 1533 004c 1C4B     		ldr	r3, .L103+24
 1534 004e 0022     		movs	r2, #0
 1535 0050 1A60     		str	r2, [r3]
 337:..\..\src/scsiPhy.c **** 			return 1;
 1536              		.loc 1 337 0
 1537 0052 0123     		movs	r3, #1
 1538 0054 24E0     		b	.L101
 1539              	.L100:
 1540              	.LBB4:
 338:..\..\src/scsiPhy.c **** 		}
 339:..\..\src/scsiPhy.c **** 		else
 340:..\..\src/scsiPhy.c **** 		{
 341:..\..\src/scsiPhy.c **** 			// Transfer was too large for a single DMA transfer. Continue
 342:..\..\src/scsiPhy.c **** 			// to send remaining bytes.
 343:..\..\src/scsiPhy.c **** 			uint32_t count = dmaTotalCount - dmaSentCount;
 1541              		.loc 1 343 0
 1542 0056 184B     		ldr	r3, .L103+16
 1543 0058 1A68     		ldr	r2, [r3]
 1544 005a 164B     		ldr	r3, .L103+12
 1545 005c 1B68     		ldr	r3, [r3]
 1546 005e D31A     		subs	r3, r2, r3
 1547 0060 7B60     		str	r3, [r7, #4]
 344:..\..\src/scsiPhy.c **** 			if (unlikely(count > MAX_DMA_BYTES)) count = MAX_DMA_BYTES;
 1548              		.loc 1 344 0
 1549 0062 7B68     		ldr	r3, [r7, #4]
 1550 0064 40F6F872 		movw	r2, #4088
 1551 0068 9342     		cmp	r3, r2
 1552 006a 8CBF     		ite	hi
 1553 006c 0123     		movhi	r3, #1
 1554 006e 0023     		movls	r3, #0
 1555 0070 DBB2     		uxtb	r3, r3
 1556 0072 002B     		cmp	r3, #0
 1557 0074 02D0     		beq	.L102
 1558              		.loc 1 344 0 is_stmt 0 discriminator 1
ARM GAS  C:\Users\r\AppData\Local\Temp\ccqe305w.s 			page 35


 1559 0076 40F6F873 		movw	r3, #4088
 1560 007a 7B60     		str	r3, [r7, #4]
 1561              	.L102:
 345:..\..\src/scsiPhy.c **** 			doTxSingleDMA(dmaBuffer + dmaSentCount, count);
 1562              		.loc 1 345 0 is_stmt 1
 1563 007c 114B     		ldr	r3, .L103+28
 1564 007e 1A68     		ldr	r2, [r3]
 1565 0080 0C4B     		ldr	r3, .L103+12
 1566 0082 1B68     		ldr	r3, [r3]
 1567 0084 1344     		add	r3, r3, r2
 1568 0086 7968     		ldr	r1, [r7, #4]
 1569 0088 1846     		mov	r0, r3
 1570 008a FFF7FEFF 		bl	doTxSingleDMA
 346:..\..\src/scsiPhy.c **** 			dmaSentCount += count;
 1571              		.loc 1 346 0
 1572 008e 094B     		ldr	r3, .L103+12
 1573 0090 1A68     		ldr	r2, [r3]
 1574 0092 7B68     		ldr	r3, [r7, #4]
 1575 0094 1344     		add	r3, r3, r2
 1576 0096 074A     		ldr	r2, .L103+12
 1577 0098 1360     		str	r3, [r2]
 347:..\..\src/scsiPhy.c **** 			return 0;
 1578              		.loc 1 347 0
 1579 009a 0023     		movs	r3, #0
 1580 009c 00E0     		b	.L101
 1581              	.L98:
 1582              	.LBE4:
 348:..\..\src/scsiPhy.c **** 		}
 349:..\..\src/scsiPhy.c **** 	}
 350:..\..\src/scsiPhy.c **** 	else
 351:..\..\src/scsiPhy.c **** 	{
 352:..\..\src/scsiPhy.c **** 		return 0;
 1583              		.loc 1 352 0
 1584 009e 0023     		movs	r3, #0
 1585              	.L101:
 353:..\..\src/scsiPhy.c **** 	}
 354:..\..\src/scsiPhy.c **** }
 1586              		.loc 1 354 0
 1587 00a0 1846     		mov	r0, r3
 1588 00a2 0837     		adds	r7, r7, #8
 1589              		.cfi_def_cfa_offset 8
 1590 00a4 BD46     		mov	sp, r7
 1591              		.cfi_def_cfa_register 13
 1592              		@ sp needed
 1593 00a6 80BD     		pop	{r7, pc}
 1594              	.L104:
 1595              		.align	2
 1596              	.L103:
 1597 00a8 00000000 		.word	scsiTxDMAComplete
 1598 00ac 00000000 		.word	LastTrace
 1599 00b0 67640040 		.word	1073767527
 1600 00b4 08000000 		.word	dmaSentCount
 1601 00b8 0C000000 		.word	dmaTotalCount
 1602 00bc 50640040 		.word	1073767504
 1603 00c0 00000000 		.word	dmaInProgress
 1604 00c4 04000000 		.word	dmaBuffer
 1605              		.cfi_endproc
ARM GAS  C:\Users\r\AppData\Local\Temp\ccqe305w.s 			page 36


 1606              	.LFE79:
 1607              		.size	scsiWriteDMAPoll, .-scsiWriteDMAPoll
 1608              		.section	.text.scsiWrite,"ax",%progbits
 1609              		.align	2
 1610              		.global	scsiWrite
 1611              		.thumb
 1612              		.thumb_func
 1613              		.type	scsiWrite, %function
 1614              	scsiWrite:
 1615              	.LFB80:
 355:..\..\src/scsiPhy.c **** 
 356:..\..\src/scsiPhy.c **** void
 357:..\..\src/scsiPhy.c **** scsiWrite(const uint8_t* data, uint32_t count)
 358:..\..\src/scsiPhy.c **** {
 1616              		.loc 1 358 0
 1617              		.cfi_startproc
 1618              		@ args = 0, pretend = 0, frame = 8
 1619              		@ frame_needed = 1, uses_anonymous_args = 0
 1620 0000 80B5     		push	{r7, lr}
 1621              		.cfi_def_cfa_offset 8
 1622              		.cfi_offset 7, -8
 1623              		.cfi_offset 14, -4
 1624 0002 82B0     		sub	sp, sp, #8
 1625              		.cfi_def_cfa_offset 16
 1626 0004 00AF     		add	r7, sp, #0
 1627              		.cfi_def_cfa_register 7
 1628 0006 7860     		str	r0, [r7, #4]
 1629 0008 3960     		str	r1, [r7]
 359:..\..\src/scsiPhy.c **** 	if (count < 12)
 1630              		.loc 1 359 0
 1631 000a 3B68     		ldr	r3, [r7]
 1632 000c 0B2B     		cmp	r3, #11
 1633 000e 04D8     		bhi	.L106
 360:..\..\src/scsiPhy.c **** 	{
 361:..\..\src/scsiPhy.c **** 		scsiWritePIO(data, count);
 1634              		.loc 1 361 0
 1635 0010 3968     		ldr	r1, [r7]
 1636 0012 7868     		ldr	r0, [r7, #4]
 1637 0014 FFF7FEFF 		bl	scsiWritePIO
 362:..\..\src/scsiPhy.c **** 	}
 363:..\..\src/scsiPhy.c **** 	else
 364:..\..\src/scsiPhy.c **** 	{
 365:..\..\src/scsiPhy.c **** 		scsiWriteDMA(data, count);
 366:..\..\src/scsiPhy.c **** 
 367:..\..\src/scsiPhy.c **** 		// Wait for the next DMA interrupt (or the 1ms systick)
 368:..\..\src/scsiPhy.c **** 		// It's beneficial to halt the processor to
 369:..\..\src/scsiPhy.c **** 		// give the DMA controller more memory bandwidth to work with.
 370:..\..\src/scsiPhy.c **** 		__WFI();
 371:..\..\src/scsiPhy.c **** 
 372:..\..\src/scsiPhy.c **** 		trace(trace_spinWriteDMAPoll);
 373:..\..\src/scsiPhy.c **** 		while (!scsiWriteDMAPoll() && likely(!scsiDev.resetFlag))
 374:..\..\src/scsiPhy.c **** 		{
 375:..\..\src/scsiPhy.c **** 			__WFI();
 376:..\..\src/scsiPhy.c **** 		};
 377:..\..\src/scsiPhy.c **** 	}
 378:..\..\src/scsiPhy.c **** }
 1638              		.loc 1 378 0
ARM GAS  C:\Users\r\AppData\Local\Temp\ccqe305w.s 			page 37


 1639 0018 18E0     		b	.L110
 1640              	.L106:
 365:..\..\src/scsiPhy.c **** 
 1641              		.loc 1 365 0
 1642 001a 3968     		ldr	r1, [r7]
 1643 001c 7868     		ldr	r0, [r7, #4]
 1644 001e FFF7FEFF 		bl	scsiWriteDMA
 370:..\..\src/scsiPhy.c **** 
 1645              		.loc 1 370 0
 1646              		.syntax unified
 1647              	@ 370 "..\..\src\scsiPhy.c" 1
 1648 0022 30BF     		wfi
 1649              	@ 0 "" 2
 372:..\..\src/scsiPhy.c **** 		while (!scsiWriteDMAPoll() && likely(!scsiDev.resetFlag))
 1650              		.loc 1 372 0
 1651              		.thumb
 1652              		.syntax unified
 1653 0024 0B4B     		ldr	r3, .L111
 1654 0026 2222     		movs	r2, #34
 1655 0028 1A70     		strb	r2, [r3]
 373:..\..\src/scsiPhy.c **** 		{
 1656              		.loc 1 373 0
 1657 002a 00E0     		b	.L108
 1658              	.L109:
 375:..\..\src/scsiPhy.c **** 		};
 1659              		.loc 1 375 0
 1660              		.syntax unified
 1661              	@ 375 "..\..\src\scsiPhy.c" 1
 1662 002c 30BF     		wfi
 1663              	@ 0 "" 2
 1664              		.thumb
 1665              		.syntax unified
 1666              	.L108:
 373:..\..\src/scsiPhy.c **** 		{
 1667              		.loc 1 373 0
 1668 002e FFF7FEFF 		bl	scsiWriteDMAPoll
 1669 0032 0346     		mov	r3, r0
 1670 0034 002B     		cmp	r3, #0
 1671 0036 09D1     		bne	.L110
 373:..\..\src/scsiPhy.c **** 		{
 1672              		.loc 1 373 0 is_stmt 0 discriminator 1
 1673 0038 074B     		ldr	r3, .L111+4
 1674 003a D3F86831 		ldr	r3, [r3, #360]
 1675 003e 002B     		cmp	r3, #0
 1676 0040 0CBF     		ite	eq
 1677 0042 0123     		moveq	r3, #1
 1678 0044 0023     		movne	r3, #0
 1679 0046 DBB2     		uxtb	r3, r3
 1680 0048 002B     		cmp	r3, #0
 1681 004a EFD1     		bne	.L109
 1682              	.L110:
 1683              		.loc 1 378 0 is_stmt 1
 1684 004c 00BF     		nop
 1685 004e 0837     		adds	r7, r7, #8
 1686              		.cfi_def_cfa_offset 8
 1687 0050 BD46     		mov	sp, r7
 1688              		.cfi_def_cfa_register 13
ARM GAS  C:\Users\r\AppData\Local\Temp\ccqe305w.s 			page 38


 1689              		@ sp needed
 1690 0052 80BD     		pop	{r7, pc}
 1691              	.L112:
 1692              		.align	2
 1693              	.L111:
 1694 0054 00000000 		.word	LastTrace
 1695 0058 00000000 		.word	scsiDev
 1696              		.cfi_endproc
 1697              	.LFE80:
 1698              		.size	scsiWrite, .-scsiWrite
 1699              		.section	.text.busSettleDelay,"ax",%progbits
 1700              		.align	2
 1701              		.thumb
 1702              		.thumb_func
 1703              		.type	busSettleDelay, %function
 1704              	busSettleDelay:
 1705              	.LFB81:
 379:..\..\src/scsiPhy.c **** 
 380:..\..\src/scsiPhy.c **** static inline void busSettleDelay(void)
 381:..\..\src/scsiPhy.c **** {
 1706              		.loc 1 381 0
 1707              		.cfi_startproc
 1708              		@ args = 0, pretend = 0, frame = 0
 1709              		@ frame_needed = 1, uses_anonymous_args = 0
 1710 0000 80B5     		push	{r7, lr}
 1711              		.cfi_def_cfa_offset 8
 1712              		.cfi_offset 7, -8
 1713              		.cfi_offset 14, -4
 1714 0002 00AF     		add	r7, sp, #0
 1715              		.cfi_def_cfa_register 7
 382:..\..\src/scsiPhy.c **** 	// Data Release time (switching IO) = 400ns
 383:..\..\src/scsiPhy.c **** 	// + Bus Settle time (switching phase) = 400ns.
 384:..\..\src/scsiPhy.c **** 	CyDelayUs(1); // Close enough.
 1716              		.loc 1 384 0
 1717 0004 0120     		movs	r0, #1
 1718 0006 FFF7FEFF 		bl	CyDelayUs
 385:..\..\src/scsiPhy.c **** }
 1719              		.loc 1 385 0
 1720 000a 00BF     		nop
 1721 000c 80BD     		pop	{r7, pc}
 1722              		.cfi_endproc
 1723              	.LFE81:
 1724              		.size	busSettleDelay, .-busSettleDelay
 1725 000e 00BF     		.section	.text.scsiEnterPhase,"ax",%progbits
 1726              		.align	2
 1727              		.global	scsiEnterPhase
 1728              		.thumb
 1729              		.thumb_func
 1730              		.type	scsiEnterPhase, %function
 1731              	scsiEnterPhase:
 1732              	.LFB82:
 386:..\..\src/scsiPhy.c **** 
 387:..\..\src/scsiPhy.c **** void scsiEnterPhase(int phase)
 388:..\..\src/scsiPhy.c **** {
 1733              		.loc 1 388 0
 1734              		.cfi_startproc
 1735              		@ args = 0, pretend = 0, frame = 16
ARM GAS  C:\Users\r\AppData\Local\Temp\ccqe305w.s 			page 39


 1736              		@ frame_needed = 1, uses_anonymous_args = 0
 1737 0000 80B5     		push	{r7, lr}
 1738              		.cfi_def_cfa_offset 8
 1739              		.cfi_offset 7, -8
 1740              		.cfi_offset 14, -4
 1741 0002 84B0     		sub	sp, sp, #16
 1742              		.cfi_def_cfa_offset 24
 1743 0004 00AF     		add	r7, sp, #0
 1744              		.cfi_def_cfa_register 7
 1745 0006 7860     		str	r0, [r7, #4]
 389:..\..\src/scsiPhy.c **** 	// ANSI INCITS 362-2002 SPI-3 10.7.1:
 390:..\..\src/scsiPhy.c **** 	// Phase changes are not allowed while REQ or ACK is asserted.
 391:..\..\src/scsiPhy.c **** 	while (likely(!scsiDev.resetFlag) && SCSI_ReadFilt(SCSI_Filt_ACK))
 1746              		.loc 1 391 0
 1747 0008 00BF     		nop
 1748              	.L116:
 1749              		.loc 1 391 0 is_stmt 0 discriminator 2
 1750 000a 194B     		ldr	r3, .L119
 1751 000c D3F86831 		ldr	r3, [r3, #360]
 1752 0010 002B     		cmp	r3, #0
 1753 0012 0CBF     		ite	eq
 1754 0014 0123     		moveq	r3, #1
 1755 0016 0023     		movne	r3, #0
 1756 0018 DBB2     		uxtb	r3, r3
 1757 001a 002B     		cmp	r3, #0
 1758 001c 06D0     		beq	.L115
 1759              		.loc 1 391 0 discriminator 1
 1760 001e FFF7FEFF 		bl	SCSI_Filtered_Read
 1761 0022 0346     		mov	r3, r0
 1762 0024 03F01003 		and	r3, r3, #16
 1763 0028 002B     		cmp	r3, #0
 1764 002a EED0     		beq	.L116
 1765              	.L115:
 392:..\..\src/scsiPhy.c **** 	{}
 393:..\..\src/scsiPhy.c **** 
 394:..\..\src/scsiPhy.c **** 	int newPhase = phase > 0 ? phase : 0;
 1766              		.loc 1 394 0 is_stmt 1
 1767 002c 7B68     		ldr	r3, [r7, #4]
 1768 002e 23EAE373 		bic	r3, r3, r3, asr #31
 1769 0032 FB60     		str	r3, [r7, #12]
 395:..\..\src/scsiPhy.c **** 	if (newPhase != SCSI_CTL_PHASE_Read())
 1770              		.loc 1 395 0
 1771 0034 FFF7FEFF 		bl	SCSI_CTL_PHASE_Read
 1772 0038 0346     		mov	r3, r0
 1773 003a 1A46     		mov	r2, r3
 1774 003c FB68     		ldr	r3, [r7, #12]
 1775 003e 9A42     		cmp	r2, r3
 1776 0040 12D0     		beq	.L118
 396:..\..\src/scsiPhy.c **** 	{
 397:..\..\src/scsiPhy.c **** 		SCSI_CTL_PHASE_Write(phase > 0 ? phase : 0);
 1777              		.loc 1 397 0
 1778 0042 7B68     		ldr	r3, [r7, #4]
 1779 0044 23EAE373 		bic	r3, r3, r3, asr #31
 1780 0048 DBB2     		uxtb	r3, r3
 1781 004a 1846     		mov	r0, r3
 1782 004c FFF7FEFF 		bl	SCSI_CTL_PHASE_Write
 398:..\..\src/scsiPhy.c **** 		busSettleDelay();
ARM GAS  C:\Users\r\AppData\Local\Temp\ccqe305w.s 			page 40


 1783              		.loc 1 398 0
 1784 0050 FFF7FEFF 		bl	busSettleDelay
 399:..\..\src/scsiPhy.c **** 
 400:..\..\src/scsiPhy.c **** 		if (scsiDev.compatMode < COMPAT_SCSI2)
 1785              		.loc 1 400 0
 1786 0054 064B     		ldr	r3, .L119
 1787 0056 03F58343 		add	r3, r3, #16768
 1788 005a 1733     		adds	r3, r3, #23
 1789 005c 1B78     		ldrb	r3, [r3]	@ zero_extendqisi2
 1790 005e 022B     		cmp	r3, #2
 1791 0060 02D8     		bhi	.L118
 401:..\..\src/scsiPhy.c **** 		{
 402:..\..\src/scsiPhy.c **** 			// XEBEC S1410 manual (old SASI controller) gives 10uSec delay
 403:..\..\src/scsiPhy.c **** 			// between phase bits and REQ.
 404:..\..\src/scsiPhy.c ****             // EMU EMAX needs 100uS ! 10uS is not enough.\r
 405:..\..\src/scsiPhy.c ****             CyDelayUs(100);
 1792              		.loc 1 405 0
 1793 0062 6420     		movs	r0, #100
 1794 0064 FFF7FEFF 		bl	CyDelayUs
 1795              	.L118:
 406:..\..\src/scsiPhy.c **** 		}
 407:..\..\src/scsiPhy.c **** 	}
 408:..\..\src/scsiPhy.c **** }
 1796              		.loc 1 408 0
 1797 0068 00BF     		nop
 1798 006a 1037     		adds	r7, r7, #16
 1799              		.cfi_def_cfa_offset 8
 1800 006c BD46     		mov	sp, r7
 1801              		.cfi_def_cfa_register 13
 1802              		@ sp needed
 1803 006e 80BD     		pop	{r7, pc}
 1804              	.L120:
 1805              		.align	2
 1806              	.L119:
 1807 0070 00000000 		.word	scsiDev
 1808              		.cfi_endproc
 1809              	.LFE82:
 1810              		.size	scsiEnterPhase, .-scsiEnterPhase
 1811              		.section	.text.scsiPhyReset,"ax",%progbits
 1812              		.align	2
 1813              		.global	scsiPhyReset
 1814              		.thumb
 1815              		.thumb_func
 1816              		.type	scsiPhyReset, %function
 1817              	scsiPhyReset:
 1818              	.LFB83:
 409:..\..\src/scsiPhy.c **** 
 410:..\..\src/scsiPhy.c **** void scsiPhyReset()
 411:..\..\src/scsiPhy.c **** {
 1819              		.loc 1 411 0
 1820              		.cfi_startproc
 1821              		@ args = 0, pretend = 0, frame = 0
 1822              		@ frame_needed = 1, uses_anonymous_args = 0
 1823 0000 80B5     		push	{r7, lr}
 1824              		.cfi_def_cfa_offset 8
 1825              		.cfi_offset 7, -8
 1826              		.cfi_offset 14, -4
ARM GAS  C:\Users\r\AppData\Local\Temp\ccqe305w.s 			page 41


 1827 0002 00AF     		add	r7, sp, #0
 1828              		.cfi_def_cfa_register 7
 412:..\..\src/scsiPhy.c **** 	trace(trace_scsiPhyReset);
 1829              		.loc 1 412 0
 1830 0004 504B     		ldr	r3, .L128
 1831 0006 5522     		movs	r2, #85
 1832 0008 1A70     		strb	r2, [r3]
 413:..\..\src/scsiPhy.c **** 	if (dmaInProgress)
 1833              		.loc 1 413 0
 1834 000a 504B     		ldr	r3, .L128+4
 1835 000c 1B68     		ldr	r3, [r3]
 1836 000e 002B     		cmp	r3, #0
 1837 0010 47D0     		beq	.L122
 414:..\..\src/scsiPhy.c **** 	{
 415:..\..\src/scsiPhy.c **** 		dmaInProgress = 0;
 1838              		.loc 1 415 0
 1839 0012 4E4B     		ldr	r3, .L128+4
 1840 0014 0022     		movs	r2, #0
 1841 0016 1A60     		str	r2, [r3]
 416:..\..\src/scsiPhy.c **** 		dmaBuffer = NULL;
 1842              		.loc 1 416 0
 1843 0018 4D4B     		ldr	r3, .L128+8
 1844 001a 0022     		movs	r2, #0
 1845 001c 1A60     		str	r2, [r3]
 417:..\..\src/scsiPhy.c **** 		dmaSentCount = 0;
 1846              		.loc 1 417 0
 1847 001e 4D4B     		ldr	r3, .L128+12
 1848 0020 0022     		movs	r2, #0
 1849 0022 1A60     		str	r2, [r3]
 418:..\..\src/scsiPhy.c **** 		dmaTotalCount = 0;
 1850              		.loc 1 418 0
 1851 0024 4C4B     		ldr	r3, .L128+16
 1852 0026 0022     		movs	r2, #0
 1853 0028 1A60     		str	r2, [r3]
 419:..\..\src/scsiPhy.c **** 		CyDmaChSetRequest(scsiDmaTxChan, CY_DMA_CPU_TERM_CHAIN);
 1854              		.loc 1 419 0
 1855 002a 4C4B     		ldr	r3, .L128+20
 1856 002c 1B78     		ldrb	r3, [r3]	@ zero_extendqisi2
 1857 002e 0421     		movs	r1, #4
 1858 0030 1846     		mov	r0, r3
 1859 0032 FFF7FEFF 		bl	CyDmaChSetRequest
 420:..\..\src/scsiPhy.c **** 		CyDmaChSetRequest(scsiDmaRxChan, CY_DMA_CPU_TERM_CHAIN);
 1860              		.loc 1 420 0
 1861 0036 4A4B     		ldr	r3, .L128+24
 1862 0038 1B78     		ldrb	r3, [r3]	@ zero_extendqisi2
 1863 003a 0421     		movs	r1, #4
 1864 003c 1846     		mov	r0, r3
 1865 003e FFF7FEFF 		bl	CyDmaChSetRequest
 421:..\..\src/scsiPhy.c **** 
 422:..\..\src/scsiPhy.c **** 		// CyDmaChGetRequest returns 0 for the relevant bit once the
 423:..\..\src/scsiPhy.c **** 		// request is completed.
 424:..\..\src/scsiPhy.c **** 		trace(trace_spinDMAReset);
 1866              		.loc 1 424 0
 1867 0042 414B     		ldr	r3, .L128
 1868 0044 2522     		movs	r2, #37
 1869 0046 1A70     		strb	r2, [r3]
 425:..\..\src/scsiPhy.c **** 		while (
ARM GAS  C:\Users\r\AppData\Local\Temp\ccqe305w.s 			page 42


 1870              		.loc 1 425 0
 1871 0048 00BF     		nop
 1872              	.L124:
 426:..\..\src/scsiPhy.c **** 			(CyDmaChGetRequest(scsiDmaTxChan) & CY_DMA_CPU_TERM_CHAIN) &&
 1873              		.loc 1 426 0 discriminator 1
 1874 004a 444B     		ldr	r3, .L128+20
 1875 004c 1B78     		ldrb	r3, [r3]	@ zero_extendqisi2
 1876 004e 1846     		mov	r0, r3
 1877 0050 FFF7FEFF 		bl	CyDmaChGetRequest
 1878 0054 0346     		mov	r3, r0
 1879 0056 03F00403 		and	r3, r3, #4
 425:..\..\src/scsiPhy.c **** 		while (
 1880              		.loc 1 425 0 discriminator 1
 1881 005a 002B     		cmp	r3, #0
 1882 005c 04D0     		beq	.L127
 427:..\..\src/scsiPhy.c **** 			!scsiTxDMAComplete
 1883              		.loc 1 427 0
 1884 005e 414B     		ldr	r3, .L128+28
 1885 0060 1B78     		ldrb	r3, [r3]
 1886 0062 DBB2     		uxtb	r3, r3
 426:..\..\src/scsiPhy.c **** 			(CyDmaChGetRequest(scsiDmaTxChan) & CY_DMA_CPU_TERM_CHAIN) &&
 1887              		.loc 1 426 0
 1888 0064 002B     		cmp	r3, #0
 1889 0066 F0D0     		beq	.L124
 1890              	.L127:
 428:..\..\src/scsiPhy.c **** 			)
 429:..\..\src/scsiPhy.c **** 		{}
 430:..\..\src/scsiPhy.c **** 
 431:..\..\src/scsiPhy.c **** 		while ((
 1891              		.loc 1 431 0
 1892 0068 00BF     		nop
 1893              	.L126:
 432:..\..\src/scsiPhy.c **** 			CyDmaChGetRequest(scsiDmaRxChan) & CY_DMA_CPU_TERM_CHAIN) &&
 1894              		.loc 1 432 0 discriminator 1
 1895 006a 3D4B     		ldr	r3, .L128+24
 1896 006c 1B78     		ldrb	r3, [r3]	@ zero_extendqisi2
 1897 006e 1846     		mov	r0, r3
 1898 0070 FFF7FEFF 		bl	CyDmaChGetRequest
 1899 0074 0346     		mov	r3, r0
 1900 0076 03F00403 		and	r3, r3, #4
 431:..\..\src/scsiPhy.c **** 			CyDmaChGetRequest(scsiDmaRxChan) & CY_DMA_CPU_TERM_CHAIN) &&
 1901              		.loc 1 431 0 discriminator 1
 1902 007a 002B     		cmp	r3, #0
 1903 007c 04D0     		beq	.L125
 433:..\..\src/scsiPhy.c **** 			!scsiRxDMAComplete
 1904              		.loc 1 433 0
 1905 007e 3A4B     		ldr	r3, .L128+32
 1906 0080 1B78     		ldrb	r3, [r3]
 1907 0082 DBB2     		uxtb	r3, r3
 432:..\..\src/scsiPhy.c **** 			CyDmaChGetRequest(scsiDmaRxChan) & CY_DMA_CPU_TERM_CHAIN) &&
 1908              		.loc 1 432 0
 1909 0084 002B     		cmp	r3, #0
 1910 0086 F0D0     		beq	.L126
 1911              	.L125:
 434:..\..\src/scsiPhy.c **** 			)
 435:..\..\src/scsiPhy.c **** 		{}
 436:..\..\src/scsiPhy.c **** 
ARM GAS  C:\Users\r\AppData\Local\Temp\ccqe305w.s 			page 43


 437:..\..\src/scsiPhy.c **** 		CyDelayUs(1);
 1912              		.loc 1 437 0
 1913 0088 0120     		movs	r0, #1
 1914 008a FFF7FEFF 		bl	CyDelayUs
 438:..\..\src/scsiPhy.c **** 
 439:..\..\src/scsiPhy.c **** 		CyDmaChDisable(scsiDmaTxChan);
 1915              		.loc 1 439 0
 1916 008e 334B     		ldr	r3, .L128+20
 1917 0090 1B78     		ldrb	r3, [r3]	@ zero_extendqisi2
 1918 0092 1846     		mov	r0, r3
 1919 0094 FFF7FEFF 		bl	CyDmaChDisable
 440:..\..\src/scsiPhy.c **** 		CyDmaChDisable(scsiDmaRxChan);
 1920              		.loc 1 440 0
 1921 0098 314B     		ldr	r3, .L128+24
 1922 009a 1B78     		ldrb	r3, [r3]	@ zero_extendqisi2
 1923 009c 1846     		mov	r0, r3
 1924 009e FFF7FEFF 		bl	CyDmaChDisable
 1925              	.L122:
 441:..\..\src/scsiPhy.c **** 	}
 442:..\..\src/scsiPhy.c **** 
 443:..\..\src/scsiPhy.c **** 	// Set the Clear bits for both SCSI device FIFOs
 444:..\..\src/scsiPhy.c **** 	scsiTarget_AUX_CTL = scsiTarget_AUX_CTL | 0x03;
 1926              		.loc 1 444 0
 1927 00a2 324A     		ldr	r2, .L128+36
 1928 00a4 314B     		ldr	r3, .L128+36
 1929 00a6 1B78     		ldrb	r3, [r3]
 1930 00a8 DBB2     		uxtb	r3, r3
 1931 00aa 43F00303 		orr	r3, r3, #3
 1932 00ae DBB2     		uxtb	r3, r3
 1933 00b0 1370     		strb	r3, [r2]
 445:..\..\src/scsiPhy.c **** 
 446:..\..\src/scsiPhy.c **** 	// Trigger RST outselves.  It is connected to the datapath and will
 447:..\..\src/scsiPhy.c **** 	// ensure it returns to the idle state.  The datapath runs at the BUS clk
 448:..\..\src/scsiPhy.c **** 	// speed (ie. same as the CPU), so we can be sure it is active for a sufficient
 449:..\..\src/scsiPhy.c **** 	// duration.
 450:..\..\src/scsiPhy.c **** 	SCSI_RST_ISR_Disable();
 1934              		.loc 1 450 0
 1935 00b2 FFF7FEFF 		bl	SCSI_RST_ISR_Disable
 451:..\..\src/scsiPhy.c **** 	SCSI_SetPin(SCSI_Out_RST);
 1936              		.loc 1 451 0
 1937 00b6 2E4A     		ldr	r2, .L128+40
 1938 00b8 2D4B     		ldr	r3, .L128+40
 1939 00ba 1B78     		ldrb	r3, [r3]
 1940 00bc DBB2     		uxtb	r3, r3
 1941 00be 43F00103 		orr	r3, r3, #1
 1942 00c2 DBB2     		uxtb	r3, r3
 1943 00c4 1370     		strb	r3, [r2]
 452:..\..\src/scsiPhy.c **** 
 453:..\..\src/scsiPhy.c **** 	SCSI_CTL_PHASE_Write(0);
 1944              		.loc 1 453 0
 1945 00c6 0020     		movs	r0, #0
 1946 00c8 FFF7FEFF 		bl	SCSI_CTL_PHASE_Write
 454:..\..\src/scsiPhy.c **** 	#ifdef SCSI_Out_ATN
 455:..\..\src/scsiPhy.c **** 	SCSI_ClearPin(SCSI_Out_ATN);
 1947              		.loc 1 455 0
 1948 00cc 294A     		ldr	r2, .L128+44
 1949 00ce 294B     		ldr	r3, .L128+44
ARM GAS  C:\Users\r\AppData\Local\Temp\ccqe305w.s 			page 44


 1950 00d0 1B78     		ldrb	r3, [r3]
 1951 00d2 DBB2     		uxtb	r3, r3
 1952 00d4 23F00103 		bic	r3, r3, #1
 1953 00d8 DBB2     		uxtb	r3, r3
 1954 00da 1370     		strb	r3, [r2]
 456:..\..\src/scsiPhy.c **** 	#endif
 457:..\..\src/scsiPhy.c **** 	SCSI_ClearPin(SCSI_Out_BSY);
 1955              		.loc 1 457 0
 1956 00dc 264A     		ldr	r2, .L128+48
 1957 00de 264B     		ldr	r3, .L128+48
 1958 00e0 1B78     		ldrb	r3, [r3]
 1959 00e2 DBB2     		uxtb	r3, r3
 1960 00e4 23F00103 		bic	r3, r3, #1
 1961 00e8 DBB2     		uxtb	r3, r3
 1962 00ea 1370     		strb	r3, [r2]
 458:..\..\src/scsiPhy.c **** 	#ifdef SCSI_Out_ACK
 459:..\..\src/scsiPhy.c **** 	SCSI_ClearPin(SCSI_Out_ACK);
 1963              		.loc 1 459 0
 1964 00ec 234A     		ldr	r2, .L128+52
 1965 00ee 234B     		ldr	r3, .L128+52
 1966 00f0 1B78     		ldrb	r3, [r3]
 1967 00f2 DBB2     		uxtb	r3, r3
 1968 00f4 23F00103 		bic	r3, r3, #1
 1969 00f8 DBB2     		uxtb	r3, r3
 1970 00fa 1370     		strb	r3, [r2]
 460:..\..\src/scsiPhy.c **** 	#endif
 461:..\..\src/scsiPhy.c **** 	SCSI_ClearPin(SCSI_Out_SEL);
 1971              		.loc 1 461 0
 1972 00fc 204A     		ldr	r2, .L128+56
 1973 00fe 204B     		ldr	r3, .L128+56
 1974 0100 1B78     		ldrb	r3, [r3]
 1975 0102 DBB2     		uxtb	r3, r3
 1976 0104 23F00103 		bic	r3, r3, #1
 1977 0108 DBB2     		uxtb	r3, r3
 1978 010a 1370     		strb	r3, [r2]
 462:..\..\src/scsiPhy.c **** 	SCSI_ClearPin(SCSI_Out_REQ);
 1979              		.loc 1 462 0
 1980 010c 1D4A     		ldr	r2, .L128+60
 1981 010e 1D4B     		ldr	r3, .L128+60
 1982 0110 1B78     		ldrb	r3, [r3]
 1983 0112 DBB2     		uxtb	r3, r3
 1984 0114 23F00103 		bic	r3, r3, #1
 1985 0118 DBB2     		uxtb	r3, r3
 1986 011a 1370     		strb	r3, [r2]
 463:..\..\src/scsiPhy.c **** 
 464:..\..\src/scsiPhy.c **** 	// Allow the FIFOs to fill up again.
 465:..\..\src/scsiPhy.c **** 	SCSI_ClearPin(SCSI_Out_RST);
 1987              		.loc 1 465 0
 1988 011c 144A     		ldr	r2, .L128+40
 1989 011e 144B     		ldr	r3, .L128+40
 1990 0120 1B78     		ldrb	r3, [r3]
 1991 0122 DBB2     		uxtb	r3, r3
 1992 0124 23F00103 		bic	r3, r3, #1
 1993 0128 DBB2     		uxtb	r3, r3
 1994 012a 1370     		strb	r3, [r2]
 466:..\..\src/scsiPhy.c **** 	SCSI_RST_ISR_Enable();
 1995              		.loc 1 466 0
ARM GAS  C:\Users\r\AppData\Local\Temp\ccqe305w.s 			page 45


 1996 012c FFF7FEFF 		bl	SCSI_RST_ISR_Enable
 467:..\..\src/scsiPhy.c **** 	scsiTarget_AUX_CTL = scsiTarget_AUX_CTL & ~(0x03);
 1997              		.loc 1 467 0
 1998 0130 0E4A     		ldr	r2, .L128+36
 1999 0132 0E4B     		ldr	r3, .L128+36
 2000 0134 1B78     		ldrb	r3, [r3]
 2001 0136 DBB2     		uxtb	r3, r3
 2002 0138 23F00303 		bic	r3, r3, #3
 2003 013c DBB2     		uxtb	r3, r3
 2004 013e 1370     		strb	r3, [r2]
 468:..\..\src/scsiPhy.c **** 
 469:..\..\src/scsiPhy.c **** 	SCSI_Parity_Error_Read(); // clear sticky bits
 2005              		.loc 1 469 0
 2006 0140 FFF7FEFF 		bl	SCSI_Parity_Error_Read
 470:..\..\src/scsiPhy.c **** }
 2007              		.loc 1 470 0
 2008 0144 00BF     		nop
 2009 0146 80BD     		pop	{r7, pc}
 2010              	.L129:
 2011              		.align	2
 2012              	.L128:
 2013 0148 00000000 		.word	LastTrace
 2014 014c 00000000 		.word	dmaInProgress
 2015 0150 04000000 		.word	dmaBuffer
 2016 0154 08000000 		.word	dmaSentCount
 2017 0158 0C000000 		.word	dmaTotalCount
 2018 015c 01000000 		.word	scsiDmaTxChan
 2019 0160 00000000 		.word	scsiDmaRxChan
 2020 0164 00000000 		.word	scsiTxDMAComplete
 2021 0168 00000000 		.word	scsiRxDMAComplete
 2022 016c 90640040 		.word	1073767568
 2023 0170 25500040 		.word	1073762341
 2024 0174 7C500040 		.word	1073762428
 2025 0178 31500040 		.word	1073762353
 2026 017c 30500040 		.word	1073762352
 2027 0180 07500040 		.word	1073762311
 2028 0184 03500040 		.word	1073762307
 2029              		.cfi_endproc
 2030              	.LFE83:
 2031              		.size	scsiPhyReset, .-scsiPhyReset
 2032              		.section	.text.scsiPhyInitDMA,"ax",%progbits
 2033              		.align	2
 2034              		.thumb
 2035              		.thumb_func
 2036              		.type	scsiPhyInitDMA, %function
 2037              	scsiPhyInitDMA:
 2038              	.LFB84:
 471:..\..\src/scsiPhy.c **** 
 472:..\..\src/scsiPhy.c **** static void scsiPhyInitDMA()
 473:..\..\src/scsiPhy.c **** {
 2039              		.loc 1 473 0
 2040              		.cfi_startproc
 2041              		@ args = 0, pretend = 0, frame = 0
 2042              		@ frame_needed = 1, uses_anonymous_args = 0
 2043 0000 80B5     		push	{r7, lr}
 2044              		.cfi_def_cfa_offset 8
 2045              		.cfi_offset 7, -8
ARM GAS  C:\Users\r\AppData\Local\Temp\ccqe305w.s 			page 46


 2046              		.cfi_offset 14, -4
 2047 0002 00AF     		add	r7, sp, #0
 2048              		.cfi_def_cfa_register 7
 474:..\..\src/scsiPhy.c **** 	// One-time init only.
 475:..\..\src/scsiPhy.c **** 	if (scsiDmaTxChan == CY_DMA_INVALID_CHANNEL)
 2049              		.loc 1 475 0
 2050 0004 1C4B     		ldr	r3, .L133
 2051 0006 1B78     		ldrb	r3, [r3]	@ zero_extendqisi2
 2052 0008 FF2B     		cmp	r3, #255
 2053 000a 33D1     		bne	.L132
 476:..\..\src/scsiPhy.c **** 	{
 477:..\..\src/scsiPhy.c **** 		scsiDmaRxChan =
 478:..\..\src/scsiPhy.c **** 			SCSI_RX_DMA_DmaInitialize(
 2054              		.loc 1 478 0
 2055 000c 41F6FF73 		movw	r3, #8191
 2056 0010 4FF48042 		mov	r2, #16384
 2057 0014 0121     		movs	r1, #1
 2058 0016 0120     		movs	r0, #1
 2059 0018 FFF7FEFF 		bl	SCSI_RX_DMA_DmaInitialize
 2060 001c 0346     		mov	r3, r0
 2061 001e 1A46     		mov	r2, r3
 477:..\..\src/scsiPhy.c **** 			SCSI_RX_DMA_DmaInitialize(
 2062              		.loc 1 477 0
 2063 0020 164B     		ldr	r3, .L133+4
 2064 0022 1A70     		strb	r2, [r3]
 479:..\..\src/scsiPhy.c **** 				1, // Bytes per burst
 480:..\..\src/scsiPhy.c **** 				1, // request per burst
 481:..\..\src/scsiPhy.c **** 				HI16(CYDEV_PERIPH_BASE),
 482:..\..\src/scsiPhy.c **** 				HI16(CYDEV_SRAM_BASE)
 483:..\..\src/scsiPhy.c **** 				);
 484:..\..\src/scsiPhy.c **** 
 485:..\..\src/scsiPhy.c **** 		scsiDmaTxChan =
 486:..\..\src/scsiPhy.c **** 			SCSI_TX_DMA_DmaInitialize(
 2065              		.loc 1 486 0
 2066 0024 4FF48043 		mov	r3, #16384
 2067 0028 41F6FF72 		movw	r2, #8191
 2068 002c 0121     		movs	r1, #1
 2069 002e 0120     		movs	r0, #1
 2070 0030 FFF7FEFF 		bl	SCSI_TX_DMA_DmaInitialize
 2071 0034 0346     		mov	r3, r0
 2072 0036 1A46     		mov	r2, r3
 485:..\..\src/scsiPhy.c **** 			SCSI_TX_DMA_DmaInitialize(
 2073              		.loc 1 485 0
 2074 0038 0F4B     		ldr	r3, .L133
 2075 003a 1A70     		strb	r2, [r3]
 487:..\..\src/scsiPhy.c **** 				1, // Bytes per burst
 488:..\..\src/scsiPhy.c **** 				1, // request per burst
 489:..\..\src/scsiPhy.c **** 				HI16(CYDEV_SRAM_BASE),
 490:..\..\src/scsiPhy.c **** 				HI16(CYDEV_PERIPH_BASE)
 491:..\..\src/scsiPhy.c **** 				);
 492:..\..\src/scsiPhy.c **** 
 493:..\..\src/scsiPhy.c **** 		CyDmaChDisable(scsiDmaRxChan);
 2076              		.loc 1 493 0
 2077 003c 0F4B     		ldr	r3, .L133+4
 2078 003e 1B78     		ldrb	r3, [r3]	@ zero_extendqisi2
 2079 0040 1846     		mov	r0, r3
 2080 0042 FFF7FEFF 		bl	CyDmaChDisable
ARM GAS  C:\Users\r\AppData\Local\Temp\ccqe305w.s 			page 47


 494:..\..\src/scsiPhy.c **** 		CyDmaChDisable(scsiDmaTxChan);
 2081              		.loc 1 494 0
 2082 0046 0C4B     		ldr	r3, .L133
 2083 0048 1B78     		ldrb	r3, [r3]	@ zero_extendqisi2
 2084 004a 1846     		mov	r0, r3
 2085 004c FFF7FEFF 		bl	CyDmaChDisable
 495:..\..\src/scsiPhy.c **** 
 496:..\..\src/scsiPhy.c **** 		scsiDmaRxTd[0] = CyDmaTdAllocate();
 2086              		.loc 1 496 0
 2087 0050 FFF7FEFF 		bl	CyDmaTdAllocate
 2088 0054 0346     		mov	r3, r0
 2089 0056 1A46     		mov	r2, r3
 2090 0058 094B     		ldr	r3, .L133+8
 2091 005a 1A70     		strb	r2, [r3]
 497:..\..\src/scsiPhy.c **** 		scsiDmaTxTd[0] = CyDmaTdAllocate();
 2092              		.loc 1 497 0
 2093 005c FFF7FEFF 		bl	CyDmaTdAllocate
 2094 0060 0346     		mov	r3, r0
 2095 0062 1A46     		mov	r2, r3
 2096 0064 074B     		ldr	r3, .L133+12
 2097 0066 1A70     		strb	r2, [r3]
 498:..\..\src/scsiPhy.c **** 
 499:..\..\src/scsiPhy.c **** 		SCSI_RX_DMA_COMPLETE_StartEx(scsiRxCompleteISR);
 2098              		.loc 1 499 0
 2099 0068 0748     		ldr	r0, .L133+16
 2100 006a FFF7FEFF 		bl	SCSI_RX_DMA_COMPLETE_StartEx
 500:..\..\src/scsiPhy.c **** 		SCSI_TX_DMA_COMPLETE_StartEx(scsiTxCompleteISR);
 2101              		.loc 1 500 0
 2102 006e 0748     		ldr	r0, .L133+20
 2103 0070 FFF7FEFF 		bl	SCSI_TX_DMA_COMPLETE_StartEx
 2104              	.L132:
 501:..\..\src/scsiPhy.c **** 	}
 502:..\..\src/scsiPhy.c **** }
 2105              		.loc 1 502 0
 2106 0074 00BF     		nop
 2107 0076 80BD     		pop	{r7, pc}
 2108              	.L134:
 2109              		.align	2
 2110              	.L133:
 2111 0078 01000000 		.word	scsiDmaTxChan
 2112 007c 00000000 		.word	scsiDmaRxChan
 2113 0080 04000000 		.word	scsiDmaRxTd
 2114 0084 08000000 		.word	scsiDmaTxTd
 2115 0088 00000000 		.word	scsiRxCompleteISR
 2116 008c 00000000 		.word	scsiTxCompleteISR
 2117              		.cfi_endproc
 2118              	.LFE84:
 2119              		.size	scsiPhyInitDMA, .-scsiPhyInitDMA
 2120              		.section	.text.scsiPhyInit,"ax",%progbits
 2121              		.align	2
 2122              		.global	scsiPhyInit
 2123              		.thumb
 2124              		.thumb_func
 2125              		.type	scsiPhyInit, %function
 2126              	scsiPhyInit:
 2127              	.LFB85:
 503:..\..\src/scsiPhy.c **** 
ARM GAS  C:\Users\r\AppData\Local\Temp\ccqe305w.s 			page 48


 504:..\..\src/scsiPhy.c **** 
 505:..\..\src/scsiPhy.c **** void scsiPhyInit()
 506:..\..\src/scsiPhy.c **** {
 2128              		.loc 1 506 0
 2129              		.cfi_startproc
 2130              		@ args = 0, pretend = 0, frame = 0
 2131              		@ frame_needed = 1, uses_anonymous_args = 0
 2132 0000 80B5     		push	{r7, lr}
 2133              		.cfi_def_cfa_offset 8
 2134              		.cfi_offset 7, -8
 2135              		.cfi_offset 14, -4
 2136 0002 00AF     		add	r7, sp, #0
 2137              		.cfi_def_cfa_register 7
 507:..\..\src/scsiPhy.c **** 	scsiPhyInitDMA();
 2138              		.loc 1 507 0
 2139 0004 FFF7FEFF 		bl	scsiPhyInitDMA
 508:..\..\src/scsiPhy.c **** 
 509:..\..\src/scsiPhy.c **** 	SCSI_RST_ISR_StartEx(scsiResetISR);
 2140              		.loc 1 509 0
 2141 0008 0348     		ldr	r0, .L136
 2142 000a FFF7FEFF 		bl	SCSI_RST_ISR_StartEx
 510:..\..\src/scsiPhy.c **** 
 511:..\..\src/scsiPhy.c **** 	SCSI_SEL_ISR_StartEx(scsiSelectionISR);
 2143              		.loc 1 511 0
 2144 000e 0348     		ldr	r0, .L136+4
 2145 0010 FFF7FEFF 		bl	SCSI_SEL_ISR_StartEx
 512:..\..\src/scsiPhy.c **** }
 2146              		.loc 1 512 0
 2147 0014 00BF     		nop
 2148 0016 80BD     		pop	{r7, pc}
 2149              	.L137:
 2150              		.align	2
 2151              	.L136:
 2152 0018 00000000 		.word	scsiResetISR
 2153 001c 00000000 		.word	scsiSelectionISR
 2154              		.cfi_endproc
 2155              	.LFE85:
 2156              		.size	scsiPhyInit, .-scsiPhyInit
 2157              		.section	.text.scsiPhyConfig,"ax",%progbits
 2158              		.align	2
 2159              		.global	scsiPhyConfig
 2160              		.thumb
 2161              		.thumb_func
 2162              		.type	scsiPhyConfig, %function
 2163              	scsiPhyConfig:
 2164              	.LFB86:
 513:..\..\src/scsiPhy.c **** 
 514:..\..\src/scsiPhy.c **** void scsiPhyConfig()
 515:..\..\src/scsiPhy.c **** {
 2165              		.loc 1 515 0
 2166              		.cfi_startproc
 2167              		@ args = 0, pretend = 0, frame = 8
 2168              		@ frame_needed = 1, uses_anonymous_args = 0
 2169 0000 80B5     		push	{r7, lr}
 2170              		.cfi_def_cfa_offset 8
 2171              		.cfi_offset 7, -8
 2172              		.cfi_offset 14, -4
ARM GAS  C:\Users\r\AppData\Local\Temp\ccqe305w.s 			page 49


 2173 0002 82B0     		sub	sp, sp, #8
 2174              		.cfi_def_cfa_offset 16
 2175 0004 00AF     		add	r7, sp, #0
 2176              		.cfi_def_cfa_register 7
 516:..\..\src/scsiPhy.c **** 	// Disable the glitch filter for ACK to improve performance.
 517:..\..\src/scsiPhy.c **** 	if (scsiDev.boardCfg.flags & CONFIG_DISABLE_GLITCH)
 2177              		.loc 1 517 0
 2178 0006 1A4B     		ldr	r3, .L143
 2179 0008 93F86830 		ldrb	r3, [r3, #104]	@ zero_extendqisi2
 2180 000c 03F00803 		and	r3, r3, #8
 2181 0010 002B     		cmp	r3, #0
 2182 0012 05D0     		beq	.L139
 518:..\..\src/scsiPhy.c **** 	{
 519:..\..\src/scsiPhy.c **** 		SCSI_Glitch_Ctl_Write(1);
 2183              		.loc 1 519 0
 2184 0014 0120     		movs	r0, #1
 2185 0016 FFF7FEFF 		bl	SCSI_Glitch_Ctl_Write
 520:..\..\src/scsiPhy.c **** 
 521:..\..\src/scsiPhy.c **** 		// Reduce deskew time to 1. (deskew init + 0)
 522:..\..\src/scsiPhy.c **** 		CY_SET_REG8(scsiTarget_datapath__D0_REG, 0);
 2186              		.loc 1 522 0
 2187 001a 164B     		ldr	r3, .L143+4
 2188 001c 0022     		movs	r2, #0
 2189 001e 1A70     		strb	r2, [r3]
 2190              	.L139:
 523:..\..\src/scsiPhy.c **** 	}
 524:..\..\src/scsiPhy.c **** 	if ((scsiDev.target->cfg->quirks & CONFIG_QUIRKS_XEBEC) ||
 2191              		.loc 1 524 0
 2192 0020 134B     		ldr	r3, .L143
 2193 0022 1B6E     		ldr	r3, [r3, #96]
 2194 0024 5B68     		ldr	r3, [r3, #4]
 2195 0026 DB8F     		ldrh	r3, [r3, #62]	@ unaligned
 2196 0028 9BB2     		uxth	r3, r3
 2197 002a 03F00403 		and	r3, r3, #4
 2198 002e 002B     		cmp	r3, #0
 2199 0030 04D1     		bne	.L140
 525:..\..\src/scsiPhy.c **** 		(scsiDev.boardCfg.scsiSpeed == CONFIG_SPEED_ASYNC_15))
 2200              		.loc 1 525 0 discriminator 1
 2201 0032 0F4B     		ldr	r3, .L143
 2202 0034 93F86C30 		ldrb	r3, [r3, #108]	@ zero_extendqisi2
 524:..\..\src/scsiPhy.c **** 		(scsiDev.boardCfg.scsiSpeed == CONFIG_SPEED_ASYNC_15))
 2203              		.loc 1 524 0 discriminator 1
 2204 0038 012B     		cmp	r3, #1
 2205 003a 14D1     		bne	.L142
 2206              	.L140:
 2207              	.LBB5:
 526:..\..\src/scsiPhy.c **** 	{
 527:..\..\src/scsiPhy.c **** 		// 125ns to 250ns deskew time = 3.125 clocks
 528:..\..\src/scsiPhy.c **** 		// - 1 (valid during DESKEW INIT)
 529:..\..\src/scsiPhy.c **** 		// = 2.125. Default is 1.
 530:..\..\src/scsiPhy.c **** 		// Round down because it's going to be doubled anyway due to clock
 531:..\..\src/scsiPhy.c **** 		// divider change below.
 532:..\..\src/scsiPhy.c **** 		CY_SET_REG8(scsiTarget_datapath__D0_REG, 2);
 2208              		.loc 1 532 0
 2209 003c 0D4B     		ldr	r3, .L143+4
 2210 003e 0222     		movs	r2, #2
 2211 0040 1A70     		strb	r2, [r3]
ARM GAS  C:\Users\r\AppData\Local\Temp\ccqe305w.s 			page 50


 533:..\..\src/scsiPhy.c **** 
 534:..\..\src/scsiPhy.c **** 		// Half the SCSI clock as a way to extend the glitch filter.
 535:..\..\src/scsiPhy.c **** 		// This also helps meet the 250ns delays between ACK and reading
 536:..\..\src/scsiPhy.c **** 		// data, or release ack and reassert req.
 537:..\..\src/scsiPhy.c **** 
 538:..\..\src/scsiPhy.c **** 		// The register contains (divider - 1)
 539:..\..\src/scsiPhy.c **** 		uint16_t clkDiv25MHz =  SCSI_CLK_GetDividerRegister();
 2212              		.loc 1 539 0
 2213 0042 FFF7FEFF 		bl	SCSI_CLK_GetDividerRegister
 2214 0046 0346     		mov	r3, r0
 2215 0048 FB80     		strh	r3, [r7, #6]	@ movhi
 540:..\..\src/scsiPhy.c **** 		SCSI_CLK_SetDivider(((clkDiv25MHz + 1) * 2) - 1);
 2216              		.loc 1 540 0
 2217 004a FB88     		ldrh	r3, [r7, #6]
 2218 004c 0133     		adds	r3, r3, #1
 2219 004e 9BB2     		uxth	r3, r3
 2220 0050 5B00     		lsls	r3, r3, #1
 2221 0052 9BB2     		uxth	r3, r3
 2222 0054 013B     		subs	r3, r3, #1
 2223 0056 9BB2     		uxth	r3, r3
 2224 0058 0121     		movs	r1, #1
 2225 005a 1846     		mov	r0, r3
 2226 005c FFF7FEFF 		bl	SCSI_CLK_SetDividerRegister
 541:..\..\src/scsiPhy.c **** 		// Wait for the clock to settle.
 542:..\..\src/scsiPhy.c **** 		CyDelayUs(1);
 2227              		.loc 1 542 0
 2228 0060 0120     		movs	r0, #1
 2229 0062 FFF7FEFF 		bl	CyDelayUs
 2230              	.L142:
 2231              	.LBE5:
 543:..\..\src/scsiPhy.c **** 	}
 544:..\..\src/scsiPhy.c **** 
 545:..\..\src/scsiPhy.c **** 	#ifdef TERM_EN_0
 546:..\..\src/scsiPhy.c **** 	TERM_EN_Write((scsiDev.boardCfg.flags6 & S2S_CFG_ENABLE_TERMINATOR) ? 0 : 1);
 547:..\..\src/scsiPhy.c **** 	#endif
 548:..\..\src/scsiPhy.c **** }
 2232              		.loc 1 548 0
 2233 0066 00BF     		nop
 2234 0068 0837     		adds	r7, r7, #8
 2235              		.cfi_def_cfa_offset 8
 2236 006a BD46     		mov	sp, r7
 2237              		.cfi_def_cfa_register 13
 2238              		@ sp needed
 2239 006c 80BD     		pop	{r7, pc}
 2240              	.L144:
 2241 006e 00BF     		.align	2
 2242              	.L143:
 2243 0070 00000000 		.word	scsiDev
 2244 0074 20640040 		.word	1073767456
 2245              		.cfi_endproc
 2246              	.LFE86:
 2247              		.size	scsiPhyConfig, .-scsiPhyConfig
 2248              		.section	.rodata
 2249              		.align	2
 2250              	.LC0:
 2251 0000 31500040 		.word	1073762353
 2252 0004 25500040 		.word	1073762341
ARM GAS  C:\Users\r\AppData\Local\Temp\ccqe305w.s 			page 51


 2253 0008 07500040 		.word	1073762311
 2254              		.align	2
 2255              	.LC1:
 2256 000c 02000000 		.word	2
 2257 0010 08000000 		.word	8
 2258 0014 04000000 		.word	4
 2259              		.section	.text.scsiSelfTest,"ax",%progbits
 2260              		.align	2
 2261              		.global	scsiSelfTest
 2262              		.thumb
 2263              		.thumb_func
 2264              		.type	scsiSelfTest, %function
 2265              	scsiSelfTest:
 2266              	.LFB87:
 549:..\..\src/scsiPhy.c **** 
 550:..\..\src/scsiPhy.c **** // 1 = DBx error
 551:..\..\src/scsiPhy.c **** // 2 = Parity error
 552:..\..\src/scsiPhy.c **** // 4 = MSG error
 553:..\..\src/scsiPhy.c **** // 8 = CD error
 554:..\..\src/scsiPhy.c **** // 16 = IO error
 555:..\..\src/scsiPhy.c **** // 32 = other error
 556:..\..\src/scsiPhy.c **** int scsiSelfTest()
 557:..\..\src/scsiPhy.c **** {
 2267              		.loc 1 557 0
 2268              		.cfi_startproc
 2269              		@ args = 0, pretend = 0, frame = 40
 2270              		@ frame_needed = 1, uses_anonymous_args = 0
 2271 0000 80B5     		push	{r7, lr}
 2272              		.cfi_def_cfa_offset 8
 2273              		.cfi_offset 7, -8
 2274              		.cfi_offset 14, -4
 2275 0002 8AB0     		sub	sp, sp, #40
 2276              		.cfi_def_cfa_offset 48
 2277 0004 00AF     		add	r7, sp, #0
 2278              		.cfi_def_cfa_register 7
 558:..\..\src/scsiPhy.c **** 	int result = 0;
 2279              		.loc 1 558 0
 2280 0006 0023     		movs	r3, #0
 2281 0008 7B62     		str	r3, [r7, #36]
 559:..\..\src/scsiPhy.c **** 
 560:..\..\src/scsiPhy.c **** 	// TEST DBx and DBp
 561:..\..\src/scsiPhy.c **** 	int i;
 562:..\..\src/scsiPhy.c **** 	SCSI_Out_Ctl_Write(1); // Write bits manually.
 2282              		.loc 1 562 0
 2283 000a 0120     		movs	r0, #1
 2284 000c FFF7FEFF 		bl	SCSI_Out_Ctl_Write
 563:..\..\src/scsiPhy.c **** 	SCSI_CTL_PHASE_Write(__scsiphase_io); // Needed for parity generation
 2285              		.loc 1 563 0
 2286 0010 0420     		movs	r0, #4
 2287 0012 FFF7FEFF 		bl	SCSI_CTL_PHASE_Write
 564:..\..\src/scsiPhy.c **** 	for (i = 0; i < 256; ++i)
 2288              		.loc 1 564 0
 2289 0016 0023     		movs	r3, #0
 2290 0018 3B62     		str	r3, [r7, #32]
 2291 001a 2BE0     		b	.L146
 2292              	.L149:
 565:..\..\src/scsiPhy.c **** 	{
ARM GAS  C:\Users\r\AppData\Local\Temp\ccqe305w.s 			page 52


 566:..\..\src/scsiPhy.c **** 		SCSI_Out_Bits_Write(i);
 2293              		.loc 1 566 0
 2294 001c 3B6A     		ldr	r3, [r7, #32]
 2295 001e DBB2     		uxtb	r3, r3
 2296 0020 1846     		mov	r0, r3
 2297 0022 FFF7FEFF 		bl	SCSI_Out_Bits_Write
 567:..\..\src/scsiPhy.c **** 		scsiDeskewDelay();
 2298              		.loc 1 567 0
 2299 0026 0320     		movs	r0, #3
 2300 0028 FFF7FEFF 		bl	CyDelayCycles
 568:..\..\src/scsiPhy.c **** 		if (scsiReadDBxPins() != (i & 0xff))
 2301              		.loc 1 568 0
 2302 002c FFF7FEFF 		bl	scsiReadDBxPins
 2303 0030 0346     		mov	r3, r0
 2304 0032 1A46     		mov	r2, r3
 2305 0034 3B6A     		ldr	r3, [r7, #32]
 2306 0036 DBB2     		uxtb	r3, r3
 2307 0038 9A42     		cmp	r2, r3
 2308 003a 03D0     		beq	.L147
 569:..\..\src/scsiPhy.c **** 		{
 570:..\..\src/scsiPhy.c **** 			result |= 1;
 2309              		.loc 1 570 0
 2310 003c 7B6A     		ldr	r3, [r7, #36]
 2311 003e 43F00103 		orr	r3, r3, #1
 2312 0042 7B62     		str	r3, [r7, #36]
 2313              	.L147:
 571:..\..\src/scsiPhy.c **** 		}
 572:..\..\src/scsiPhy.c **** 		if (Lookup_OddParity[i & 0xff] != SCSI_ReadPin(SCSI_In_DBP))
 2314              		.loc 1 572 0
 2315 0044 3B6A     		ldr	r3, [r7, #32]
 2316 0046 DBB2     		uxtb	r3, r3
 2317 0048 7A4A     		ldr	r2, .L163
 2318 004a D35C     		ldrb	r3, [r2, r3]	@ zero_extendqisi2
 2319 004c 1A46     		mov	r2, r3
 2320 004e 7A4B     		ldr	r3, .L163+4
 2321 0050 1B78     		ldrb	r3, [r3]
 2322 0052 DBB2     		uxtb	r3, r3
 2323 0054 03F01003 		and	r3, r3, #16
 2324 0058 002B     		cmp	r3, #0
 2325 005a 0CBF     		ite	eq
 2326 005c 0123     		moveq	r3, #1
 2327 005e 0023     		movne	r3, #0
 2328 0060 DBB2     		uxtb	r3, r3
 2329 0062 9A42     		cmp	r2, r3
 2330 0064 03D0     		beq	.L148
 573:..\..\src/scsiPhy.c **** 		{
 574:..\..\src/scsiPhy.c **** 			result |= 2;
 2331              		.loc 1 574 0
 2332 0066 7B6A     		ldr	r3, [r7, #36]
 2333 0068 43F00203 		orr	r3, r3, #2
 2334 006c 7B62     		str	r3, [r7, #36]
 2335              	.L148:
 564:..\..\src/scsiPhy.c **** 	{
 2336              		.loc 1 564 0 discriminator 2
 2337 006e 3B6A     		ldr	r3, [r7, #32]
 2338 0070 0133     		adds	r3, r3, #1
 2339 0072 3B62     		str	r3, [r7, #32]
ARM GAS  C:\Users\r\AppData\Local\Temp\ccqe305w.s 			page 53


 2340              	.L146:
 564:..\..\src/scsiPhy.c **** 	{
 2341              		.loc 1 564 0 is_stmt 0 discriminator 1
 2342 0074 3B6A     		ldr	r3, [r7, #32]
 2343 0076 FF2B     		cmp	r3, #255
 2344 0078 D0DD     		ble	.L149
 575:..\..\src/scsiPhy.c **** 		}
 576:..\..\src/scsiPhy.c **** 	}
 577:..\..\src/scsiPhy.c **** 	SCSI_Out_Ctl_Write(0); // Write bits normally.
 2345              		.loc 1 577 0 is_stmt 1
 2346 007a 0020     		movs	r0, #0
 2347 007c FFF7FEFF 		bl	SCSI_Out_Ctl_Write
 578:..\..\src/scsiPhy.c **** 
 579:..\..\src/scsiPhy.c **** 	// TEST MSG, CD, IO
 580:..\..\src/scsiPhy.c **** 	#ifdef SCSI_In_MSG
 581:..\..\src/scsiPhy.c **** 	for (i = 0; i < 8; ++i)
 2348              		.loc 1 581 0
 2349 0080 0023     		movs	r3, #0
 2350 0082 3B62     		str	r3, [r7, #32]
 2351 0084 58E0     		b	.L150
 2352              	.L154:
 582:..\..\src/scsiPhy.c **** 	{
 583:..\..\src/scsiPhy.c **** 		SCSI_CTL_PHASE_Write(i);
 2353              		.loc 1 583 0
 2354 0086 3B6A     		ldr	r3, [r7, #32]
 2355 0088 DBB2     		uxtb	r3, r3
 2356 008a 1846     		mov	r0, r3
 2357 008c FFF7FEFF 		bl	SCSI_CTL_PHASE_Write
 584:..\..\src/scsiPhy.c **** 		scsiDeskewDelay();
 2358              		.loc 1 584 0
 2359 0090 0320     		movs	r0, #3
 2360 0092 FFF7FEFF 		bl	CyDelayCycles
 585:..\..\src/scsiPhy.c **** 
 586:..\..\src/scsiPhy.c **** 		if (SCSI_ReadPin(SCSI_In_MSG) != !!(i & __scsiphase_msg))
 2361              		.loc 1 586 0
 2362 0096 694B     		ldr	r3, .L163+8
 2363 0098 1B78     		ldrb	r3, [r3]
 2364 009a DBB2     		uxtb	r3, r3
 2365 009c 03F01003 		and	r3, r3, #16
 2366 00a0 002B     		cmp	r3, #0
 2367 00a2 0CBF     		ite	eq
 2368 00a4 0123     		moveq	r3, #1
 2369 00a6 0023     		movne	r3, #0
 2370 00a8 DAB2     		uxtb	r2, r3
 2371 00aa 3B6A     		ldr	r3, [r7, #32]
 2372 00ac 03F00103 		and	r3, r3, #1
 2373 00b0 002B     		cmp	r3, #0
 2374 00b2 14BF     		ite	ne
 2375 00b4 0123     		movne	r3, #1
 2376 00b6 0023     		moveq	r3, #0
 2377 00b8 DBB2     		uxtb	r3, r3
 2378 00ba 5340     		eors	r3, r3, r2
 2379 00bc DBB2     		uxtb	r3, r3
 2380 00be 002B     		cmp	r3, #0
 2381 00c0 03D0     		beq	.L151
 587:..\..\src/scsiPhy.c **** 		{
 588:..\..\src/scsiPhy.c **** 			result |= 4;
ARM GAS  C:\Users\r\AppData\Local\Temp\ccqe305w.s 			page 54


 2382              		.loc 1 588 0
 2383 00c2 7B6A     		ldr	r3, [r7, #36]
 2384 00c4 43F00403 		orr	r3, r3, #4
 2385 00c8 7B62     		str	r3, [r7, #36]
 2386              	.L151:
 589:..\..\src/scsiPhy.c **** 		}
 590:..\..\src/scsiPhy.c **** 		if (SCSI_ReadPin(SCSI_In_CD) != !!(i & __scsiphase_cd))
 2387              		.loc 1 590 0
 2388 00ca 5D4B     		ldr	r3, .L163+12
 2389 00cc 1B78     		ldrb	r3, [r3]
 2390 00ce DBB2     		uxtb	r3, r3
 2391 00d0 03F01003 		and	r3, r3, #16
 2392 00d4 002B     		cmp	r3, #0
 2393 00d6 0CBF     		ite	eq
 2394 00d8 0123     		moveq	r3, #1
 2395 00da 0023     		movne	r3, #0
 2396 00dc DAB2     		uxtb	r2, r3
 2397 00de 3B6A     		ldr	r3, [r7, #32]
 2398 00e0 03F00203 		and	r3, r3, #2
 2399 00e4 002B     		cmp	r3, #0
 2400 00e6 14BF     		ite	ne
 2401 00e8 0123     		movne	r3, #1
 2402 00ea 0023     		moveq	r3, #0
 2403 00ec DBB2     		uxtb	r3, r3
 2404 00ee 5340     		eors	r3, r3, r2
 2405 00f0 DBB2     		uxtb	r3, r3
 2406 00f2 002B     		cmp	r3, #0
 2407 00f4 03D0     		beq	.L152
 591:..\..\src/scsiPhy.c **** 		{
 592:..\..\src/scsiPhy.c **** 			result |= 8;
 2408              		.loc 1 592 0
 2409 00f6 7B6A     		ldr	r3, [r7, #36]
 2410 00f8 43F00803 		orr	r3, r3, #8
 2411 00fc 7B62     		str	r3, [r7, #36]
 2412              	.L152:
 593:..\..\src/scsiPhy.c **** 		}
 594:..\..\src/scsiPhy.c **** 		if (SCSI_ReadPin(SCSI_In_IO) != !!(i & __scsiphase_io))
 2413              		.loc 1 594 0
 2414 00fe 514B     		ldr	r3, .L163+16
 2415 0100 1B78     		ldrb	r3, [r3]
 2416 0102 DBB2     		uxtb	r3, r3
 2417 0104 03F01003 		and	r3, r3, #16
 2418 0108 002B     		cmp	r3, #0
 2419 010a 0CBF     		ite	eq
 2420 010c 0123     		moveq	r3, #1
 2421 010e 0023     		movne	r3, #0
 2422 0110 DAB2     		uxtb	r2, r3
 2423 0112 3B6A     		ldr	r3, [r7, #32]
 2424 0114 03F00403 		and	r3, r3, #4
 2425 0118 002B     		cmp	r3, #0
 2426 011a 14BF     		ite	ne
 2427 011c 0123     		movne	r3, #1
 2428 011e 0023     		moveq	r3, #0
 2429 0120 DBB2     		uxtb	r3, r3
 2430 0122 5340     		eors	r3, r3, r2
 2431 0124 DBB2     		uxtb	r3, r3
 2432 0126 002B     		cmp	r3, #0
ARM GAS  C:\Users\r\AppData\Local\Temp\ccqe305w.s 			page 55


 2433 0128 03D0     		beq	.L153
 595:..\..\src/scsiPhy.c **** 		{
 596:..\..\src/scsiPhy.c **** 			result |= 16;
 2434              		.loc 1 596 0
 2435 012a 7B6A     		ldr	r3, [r7, #36]
 2436 012c 43F01003 		orr	r3, r3, #16
 2437 0130 7B62     		str	r3, [r7, #36]
 2438              	.L153:
 581:..\..\src/scsiPhy.c **** 	{
 2439              		.loc 1 581 0 discriminator 2
 2440 0132 3B6A     		ldr	r3, [r7, #32]
 2441 0134 0133     		adds	r3, r3, #1
 2442 0136 3B62     		str	r3, [r7, #32]
 2443              	.L150:
 581:..\..\src/scsiPhy.c **** 	{
 2444              		.loc 1 581 0 is_stmt 0 discriminator 1
 2445 0138 3B6A     		ldr	r3, [r7, #32]
 2446 013a 072B     		cmp	r3, #7
 2447 013c A3DD     		ble	.L154
 597:..\..\src/scsiPhy.c **** 		}
 598:..\..\src/scsiPhy.c **** 	}
 599:..\..\src/scsiPhy.c **** 	#endif
 600:..\..\src/scsiPhy.c **** 	SCSI_CTL_PHASE_Write(0);
 2448              		.loc 1 600 0 is_stmt 1
 2449 013e 0020     		movs	r0, #0
 2450 0140 FFF7FEFF 		bl	SCSI_CTL_PHASE_Write
 601:..\..\src/scsiPhy.c **** 
 602:..\..\src/scsiPhy.c **** 	uint32_t signalsOut[] = { SCSI_Out_BSY, SCSI_Out_RST, SCSI_Out_SEL };
 2451              		.loc 1 602 0
 2452 0144 404A     		ldr	r2, .L163+20
 2453 0146 07F11003 		add	r3, r7, #16
 2454 014a 07CA     		ldmia	r2, {r0, r1, r2}
 2455 014c 83E80700 		stmia	r3, {r0, r1, r2}
 603:..\..\src/scsiPhy.c **** 	uint32_t signalsIn[] = { SCSI_Filt_BSY, SCSI_Filt_RST, SCSI_Filt_SEL };
 2456              		.loc 1 603 0
 2457 0150 3E4A     		ldr	r2, .L163+24
 2458 0152 3B1D     		adds	r3, r7, #4
 2459 0154 07CA     		ldmia	r2, {r0, r1, r2}
 2460 0156 83E80700 		stmia	r3, {r0, r1, r2}
 604:..\..\src/scsiPhy.c **** 
 605:..\..\src/scsiPhy.c **** 	for (i = 0; i < 3; ++i)
 2461              		.loc 1 605 0
 2462 015a 0023     		movs	r3, #0
 2463 015c 3B62     		str	r3, [r7, #32]
 2464 015e 61E0     		b	.L155
 2465              	.L161:
 2466              	.LBB6:
 606:..\..\src/scsiPhy.c **** 	{
 607:..\..\src/scsiPhy.c **** 		SCSI_SetPin(signalsOut[i]);
 2467              		.loc 1 607 0
 2468 0160 3B6A     		ldr	r3, [r7, #32]
 2469 0162 9B00     		lsls	r3, r3, #2
 2470 0164 07F12802 		add	r2, r7, #40
 2471 0168 1344     		add	r3, r3, r2
 2472 016a 53F8183C 		ldr	r3, [r3, #-24]
 2473 016e 1A46     		mov	r2, r3
 2474 0170 3B6A     		ldr	r3, [r7, #32]
ARM GAS  C:\Users\r\AppData\Local\Temp\ccqe305w.s 			page 56


 2475 0172 9B00     		lsls	r3, r3, #2
 2476 0174 07F12801 		add	r1, r7, #40
 2477 0178 0B44     		add	r3, r3, r1
 2478 017a 53F8183C 		ldr	r3, [r3, #-24]
 2479 017e 1B78     		ldrb	r3, [r3]
 2480 0180 DBB2     		uxtb	r3, r3
 2481 0182 43F00103 		orr	r3, r3, #1
 2482 0186 DBB2     		uxtb	r3, r3
 2483 0188 1370     		strb	r3, [r2]
 608:..\..\src/scsiPhy.c **** 		scsiDeskewDelay();
 2484              		.loc 1 608 0
 2485 018a 0320     		movs	r0, #3
 2486 018c FFF7FEFF 		bl	CyDelayCycles
 609:..\..\src/scsiPhy.c **** 
 610:..\..\src/scsiPhy.c **** 		int j;
 611:..\..\src/scsiPhy.c **** 		for (j = 0; j < 3; ++j)
 2487              		.loc 1 611 0
 2488 0190 0023     		movs	r3, #0
 2489 0192 FB61     		str	r3, [r7, #28]
 2490 0194 2BE0     		b	.L156
 2491              	.L160:
 612:..\..\src/scsiPhy.c **** 		{
 613:..\..\src/scsiPhy.c **** 			if (i == j)
 2492              		.loc 1 613 0
 2493 0196 3A6A     		ldr	r2, [r7, #32]
 2494 0198 FB69     		ldr	r3, [r7, #28]
 2495 019a 9A42     		cmp	r2, r3
 2496 019c 12D1     		bne	.L157
 614:..\..\src/scsiPhy.c **** 			{
 615:..\..\src/scsiPhy.c **** 				if (! SCSI_ReadFilt(signalsIn[j]))
 2497              		.loc 1 615 0
 2498 019e FFF7FEFF 		bl	SCSI_Filtered_Read
 2499 01a2 0346     		mov	r3, r0
 2500 01a4 1A46     		mov	r2, r3
 2501 01a6 FB69     		ldr	r3, [r7, #28]
 2502 01a8 9B00     		lsls	r3, r3, #2
 2503 01aa 07F12801 		add	r1, r7, #40
 2504 01ae 0B44     		add	r3, r3, r1
 2505 01b0 53F8243C 		ldr	r3, [r3, #-36]
 2506 01b4 1340     		ands	r3, r3, r2
 2507 01b6 002B     		cmp	r3, #0
 2508 01b8 16D0     		beq	.L159
 616:..\..\src/scsiPhy.c **** 				{
 617:..\..\src/scsiPhy.c **** 					result |= 32;
 2509              		.loc 1 617 0
 2510 01ba 7B6A     		ldr	r3, [r7, #36]
 2511 01bc 43F02003 		orr	r3, r3, #32
 2512 01c0 7B62     		str	r3, [r7, #36]
 2513 01c2 11E0     		b	.L159
 2514              	.L157:
 618:..\..\src/scsiPhy.c **** 				}
 619:..\..\src/scsiPhy.c **** 			}
 620:..\..\src/scsiPhy.c **** 			else
 621:..\..\src/scsiPhy.c **** 			{
 622:..\..\src/scsiPhy.c **** 				if (SCSI_ReadFilt(signalsIn[j]))
 2515              		.loc 1 622 0
 2516 01c4 FFF7FEFF 		bl	SCSI_Filtered_Read
ARM GAS  C:\Users\r\AppData\Local\Temp\ccqe305w.s 			page 57


 2517 01c8 0346     		mov	r3, r0
 2518 01ca 1A46     		mov	r2, r3
 2519 01cc FB69     		ldr	r3, [r7, #28]
 2520 01ce 9B00     		lsls	r3, r3, #2
 2521 01d0 07F12801 		add	r1, r7, #40
 2522 01d4 0B44     		add	r3, r3, r1
 2523 01d6 53F8243C 		ldr	r3, [r3, #-36]
 2524 01da 1340     		ands	r3, r3, r2
 2525 01dc 002B     		cmp	r3, #0
 2526 01de 03D1     		bne	.L159
 623:..\..\src/scsiPhy.c **** 				{
 624:..\..\src/scsiPhy.c **** 					result |= 32;
 2527              		.loc 1 624 0
 2528 01e0 7B6A     		ldr	r3, [r7, #36]
 2529 01e2 43F02003 		orr	r3, r3, #32
 2530 01e6 7B62     		str	r3, [r7, #36]
 2531              	.L159:
 611:..\..\src/scsiPhy.c **** 		{
 2532              		.loc 1 611 0 discriminator 2
 2533 01e8 FB69     		ldr	r3, [r7, #28]
 2534 01ea 0133     		adds	r3, r3, #1
 2535 01ec FB61     		str	r3, [r7, #28]
 2536              	.L156:
 611:..\..\src/scsiPhy.c **** 		{
 2537              		.loc 1 611 0 is_stmt 0 discriminator 1
 2538 01ee FB69     		ldr	r3, [r7, #28]
 2539 01f0 022B     		cmp	r3, #2
 2540 01f2 D0DD     		ble	.L160
 625:..\..\src/scsiPhy.c **** 				}
 626:..\..\src/scsiPhy.c **** 			}
 627:..\..\src/scsiPhy.c **** 		}
 628:..\..\src/scsiPhy.c **** 		SCSI_ClearPin(signalsOut[i]);
 2541              		.loc 1 628 0 is_stmt 1 discriminator 2
 2542 01f4 3B6A     		ldr	r3, [r7, #32]
 2543 01f6 9B00     		lsls	r3, r3, #2
 2544 01f8 07F12802 		add	r2, r7, #40
 2545 01fc 1344     		add	r3, r3, r2
 2546 01fe 53F8183C 		ldr	r3, [r3, #-24]
 2547 0202 1A46     		mov	r2, r3
 2548 0204 3B6A     		ldr	r3, [r7, #32]
 2549 0206 9B00     		lsls	r3, r3, #2
 2550 0208 07F12801 		add	r1, r7, #40
 2551 020c 0B44     		add	r3, r3, r1
 2552 020e 53F8183C 		ldr	r3, [r3, #-24]
 2553 0212 1B78     		ldrb	r3, [r3]
 2554 0214 DBB2     		uxtb	r3, r3
 2555 0216 23F00103 		bic	r3, r3, #1
 2556 021a DBB2     		uxtb	r3, r3
 2557 021c 1370     		strb	r3, [r2]
 2558              	.LBE6:
 605:..\..\src/scsiPhy.c **** 	{
 2559              		.loc 1 605 0 discriminator 2
 2560 021e 3B6A     		ldr	r3, [r7, #32]
 2561 0220 0133     		adds	r3, r3, #1
 2562 0222 3B62     		str	r3, [r7, #32]
 2563              	.L155:
 605:..\..\src/scsiPhy.c **** 	{
ARM GAS  C:\Users\r\AppData\Local\Temp\ccqe305w.s 			page 58


 2564              		.loc 1 605 0 is_stmt 0 discriminator 1
 2565 0224 3B6A     		ldr	r3, [r7, #32]
 2566 0226 022B     		cmp	r3, #2
 2567 0228 9ADD     		ble	.L161
 629:..\..\src/scsiPhy.c **** 	}
 630:..\..\src/scsiPhy.c **** 	return result;
 2568              		.loc 1 630 0 is_stmt 1
 2569 022a 7B6A     		ldr	r3, [r7, #36]
 631:..\..\src/scsiPhy.c **** }
 2570              		.loc 1 631 0
 2571 022c 1846     		mov	r0, r3
 2572 022e 2837     		adds	r7, r7, #40
 2573              		.cfi_def_cfa_offset 8
 2574 0230 BD46     		mov	sp, r7
 2575              		.cfi_def_cfa_register 13
 2576              		@ sp needed
 2577 0232 80BD     		pop	{r7, pc}
 2578              	.L164:
 2579              		.align	2
 2580              	.L163:
 2581 0234 00000000 		.word	Lookup_OddParity
 2582 0238 11500040 		.word	1073762321
 2583 023c 26500040 		.word	1073762342
 2584 0240 22500040 		.word	1073762338
 2585 0244 04500040 		.word	1073762308
 2586 0248 00000000 		.word	.LC0
 2587 024c 0C000000 		.word	.LC1
 2588              		.cfi_endproc
 2589              	.LFE87:
 2590              		.size	scsiSelfTest, .-scsiSelfTest
 2591              		.text
 2592              	.Letext0:
 2593              		.file 2 "c:\\program files (x86)\\cypress\\psoc creator\\4.2\\psoc creator\\import\\gnu\\arm\\5.4.
 2594              		.file 3 "c:\\program files (x86)\\cypress\\psoc creator\\4.2\\psoc creator\\import\\gnu\\arm\\5.4.
 2595              		.file 4 "Generated_Source\\PSoC5/cytypes.h"
 2596              		.file 5 "../../../include/scsi2sd.h"
 2597              		.file 6 "..\\..\\src\\sense.h"
 2598              		.file 7 "..\\..\\src\\scsi.h"
 2599              		.file 8 "..\\..\\src\\scsiPhy.h"
 2600              		.file 9 "..\\..\\src\\trace.h"
 2601              		.file 10 "Generated_Source\\PSoC5/core_cm3.h"
 2602              		.file 11 "..\\..\\src\\bits.h"