ARM GAS  C:\Users\r\AppData\Local\Temp\ccqe305w.s 			page 1


   1              		.syntax unified
   2              		.cpu cortex-m3
   3              		.fpu softvfp
   4              		.eabi_attribute 20, 1
   5              		.eabi_attribute 21, 1
   6              		.eabi_attribute 23, 3
   7              		.eabi_attribute 24, 1
   8              		.eabi_attribute 25, 1
   9              		.eabi_attribute 26, 1
  10              		.eabi_attribute 30, 6
  11              		.eabi_attribute 34, 1
  12              		.eabi_attribute 18, 4
  13              		.thumb
  14              		.syntax unified
  15              		.file	"scsiPhy.c"
  16              		.text
  17              	.Ltext0:
  18              		.cfi_sections	.debug_frame
  19              		.bss
  20              		.align	2
  21              	dmaInProgress:
  22 0000 00000000 		.space	4
  23              		.align	2
  24              	dmaBuffer:
  25 0004 00000000 		.space	4
  26              		.align	2
  27              	dmaSentCount:
  28 0008 00000000 		.space	4
  29              		.align	2
  30              	dmaTotalCount:
  31 000c 00000000 		.space	4
  32              		.data
  33              		.type	scsiDmaRxChan, %object
  34              		.size	scsiDmaRxChan, 1
  35              	scsiDmaRxChan:
  36 0000 FF       		.byte	-1
  37              		.type	scsiDmaTxChan, %object
  38              		.size	scsiDmaTxChan, 1
  39              	scsiDmaTxChan:
  40 0001 FF       		.byte	-1
  41 0002 0000     		.align	2
  42              		.type	scsiDmaRxTd, %object
  43              		.size	scsiDmaRxTd, 1
  44              	scsiDmaRxTd:
  45 0004 FF       		.byte	-1
  46 0005 000000   		.align	2
  47              		.type	scsiDmaTxTd, %object
  48              		.size	scsiDmaTxTd, 1
  49              	scsiDmaTxTd:
  50 0008 FF       		.byte	-1
  51              		.type	dummyBuffer, %object
  52              		.size	dummyBuffer, 1
  53              	dummyBuffer:
  54 0009 FF       		.byte	-1
  55              		.comm	scsiRxDMAComplete,1,1
  56              		.comm	scsiTxDMAComplete,1,1
  57              		.section	.text.scsiRxCompleteISR,"ax",%progbits
ARM GAS  C:\Users\r\AppData\Local\Temp\ccqe305w.s 			page 2


  58              		.align	2
  59              		.global	scsiRxCompleteISR
  60              		.thumb
  61              		.thumb_func
  62              		.type	scsiRxCompleteISR, %function
  63              	scsiRxCompleteISR:
  64              	.LFB64:
  65              		.file 1 "..\\..\\src\\scsiPhy.c"
   1:..\..\src/scsiPhy.c **** //	Copyright (C) 2013 Michael McMaster <michael@codesrc.com>
   2:..\..\src/scsiPhy.c **** //
   3:..\..\src/scsiPhy.c **** //	This file is part of SCSI2SD.
   4:..\..\src/scsiPhy.c **** //
   5:..\..\src/scsiPhy.c **** //	SCSI2SD is free software: you can redistribute it and/or modify
   6:..\..\src/scsiPhy.c **** //	it under the terms of the GNU General Public License as published by
   7:..\..\src/scsiPhy.c **** //	the Free Software Foundation, either version 3 of the License, or
   8:..\..\src/scsiPhy.c **** //	(at your option) any later version.
   9:..\..\src/scsiPhy.c **** //
  10:..\..\src/scsiPhy.c **** //	SCSI2SD is distributed in the hope that it will be useful,
  11:..\..\src/scsiPhy.c **** //	but WITHOUT ANY WARRANTY; without even the implied warranty of
  12:..\..\src/scsiPhy.c **** //	MERCHANTABILITY or FITNESS FOR A PARTICULAR PURPOSE.  See the
  13:..\..\src/scsiPhy.c **** //	GNU General Public License for more details.
  14:..\..\src/scsiPhy.c **** //
  15:..\..\src/scsiPhy.c **** //	You should have received a copy of the GNU General Public License
  16:..\..\src/scsiPhy.c **** //	along with SCSI2SD.  If not, see <http://www.gnu.org/licenses/>.
  17:..\..\src/scsiPhy.c **** #include "device.h"
  18:..\..\src/scsiPhy.c **** #include "scsi.h"
  19:..\..\src/scsiPhy.c **** #include "scsiPhy.h"
  20:..\..\src/scsiPhy.c **** #include "bits.h"
  21:..\..\src/scsiPhy.c **** #include "trace.h"
  22:..\..\src/scsiPhy.c **** 
  23:..\..\src/scsiPhy.c **** #define scsiTarget_AUX_CTL (* (reg8 *) scsiTarget_datapath__DP_AUX_CTL_REG)
  24:..\..\src/scsiPhy.c **** 
  25:..\..\src/scsiPhy.c **** // DMA controller can't handle any more than 4095 bytes,
  26:..\..\src/scsiPhy.c **** // but we round down to nearest multiple of 4 bytes..
  27:..\..\src/scsiPhy.c **** #define MAX_DMA_BYTES 4088
  28:..\..\src/scsiPhy.c **** 
  29:..\..\src/scsiPhy.c **** // Private DMA variables.
  30:..\..\src/scsiPhy.c **** static int dmaInProgress = 0;
  31:..\..\src/scsiPhy.c **** // used when transferring > MAX_DMA_BYTES.
  32:..\..\src/scsiPhy.c **** static uint8_t* dmaBuffer = NULL;
  33:..\..\src/scsiPhy.c **** static uint32_t dmaSentCount = 0;
  34:..\..\src/scsiPhy.c **** static uint32_t dmaTotalCount = 0;
  35:..\..\src/scsiPhy.c **** 
  36:..\..\src/scsiPhy.c **** static uint8 scsiDmaRxChan = CY_DMA_INVALID_CHANNEL;
  37:..\..\src/scsiPhy.c **** static uint8 scsiDmaTxChan = CY_DMA_INVALID_CHANNEL;
  38:..\..\src/scsiPhy.c **** 
  39:..\..\src/scsiPhy.c **** // DMA descriptors
  40:..\..\src/scsiPhy.c **** static uint8 scsiDmaRxTd[1] = { CY_DMA_INVALID_TD };
  41:..\..\src/scsiPhy.c **** static uint8 scsiDmaTxTd[1] = { CY_DMA_INVALID_TD };
  42:..\..\src/scsiPhy.c **** 
  43:..\..\src/scsiPhy.c **** // Source of dummy bytes for DMA reads
  44:..\..\src/scsiPhy.c **** static uint8 dummyBuffer = 0xFF;
  45:..\..\src/scsiPhy.c **** 
  46:..\..\src/scsiPhy.c **** volatile uint8_t scsiRxDMAComplete;
  47:..\..\src/scsiPhy.c **** volatile uint8_t scsiTxDMAComplete;
  48:..\..\src/scsiPhy.c **** 
  49:..\..\src/scsiPhy.c **** CY_ISR_PROTO(scsiRxCompleteISR);
ARM GAS  C:\Users\r\AppData\Local\Temp\ccqe305w.s 			page 3


  50:..\..\src/scsiPhy.c **** CY_ISR(scsiRxCompleteISR)
  51:..\..\src/scsiPhy.c **** {
  66              		.loc 1 51 0
  67              		.cfi_startproc
  68              		@ args = 0, pretend = 0, frame = 0
  69              		@ frame_needed = 1, uses_anonymous_args = 0
  70              		@ link register save eliminated.
  71 0000 80B4     		push	{r7}
  72              		.cfi_def_cfa_offset 4
  73              		.cfi_offset 7, -4
  74 0002 00AF     		add	r7, sp, #0
  75              		.cfi_def_cfa_register 7
  52:..\..\src/scsiPhy.c **** 	traceIrq(trace_scsiRxCompleteISR);
  76              		.loc 1 52 0
  77 0004 044B     		ldr	r3, .L2
  78 0006 5022     		movs	r2, #80
  79 0008 1A70     		strb	r2, [r3]
  53:..\..\src/scsiPhy.c **** 	scsiRxDMAComplete = 1;
  80              		.loc 1 53 0
  81 000a 044B     		ldr	r3, .L2+4
  82 000c 0122     		movs	r2, #1
  83 000e 1A70     		strb	r2, [r3]
  54:..\..\src/scsiPhy.c **** }
  84              		.loc 1 54 0
  85 0010 00BF     		nop
  86 0012 BD46     		mov	sp, r7
  87              		.cfi_def_cfa_register 13
  88              		@ sp needed
  89 0014 80BC     		pop	{r7}
  90              		.cfi_restore 7
  91              		.cfi_def_cfa_offset 0
  92 0016 7047     		bx	lr
  93              	.L3:
  94              		.align	2
  95              	.L2:
  96 0018 00000000 		.word	LastTrace
  97 001c 00000000 		.word	scsiRxDMAComplete
  98              		.cfi_endproc
  99              	.LFE64:
 100              		.size	scsiRxCompleteISR, .-scsiRxCompleteISR
 101              		.section	.text.scsiTxCompleteISR,"ax",%progbits
 102              		.align	2
 103              		.global	scsiTxCompleteISR
 104              		.thumb
 105              		.thumb_func
 106              		.type	scsiTxCompleteISR, %function
 107              	scsiTxCompleteISR:
 108              	.LFB65:
  55:..\..\src/scsiPhy.c **** 
  56:..\..\src/scsiPhy.c **** CY_ISR_PROTO(scsiTxCompleteISR);
  57:..\..\src/scsiPhy.c **** CY_ISR(scsiTxCompleteISR)
  58:..\..\src/scsiPhy.c **** {
 109              		.loc 1 58 0
 110              		.cfi_startproc
 111              		@ args = 0, pretend = 0, frame = 0
 112              		@ frame_needed = 1, uses_anonymous_args = 0
 113              		@ link register save eliminated.
ARM GAS  C:\Users\r\AppData\Local\Temp\ccqe305w.s 			page 4


 114 0000 80B4     		push	{r7}
 115              		.cfi_def_cfa_offset 4
 116              		.cfi_offset 7, -4
 117 0002 00AF     		add	r7, sp, #0
 118              		.cfi_def_cfa_register 7
  59:..\..\src/scsiPhy.c **** 	traceIrq(trace_scsiTxCompleteISR);
 119              		.loc 1 59 0
 120 0004 044B     		ldr	r3, .L5
 121 0006 5122     		movs	r2, #81
 122 0008 1A70     		strb	r2, [r3]
  60:..\..\src/scsiPhy.c **** 	scsiTxDMAComplete = 1;
 123              		.loc 1 60 0
 124 000a 044B     		ldr	r3, .L5+4
 125 000c 0122     		movs	r2, #1
 126 000e 1A70     		strb	r2, [r3]
  61:..\..\src/scsiPhy.c **** }
 127              		.loc 1 61 0
 128 0010 00BF     		nop
 129 0012 BD46     		mov	sp, r7
 130              		.cfi_def_cfa_register 13
 131              		@ sp needed
 132 0014 80BC     		pop	{r7}
 133              		.cfi_restore 7
 134              		.cfi_def_cfa_offset 0
 135 0016 7047     		bx	lr
 136              	.L6:
 137              		.align	2
 138              	.L5:
 139 0018 00000000 		.word	LastTrace
 140 001c 00000000 		.word	scsiTxDMAComplete
 141              		.cfi_endproc
 142              	.LFE65:
 143              		.size	scsiTxCompleteISR, .-scsiTxCompleteISR
 144              		.section	.text.scsiResetISR,"ax",%progbits
 145              		.align	2
 146              		.global	scsiResetISR
 147              		.thumb
 148              		.thumb_func
 149              		.type	scsiResetISR, %function
 150              	scsiResetISR:
 151              	.LFB66:
  62:..\..\src/scsiPhy.c **** 
  63:..\..\src/scsiPhy.c **** CY_ISR_PROTO(scsiResetISR);
  64:..\..\src/scsiPhy.c **** CY_ISR(scsiResetISR)
  65:..\..\src/scsiPhy.c **** {
 152              		.loc 1 65 0
 153              		.cfi_startproc
 154              		@ args = 0, pretend = 0, frame = 0
 155              		@ frame_needed = 1, uses_anonymous_args = 0
 156              		@ link register save eliminated.
 157 0000 80B4     		push	{r7}
 158              		.cfi_def_cfa_offset 4
 159              		.cfi_offset 7, -4
 160 0002 00AF     		add	r7, sp, #0
 161              		.cfi_def_cfa_register 7
  66:..\..\src/scsiPhy.c **** 	traceIrq(trace_scsiResetISR);
 162              		.loc 1 66 0
ARM GAS  C:\Users\r\AppData\Local\Temp\ccqe305w.s 			page 5


 163 0004 054B     		ldr	r3, .L8
 164 0006 5222     		movs	r2, #82
 165 0008 1A70     		strb	r2, [r3]
  67:..\..\src/scsiPhy.c **** 	scsiDev.resetFlag = 1;
 166              		.loc 1 67 0
 167 000a 054B     		ldr	r3, .L8+4
 168 000c 0122     		movs	r2, #1
 169 000e C3F86821 		str	r2, [r3, #360]
  68:..\..\src/scsiPhy.c **** }
 170              		.loc 1 68 0
 171 0012 00BF     		nop
 172 0014 BD46     		mov	sp, r7
 173              		.cfi_def_cfa_register 13
 174              		@ sp needed
 175 0016 80BC     		pop	{r7}
 176              		.cfi_restore 7
 177              		.cfi_def_cfa_offset 0
 178 0018 7047     		bx	lr
 179              	.L9:
 180 001a 00BF     		.align	2
 181              	.L8:
 182 001c 00000000 		.word	LastTrace
 183 0020 00000000 		.word	scsiDev
 184              		.cfi_endproc
 185              	.LFE66:
 186              		.size	scsiResetISR, .-scsiResetISR
 187              		.section	.text.scsiSelectionISR,"ax",%progbits
 188              		.align	2
 189              		.global	scsiSelectionISR
 190              		.thumb
 191              		.thumb_func
 192              		.type	scsiSelectionISR, %function
 193              	scsiSelectionISR:
 194              	.LFB67:
  69:..\..\src/scsiPhy.c **** 
  70:..\..\src/scsiPhy.c **** CY_ISR_PROTO(scsiSelectionISR);
  71:..\..\src/scsiPhy.c **** CY_ISR(scsiSelectionISR)
  72:..\..\src/scsiPhy.c **** {
 195              		.loc 1 72 0
 196              		.cfi_startproc
 197              		@ args = 0, pretend = 0, frame = 0
 198              		@ frame_needed = 1, uses_anonymous_args = 0
 199 0000 80B5     		push	{r7, lr}
 200              		.cfi_def_cfa_offset 8
 201              		.cfi_offset 7, -8
 202              		.cfi_offset 14, -4
 203 0002 00AF     		add	r7, sp, #0
 204              		.cfi_def_cfa_register 7
  73:..\..\src/scsiPhy.c **** 	// The SEL signal ISR ensures we wake up from a _WFI() (wait-for-interrupt)
  74:..\..\src/scsiPhy.c **** 	// call in the main loop without waiting for our 1ms timer to
  75:..\..\src/scsiPhy.c **** 	// expire. This is done to meet the 250us selection abort time.
  76:..\..\src/scsiPhy.c **** 	
  77:..\..\src/scsiPhy.c **** 	// selFlag is required for Philips P2000C which releases it after 600ns
  78:..\..\src/scsiPhy.c **** 	// without waiting for BSY.
  79:..\..\src/scsiPhy.c **** 	scsiDev.selFlag = 1;
 205              		.loc 1 79 0
 206 0004 064B     		ldr	r3, .L11
ARM GAS  C:\Users\r\AppData\Local\Temp\ccqe305w.s 			page 6


 207 0006 0122     		movs	r2, #1
 208 0008 C3F86C21 		str	r2, [r3, #364]
  80:..\..\src/scsiPhy.c **** 
  81:..\..\src/scsiPhy.c **** 	// Required for some early Mac Plus roms
  82:..\..\src/scsiPhy.c **** 	scsiDev.selDBX = scsiReadDBxPins();
 209              		.loc 1 82 0
 210 000c FFF7FEFF 		bl	scsiReadDBxPins
 211 0010 0346     		mov	r3, r0
 212 0012 1A46     		mov	r2, r3
 213 0014 024B     		ldr	r3, .L11
 214 0016 C3F87421 		str	r2, [r3, #372]
  83:..\..\src/scsiPhy.c **** }
 215              		.loc 1 83 0
 216 001a 00BF     		nop
 217 001c 80BD     		pop	{r7, pc}
 218              	.L12:
 219 001e 00BF     		.align	2
 220              	.L11:
 221 0020 00000000 		.word	scsiDev
 222              		.cfi_endproc
 223              	.LFE67:
 224              		.size	scsiSelectionISR, .-scsiSelectionISR
 225              		.section	.text.scsiReadDBxPins,"ax",%progbits
 226              		.align	2
 227              		.global	scsiReadDBxPins
 228              		.thumb
 229              		.thumb_func
 230              		.type	scsiReadDBxPins, %function
 231              	scsiReadDBxPins:
 232              	.LFB68:
  84:..\..\src/scsiPhy.c **** 
  85:..\..\src/scsiPhy.c **** uint8_t
  86:..\..\src/scsiPhy.c **** scsiReadDBxPins()
  87:..\..\src/scsiPhy.c **** {
 233              		.loc 1 87 0
 234              		.cfi_startproc
 235              		@ args = 0, pretend = 0, frame = 0
 236              		@ frame_needed = 1, uses_anonymous_args = 0
 237              		@ link register save eliminated.
 238 0000 80B4     		push	{r7}
 239              		.cfi_def_cfa_offset 4
 240              		.cfi_offset 7, -4
 241 0002 00AF     		add	r7, sp, #0
 242              		.cfi_def_cfa_register 7
  88:..\..\src/scsiPhy.c **** 	return
  89:..\..\src/scsiPhy.c **** 		(SCSI_ReadPin(SCSI_In_DBx_DB7) << 7) |
 243              		.loc 1 89 0
 244 0004 324B     		ldr	r3, .L29
 245 0006 1B78     		ldrb	r3, [r3]
 246 0008 DBB2     		uxtb	r3, r3
 247 000a 03F01003 		and	r3, r3, #16
 248 000e 002B     		cmp	r3, #0
 249 0010 02D1     		bne	.L14
 250              		.loc 1 89 0 is_stmt 0 discriminator 1
 251 0012 6FF07F02 		mvn	r2, #127
 252 0016 00E0     		b	.L15
 253              	.L14:
ARM GAS  C:\Users\r\AppData\Local\Temp\ccqe305w.s 			page 7


 254              		.loc 1 89 0 discriminator 2
 255 0018 0022     		movs	r2, #0
 256              	.L15:
  90:..\..\src/scsiPhy.c **** 		(SCSI_ReadPin(SCSI_In_DBx_DB6) << 6) |
 257              		.loc 1 90 0 is_stmt 1 discriminator 4
 258 001a 2E4B     		ldr	r3, .L29+4
 259 001c 1B78     		ldrb	r3, [r3]
 260 001e DBB2     		uxtb	r3, r3
 261 0020 03F01003 		and	r3, r3, #16
  89:..\..\src/scsiPhy.c **** 		(SCSI_ReadPin(SCSI_In_DBx_DB6) << 6) |
 262              		.loc 1 89 0 discriminator 4
 263 0024 002B     		cmp	r3, #0
 264 0026 01D1     		bne	.L16
  89:..\..\src/scsiPhy.c **** 		(SCSI_ReadPin(SCSI_In_DBx_DB6) << 6) |
 265              		.loc 1 89 0 is_stmt 0 discriminator 5
 266 0028 4023     		movs	r3, #64
 267 002a 00E0     		b	.L17
 268              	.L16:
  89:..\..\src/scsiPhy.c **** 		(SCSI_ReadPin(SCSI_In_DBx_DB6) << 6) |
 269              		.loc 1 89 0 discriminator 6
 270 002c 0023     		movs	r3, #0
 271              	.L17:
  89:..\..\src/scsiPhy.c **** 		(SCSI_ReadPin(SCSI_In_DBx_DB6) << 6) |
 272              		.loc 1 89 0 discriminator 8
 273 002e 1343     		orrs	r3, r3, r2
 274 0030 5AB2     		sxtb	r2, r3
  91:..\..\src/scsiPhy.c **** 		(SCSI_ReadPin(SCSI_In_DBx_DB5) << 5) |
 275              		.loc 1 91 0 is_stmt 1 discriminator 8
 276 0032 294B     		ldr	r3, .L29+8
 277 0034 1B78     		ldrb	r3, [r3]
 278 0036 DBB2     		uxtb	r3, r3
 279 0038 03F01003 		and	r3, r3, #16
  89:..\..\src/scsiPhy.c **** 		(SCSI_ReadPin(SCSI_In_DBx_DB6) << 6) |
 280              		.loc 1 89 0 discriminator 8
 281 003c 002B     		cmp	r3, #0
 282 003e 01D1     		bne	.L18
  89:..\..\src/scsiPhy.c **** 		(SCSI_ReadPin(SCSI_In_DBx_DB6) << 6) |
 283              		.loc 1 89 0 is_stmt 0 discriminator 9
 284 0040 2023     		movs	r3, #32
 285 0042 00E0     		b	.L19
 286              	.L18:
  89:..\..\src/scsiPhy.c **** 		(SCSI_ReadPin(SCSI_In_DBx_DB6) << 6) |
 287              		.loc 1 89 0 discriminator 10
 288 0044 0023     		movs	r3, #0
 289              	.L19:
  89:..\..\src/scsiPhy.c **** 		(SCSI_ReadPin(SCSI_In_DBx_DB6) << 6) |
 290              		.loc 1 89 0 discriminator 12
 291 0046 1343     		orrs	r3, r3, r2
 292 0048 5AB2     		sxtb	r2, r3
  92:..\..\src/scsiPhy.c **** 		(SCSI_ReadPin(SCSI_In_DBx_DB4) << 4) |
 293              		.loc 1 92 0 is_stmt 1 discriminator 12
 294 004a 244B     		ldr	r3, .L29+12
 295 004c 1B78     		ldrb	r3, [r3]
 296 004e DBB2     		uxtb	r3, r3
 297 0050 03F01003 		and	r3, r3, #16
  89:..\..\src/scsiPhy.c **** 		(SCSI_ReadPin(SCSI_In_DBx_DB6) << 6) |
 298              		.loc 1 89 0 discriminator 12
ARM GAS  C:\Users\r\AppData\Local\Temp\ccqe305w.s 			page 8


 299 0054 002B     		cmp	r3, #0
 300 0056 01D1     		bne	.L20
  89:..\..\src/scsiPhy.c **** 		(SCSI_ReadPin(SCSI_In_DBx_DB6) << 6) |
 301              		.loc 1 89 0 is_stmt 0 discriminator 13
 302 0058 1023     		movs	r3, #16
 303 005a 00E0     		b	.L21
 304              	.L20:
  89:..\..\src/scsiPhy.c **** 		(SCSI_ReadPin(SCSI_In_DBx_DB6) << 6) |
 305              		.loc 1 89 0 discriminator 14
 306 005c 0023     		movs	r3, #0
 307              	.L21:
  89:..\..\src/scsiPhy.c **** 		(SCSI_ReadPin(SCSI_In_DBx_DB6) << 6) |
 308              		.loc 1 89 0 discriminator 16
 309 005e 1343     		orrs	r3, r3, r2
 310 0060 5AB2     		sxtb	r2, r3
  93:..\..\src/scsiPhy.c **** 		(SCSI_ReadPin(SCSI_In_DBx_DB3) << 3) |
 311              		.loc 1 93 0 is_stmt 1 discriminator 16
 312 0062 1F4B     		ldr	r3, .L29+16
 313 0064 1B78     		ldrb	r3, [r3]
 314 0066 DBB2     		uxtb	r3, r3
 315 0068 03F01003 		and	r3, r3, #16
  89:..\..\src/scsiPhy.c **** 		(SCSI_ReadPin(SCSI_In_DBx_DB6) << 6) |
 316              		.loc 1 89 0 discriminator 16
 317 006c 002B     		cmp	r3, #0
 318 006e 01D1     		bne	.L22
  89:..\..\src/scsiPhy.c **** 		(SCSI_ReadPin(SCSI_In_DBx_DB6) << 6) |
 319              		.loc 1 89 0 is_stmt 0 discriminator 17
 320 0070 0823     		movs	r3, #8
 321 0072 00E0     		b	.L23
 322              	.L22:
  89:..\..\src/scsiPhy.c **** 		(SCSI_ReadPin(SCSI_In_DBx_DB6) << 6) |
 323              		.loc 1 89 0 discriminator 18
 324 0074 0023     		movs	r3, #0
 325              	.L23:
  89:..\..\src/scsiPhy.c **** 		(SCSI_ReadPin(SCSI_In_DBx_DB6) << 6) |
 326              		.loc 1 89 0 discriminator 20
 327 0076 1343     		orrs	r3, r3, r2
 328 0078 5AB2     		sxtb	r2, r3
  94:..\..\src/scsiPhy.c **** 		(SCSI_ReadPin(SCSI_In_DBx_DB2) << 2) |
 329              		.loc 1 94 0 is_stmt 1 discriminator 20
 330 007a 1A4B     		ldr	r3, .L29+20
 331 007c 1B78     		ldrb	r3, [r3]
 332 007e DBB2     		uxtb	r3, r3
 333 0080 03F01003 		and	r3, r3, #16
  89:..\..\src/scsiPhy.c **** 		(SCSI_ReadPin(SCSI_In_DBx_DB6) << 6) |
 334              		.loc 1 89 0 discriminator 20
 335 0084 002B     		cmp	r3, #0
 336 0086 01D1     		bne	.L24
  89:..\..\src/scsiPhy.c **** 		(SCSI_ReadPin(SCSI_In_DBx_DB6) << 6) |
 337              		.loc 1 89 0 is_stmt 0 discriminator 21
 338 0088 0423     		movs	r3, #4
 339 008a 00E0     		b	.L25
 340              	.L24:
  89:..\..\src/scsiPhy.c **** 		(SCSI_ReadPin(SCSI_In_DBx_DB6) << 6) |
 341              		.loc 1 89 0 discriminator 22
 342 008c 0023     		movs	r3, #0
 343              	.L25:
ARM GAS  C:\Users\r\AppData\Local\Temp\ccqe305w.s 			page 9


  89:..\..\src/scsiPhy.c **** 		(SCSI_ReadPin(SCSI_In_DBx_DB6) << 6) |
 344              		.loc 1 89 0 discriminator 24
 345 008e 1343     		orrs	r3, r3, r2
 346 0090 5AB2     		sxtb	r2, r3
  95:..\..\src/scsiPhy.c **** 		(SCSI_ReadPin(SCSI_In_DBx_DB1) << 1) |
 347              		.loc 1 95 0 is_stmt 1 discriminator 24
 348 0092 154B     		ldr	r3, .L29+24
 349 0094 1B78     		ldrb	r3, [r3]
 350 0096 DBB2     		uxtb	r3, r3
 351 0098 03F01003 		and	r3, r3, #16
  89:..\..\src/scsiPhy.c **** 		(SCSI_ReadPin(SCSI_In_DBx_DB6) << 6) |
 352              		.loc 1 89 0 discriminator 24
 353 009c 002B     		cmp	r3, #0
 354 009e 01D1     		bne	.L26
  89:..\..\src/scsiPhy.c **** 		(SCSI_ReadPin(SCSI_In_DBx_DB6) << 6) |
 355              		.loc 1 89 0 is_stmt 0 discriminator 25
 356 00a0 0223     		movs	r3, #2
 357 00a2 00E0     		b	.L27
 358              	.L26:
  89:..\..\src/scsiPhy.c **** 		(SCSI_ReadPin(SCSI_In_DBx_DB6) << 6) |
 359              		.loc 1 89 0 discriminator 26
 360 00a4 0023     		movs	r3, #0
 361              	.L27:
  89:..\..\src/scsiPhy.c **** 		(SCSI_ReadPin(SCSI_In_DBx_DB6) << 6) |
 362              		.loc 1 89 0 discriminator 28
 363 00a6 1343     		orrs	r3, r3, r2
 364 00a8 5AB2     		sxtb	r2, r3
  96:..\..\src/scsiPhy.c **** 		SCSI_ReadPin(SCSI_In_DBx_DB0);
 365              		.loc 1 96 0 is_stmt 1 discriminator 28
 366 00aa 104B     		ldr	r3, .L29+28
 367 00ac 1B78     		ldrb	r3, [r3]
 368 00ae DBB2     		uxtb	r3, r3
 369 00b0 03F01003 		and	r3, r3, #16
 370 00b4 002B     		cmp	r3, #0
 371 00b6 0CBF     		ite	eq
 372 00b8 0123     		moveq	r3, #1
 373 00ba 0023     		movne	r3, #0
 374 00bc DBB2     		uxtb	r3, r3
 375 00be 5BB2     		sxtb	r3, r3
  89:..\..\src/scsiPhy.c **** 		(SCSI_ReadPin(SCSI_In_DBx_DB6) << 6) |
 376              		.loc 1 89 0 discriminator 28
 377 00c0 1343     		orrs	r3, r3, r2
 378 00c2 5BB2     		sxtb	r3, r3
 379 00c4 DBB2     		uxtb	r3, r3
  97:..\..\src/scsiPhy.c **** }
 380              		.loc 1 97 0 discriminator 28
 381 00c6 1846     		mov	r0, r3
 382 00c8 BD46     		mov	sp, r7
 383              		.cfi_def_cfa_register 13
 384              		@ sp needed
 385 00ca 80BC     		pop	{r7}
 386              		.cfi_restore 7
 387              		.cfi_def_cfa_offset 0
 388 00cc 7047     		bx	lr
 389              	.L30:
 390 00ce 00BF     		.align	2
 391              	.L29:
ARM GAS  C:\Users\r\AppData\Local\Temp\ccqe305w.s 			page 10


 392 00d0 14500040 		.word	1073762324
 393 00d4 15500040 		.word	1073762325
 394 00d8 64500040 		.word	1073762404
 395 00dc 65500040 		.word	1073762405
 396 00e0 36500040 		.word	1073762358
 397 00e4 37500040 		.word	1073762359
 398 00e8 2A500040 		.word	1073762346
 399 00ec 2B500040 		.word	1073762347
 400              		.cfi_endproc
 401              	.LFE68:
 402              		.size	scsiReadDBxPins, .-scsiReadDBxPins
 403              		.section	.text.scsiReadByte,"ax",%progbits
 404              		.align	2
 405              		.global	scsiReadByte
 406              		.thumb
 407              		.thumb_func
 408              		.type	scsiReadByte, %function
 409              	scsiReadByte:
 410              	.LFB69:
  98:..\..\src/scsiPhy.c **** 
  99:..\..\src/scsiPhy.c **** uint8_t
 100:..\..\src/scsiPhy.c **** scsiReadByte(void)
 101:..\..\src/scsiPhy.c **** {
 411              		.loc 1 101 0
 412              		.cfi_startproc
 413              		@ args = 0, pretend = 0, frame = 8
 414              		@ frame_needed = 1, uses_anonymous_args = 0
 415 0000 80B5     		push	{r7, lr}
 416              		.cfi_def_cfa_offset 8
 417              		.cfi_offset 7, -8
 418              		.cfi_offset 14, -4
 419 0002 82B0     		sub	sp, sp, #8
 420              		.cfi_def_cfa_offset 16
 421 0004 00AF     		add	r7, sp, #0
 422              		.cfi_def_cfa_register 7
 102:..\..\src/scsiPhy.c **** 	trace(trace_spinPhyTxFifo);
 423              		.loc 1 102 0
 424 0006 254B     		ldr	r3, .L40
 425 0008 2322     		movs	r2, #35
 426 000a 1A70     		strb	r2, [r3]
 103:..\..\src/scsiPhy.c **** 	while (unlikely(scsiPhyTxFifoFull()) && likely(!scsiDev.resetFlag)) {}
 427              		.loc 1 103 0
 428 000c 00BF     		nop
 429              	.L33:
 430              		.loc 1 103 0 is_stmt 0 discriminator 2
 431 000e 244B     		ldr	r3, .L40+4
 432 0010 1B78     		ldrb	r3, [r3]
 433 0012 DBB2     		uxtb	r3, r3
 434 0014 03F00103 		and	r3, r3, #1
 435 0018 002B     		cmp	r3, #0
 436 001a 0CBF     		ite	eq
 437 001c 0123     		moveq	r3, #1
 438 001e 0023     		movne	r3, #0
 439 0020 DBB2     		uxtb	r3, r3
 440 0022 002B     		cmp	r3, #0
 441 0024 09D0     		beq	.L32
 442              		.loc 1 103 0 discriminator 1
ARM GAS  C:\Users\r\AppData\Local\Temp\ccqe305w.s 			page 11


 443 0026 1F4B     		ldr	r3, .L40+8
 444 0028 D3F86831 		ldr	r3, [r3, #360]
 445 002c 002B     		cmp	r3, #0
 446 002e 0CBF     		ite	eq
 447 0030 0123     		moveq	r3, #1
 448 0032 0023     		movne	r3, #0
 449 0034 DBB2     		uxtb	r3, r3
 450 0036 002B     		cmp	r3, #0
 451 0038 E9D1     		bne	.L33
 452              	.L32:
 104:..\..\src/scsiPhy.c **** 	scsiPhyTx(0);
 453              		.loc 1 104 0 is_stmt 1
 454 003a 1B4B     		ldr	r3, .L40+12
 455 003c 0022     		movs	r2, #0
 456 003e 1A70     		strb	r2, [r3]
 105:..\..\src/scsiPhy.c **** 
 106:..\..\src/scsiPhy.c **** 	trace(trace_spinPhyRxFifo);
 457              		.loc 1 106 0
 458 0040 164B     		ldr	r3, .L40
 459 0042 2422     		movs	r2, #36
 460 0044 1A70     		strb	r2, [r3]
 107:..\..\src/scsiPhy.c **** 	while (scsiPhyRxFifoEmpty() && likely(!scsiDev.resetFlag)) {}
 461              		.loc 1 107 0
 462 0046 00BF     		nop
 463              	.L35:
 464              		.loc 1 107 0 is_stmt 0 discriminator 2
 465 0048 154B     		ldr	r3, .L40+4
 466 004a 1B78     		ldrb	r3, [r3]
 467 004c DBB2     		uxtb	r3, r3
 468 004e 03F00203 		and	r3, r3, #2
 469 0052 002B     		cmp	r3, #0
 470 0054 09D1     		bne	.L34
 471              		.loc 1 107 0 discriminator 1
 472 0056 134B     		ldr	r3, .L40+8
 473 0058 D3F86831 		ldr	r3, [r3, #360]
 474 005c 002B     		cmp	r3, #0
 475 005e 0CBF     		ite	eq
 476 0060 0123     		moveq	r3, #1
 477 0062 0023     		movne	r3, #0
 478 0064 DBB2     		uxtb	r3, r3
 479 0066 002B     		cmp	r3, #0
 480 0068 EED1     		bne	.L35
 481              	.L34:
 108:..\..\src/scsiPhy.c **** 	uint8_t val = scsiPhyRx();
 482              		.loc 1 108 0 is_stmt 1
 483 006a 104B     		ldr	r3, .L40+16
 484 006c 1B78     		ldrb	r3, [r3]
 485 006e FB71     		strb	r3, [r7, #7]
 109:..\..\src/scsiPhy.c **** 	scsiDev.parityError = scsiDev.parityError || SCSI_Parity_Error_Read();
 486              		.loc 1 109 0
 487 0070 0C4B     		ldr	r3, .L40+8
 488 0072 D3F87031 		ldr	r3, [r3, #368]
 489 0076 002B     		cmp	r3, #0
 490 0078 04D1     		bne	.L36
 491              		.loc 1 109 0 is_stmt 0 discriminator 2
 492 007a FFF7FEFF 		bl	SCSI_Parity_Error_Read
 493 007e 0346     		mov	r3, r0
ARM GAS  C:\Users\r\AppData\Local\Temp\ccqe305w.s 			page 12


 494 0080 002B     		cmp	r3, #0
 495 0082 01D0     		beq	.L37
 496              	.L36:
 497              		.loc 1 109 0 discriminator 3
 498 0084 0123     		movs	r3, #1
 499 0086 00E0     		b	.L38
 500              	.L37:
 501              		.loc 1 109 0 discriminator 4
 502 0088 0023     		movs	r3, #0
 503              	.L38:
 504              		.loc 1 109 0 discriminator 6
 505 008a 064A     		ldr	r2, .L40+8
 506 008c C2F87031 		str	r3, [r2, #368]
 110:..\..\src/scsiPhy.c **** 
 111:..\..\src/scsiPhy.c **** 	return val;
 507              		.loc 1 111 0 is_stmt 1 discriminator 6
 508 0090 FB79     		ldrb	r3, [r7, #7]	@ zero_extendqisi2
 112:..\..\src/scsiPhy.c **** }
 509              		.loc 1 112 0 discriminator 6
 510 0092 1846     		mov	r0, r3
 511 0094 0837     		adds	r7, r7, #8
 512              		.cfi_def_cfa_offset 8
 513 0096 BD46     		mov	sp, r7
 514              		.cfi_def_cfa_register 13
 515              		@ sp needed
 516 0098 80BD     		pop	{r7, pc}
 517              	.L41:
 518 009a 00BF     		.align	2
 519              	.L40:
 520 009c 00000000 		.word	LastTrace
 521 00a0 67640040 		.word	1073767527
 522 00a4 00000000 		.word	scsiDev
 523 00a8 40640040 		.word	1073767488
 524 00ac 50640040 		.word	1073767504
 525              		.cfi_endproc
 526              	.LFE69:
 527              		.size	scsiReadByte, .-scsiReadByte
 528              		.section	.text.scsiReadPIO,"ax",%progbits
 529              		.align	2
 530              		.thumb
 531              		.thumb_func
 532              		.type	scsiReadPIO, %function
 533              	scsiReadPIO:
 534              	.LFB70:
 113:..\..\src/scsiPhy.c **** 
 114:..\..\src/scsiPhy.c **** static void
 115:..\..\src/scsiPhy.c **** scsiReadPIO(uint8* data, uint32 count)
 116:..\..\src/scsiPhy.c **** {
 535              		.loc 1 116 0
 536              		.cfi_startproc
 537              		@ args = 0, pretend = 0, frame = 24
 538              		@ frame_needed = 1, uses_anonymous_args = 0
 539 0000 80B5     		push	{r7, lr}
 540              		.cfi_def_cfa_offset 8
 541              		.cfi_offset 7, -8
 542              		.cfi_offset 14, -4
 543 0002 86B0     		sub	sp, sp, #24
ARM GAS  C:\Users\r\AppData\Local\Temp\ccqe305w.s 			page 13


 544              		.cfi_def_cfa_offset 32
 545 0004 00AF     		add	r7, sp, #0
 546              		.cfi_def_cfa_register 7
 547 0006 7860     		str	r0, [r7, #4]
 548 0008 3960     		str	r1, [r7]
 117:..\..\src/scsiPhy.c **** 	int prep = 0;
 549              		.loc 1 117 0
 550 000a 0023     		movs	r3, #0
 551 000c 7B61     		str	r3, [r7, #20]
 118:..\..\src/scsiPhy.c **** 	int i = 0;
 552              		.loc 1 118 0
 553 000e 0023     		movs	r3, #0
 554 0010 3B61     		str	r3, [r7, #16]
 119:..\..\src/scsiPhy.c **** 
 120:..\..\src/scsiPhy.c **** 	while (i < count && likely(!scsiDev.resetFlag))
 555              		.loc 1 120 0
 556 0012 20E0     		b	.L43
 557              	.L46:
 558              	.LBB2:
 121:..\..\src/scsiPhy.c **** 	{
 122:..\..\src/scsiPhy.c **** 		uint8_t status = scsiPhyStatus();
 559              		.loc 1 122 0
 560 0014 214B     		ldr	r3, .L50
 561 0016 1B78     		ldrb	r3, [r3]
 562 0018 FB73     		strb	r3, [r7, #15]
 123:..\..\src/scsiPhy.c **** 
 124:..\..\src/scsiPhy.c **** 		if (prep < count && (status & SCSI_PHY_TX_FIFO_NOT_FULL))
 563              		.loc 1 124 0
 564 001a 7A69     		ldr	r2, [r7, #20]
 565 001c 3B68     		ldr	r3, [r7]
 566 001e 9A42     		cmp	r2, r3
 567 0020 0AD2     		bcs	.L44
 568              		.loc 1 124 0 is_stmt 0 discriminator 1
 569 0022 FB7B     		ldrb	r3, [r7, #15]	@ zero_extendqisi2
 570 0024 03F00103 		and	r3, r3, #1
 571 0028 002B     		cmp	r3, #0
 572 002a 05D0     		beq	.L44
 125:..\..\src/scsiPhy.c **** 		{
 126:..\..\src/scsiPhy.c **** 			scsiPhyTx(0);
 573              		.loc 1 126 0 is_stmt 1
 574 002c 1C4B     		ldr	r3, .L50+4
 575 002e 0022     		movs	r2, #0
 576 0030 1A70     		strb	r2, [r3]
 127:..\..\src/scsiPhy.c **** 			++prep;
 577              		.loc 1 127 0
 578 0032 7B69     		ldr	r3, [r7, #20]
 579 0034 0133     		adds	r3, r3, #1
 580 0036 7B61     		str	r3, [r7, #20]
 581              	.L44:
 128:..\..\src/scsiPhy.c **** 		}
 129:..\..\src/scsiPhy.c **** 		if (status & SCSI_PHY_RX_FIFO_NOT_EMPTY)
 582              		.loc 1 129 0
 583 0038 FB7B     		ldrb	r3, [r7, #15]	@ zero_extendqisi2
 584 003a 03F00203 		and	r3, r3, #2
 585 003e 002B     		cmp	r3, #0
 586 0040 09D0     		beq	.L43
 130:..\..\src/scsiPhy.c **** 		{
ARM GAS  C:\Users\r\AppData\Local\Temp\ccqe305w.s 			page 14


 131:..\..\src/scsiPhy.c **** 			data[i] = scsiPhyRx();
 587              		.loc 1 131 0
 588 0042 3B69     		ldr	r3, [r7, #16]
 589 0044 7A68     		ldr	r2, [r7, #4]
 590 0046 1344     		add	r3, r3, r2
 591 0048 164A     		ldr	r2, .L50+8
 592 004a 1278     		ldrb	r2, [r2]
 593 004c D2B2     		uxtb	r2, r2
 594 004e 1A70     		strb	r2, [r3]
 132:..\..\src/scsiPhy.c **** 			++i;
 595              		.loc 1 132 0
 596 0050 3B69     		ldr	r3, [r7, #16]
 597 0052 0133     		adds	r3, r3, #1
 598 0054 3B61     		str	r3, [r7, #16]
 599              	.L43:
 600              	.LBE2:
 120:..\..\src/scsiPhy.c **** 	{
 601              		.loc 1 120 0
 602 0056 3A69     		ldr	r2, [r7, #16]
 603 0058 3B68     		ldr	r3, [r7]
 604 005a 9A42     		cmp	r2, r3
 605 005c 09D2     		bcs	.L45
 120:..\..\src/scsiPhy.c **** 	{
 606              		.loc 1 120 0 is_stmt 0 discriminator 1
 607 005e 124B     		ldr	r3, .L50+12
 608 0060 D3F86831 		ldr	r3, [r3, #360]
 609 0064 002B     		cmp	r3, #0
 610 0066 0CBF     		ite	eq
 611 0068 0123     		moveq	r3, #1
 612 006a 0023     		movne	r3, #0
 613 006c DBB2     		uxtb	r3, r3
 614 006e 002B     		cmp	r3, #0
 615 0070 D0D1     		bne	.L46
 616              	.L45:
 133:..\..\src/scsiPhy.c **** 		}
 134:..\..\src/scsiPhy.c **** 	}
 135:..\..\src/scsiPhy.c **** 	scsiDev.parityError = scsiDev.parityError || SCSI_Parity_Error_Read();
 617              		.loc 1 135 0 is_stmt 1
 618 0072 0D4B     		ldr	r3, .L50+12
 619 0074 D3F87031 		ldr	r3, [r3, #368]
 620 0078 002B     		cmp	r3, #0
 621 007a 04D1     		bne	.L47
 622              		.loc 1 135 0 is_stmt 0 discriminator 2
 623 007c FFF7FEFF 		bl	SCSI_Parity_Error_Read
 624 0080 0346     		mov	r3, r0
 625 0082 002B     		cmp	r3, #0
 626 0084 01D0     		beq	.L48
 627              	.L47:
 628              		.loc 1 135 0 discriminator 3
 629 0086 0123     		movs	r3, #1
 630 0088 00E0     		b	.L49
 631              	.L48:
 632              		.loc 1 135 0 discriminator 4
 633 008a 0023     		movs	r3, #0
 634              	.L49:
 635              		.loc 1 135 0 discriminator 6
 636 008c 064A     		ldr	r2, .L50+12
ARM GAS  C:\Users\r\AppData\Local\Temp\ccqe305w.s 			page 15


 637 008e C2F87031 		str	r3, [r2, #368]
 136:..\..\src/scsiPhy.c **** }
 638              		.loc 1 136 0 is_stmt 1 discriminator 6
 639 0092 00BF     		nop
 640 0094 1837     		adds	r7, r7, #24
 641              		.cfi_def_cfa_offset 8
 642 0096 BD46     		mov	sp, r7
 643              		.cfi_def_cfa_register 13
 644              		@ sp needed
 645 0098 80BD     		pop	{r7, pc}
 646              	.L51:
 647 009a 00BF     		.align	2
 648              	.L50:
 649 009c 67640040 		.word	1073767527
 650 00a0 40640040 		.word	1073767488
 651 00a4 50640040 		.word	1073767504
 652 00a8 00000000 		.word	scsiDev
 653              		.cfi_endproc
 654              	.LFE70:
 655              		.size	scsiReadPIO, .-scsiReadPIO
 656              		.section	.text.doRxSingleDMA,"ax",%progbits
 657              		.align	2
 658              		.thumb
 659              		.thumb_func
 660              		.type	doRxSingleDMA, %function
 661              	doRxSingleDMA:
 662              	.LFB71:
 137:..\..\src/scsiPhy.c **** 
 138:..\..\src/scsiPhy.c **** static void
 139:..\..\src/scsiPhy.c **** doRxSingleDMA(uint8* data, uint32 count)
 140:..\..\src/scsiPhy.c **** {
 663              		.loc 1 140 0
 664              		.cfi_startproc
 665              		@ args = 0, pretend = 0, frame = 8
 666              		@ frame_needed = 1, uses_anonymous_args = 0
 667 0000 80B5     		push	{r7, lr}
 668              		.cfi_def_cfa_offset 8
 669              		.cfi_offset 7, -8
 670              		.cfi_offset 14, -4
 671 0002 82B0     		sub	sp, sp, #8
 672              		.cfi_def_cfa_offset 16
 673 0004 00AF     		add	r7, sp, #0
 674              		.cfi_def_cfa_register 7
 675 0006 7860     		str	r0, [r7, #4]
 676 0008 3960     		str	r1, [r7]
 141:..\..\src/scsiPhy.c **** 	// Prepare DMA transfer
 142:..\..\src/scsiPhy.c **** 	dmaInProgress = 1;
 677              		.loc 1 142 0
 678 000a 2C4B     		ldr	r3, .L53
 679 000c 0122     		movs	r2, #1
 680 000e 1A60     		str	r2, [r3]
 143:..\..\src/scsiPhy.c **** 	trace(trace_doRxSingleDMA);
 681              		.loc 1 143 0
 682 0010 2B4B     		ldr	r3, .L53+4
 683 0012 5322     		movs	r2, #83
 684 0014 1A70     		strb	r2, [r3]
 144:..\..\src/scsiPhy.c **** 
ARM GAS  C:\Users\r\AppData\Local\Temp\ccqe305w.s 			page 16


 145:..\..\src/scsiPhy.c **** 	CyDmaTdSetConfiguration(
 685              		.loc 1 145 0
 686 0016 2B4B     		ldr	r3, .L53+8
 687 0018 1878     		ldrb	r0, [r3]	@ zero_extendqisi2
 688 001a 3B68     		ldr	r3, [r7]
 689 001c 99B2     		uxth	r1, r3
 690 001e 0423     		movs	r3, #4
 691 0020 FE22     		movs	r2, #254
 692 0022 FFF7FEFF 		bl	CyDmaTdSetConfiguration
 146:..\..\src/scsiPhy.c **** 		scsiDmaTxTd[0],
 147:..\..\src/scsiPhy.c **** 		count,
 148:..\..\src/scsiPhy.c **** 		CY_DMA_DISABLE_TD, // Disable the DMA channel when TD completes count bytes
 149:..\..\src/scsiPhy.c **** 		SCSI_TX_DMA__TD_TERMOUT_EN // Trigger interrupt when complete
 150:..\..\src/scsiPhy.c **** 		);
 151:..\..\src/scsiPhy.c **** 	CyDmaTdSetConfiguration(
 693              		.loc 1 151 0
 694 0026 284B     		ldr	r3, .L53+12
 695 0028 1878     		ldrb	r0, [r3]	@ zero_extendqisi2
 696 002a 3B68     		ldr	r3, [r7]
 697 002c 99B2     		uxth	r1, r3
 698 002e 0623     		movs	r3, #6
 699 0030 FE22     		movs	r2, #254
 700 0032 FFF7FEFF 		bl	CyDmaTdSetConfiguration
 152:..\..\src/scsiPhy.c **** 		scsiDmaRxTd[0],
 153:..\..\src/scsiPhy.c **** 		count,
 154:..\..\src/scsiPhy.c **** 		CY_DMA_DISABLE_TD, // Disable the DMA channel when TD completes count bytes
 155:..\..\src/scsiPhy.c **** 		TD_INC_DST_ADR |
 156:..\..\src/scsiPhy.c **** 			SCSI_RX_DMA__TD_TERMOUT_EN // Trigger interrupt when complete
 157:..\..\src/scsiPhy.c **** 		);
 158:..\..\src/scsiPhy.c **** 
 159:..\..\src/scsiPhy.c **** 	CyDmaTdSetAddress(
 701              		.loc 1 159 0
 702 0036 234B     		ldr	r3, .L53+8
 703 0038 1B78     		ldrb	r3, [r3]	@ zero_extendqisi2
 704 003a 244A     		ldr	r2, .L53+16
 705 003c 91B2     		uxth	r1, r2
 706 003e 46F24042 		movw	r2, #25664
 707 0042 1846     		mov	r0, r3
 708 0044 FFF7FEFF 		bl	CyDmaTdSetAddress
 160:..\..\src/scsiPhy.c **** 		scsiDmaTxTd[0],
 161:..\..\src/scsiPhy.c **** 		LO16((uint32)&dummyBuffer),
 162:..\..\src/scsiPhy.c **** 		LO16((uint32)scsiTarget_datapath__F0_REG));
 163:..\..\src/scsiPhy.c **** 	CyDmaTdSetAddress(
 709              		.loc 1 163 0
 710 0048 1F4B     		ldr	r3, .L53+12
 711 004a 1B78     		ldrb	r3, [r3]	@ zero_extendqisi2
 712 004c 7A68     		ldr	r2, [r7, #4]
 713 004e 92B2     		uxth	r2, r2
 714 0050 46F25041 		movw	r1, #25680
 715 0054 1846     		mov	r0, r3
 716 0056 FFF7FEFF 		bl	CyDmaTdSetAddress
 164:..\..\src/scsiPhy.c **** 		scsiDmaRxTd[0],
 165:..\..\src/scsiPhy.c **** 		LO16((uint32)scsiTarget_datapath__F1_REG),
 166:..\..\src/scsiPhy.c **** 		LO16((uint32)data)
 167:..\..\src/scsiPhy.c **** 		);
 168:..\..\src/scsiPhy.c **** 
 169:..\..\src/scsiPhy.c **** 	CyDmaChSetInitialTd(scsiDmaTxChan, scsiDmaTxTd[0]);
ARM GAS  C:\Users\r\AppData\Local\Temp\ccqe305w.s 			page 17


 717              		.loc 1 169 0
 718 005a 1D4B     		ldr	r3, .L53+20
 719 005c 1A78     		ldrb	r2, [r3]	@ zero_extendqisi2
 720 005e 194B     		ldr	r3, .L53+8
 721 0060 1B78     		ldrb	r3, [r3]	@ zero_extendqisi2
 722 0062 1946     		mov	r1, r3
 723 0064 1046     		mov	r0, r2
 724 0066 FFF7FEFF 		bl	CyDmaChSetInitialTd
 170:..\..\src/scsiPhy.c **** 	CyDmaChSetInitialTd(scsiDmaRxChan, scsiDmaRxTd[0]);
 725              		.loc 1 170 0
 726 006a 1A4B     		ldr	r3, .L53+24
 727 006c 1A78     		ldrb	r2, [r3]	@ zero_extendqisi2
 728 006e 164B     		ldr	r3, .L53+12
 729 0070 1B78     		ldrb	r3, [r3]	@ zero_extendqisi2
 730 0072 1946     		mov	r1, r3
 731 0074 1046     		mov	r0, r2
 732 0076 FFF7FEFF 		bl	CyDmaChSetInitialTd
 171:..\..\src/scsiPhy.c **** 
 172:..\..\src/scsiPhy.c **** 	// The DMA controller is a bit trigger-happy. It will retain
 173:..\..\src/scsiPhy.c **** 	// a drq request that was triggered while the channel was
 174:..\..\src/scsiPhy.c **** 	// disabled.
 175:..\..\src/scsiPhy.c **** 	CyDmaClearPendingDrq(scsiDmaTxChan);
 733              		.loc 1 175 0
 734 007a 154B     		ldr	r3, .L53+20
 735 007c 1B78     		ldrb	r3, [r3]	@ zero_extendqisi2
 736 007e 1846     		mov	r0, r3
 737 0080 FFF7FEFF 		bl	CyDmaClearPendingDrq
 176:..\..\src/scsiPhy.c **** 	CyDmaClearPendingDrq(scsiDmaRxChan);
 738              		.loc 1 176 0
 739 0084 134B     		ldr	r3, .L53+24
 740 0086 1B78     		ldrb	r3, [r3]	@ zero_extendqisi2
 741 0088 1846     		mov	r0, r3
 742 008a FFF7FEFF 		bl	CyDmaClearPendingDrq
 177:..\..\src/scsiPhy.c **** 
 178:..\..\src/scsiPhy.c **** 	scsiTxDMAComplete = 0;
 743              		.loc 1 178 0
 744 008e 124B     		ldr	r3, .L53+28
 745 0090 0022     		movs	r2, #0
 746 0092 1A70     		strb	r2, [r3]
 179:..\..\src/scsiPhy.c **** 	scsiRxDMAComplete = 0;
 747              		.loc 1 179 0
 748 0094 114B     		ldr	r3, .L53+32
 749 0096 0022     		movs	r2, #0
 750 0098 1A70     		strb	r2, [r3]
 180:..\..\src/scsiPhy.c **** 
 181:..\..\src/scsiPhy.c **** 	CyDmaChEnable(scsiDmaRxChan, 1);
 751              		.loc 1 181 0
 752 009a 0E4B     		ldr	r3, .L53+24
 753 009c 1B78     		ldrb	r3, [r3]	@ zero_extendqisi2
 754 009e 0121     		movs	r1, #1
 755 00a0 1846     		mov	r0, r3
 756 00a2 FFF7FEFF 		bl	CyDmaChEnable
 182:..\..\src/scsiPhy.c **** 	CyDmaChEnable(scsiDmaTxChan, 1);
 757              		.loc 1 182 0
 758 00a6 0A4B     		ldr	r3, .L53+20
 759 00a8 1B78     		ldrb	r3, [r3]	@ zero_extendqisi2
 760 00aa 0121     		movs	r1, #1
ARM GAS  C:\Users\r\AppData\Local\Temp\ccqe305w.s 			page 18


 761 00ac 1846     		mov	r0, r3
 762 00ae FFF7FEFF 		bl	CyDmaChEnable
 183:..\..\src/scsiPhy.c **** }
 763              		.loc 1 183 0
 764 00b2 00BF     		nop
 765 00b4 0837     		adds	r7, r7, #8
 766              		.cfi_def_cfa_offset 8
 767 00b6 BD46     		mov	sp, r7
 768              		.cfi_def_cfa_register 13
 769              		@ sp needed
 770 00b8 80BD     		pop	{r7, pc}
 771              	.L54:
 772 00ba 00BF     		.align	2
 773              	.L53:
 774 00bc 00000000 		.word	dmaInProgress
 775 00c0 00000000 		.word	LastTrace
 776 00c4 08000000 		.word	scsiDmaTxTd
 777 00c8 04000000 		.word	scsiDmaRxTd
 778 00cc 09000000 		.word	dummyBuffer
 779 00d0 01000000 		.word	scsiDmaTxChan
 780 00d4 00000000 		.word	scsiDmaRxChan
 781 00d8 00000000 		.word	scsiTxDMAComplete
 782 00dc 00000000 		.word	scsiRxDMAComplete
 783              		.cfi_endproc
 784              	.LFE71:
 785              		.size	doRxSingleDMA, .-doRxSingleDMA
 786              		.section	.text.scsiReadDMA,"ax",%progbits
 787              		.align	2
 788              		.global	scsiReadDMA
 789              		.thumb
 790              		.thumb_func
 791              		.type	scsiReadDMA, %function
 792              	scsiReadDMA:
 793              	.LFB72:
 184:..\..\src/scsiPhy.c **** 
 185:..\..\src/scsiPhy.c **** void
 186:..\..\src/scsiPhy.c **** scsiReadDMA(uint8* data, uint32 count)
 187:..\..\src/scsiPhy.c **** {
 794              		.loc 1 187 0
 795              		.cfi_startproc
 796              		@ args = 0, pretend = 0, frame = 16
 797              		@ frame_needed = 1, uses_anonymous_args = 0
 798 0000 80B5     		push	{r7, lr}
 799              		.cfi_def_cfa_offset 8
 800              		.cfi_offset 7, -8
 801              		.cfi_offset 14, -4
 802 0002 84B0     		sub	sp, sp, #16
 803              		.cfi_def_cfa_offset 24
 804 0004 00AF     		add	r7, sp, #0
 805              		.cfi_def_cfa_register 7
 806 0006 7860     		str	r0, [r7, #4]
 807 0008 3960     		str	r1, [r7]
 188:..\..\src/scsiPhy.c **** 	dmaSentCount = 0;
 808              		.loc 1 188 0
 809 000a 0F4B     		ldr	r3, .L56
 810 000c 0022     		movs	r2, #0
 811 000e 1A60     		str	r2, [r3]
ARM GAS  C:\Users\r\AppData\Local\Temp\ccqe305w.s 			page 19


 189:..\..\src/scsiPhy.c **** 	dmaTotalCount = count;
 812              		.loc 1 189 0
 813 0010 0E4A     		ldr	r2, .L56+4
 814 0012 3B68     		ldr	r3, [r7]
 815 0014 1360     		str	r3, [r2]
 190:..\..\src/scsiPhy.c **** 	dmaBuffer = data;
 816              		.loc 1 190 0
 817 0016 0E4A     		ldr	r2, .L56+8
 818 0018 7B68     		ldr	r3, [r7, #4]
 819 001a 1360     		str	r3, [r2]
 191:..\..\src/scsiPhy.c **** 
 192:..\..\src/scsiPhy.c **** 	uint32_t singleCount = (count > MAX_DMA_BYTES) ? MAX_DMA_BYTES : count;
 820              		.loc 1 192 0
 821 001c 3B68     		ldr	r3, [r7]
 822 001e 40F6F872 		movw	r2, #4088
 823 0022 9342     		cmp	r3, r2
 824 0024 28BF     		it	cs
 825 0026 1346     		movcs	r3, r2
 826 0028 FB60     		str	r3, [r7, #12]
 193:..\..\src/scsiPhy.c **** 	doRxSingleDMA(data, singleCount);
 827              		.loc 1 193 0
 828 002a F968     		ldr	r1, [r7, #12]
 829 002c 7868     		ldr	r0, [r7, #4]
 830 002e FFF7FEFF 		bl	doRxSingleDMA
 194:..\..\src/scsiPhy.c **** 	dmaSentCount += count;
 831              		.loc 1 194 0
 832 0032 054B     		ldr	r3, .L56
 833 0034 1A68     		ldr	r2, [r3]
 834 0036 3B68     		ldr	r3, [r7]
 835 0038 1344     		add	r3, r3, r2
 836 003a 034A     		ldr	r2, .L56
 837 003c 1360     		str	r3, [r2]
 195:..\..\src/scsiPhy.c **** }
 838              		.loc 1 195 0
 839 003e 00BF     		nop
 840 0040 1037     		adds	r7, r7, #16
 841              		.cfi_def_cfa_offset 8
 842 0042 BD46     		mov	sp, r7
 843              		.cfi_def_cfa_register 13
 844              		@ sp needed
 845 0044 80BD     		pop	{r7, pc}
 846              	.L57:
 847 0046 00BF     		.align	2
 848              	.L56:
 849 0048 08000000 		.word	dmaSentCount
 850 004c 0C000000 		.word	dmaTotalCount
 851 0050 04000000 		.word	dmaBuffer
 852              		.cfi_endproc
 853              	.LFE72:
 854              		.size	scsiReadDMA, .-scsiReadDMA
 855              		.section	.text.scsiReadDMAPoll,"ax",%progbits
 856              		.align	2
 857              		.global	scsiReadDMAPoll
 858              		.thumb
 859              		.thumb_func
 860              		.type	scsiReadDMAPoll, %function
 861              	scsiReadDMAPoll:
ARM GAS  C:\Users\r\AppData\Local\Temp\ccqe305w.s 			page 20


 862              	.LFB73:
 196:..\..\src/scsiPhy.c **** 
 197:..\..\src/scsiPhy.c **** int
 198:..\..\src/scsiPhy.c **** scsiReadDMAPoll()
 199:..\..\src/scsiPhy.c **** {
 863              		.loc 1 199 0
 864              		.cfi_startproc
 865              		@ args = 0, pretend = 0, frame = 8
 866              		@ frame_needed = 1, uses_anonymous_args = 0
 867 0000 80B5     		push	{r7, lr}
 868              		.cfi_def_cfa_offset 8
 869              		.cfi_offset 7, -8
 870              		.cfi_offset 14, -4
 871 0002 82B0     		sub	sp, sp, #8
 872              		.cfi_def_cfa_offset 16
 873 0004 00AF     		add	r7, sp, #0
 874              		.cfi_def_cfa_register 7
 200:..\..\src/scsiPhy.c **** 	if (scsiTxDMAComplete && scsiRxDMAComplete)
 875              		.loc 1 200 0
 876 0006 294B     		ldr	r3, .L66
 877 0008 1B78     		ldrb	r3, [r3]
 878 000a DBB2     		uxtb	r3, r3
 879 000c 002B     		cmp	r3, #0
 880 000e 48D0     		beq	.L59
 881              		.loc 1 200 0 is_stmt 0 discriminator 1
 882 0010 274B     		ldr	r3, .L66+4
 883 0012 1B78     		ldrb	r3, [r3]
 884 0014 DBB2     		uxtb	r3, r3
 885 0016 002B     		cmp	r3, #0
 886 0018 43D0     		beq	.L59
 201:..\..\src/scsiPhy.c **** 	{
 202:..\..\src/scsiPhy.c **** 		if (likely(dmaSentCount == dmaTotalCount))
 887              		.loc 1 202 0 is_stmt 1
 888 001a 264B     		ldr	r3, .L66+8
 889 001c 1A68     		ldr	r2, [r3]
 890 001e 264B     		ldr	r3, .L66+12
 891 0020 1B68     		ldr	r3, [r3]
 892 0022 9A42     		cmp	r2, r3
 893 0024 0CBF     		ite	eq
 894 0026 0123     		moveq	r3, #1
 895 0028 0023     		movne	r3, #0
 896 002a DBB2     		uxtb	r3, r3
 897 002c 002B     		cmp	r3, #0
 898 002e 14D0     		beq	.L60
 203:..\..\src/scsiPhy.c **** 		{
 204:..\..\src/scsiPhy.c **** 			dmaInProgress = 0;
 899              		.loc 1 204 0
 900 0030 224B     		ldr	r3, .L66+16
 901 0032 0022     		movs	r2, #0
 902 0034 1A60     		str	r2, [r3]
 205:..\..\src/scsiPhy.c **** 			scsiDev.parityError = scsiDev.parityError || SCSI_Parity_Error_Read();
 903              		.loc 1 205 0
 904 0036 224B     		ldr	r3, .L66+20
 905 0038 D3F87031 		ldr	r3, [r3, #368]
 906 003c 002B     		cmp	r3, #0
 907 003e 04D1     		bne	.L61
 908              		.loc 1 205 0 is_stmt 0 discriminator 2
ARM GAS  C:\Users\r\AppData\Local\Temp\ccqe305w.s 			page 21


 909 0040 FFF7FEFF 		bl	SCSI_Parity_Error_Read
 910 0044 0346     		mov	r3, r0
 911 0046 002B     		cmp	r3, #0
 912 0048 01D0     		beq	.L62
 913              	.L61:
 914              		.loc 1 205 0 discriminator 3
 915 004a 0123     		movs	r3, #1
 916 004c 00E0     		b	.L63
 917              	.L62:
 918              		.loc 1 205 0 discriminator 4
 919 004e 0023     		movs	r3, #0
 920              	.L63:
 921              		.loc 1 205 0 discriminator 6
 922 0050 1B4A     		ldr	r2, .L66+20
 923 0052 C2F87031 		str	r3, [r2, #368]
 206:..\..\src/scsiPhy.c **** 			return 1;
 924              		.loc 1 206 0 is_stmt 1 discriminator 6
 925 0056 0123     		movs	r3, #1
 926 0058 24E0     		b	.L64
 927              	.L60:
 928              	.LBB3:
 207:..\..\src/scsiPhy.c **** 		}
 208:..\..\src/scsiPhy.c **** 		else
 209:..\..\src/scsiPhy.c **** 		{
 210:..\..\src/scsiPhy.c **** 			// Transfer was too large for a single DMA transfer. Continue
 211:..\..\src/scsiPhy.c **** 			// to send remaining bytes.
 212:..\..\src/scsiPhy.c **** 			uint32_t count = dmaTotalCount - dmaSentCount;
 929              		.loc 1 212 0
 930 005a 174B     		ldr	r3, .L66+12
 931 005c 1A68     		ldr	r2, [r3]
 932 005e 154B     		ldr	r3, .L66+8
 933 0060 1B68     		ldr	r3, [r3]
 934 0062 D31A     		subs	r3, r2, r3
 935 0064 7B60     		str	r3, [r7, #4]
 213:..\..\src/scsiPhy.c **** 			if (unlikely(count > MAX_DMA_BYTES)) count = MAX_DMA_BYTES;
 936              		.loc 1 213 0
 937 0066 7B68     		ldr	r3, [r7, #4]
 938 0068 40F6F872 		movw	r2, #4088
 939 006c 9342     		cmp	r3, r2
 940 006e 8CBF     		ite	hi
 941 0070 0123     		movhi	r3, #1
 942 0072 0023     		movls	r3, #0
 943 0074 DBB2     		uxtb	r3, r3
 944 0076 002B     		cmp	r3, #0
 945 0078 02D0     		beq	.L65
 946              		.loc 1 213 0 is_stmt 0 discriminator 1
 947 007a 40F6F873 		movw	r3, #4088
 948 007e 7B60     		str	r3, [r7, #4]
 949              	.L65:
 214:..\..\src/scsiPhy.c **** 			doRxSingleDMA(dmaBuffer + dmaSentCount, count);
 950              		.loc 1 214 0 is_stmt 1
 951 0080 104B     		ldr	r3, .L66+24
 952 0082 1A68     		ldr	r2, [r3]
 953 0084 0B4B     		ldr	r3, .L66+8
 954 0086 1B68     		ldr	r3, [r3]
 955 0088 1344     		add	r3, r3, r2
 956 008a 7968     		ldr	r1, [r7, #4]
ARM GAS  C:\Users\r\AppData\Local\Temp\ccqe305w.s 			page 22


 957 008c 1846     		mov	r0, r3
 958 008e FFF7FEFF 		bl	doRxSingleDMA
 215:..\..\src/scsiPhy.c **** 			dmaSentCount += count;
 959              		.loc 1 215 0
 960 0092 084B     		ldr	r3, .L66+8
 961 0094 1A68     		ldr	r2, [r3]
 962 0096 7B68     		ldr	r3, [r7, #4]
 963 0098 1344     		add	r3, r3, r2
 964 009a 064A     		ldr	r2, .L66+8
 965 009c 1360     		str	r3, [r2]
 216:..\..\src/scsiPhy.c **** 			return 0;
 966              		.loc 1 216 0
 967 009e 0023     		movs	r3, #0
 968 00a0 00E0     		b	.L64
 969              	.L59:
 970              	.LBE3:
 217:..\..\src/scsiPhy.c **** 		}
 218:..\..\src/scsiPhy.c **** 	}
 219:..\..\src/scsiPhy.c **** 	else
 220:..\..\src/scsiPhy.c **** 	{
 221:..\..\src/scsiPhy.c **** 		return 0;
 971              		.loc 1 221 0
 972 00a2 0023     		movs	r3, #0
 973              	.L64:
 222:..\..\src/scsiPhy.c **** 	}
 223:..\..\src/scsiPhy.c **** }
 974              		.loc 1 223 0
 975 00a4 1846     		mov	r0, r3
 976 00a6 0837     		adds	r7, r7, #8
 977              		.cfi_def_cfa_offset 8
 978 00a8 BD46     		mov	sp, r7
 979              		.cfi_def_cfa_register 13
 980              		@ sp needed
 981 00aa 80BD     		pop	{r7, pc}
 982              	.L67:
 983              		.align	2
 984              	.L66:
 985 00ac 00000000 		.word	scsiTxDMAComplete
 986 00b0 00000000 		.word	scsiRxDMAComplete
 987 00b4 08000000 		.word	dmaSentCount
 988 00b8 0C000000 		.word	dmaTotalCount
 989 00bc 00000000 		.word	dmaInProgress
 990 00c0 00000000 		.word	scsiDev
 991 00c4 04000000 		.word	dmaBuffer
 992              		.cfi_endproc
 993              	.LFE73:
 994              		.size	scsiReadDMAPoll, .-scsiReadDMAPoll
 995              		.section	.text.scsiRead,"ax",%progbits
 996              		.align	2
 997              		.global	scsiRead
 998              		.thumb
 999              		.thumb_func
 1000              		.type	scsiRead, %function
 1001              	scsiRead:
 1002              	.LFB74:
 224:..\..\src/scsiPhy.c **** 
 225:..\..\src/scsiPhy.c **** void
ARM GAS  C:\Users\r\AppData\Local\Temp\ccqe305w.s 			page 23


 226:..\..\src/scsiPhy.c **** scsiRead(uint8_t* data, uint32_t count)
 227:..\..\src/scsiPhy.c **** {
 1003              		.loc 1 227 0
 1004              		.cfi_startproc
 1005              		@ args = 0, pretend = 0, frame = 8
 1006              		@ frame_needed = 1, uses_anonymous_args = 0
 1007 0000 80B5     		push	{r7, lr}
 1008              		.cfi_def_cfa_offset 8
 1009              		.cfi_offset 7, -8
 1010              		.cfi_offset 14, -4
 1011 0002 82B0     		sub	sp, sp, #8
 1012              		.cfi_def_cfa_offset 16
 1013 0004 00AF     		add	r7, sp, #0
 1014              		.cfi_def_cfa_register 7
 1015 0006 7860     		str	r0, [r7, #4]
 1016 0008 3960     		str	r1, [r7]
 228:..\..\src/scsiPhy.c **** 	if (count < 12)
 1017              		.loc 1 228 0
 1018 000a 3B68     		ldr	r3, [r7]
 1019 000c 0B2B     		cmp	r3, #11
 1020 000e 04D8     		bhi	.L69
 229:..\..\src/scsiPhy.c **** 	{
 230:..\..\src/scsiPhy.c **** 		scsiReadPIO(data, count);
 1021              		.loc 1 230 0
 1022 0010 3968     		ldr	r1, [r7]
 1023 0012 7868     		ldr	r0, [r7, #4]
 1024 0014 FFF7FEFF 		bl	scsiReadPIO
 231:..\..\src/scsiPhy.c **** 	}
 232:..\..\src/scsiPhy.c **** 	else
 233:..\..\src/scsiPhy.c **** 	{
 234:..\..\src/scsiPhy.c **** 		scsiReadDMA(data, count);
 235:..\..\src/scsiPhy.c **** 
 236:..\..\src/scsiPhy.c **** 		// Wait for the next DMA interrupt (or the 1ms systick)
 237:..\..\src/scsiPhy.c **** 		// It's beneficial to halt the processor to
 238:..\..\src/scsiPhy.c **** 		// give the DMA controller more memory bandwidth to work with.
 239:..\..\src/scsiPhy.c **** 		__WFI();
 240:..\..\src/scsiPhy.c **** 
 241:..\..\src/scsiPhy.c **** 		trace(trace_spinReadDMAPoll);
 242:..\..\src/scsiPhy.c **** 		while (!scsiReadDMAPoll() && likely(!scsiDev.resetFlag))
 243:..\..\src/scsiPhy.c **** 		{
 244:..\..\src/scsiPhy.c **** 			__WFI();
 245:..\..\src/scsiPhy.c **** 		};
 246:..\..\src/scsiPhy.c **** 	}
 247:..\..\src/scsiPhy.c **** }
 1025              		.loc 1 247 0
 1026 0018 18E0     		b	.L73
 1027              	.L69:
 234:..\..\src/scsiPhy.c **** 
 1028              		.loc 1 234 0
 1029 001a 3968     		ldr	r1, [r7]
 1030 001c 7868     		ldr	r0, [r7, #4]
 1031 001e FFF7FEFF 		bl	scsiReadDMA
 239:..\..\src/scsiPhy.c **** 
 1032              		.loc 1 239 0
 1033              		.syntax unified
 1034              	@ 239 "..\..\src\scsiPhy.c" 1
 1035 0022 30BF     		wfi
ARM GAS  C:\Users\r\AppData\Local\Temp\ccqe305w.s 			page 24


 1036              	@ 0 "" 2
 241:..\..\src/scsiPhy.c **** 		while (!scsiReadDMAPoll() && likely(!scsiDev.resetFlag))
 1037              		.loc 1 241 0
 1038              		.thumb
 1039              		.syntax unified
 1040 0024 0B4B     		ldr	r3, .L74
 1041 0026 2122     		movs	r2, #33
 1042 0028 1A70     		strb	r2, [r3]
 242:..\..\src/scsiPhy.c **** 		{
 1043              		.loc 1 242 0
 1044 002a 00E0     		b	.L71
 1045              	.L72:
 244:..\..\src/scsiPhy.c **** 		};
 1046              		.loc 1 244 0
 1047              		.syntax unified
 1048              	@ 244 "..\..\src\scsiPhy.c" 1
 1049 002c 30BF     		wfi
 1050              	@ 0 "" 2
 1051              		.thumb
 1052              		.syntax unified
 1053              	.L71:
 242:..\..\src/scsiPhy.c **** 		{
 1054              		.loc 1 242 0
 1055 002e FFF7FEFF 		bl	scsiReadDMAPoll
 1056 0032 0346     		mov	r3, r0
 1057 0034 002B     		cmp	r3, #0
 1058 0036 09D1     		bne	.L73
 242:..\..\src/scsiPhy.c **** 		{
 1059              		.loc 1 242 0 is_stmt 0 discriminator 1
 1060 0038 074B     		ldr	r3, .L74+4
 1061 003a D3F86831 		ldr	r3, [r3, #360]
 1062 003e 002B     		cmp	r3, #0
 1063 0040 0CBF     		ite	eq
 1064 0042 0123     		moveq	r3, #1
 1065 0044 0023     		movne	r3, #0
 1066 0046 DBB2     		uxtb	r3, r3
 1067 0048 002B     		cmp	r3, #0
 1068 004a EFD1     		bne	.L72
 1069              	.L73:
 1070              		.loc 1 247 0 is_stmt 1
 1071 004c 00BF     		nop
 1072 004e 0837     		adds	r7, r7, #8
 1073              		.cfi_def_cfa_offset 8
 1074 0050 BD46     		mov	sp, r7
 1075              		.cfi_def_cfa_register 13
 1076              		@ sp needed
 1077 0052 80BD     		pop	{r7, pc}
 1078              	.L75:
 1079              		.align	2
 1080              	.L74:
 1081 0054 00000000 		.word	LastTrace
 1082 0058 00000000 		.word	scsiDev
 1083              		.cfi_endproc
 1084              	.LFE74:
 1085              		.size	scsiRead, .-scsiRead
 1086              		.section	.text.scsiWriteByte,"ax",%progbits
 1087              		.align	2
ARM GAS  C:\Users\r\AppData\Local\Temp\ccqe305w.s 			page 25


 1088              		.global	scsiWriteByte
 1089              		.thumb
 1090              		.thumb_func
 1091              		.type	scsiWriteByte, %function
 1092              	scsiWriteByte:
 1093              	.LFB75:
 248:..\..\src/scsiPhy.c **** 
 249:..\..\src/scsiPhy.c **** void
 250:..\..\src/scsiPhy.c **** scsiWriteByte(uint8 value)
 251:..\..\src/scsiPhy.c **** {
 1094              		.loc 1 251 0
 1095              		.cfi_startproc
 1096              		@ args = 0, pretend = 0, frame = 8
 1097              		@ frame_needed = 1, uses_anonymous_args = 0
 1098              		@ link register save eliminated.
 1099 0000 80B4     		push	{r7}
 1100              		.cfi_def_cfa_offset 4
 1101              		.cfi_offset 7, -4
 1102 0002 83B0     		sub	sp, sp, #12
 1103              		.cfi_def_cfa_offset 16
 1104 0004 00AF     		add	r7, sp, #0
 1105              		.cfi_def_cfa_register 7
 1106 0006 0346     		mov	r3, r0
 1107 0008 FB71     		strb	r3, [r7, #7]
 252:..\..\src/scsiPhy.c **** 	trace(trace_spinPhyTxFifo);
 1108              		.loc 1 252 0
 1109 000a 1C4B     		ldr	r3, .L81
 1110 000c 2322     		movs	r2, #35
 1111 000e 1A70     		strb	r2, [r3]
 253:..\..\src/scsiPhy.c **** 	while (unlikely(scsiPhyTxFifoFull()) && likely(!scsiDev.resetFlag)) {}
 1112              		.loc 1 253 0
 1113 0010 00BF     		nop
 1114              	.L78:
 1115              		.loc 1 253 0 is_stmt 0 discriminator 2
 1116 0012 1B4B     		ldr	r3, .L81+4
 1117 0014 1B78     		ldrb	r3, [r3]
 1118 0016 DBB2     		uxtb	r3, r3
 1119 0018 03F00103 		and	r3, r3, #1
 1120 001c 002B     		cmp	r3, #0
 1121 001e 0CBF     		ite	eq
 1122 0020 0123     		moveq	r3, #1
 1123 0022 0023     		movne	r3, #0
 1124 0024 DBB2     		uxtb	r3, r3
 1125 0026 002B     		cmp	r3, #0
 1126 0028 09D0     		beq	.L77
 1127              		.loc 1 253 0 discriminator 1
 1128 002a 164B     		ldr	r3, .L81+8
 1129 002c D3F86831 		ldr	r3, [r3, #360]
 1130 0030 002B     		cmp	r3, #0
 1131 0032 0CBF     		ite	eq
 1132 0034 0123     		moveq	r3, #1
 1133 0036 0023     		movne	r3, #0
 1134 0038 DBB2     		uxtb	r3, r3
 1135 003a 002B     		cmp	r3, #0
 1136 003c E9D1     		bne	.L78
 1137              	.L77:
 254:..\..\src/scsiPhy.c **** 	scsiPhyTx(value);
ARM GAS  C:\Users\r\AppData\Local\Temp\ccqe305w.s 			page 26


 1138              		.loc 1 254 0 is_stmt 1
 1139 003e 124A     		ldr	r2, .L81+12
 1140 0040 FB79     		ldrb	r3, [r7, #7]
 1141 0042 1370     		strb	r3, [r2]
 255:..\..\src/scsiPhy.c **** 
 256:..\..\src/scsiPhy.c **** 	trace(trace_spinTxComplete);
 1142              		.loc 1 256 0
 1143 0044 0D4B     		ldr	r3, .L81
 1144 0046 2022     		movs	r2, #32
 1145 0048 1A70     		strb	r2, [r3]
 257:..\..\src/scsiPhy.c **** 	while (!(scsiPhyStatus() & SCSI_PHY_TX_COMPLETE) && likely(!scsiDev.resetFlag)) {}
 1146              		.loc 1 257 0
 1147 004a 00BF     		nop
 1148              	.L80:
 1149              		.loc 1 257 0 is_stmt 0 discriminator 2
 1150 004c 0C4B     		ldr	r3, .L81+4
 1151 004e 1B78     		ldrb	r3, [r3]
 1152 0050 DBB2     		uxtb	r3, r3
 1153 0052 03F01003 		and	r3, r3, #16
 1154 0056 002B     		cmp	r3, #0
 1155 0058 09D1     		bne	.L79
 1156              		.loc 1 257 0 discriminator 1
 1157 005a 0A4B     		ldr	r3, .L81+8
 1158 005c D3F86831 		ldr	r3, [r3, #360]
 1159 0060 002B     		cmp	r3, #0
 1160 0062 0CBF     		ite	eq
 1161 0064 0123     		moveq	r3, #1
 1162 0066 0023     		movne	r3, #0
 1163 0068 DBB2     		uxtb	r3, r3
 1164 006a 002B     		cmp	r3, #0
 1165 006c EED1     		bne	.L80
 1166              	.L79:
 258:..\..\src/scsiPhy.c **** 	scsiPhyRx();
 1167              		.loc 1 258 0 is_stmt 1
 1168 006e 074B     		ldr	r3, .L81+16
 1169 0070 1B78     		ldrb	r3, [r3]
 259:..\..\src/scsiPhy.c **** }
 1170              		.loc 1 259 0
 1171 0072 00BF     		nop
 1172 0074 0C37     		adds	r7, r7, #12
 1173              		.cfi_def_cfa_offset 4
 1174 0076 BD46     		mov	sp, r7
 1175              		.cfi_def_cfa_register 13
 1176              		@ sp needed
 1177 0078 80BC     		pop	{r7}
 1178              		.cfi_restore 7
 1179              		.cfi_def_cfa_offset 0
 1180 007a 7047     		bx	lr
 1181              	.L82:
 1182              		.align	2
 1183              	.L81:
 1184 007c 00000000 		.word	LastTrace
 1185 0080 67640040 		.word	1073767527
 1186 0084 00000000 		.word	scsiDev
 1187 0088 40640040 		.word	1073767488
 1188 008c 50640040 		.word	1073767504
 1189              		.cfi_endproc
ARM GAS  C:\Users\r\AppData\Local\Temp\ccqe305w.s 			page 27


 1190              	.LFE75:
 1191              		.size	scsiWriteByte, .-scsiWriteByte
 1192              		.section	.text.scsiWritePIO,"ax",%progbits
 1193              		.align	2
 1194              		.thumb
 1195              		.thumb_func
 1196              		.type	scsiWritePIO, %function
 1197              	scsiWritePIO:
 1198              	.LFB76:
 260:..\..\src/scsiPhy.c **** 
 261:..\..\src/scsiPhy.c **** static void
 262:..\..\src/scsiPhy.c **** scsiWritePIO(const uint8_t* data, uint32_t count)
 263:..\..\src/scsiPhy.c **** {
 1199              		.loc 1 263 0
 1200              		.cfi_startproc
 1201              		@ args = 0, pretend = 0, frame = 16
 1202              		@ frame_needed = 1, uses_anonymous_args = 0
 1203              		@ link register save eliminated.
 1204 0000 80B4     		push	{r7}
 1205              		.cfi_def_cfa_offset 4
 1206              		.cfi_offset 7, -4
 1207 0002 85B0     		sub	sp, sp, #20
 1208              		.cfi_def_cfa_offset 24
 1209 0004 00AF     		add	r7, sp, #0
 1210              		.cfi_def_cfa_register 7
 1211 0006 7860     		str	r0, [r7, #4]
 1212 0008 3960     		str	r1, [r7]
 264:..\..\src/scsiPhy.c **** 	int i = 0;
 1213              		.loc 1 264 0
 1214 000a 0023     		movs	r3, #0
 1215 000c FB60     		str	r3, [r7, #12]
 265:..\..\src/scsiPhy.c **** 
 266:..\..\src/scsiPhy.c **** 	while (i < count && likely(!scsiDev.resetFlag))
 1216              		.loc 1 266 0
 1217 000e 0FE0     		b	.L84
 1218              	.L86:
 267:..\..\src/scsiPhy.c **** 	{
 268:..\..\src/scsiPhy.c **** 		if (!scsiPhyTxFifoFull())
 1219              		.loc 1 268 0
 1220 0010 1F4B     		ldr	r3, .L89
 1221 0012 1B78     		ldrb	r3, [r3]
 1222 0014 DBB2     		uxtb	r3, r3
 1223 0016 03F00103 		and	r3, r3, #1
 1224 001a 002B     		cmp	r3, #0
 1225 001c 08D0     		beq	.L84
 269:..\..\src/scsiPhy.c **** 		{
 270:..\..\src/scsiPhy.c **** 			scsiPhyTx(data[i]);
 1226              		.loc 1 270 0
 1227 001e 1D49     		ldr	r1, .L89+4
 1228 0020 FB68     		ldr	r3, [r7, #12]
 1229 0022 7A68     		ldr	r2, [r7, #4]
 1230 0024 1344     		add	r3, r3, r2
 1231 0026 1B78     		ldrb	r3, [r3]	@ zero_extendqisi2
 1232 0028 0B70     		strb	r3, [r1]
 271:..\..\src/scsiPhy.c **** 			++i;
 1233              		.loc 1 271 0
 1234 002a FB68     		ldr	r3, [r7, #12]
ARM GAS  C:\Users\r\AppData\Local\Temp\ccqe305w.s 			page 28


 1235 002c 0133     		adds	r3, r3, #1
 1236 002e FB60     		str	r3, [r7, #12]
 1237              	.L84:
 266:..\..\src/scsiPhy.c **** 	{
 1238              		.loc 1 266 0
 1239 0030 FA68     		ldr	r2, [r7, #12]
 1240 0032 3B68     		ldr	r3, [r7]
 1241 0034 9A42     		cmp	r2, r3
 1242 0036 09D2     		bcs	.L85
 266:..\..\src/scsiPhy.c **** 	{
 1243              		.loc 1 266 0 is_stmt 0 discriminator 1
 1244 0038 174B     		ldr	r3, .L89+8
 1245 003a D3F86831 		ldr	r3, [r3, #360]
 1246 003e 002B     		cmp	r3, #0
 1247 0040 0CBF     		ite	eq
 1248 0042 0123     		moveq	r3, #1
 1249 0044 0023     		movne	r3, #0
 1250 0046 DBB2     		uxtb	r3, r3
 1251 0048 002B     		cmp	r3, #0
 1252 004a E1D1     		bne	.L86
 1253              	.L85:
 272:..\..\src/scsiPhy.c **** 		}
 273:..\..\src/scsiPhy.c **** 	}
 274:..\..\src/scsiPhy.c **** 
 275:..\..\src/scsiPhy.c **** 	trace(trace_spinTxComplete);
 1254              		.loc 1 275 0 is_stmt 1
 1255 004c 134B     		ldr	r3, .L89+12
 1256 004e 2022     		movs	r2, #32
 1257 0050 1A70     		strb	r2, [r3]
 276:..\..\src/scsiPhy.c **** 	while (!(scsiPhyStatus() & SCSI_PHY_TX_COMPLETE) && likely(!scsiDev.resetFlag)) {}
 1258              		.loc 1 276 0
 1259 0052 00BF     		nop
 1260              	.L88:
 1261              		.loc 1 276 0 is_stmt 0 discriminator 2
 1262 0054 0E4B     		ldr	r3, .L89
 1263 0056 1B78     		ldrb	r3, [r3]
 1264 0058 DBB2     		uxtb	r3, r3
 1265 005a 03F01003 		and	r3, r3, #16
 1266 005e 002B     		cmp	r3, #0
 1267 0060 09D1     		bne	.L87
 1268              		.loc 1 276 0 discriminator 1
 1269 0062 0D4B     		ldr	r3, .L89+8
 1270 0064 D3F86831 		ldr	r3, [r3, #360]
 1271 0068 002B     		cmp	r3, #0
 1272 006a 0CBF     		ite	eq
 1273 006c 0123     		moveq	r3, #1
 1274 006e 0023     		movne	r3, #0
 1275 0070 DBB2     		uxtb	r3, r3
 1276 0072 002B     		cmp	r3, #0
 1277 0074 EED1     		bne	.L88
 1278              	.L87:
 277:..\..\src/scsiPhy.c **** 	scsiPhyRxFifoClear();
 1279              		.loc 1 277 0 is_stmt 1
 1280 0076 0A4B     		ldr	r3, .L89+16
 1281 0078 1B78     		ldrb	r3, [r3]
 1282 007a 094B     		ldr	r3, .L89+16
 1283 007c 1B78     		ldrb	r3, [r3]
ARM GAS  C:\Users\r\AppData\Local\Temp\ccqe305w.s 			page 29


 1284 007e 084B     		ldr	r3, .L89+16
 1285 0080 1B78     		ldrb	r3, [r3]
 1286 0082 074B     		ldr	r3, .L89+16
 1287 0084 1B78     		ldrb	r3, [r3]
 278:..\..\src/scsiPhy.c **** }
 1288              		.loc 1 278 0
 1289 0086 00BF     		nop
 1290 0088 1437     		adds	r7, r7, #20
 1291              		.cfi_def_cfa_offset 4
 1292 008a BD46     		mov	sp, r7
 1293              		.cfi_def_cfa_register 13
 1294              		@ sp needed
 1295 008c 80BC     		pop	{r7}
 1296              		.cfi_restore 7
 1297              		.cfi_def_cfa_offset 0
 1298 008e 7047     		bx	lr
 1299              	.L90:
 1300              		.align	2
 1301              	.L89:
 1302 0090 67640040 		.word	1073767527
 1303 0094 40640040 		.word	1073767488
 1304 0098 00000000 		.word	scsiDev
 1305 009c 00000000 		.word	LastTrace
 1306 00a0 50640040 		.word	1073767504
 1307              		.cfi_endproc
 1308              	.LFE76:
 1309              		.size	scsiWritePIO, .-scsiWritePIO
 1310              		.section	.text.doTxSingleDMA,"ax",%progbits
 1311              		.align	2
 1312              		.thumb
 1313              		.thumb_func
 1314              		.type	doTxSingleDMA, %function
 1315              	doTxSingleDMA:
 1316              	.LFB77:
 279:..\..\src/scsiPhy.c **** 
 280:..\..\src/scsiPhy.c **** static void
 281:..\..\src/scsiPhy.c **** doTxSingleDMA(const uint8* data, uint32 count)
 282:..\..\src/scsiPhy.c **** {
 1317              		.loc 1 282 0
 1318              		.cfi_startproc
 1319              		@ args = 0, pretend = 0, frame = 8
 1320              		@ frame_needed = 1, uses_anonymous_args = 0
 1321 0000 80B5     		push	{r7, lr}
 1322              		.cfi_def_cfa_offset 8
 1323              		.cfi_offset 7, -8
 1324              		.cfi_offset 14, -4
 1325 0002 82B0     		sub	sp, sp, #8
 1326              		.cfi_def_cfa_offset 16
 1327 0004 00AF     		add	r7, sp, #0
 1328              		.cfi_def_cfa_register 7
 1329 0006 7860     		str	r0, [r7, #4]
 1330 0008 3960     		str	r1, [r7]
 283:..\..\src/scsiPhy.c **** 	// Prepare DMA transfer
 284:..\..\src/scsiPhy.c **** 	dmaInProgress = 1;
 1331              		.loc 1 284 0
 1332 000a 1A4B     		ldr	r3, .L92
 1333 000c 0122     		movs	r2, #1
ARM GAS  C:\Users\r\AppData\Local\Temp\ccqe305w.s 			page 30


 1334 000e 1A60     		str	r2, [r3]
 285:..\..\src/scsiPhy.c **** 	trace(trace_doTxSingleDMA);
 1335              		.loc 1 285 0
 1336 0010 194B     		ldr	r3, .L92+4
 1337 0012 5422     		movs	r2, #84
 1338 0014 1A70     		strb	r2, [r3]
 286:..\..\src/scsiPhy.c **** 
 287:..\..\src/scsiPhy.c **** 	CyDmaTdSetConfiguration(
 1339              		.loc 1 287 0
 1340 0016 194B     		ldr	r3, .L92+8
 1341 0018 1878     		ldrb	r0, [r3]	@ zero_extendqisi2
 1342 001a 3B68     		ldr	r3, [r7]
 1343 001c 99B2     		uxth	r1, r3
 1344 001e 0523     		movs	r3, #5
 1345 0020 FE22     		movs	r2, #254
 1346 0022 FFF7FEFF 		bl	CyDmaTdSetConfiguration
 288:..\..\src/scsiPhy.c **** 		scsiDmaTxTd[0],
 289:..\..\src/scsiPhy.c **** 		count,
 290:..\..\src/scsiPhy.c **** 		CY_DMA_DISABLE_TD, // Disable the DMA channel when TD completes count bytes
 291:..\..\src/scsiPhy.c **** 		TD_INC_SRC_ADR |
 292:..\..\src/scsiPhy.c **** 			SCSI_TX_DMA__TD_TERMOUT_EN // Trigger interrupt when complete
 293:..\..\src/scsiPhy.c **** 		);
 294:..\..\src/scsiPhy.c **** 	CyDmaTdSetAddress(
 1347              		.loc 1 294 0
 1348 0026 154B     		ldr	r3, .L92+8
 1349 0028 1B78     		ldrb	r3, [r3]	@ zero_extendqisi2
 1350 002a 7A68     		ldr	r2, [r7, #4]
 1351 002c 91B2     		uxth	r1, r2
 1352 002e 46F24042 		movw	r2, #25664
 1353 0032 1846     		mov	r0, r3
 1354 0034 FFF7FEFF 		bl	CyDmaTdSetAddress
 295:..\..\src/scsiPhy.c **** 		scsiDmaTxTd[0],
 296:..\..\src/scsiPhy.c **** 		LO16((uint32)data),
 297:..\..\src/scsiPhy.c **** 		LO16((uint32)scsiTarget_datapath__F0_REG));
 298:..\..\src/scsiPhy.c **** 	CyDmaChSetInitialTd(scsiDmaTxChan, scsiDmaTxTd[0]);
 1355              		.loc 1 298 0
 1356 0038 114B     		ldr	r3, .L92+12
 1357 003a 1A78     		ldrb	r2, [r3]	@ zero_extendqisi2
 1358 003c 0F4B     		ldr	r3, .L92+8
 1359 003e 1B78     		ldrb	r3, [r3]	@ zero_extendqisi2
 1360 0040 1946     		mov	r1, r3
 1361 0042 1046     		mov	r0, r2
 1362 0044 FFF7FEFF 		bl	CyDmaChSetInitialTd
 299:..\..\src/scsiPhy.c **** 
 300:..\..\src/scsiPhy.c **** 	// The DMA controller is a bit trigger-happy. It will retain
 301:..\..\src/scsiPhy.c **** 	// a drq request that was triggered while the channel was
 302:..\..\src/scsiPhy.c **** 	// disabled.
 303:..\..\src/scsiPhy.c **** 	CyDmaClearPendingDrq(scsiDmaTxChan);
 1363              		.loc 1 303 0
 1364 0048 0D4B     		ldr	r3, .L92+12
 1365 004a 1B78     		ldrb	r3, [r3]	@ zero_extendqisi2
 1366 004c 1846     		mov	r0, r3
 1367 004e FFF7FEFF 		bl	CyDmaClearPendingDrq
 304:..\..\src/scsiPhy.c **** 
 305:..\..\src/scsiPhy.c **** 	scsiTxDMAComplete = 0;
 1368              		.loc 1 305 0
 1369 0052 0C4B     		ldr	r3, .L92+16
ARM GAS  C:\Users\r\AppData\Local\Temp\ccqe305w.s 			page 31


 1370 0054 0022     		movs	r2, #0
 1371 0056 1A70     		strb	r2, [r3]
 306:..\..\src/scsiPhy.c **** 	scsiRxDMAComplete = 1;
 1372              		.loc 1 306 0
 1373 0058 0B4B     		ldr	r3, .L92+20
 1374 005a 0122     		movs	r2, #1
 1375 005c 1A70     		strb	r2, [r3]
 307:..\..\src/scsiPhy.c **** 
 308:..\..\src/scsiPhy.c **** 	CyDmaChEnable(scsiDmaTxChan, 1);
 1376              		.loc 1 308 0
 1377 005e 084B     		ldr	r3, .L92+12
 1378 0060 1B78     		ldrb	r3, [r3]	@ zero_extendqisi2
 1379 0062 0121     		movs	r1, #1
 1380 0064 1846     		mov	r0, r3
 1381 0066 FFF7FEFF 		bl	CyDmaChEnable
 309:..\..\src/scsiPhy.c **** }
 1382              		.loc 1 309 0
 1383 006a 00BF     		nop
 1384 006c 0837     		adds	r7, r7, #8
 1385              		.cfi_def_cfa_offset 8
 1386 006e BD46     		mov	sp, r7
 1387              		.cfi_def_cfa_register 13
 1388              		@ sp needed
 1389 0070 80BD     		pop	{r7, pc}
 1390              	.L93:
 1391 0072 00BF     		.align	2
 1392              	.L92:
 1393 0074 00000000 		.word	dmaInProgress
 1394 0078 00000000 		.word	LastTrace
 1395 007c 08000000 		.word	scsiDmaTxTd
 1396 0080 01000000 		.word	scsiDmaTxChan
 1397 0084 00000000 		.word	scsiTxDMAComplete
 1398 0088 00000000 		.word	scsiRxDMAComplete
 1399              		.cfi_endproc
 1400              	.LFE77:
 1401              		.size	doTxSingleDMA, .-doTxSingleDMA
 1402              		.section	.text.scsiWriteDMA,"ax",%progbits
 1403              		.align	2
 1404              		.global	scsiWriteDMA
 1405              		.thumb
 1406              		.thumb_func
 1407              		.type	scsiWriteDMA, %function
 1408              	scsiWriteDMA:
 1409              	.LFB78:
 310:..\..\src/scsiPhy.c **** 
 311:..\..\src/scsiPhy.c **** void
 312:..\..\src/scsiPhy.c **** scsiWriteDMA(const uint8* data, uint32 count)
 313:..\..\src/scsiPhy.c **** {
 1410              		.loc 1 313 0
 1411              		.cfi_startproc
 1412              		@ args = 0, pretend = 0, frame = 16
 1413              		@ frame_needed = 1, uses_anonymous_args = 0
 1414 0000 80B5     		push	{r7, lr}
 1415              		.cfi_def_cfa_offset 8
 1416              		.cfi_offset 7, -8
 1417              		.cfi_offset 14, -4
 1418 0002 84B0     		sub	sp, sp, #16
ARM GAS  C:\Users\r\AppData\Local\Temp\ccqe305w.s 			page 32


 1419              		.cfi_def_cfa_offset 24
 1420 0004 00AF     		add	r7, sp, #0
 1421              		.cfi_def_cfa_register 7
 1422 0006 7860     		str	r0, [r7, #4]
 1423 0008 3960     		str	r1, [r7]
 314:..\..\src/scsiPhy.c **** 	dmaSentCount = 0;
 1424              		.loc 1 314 0
 1425 000a 0F4B     		ldr	r3, .L95
 1426 000c 0022     		movs	r2, #0
 1427 000e 1A60     		str	r2, [r3]
 315:..\..\src/scsiPhy.c **** 	dmaTotalCount = count;
 1428              		.loc 1 315 0
 1429 0010 0E4A     		ldr	r2, .L95+4
 1430 0012 3B68     		ldr	r3, [r7]
 1431 0014 1360     		str	r3, [r2]
 316:..\..\src/scsiPhy.c **** 	dmaBuffer = data;
 1432              		.loc 1 316 0
 1433 0016 0E4A     		ldr	r2, .L95+8
 1434 0018 7B68     		ldr	r3, [r7, #4]
 1435 001a 1360     		str	r3, [r2]
 317:..\..\src/scsiPhy.c **** 
 318:..\..\src/scsiPhy.c **** 	uint32_t singleCount = (count > MAX_DMA_BYTES) ? MAX_DMA_BYTES : count;
 1436              		.loc 1 318 0
 1437 001c 3B68     		ldr	r3, [r7]
 1438 001e 40F6F872 		movw	r2, #4088
 1439 0022 9342     		cmp	r3, r2
 1440 0024 28BF     		it	cs
 1441 0026 1346     		movcs	r3, r2
 1442 0028 FB60     		str	r3, [r7, #12]
 319:..\..\src/scsiPhy.c **** 	doTxSingleDMA(data, singleCount);
 1443              		.loc 1 319 0
 1444 002a F968     		ldr	r1, [r7, #12]
 1445 002c 7868     		ldr	r0, [r7, #4]
 1446 002e FFF7FEFF 		bl	doTxSingleDMA
 320:..\..\src/scsiPhy.c **** 	dmaSentCount += count;
 1447              		.loc 1 320 0
 1448 0032 054B     		ldr	r3, .L95
 1449 0034 1A68     		ldr	r2, [r3]
 1450 0036 3B68     		ldr	r3, [r7]
 1451 0038 1344     		add	r3, r3, r2
 1452 003a 034A     		ldr	r2, .L95
 1453 003c 1360     		str	r3, [r2]
 321:..\..\src/scsiPhy.c **** }
 1454              		.loc 1 321 0
 1455 003e 00BF     		nop
 1456 0040 1037     		adds	r7, r7, #16
 1457              		.cfi_def_cfa_offset 8
 1458 0042 BD46     		mov	sp, r7
 1459              		.cfi_def_cfa_register 13
 1460              		@ sp needed
 1461 0044 80BD     		pop	{r7, pc}
 1462              	.L96:
 1463 0046 00BF     		.align	2
 1464              	.L95:
 1465 0048 08000000 		.word	dmaSentCount
 1466 004c 0C000000 		.word	dmaTotalCount
 1467 0050 04000000 		.word	dmaBuffer
ARM GAS  C:\Users\r\AppData\Local\Temp\ccqe305w.s 			page 33


 1468              		.cfi_endproc
 1469              	.LFE78:
 1470              		.size	scsiWriteDMA, .-scsiWriteDMA
 1471              		.section	.text.scsiWriteDMAPoll,"ax",%progbits
 1472              		.align	2
 1473              		.global	scsiWriteDMAPoll
 1474              		.thumb
 1475              		.thumb_func
 1476              		.type	scsiWriteDMAPoll, %function
 1477              	scsiWriteDMAPoll:
 1478              	.LFB79:
 322:..\..\src/scsiPhy.c **** 
 323:..\..\src/scsiPhy.c **** int
 324:..\..\src/scsiPhy.c **** scsiWriteDMAPoll()
 325:..\..\src/scsiPhy.c **** {
 1479              		.loc 1 325 0
 1480              		.cfi_startproc
 1481              		@ args = 0, pretend = 0, frame = 8
 1482              		@ frame_needed = 1, uses_anonymous_args = 0
 1483 0000 80B5     		push	{r7, lr}
 1484              		.cfi_def_cfa_offset 8
 1485              		.cfi_offset 7, -8
 1486              		.cfi_offset 14, -4
 1487 0002 82B0     		sub	sp, sp, #8
 1488              		.cfi_def_cfa_offset 16
 1489 0004 00AF     		add	r7, sp, #0
 1490              		.cfi_def_cfa_register 7
 326:..\..\src/scsiPhy.c **** 	if (scsiTxDMAComplete)
 1491              		.loc 1 326 0
 1492 0006 284B     		ldr	r3, .L103
 1493 0008 1B78     		ldrb	r3, [r3]
 1494 000a DBB2     		uxtb	r3, r3
 1495 000c 002B     		cmp	r3, #0
 1496 000e 46D0     		beq	.L98
 327:..\..\src/scsiPhy.c **** 	{
 328:..\..\src/scsiPhy.c **** 		// Wait until our scsi signals are consistent. This should only be
 329:..\..\src/scsiPhy.c **** 		// a few cycles.
 330:..\..\src/scsiPhy.c **** 		trace(trace_spinTxComplete);
 1497              		.loc 1 330 0
 1498 0010 264B     		ldr	r3, .L103+4
 1499 0012 2022     		movs	r2, #32
 1500 0014 1A70     		strb	r2, [r3]
 331:..\..\src/scsiPhy.c **** 		while (!(scsiPhyStatus() & SCSI_PHY_TX_COMPLETE)) {}
 1501              		.loc 1 331 0
 1502 0016 00BF     		nop
 1503              	.L99:
 1504              		.loc 1 331 0 is_stmt 0 discriminator 1
 1505 0018 254B     		ldr	r3, .L103+8
 1506 001a 1B78     		ldrb	r3, [r3]
 1507 001c DBB2     		uxtb	r3, r3
 1508 001e 03F01003 		and	r3, r3, #16
 1509 0022 002B     		cmp	r3, #0
 1510 0024 F8D0     		beq	.L99
 332:..\..\src/scsiPhy.c **** 
 333:..\..\src/scsiPhy.c **** 		if (likely(dmaSentCount == dmaTotalCount))
 1511              		.loc 1 333 0 is_stmt 1
 1512 0026 234B     		ldr	r3, .L103+12
ARM GAS  C:\Users\r\AppData\Local\Temp\ccqe305w.s 			page 34


 1513 0028 1A68     		ldr	r2, [r3]
 1514 002a 234B     		ldr	r3, .L103+16
 1515 002c 1B68     		ldr	r3, [r3]
 1516 002e 9A42     		cmp	r2, r3
 1517 0030 0CBF     		ite	eq
 1518 0032 0123     		moveq	r3, #1
 1519 0034 0023     		movne	r3, #0
 1520 0036 DBB2     		uxtb	r3, r3
 1521 0038 002B     		cmp	r3, #0
 1522 003a 0CD0     		beq	.L100
 334:..\..\src/scsiPhy.c **** 		{
 335:..\..\src/scsiPhy.c **** 			scsiPhyRxFifoClear();
 1523              		.loc 1 335 0
 1524 003c 1F4B     		ldr	r3, .L103+20
 1525 003e 1B78     		ldrb	r3, [r3]
 1526 0040 1E4B     		ldr	r3, .L103+20
 1527 0042 1B78     		ldrb	r3, [r3]
 1528 0044 1D4B     		ldr	r3, .L103+20
 1529 0046 1B78     		ldrb	r3, [r3]
 1530 0048 1C4B     		ldr	r3, .L103+20
 1531 004a 1B78     		ldrb	r3, [r3]
 336:..\..\src/scsiPhy.c **** 			dmaInProgress = 0;
 1532              		.loc 1 336 0
 1533 004c 1C4B     		ldr	r3, .L103+24
 1534 004e 0022     		movs	r2, #0
 1535 0050 1A60     		str	r2, [r3]
 337:..\..\src/scsiPhy.c **** 			return 1;
 1536              		.loc 1 337 0
 1537 0052 0123     		movs	r3, #1
 1538 0054 24E0     		b	.L101
 1539              	.L100:
 1540              	.LBB4:
 338:..\..\src/scsiPhy.c **** 		}
 339:..\..\src/scsiPhy.c **** 		else
 340:..\..\src/scsiPhy.c **** 		{
 341:..\..\src/scsiPhy.c **** 			// Transfer was too large for a single DMA transfer. Continue
 342:..\..\src/scsiPhy.c **** 			// to send remaining bytes.
 343:..\..\src/scsiPhy.c **** 			uint32_t count = dmaTotalCount - dmaSentCount;
 1541              		.loc 1 343 0
 1542 0056 184B     		ldr	r3, .L103+16
 1543 0058 1A68     		ldr	r2, [r3]
 1544 005a 164B     		ldr	r3, .L103+12
 1545 005c 1B68     		ldr	r3, [r3]
 1546 005e D31A     		subs	r3, r2, r3
 1547 0060 7B60     		str	r3, [r7, #4]
 344:..\..\src/scsiPhy.c **** 			if (unlikely(count > MAX_DMA_BYTES)) count = MAX_DMA_BYTES;
 1548              		.loc 1 344 0
 1549 0062 7B68     		ldr	r3, [r7, #4]
 1550 0064 40F6F872 		movw	r2, #4088
 1551 0068 9342     		cmp	r3, r2
 1552 006a 8CBF     		ite	hi
 1553 006c 0123     		movhi	r3, #1
 1554 006e 0023     		movls	r3, #0
 1555 0070 DBB2     		uxtb	r3, r3
 1556 0072 002B     		cmp	r3, #0
 1557 0074 02D0     		beq	.L102
 1558              		.loc 1 344 0 is_stmt 0 discriminator 1
ARM GAS  C:\Users\r\AppData\Local\Temp\ccqe305w.s 			page 35


 1559 0076 40F6F873 		movw	r3, #4088
 1560 007a 7B60     		str	r3, [r7, #4]
 1561              	.L102:
 345:..\..\src/scsiPhy.c **** 			doTxSingleDMA(dmaBuffer + dmaSentCount, count);
 1562              		.loc 1 345 0 is_stmt 1
 1563 007c 114B     		ldr	r3, .L103+28
 1564 007e 1A68     		ldr	r2, [r3]
 1565 0080 0C4B     		ldr	r3, .L103+12
 1566 0082 1B68     		ldr	r3, [r3]
 1567 0084 1344     		add	r3, r3, r2
 1568 0086 7968     		ldr	r1, [r7, #4]
 1569 0088 1846     		mov	r0, r3
 1570 008a FFF7FEFF 		bl	doTxSingleDMA
 346:..\..\src/scsiPhy.c **** 			dmaSentCount += count;
 1571              		.loc 1 346 0
 1572 008e 094B     		ldr	r3, .L103+12
 1573 0090 1A68     		ldr	r2, [r3]
 1574 0092 7B68     		ldr	r3, [r7, #4]
 1575 0094 1344     		add	r3, r3, r2
 1576 0096 074A     		ldr	r2, .L103+12
 1577 0098 1360     		str	r3, [r2]
 347:..\..\src/scsiPhy.c **** 			return 0;
 1578              		.loc 1 347 0
 1579 009a 0023     		movs	r3, #0
 1580 009c 00E0     		b	.L101
 1581              	.L98:
 1582              	.LBE4:
 348:..\..\src/scsiPhy.c **** 		}
 349:..\..\src/scsiPhy.c **** 	}
 350:..\..\src/scsiPhy.c **** 	else
 351:..\..\src/scsiPhy.c **** 	{
 352:..\..\src/scsiPhy.c **** 		return 0;
 1583              		.loc 1 352 0
 1584 009e 0023     		movs	r3, #0
 1585              	.L101:
 353:..\..\src/scsiPhy.c **** 	}
 354:..\..\src/scsiPhy.c **** }
 1586              		.loc 1 354 0
 1587 00a0 1846     		mov	r0, r3
 1588 00a2 0837     		adds	r7, r7, #8
 1589              		.cfi_def_cfa_offset 8
 1590 00a4 BD46     		mov	sp, r7
 1591              		.cfi_def_cfa_register 13
 1592              		@ sp needed
 1593 00a6 80BD     		pop	{r7, pc}
 1594              	.L104:
 1595              		.align	2
 1596              	.L103:
 1597 00a8 00000000 		.word	scsiTxDMAComplete
 1598 00ac 00000000 		.word	LastTrace
 1599 00b0 67640040 		.word	1073767527
 1600 00b4 08000000 		.word	dmaSentCount
 1601 00b8 0C000000 		.word	dmaTotalCount
 1602 00bc 50640040 		.word	1073767504
 1603 00c0 00000000 		.word	dmaInProgress
 1604 00c4 04000000 		.word	dmaBuffer
 1605              		.cfi_endproc
ARM GAS  C:\Users\r\AppData\Local\Temp\ccqe305w.s 			page 36


 1606              	.LFE79:
 1607              		.size	scsiWriteDMAPoll, .-scsiWriteDMAPoll
 1608              		.section	.text.scsiWrite,"ax",%progbits
 1609              		.align	2
 1610              		.global	scsiWrite
 1611              		.thumb
 1612              		.thumb_func
 1613              		.type	scsiWrite, %function
 1614              	scsiWrite:
 1615              	.LFB80:
 355:..\..\src/scsiPhy.c **** 
 356:..\..\src/scsiPhy.c **** void
 357:..\..\src/scsiPhy.c **** scsiWrite(const uint8_t* data, uint32_t count)
 358:..\..\src/scsiPhy.c **** {
 1616              		.loc 1 358 0
 1617              		.cfi_startproc
 1618              		@ args = 0, pretend = 0, frame = 8
 1619              		@ frame_needed = 1, uses_anonymous_args = 0
 1620 0000 80B5     		push	{r7, lr}
 1621              		.cfi_def_cfa_offset 8
 1622              		.cfi_offset 7, -8
 1623              		.cfi_offset 14, -4
 1624 0002 82B0     		sub	sp, sp, #8
 1625              		.cfi_def_cfa_offset 16
 1626 0004 00AF     		add	r7, sp, #0
 1627              		.cfi_def_cfa_register 7
 1628 0006 7860     		str	r0, [r7, #4]
 1629 0008 3960     		str	r1, [r7]
 359:..\..\src/scsiPhy.c **** 	if (count < 12)
 1630              		.loc 1 359 0
 1631 000a 3B68     		ldr	r3, [r7]
 1632 000c 0B2B     		cmp	r3, #11
 1633 000e 04D8     		bhi	.L106
 360:..\..\src/scsiPhy.c **** 	{
 361:..\..\src/scsiPhy.c **** 		scsiWritePIO(data, count);
 1634              		.loc 1 361 0
 1635 0010 3968     		ldr	r1, [r7]
 1636 0012 7868     		ldr	r0, [r7, #4]
 1637 0014 FFF7FEFF 		bl	scsiWritePIO
 362:..\..\src/scsiPhy.c **** 	}
 363:..\..\src/scsiPhy.c **** 	else
 364:..\..\src/scsiPhy.c **** 	{
 365:..\..\src/scsiPhy.c **** 		scsiWriteDMA(data, count);
 366:..\..\src/scsiPhy.c **** 
 367:..\..\src/scsiPhy.c **** 		// Wait for the next DMA interrupt (or the 1ms systick)
 368:..\..\src/scsiPhy.c **** 		// It's beneficial to halt the processor to
 369:..\..\src/scsiPhy.c **** 		// give the DMA controller more memory bandwidth to work with.
 370:..\..\src/scsiPhy.c **** 		__WFI();
 371:..\..\src/scsiPhy.c **** 
 372:..\..\src/scsiPhy.c **** 		trace(trace_spinWriteDMAPoll);
 373:..\..\src/scsiPhy.c **** 		while (!scsiWriteDMAPoll() && likely(!scsiDev.resetFlag))
 374:..\..\src/scsiPhy.c **** 		{
 375:..\..\src/scsiPhy.c **** 			__WFI();
 376:..\..\src/scsiPhy.c **** 		};
 377:..\..\src/scsiPhy.c **** 	}
 378:..\..\src/scsiPhy.c **** }
 1638              		.loc 1 378 0
ARM GAS  C:\Users\r\AppData\Local\Temp\ccqe305w.s 			page 37


 1639 0018 18E0     		b	.L110
 1640              	.L106:
 365:..\..\src/scsiPhy.c **** 
 1641              		.loc 1 365 0
 1642 001a 3968     		ldr	r1, [r7]
 1643 001c 7868     		ldr	r0, [r7, #4]
 1644 001e FFF7FEFF 		bl	scsiWriteDMA
 370:..\..\src/scsiPhy.c **** 
 1645              		.loc 1 370 0
 1646              		.syntax unified
 1647              	@ 370 "..\..\src\scsiPhy.c" 1
 1648 0022 30BF     		wfi
 1649              	@ 0 "" 2
 372:..\..\src/scsiPhy.c **** 		while (!scsiWriteDMAPoll() && likely(!scsiDev.resetFlag))
 1650              		.loc 1 372 0
 1651              		.thumb
 1652              		.syntax unified
 1653 0024 0B4B     		ldr	r3, .L111
 1654 0026 2222     		movs	r2, #34
 1655 0028 1A70     		strb	r2, [r3]
 373:..\..\src/scsiPhy.c **** 		{
 1656              		.loc 1 373 0
 1657 002a 00E0     		b	.L108
 1658              	.L109:
 375:..\..\src/scsiPhy.c **** 		};
 1659              		.loc 1 375 0
 1660              		.syntax unified
 1661              	@ 375 "..\..\src\scsiPhy.c" 1
 1662 002c 30BF     		wfi
 1663              	@ 0 "" 2
 1664              		.thumb
 1665              		.syntax unified
 1666              	.L108:
 373:..\..\src/scsiPhy.c **** 		{
 1667              		.loc 1 373 0
 1668 002e FFF7FEFF 		bl	scsiWriteDMAPoll
 1669 0032 0346     		mov	r3, r0
 1670 0034 002B     		cmp	r3, #0
 1671 0036 09D1     		bne	.L110
 373:..\..\src/scsiPhy.c **** 		{
 1672              		.loc 1 373 0 is_stmt 0 discriminator 1
 1673 0038 074B     		ldr	r3, .L111+4
 1674 003a D3F86831 		ldr	r3, [r3, #360]
 1675 003e 002B     		cmp	r3, #0
 1676 0040 0CBF     		ite	eq
 1677 0042 0123     		moveq	r3, #1
 1678 0044 0023     		movne	r3, #0
 1679 0046 DBB2     		uxtb	r3, r3
 1680 0048 002B     		cmp	r3, #0
 1681 004a EFD1     		bne	.L109
 1682              	.L110:
 1683              		.loc 1 378 0 is_stmt 1
 1684 004c 00BF     		nop
 1685 004e 0837     		adds	r7, r7, #8
 1686              		.cfi_def_cfa_offset 8
 1687 0050 BD46     		mov	sp, r7
 1688              		.cfi_def_cfa_register 13
ARM GAS  C:\Users\r\AppData\Local\Temp\ccqe305w.s 			page 38


 1689              		@ sp needed
 1690 0052 80BD     		pop	{r7, pc}
 1691              	.L112:
 1692              		.align	2
 1693              	.L111:
 1694 0054 00000000 		.word	LastTrace
 1695 0058 00000000 		.word	scsiDev
 1696              		.cfi_endproc
 1697              	.LFE80:
 1698              		.size	scsiWrite, .-scsiWrite
 1699              		.section	.text.busSettleDelay,"ax",%progbits
 1700              		.align	2
 1701              		.thumb
 1702              		.thumb_func
 1703              		.type	busSettleDelay, %function
 1704              	busSettleDelay:
 1705              	.LFB81:
 379:..\..\src/scsiPhy.c **** 
 380:..\..\src/scsiPhy.c **** static inline void busSettleDelay(void)
 381:..\..\src/scsiPhy.c **** {
 1706              		.loc 1 381 0
 1707              		.cfi_startproc
 1708              		@ args = 0, pretend = 0, frame = 0
 1709              		@ frame_needed = 1, uses_anonymous_args = 0
 1710 0000 80B5     		push	{r7, lr}
 1711              		.cfi_def_cfa_offset 8
 1712              		.cfi_offset 7, -8
 1713              		.cfi_offset 14, -4
 1714 0002 00AF     		add	r7, sp, #0
 1715              		.cfi_def_cfa_register 7
 382:..\..\src/scsiPhy.c **** 	// Data Release time (switching IO) = 400ns
 383:..\..\src/scsiPhy.c **** 	// + Bus Settle time (switching phase) = 400ns.
 384:..\..\src/scsiPhy.c **** 	CyDelayUs(1); // Close enough.
 1716              		.loc 1 384 0
 1717 0004 0120     		movs	r0, #1
 1718 0006 FFF7FEFF 		bl	CyDelayUs
 385:..\..\src/scsiPhy.c **** }
 1719              		.loc 1 385 0
 1720 000a 00BF     		nop
 1721 000c 80BD     		pop	{r7, pc}
 1722              		.cfi_endproc
 1723              	.LFE81:
 1724              		.size	busSettleDelay, .-busSettleDelay
 1725 000e 00BF     		.section	.text.scsiEnterPhase,"ax",%progbits
 1726              		.align	2
 1727              		.global	scsiEnterPhase
 1728              		.thumb
 1729              		.thumb_func
 1730              		.type	scsiEnterPhase, %function
 1731              	scsiEnterPhase:
 1732              	.LFB82:
 386:..\..\src/scsiPhy.c **** 
 387:..\..\src/scsiPhy.c **** void scsiEnterPhase(int phase)
 388:..\..\src/scsiPhy.c **** {
 1733              		.loc 1 388 0
 1734              		.cfi_startproc
 1735              		@ args = 0, pretend = 0, frame = 16
ARM GAS  C:\Users\r\AppData\Local\Temp\ccqe305w.s 			page 39


 1736              		@ frame_needed = 1, uses_anonymous_args = 0
 1737 0000 80B5     		push	{r7, lr}
 1738              		.cfi_def_cfa_offset 8
 1739              		.cfi_offset 7, -8
 1740              		.cfi_offset 14, -4
 1741 0002 84B0     		sub	sp, sp, #16
 1742              		.cfi_def_cfa_offset 24
 1743 0004 00AF     		add	r7, sp, #0
 1744              		.cfi_def_cfa_register 7
 1745 0006 7860     		str	r0, [r7, #4]
 389:..\..\src/scsiPhy.c **** 	// ANSI INCITS 362-2002 SPI-3 10.7.1:
 390:..\..\src/scsiPhy.c **** 	// Phase changes are not allowed while REQ or ACK is asserted.
 391:..\..\src/scsiPhy.c **** 	while (likely(!scsiDev.resetFlag) && SCSI_ReadFilt(SCSI_Filt_ACK))
 1746              		.loc 1 391 0
 1747 0008 00BF     		nop
 1748              	.L116:
 1749              		.loc 1 391 0 is_stmt 0 discriminator 2
 1750 000a 194B     		ldr	r3, .L119
 1751 000c D3F86831 		ldr	r3, [r3, #360]
 1752 0010 002B     		cmp	r3, #0
 1753 0012 0CBF     		ite	eq
 1754 0014 0123     		moveq	r3, #1
 1755 0016 0023     		movne	r3, #0
 1756 0018 DBB2     		uxtb	r3, r3
 1757 001a 002B     		cmp	r3, #0
 1758 001c 06D0     		beq	.L115
 1759              		.loc 1 391 0 discriminator 1
 1760 001e FFF7FEFF 		bl	SCSI_Filtered_Read
 1761 0022 0346     		mov	r3, r0
 1762 0024 03F01003 		and	r3, r3, #16
 1763 0028 002B     		cmp	r3, #0
 1764 002a EED0     		beq	.L116
 1765              	.L115:
 392:..\..\src/scsiPhy.c **** 	{}
 393:..\..\src/scsiPhy.c **** 
 394:..\..\src/scsiPhy.c **** 	int newPhase = phase > 0 ? phase : 0;
 1766              		.loc 1 394 0 is_stmt 1
 1767 002c 7B68     		ldr	r3, [r7, #4]
 1768 002e 23EAE373 		bic	r3, r3, r3, asr #31
 1769 0032 FB60     		str	r3, [r7, #12]
 395:..\..\src/scsiPhy.c **** 	if (newPhase != SCSI_CTL_PHASE_Read())
 1770              		.loc 1 395 0
 1771 0034 FFF7FEFF 		bl	SCSI_CTL_PHASE_Read
 1772 0038 0346     		mov	r3, r0
 1773 003a 1A46     		mov	r2, r3
 1774 003c FB68     		ldr	r3, [r7, #12]
 1775 003e 9A42     		cmp	r2, r3
 1776 0040 12D0     		beq	.L118
 396:..\..\src/scsiPhy.c **** 	{
 397:..\..\src/scsiPhy.c **** 		SCSI_CTL_PHASE_Write(phase > 0 ? phase : 0);
 1777              		.loc 1 397 0
 1778 0042 7B68     		ldr	r3, [r7, #4]
 1779 0044 23EAE373 		bic	r3, r3, r3, asr #31
 1780 0048 DBB2     		uxtb	r3, r3
 1781 004a 1846     		mov	r0, r3
 1782 004c FFF7FEFF 		bl	SCSI_CTL_PHASE_Write
 398:..\..\src/scsiPhy.c **** 		busSettleDelay();
ARM GAS  C:\Users\r\AppData\Local\Temp\ccqe305w.s 			page 40


 1783              		.loc 1 398 0
 1784 0050 FFF7FEFF 		bl	busSettleDelay
 399:..\..\src/scsiPhy.c **** 
 400:..\..\src/scsiPhy.c **** 		if (scsiDev.compatMode < COMPAT_SCSI2)
 1785              		.loc 1 400 0
 1786 0054 064B     		ldr	r3, .L119
 1787 0056 03F58343 		add	r3, r3, #16768
 1788 005a 1733     		adds	r3, r3, #23
 1789 005c 1B78     		ldrb	r3, [r3]	@ zero_extendqisi2
 1790 005e 022B     		cmp	r3, #2
 1791 0060 02D8     		bhi	.L118
 401:..\..\src/scsiPhy.c **** 		{
 402:..\..\src/scsiPhy.c **** 			// XEBEC S1410 manual (old SASI controller) gives 10uSec delay
 403:..\..\src/scsiPhy.c **** 			// between phase bits and REQ.
 404:..\..\src/scsiPhy.c ****             // EMU EMAX needs 100uS ! 10uS is not enough.\r
 405:..\..\src/scsiPhy.c ****             CyDelayUs(100);
 1792              		.loc 1 405 0
 1793 0062 6420     		movs	r0, #100
 1794 0064 FFF7FEFF 		bl	CyDelayUs
 1795              	.L118:
 406:..\..\src/scsiPhy.c **** 		}
 407:..\..\src/scsiPhy.c **** 	}
 408:..\..\src/scsiPhy.c **** }
 1796              		.loc 1 408 0
 1797 0068 00BF     		nop
 1798 006a 1037     		adds	r7, r7, #16
 1799              		.cfi_def_cfa_offset 8
 1800 006c BD46     		mov	sp, r7
 1801              		.cfi_def_cfa_register 13
 1802              		@ sp needed
 1803 006e 80BD     		pop	{r7, pc}
 1804              	.L120:
 1805              		.align	2
 1806              	.L119:
 1807 0070 00000000 		.word	scsiDev
 1808              		.cfi_endproc
 1809              	.LFE82:
 1810              		.size	scsiEnterPhase, .-scsiEnterPhase
 1811              		.section	.text.scsiPhyReset,"ax",%progbits
 1812              		.align	2
 1813              		.global	scsiPhyReset
 1814              		.thumb
 1815              		.thumb_func
 1816              		.type	scsiPhyReset, %function
 1817              	scsiPhyReset:
 1818              	.LFB83:
 409:..\..\src/scsiPhy.c **** 
 410:..\..\src/scsiPhy.c **** void scsiPhyReset()
 411:..\..\src/scsiPhy.c **** {
 1819              		.loc 1 411 0
 1820              		.cfi_startproc
 1821              		@ args = 0, pretend = 0, frame = 0
 1822              		@ frame_needed = 1, uses_anonymous_args = 0
 1823 0000 80B5     		push	{r7, lr}
 1824              		.cfi_def_cfa_offset 8
 1825              		.cfi_offset 7, -8
 1826              		.cfi_offset 14, -4
ARM GAS  C:\Users\r\AppData\Local\Temp\ccqe305w.s 			page 41


 1827 0002 00AF     		add	r7, sp, #0
 1828              		.cfi_def_cfa_register 7
 412:..\..\src/scsiPhy.c **** 	trace(trace_scsiPhyReset);
 1829              		.loc 1 412 0
 1830 0004 504B     		ldr	r3, .L128
 1831 0006 5522     		movs	r2, #85
 1832 0008 1A70     		strb	r2, [r3]
 413:..\..\src/scsiPhy.c **** 	if (dmaInProgress)
 1833              		.loc 1 413 0
 1834 000a 504B     		ldr	r3, .L128+4
 1835 000c 1B68     		ldr	r3, [r3]
 1836 000e 002B     		cmp	r3, #0
 1837 0010 47D0     		beq	.L122
 414:..\..\src/scsiPhy.c **** 	{
 415:..\..\src/scsiPhy.c **** 		dmaInProgress = 0;
 1838              		.loc 1 415 0
 1839 0012 4E4B     		ldr	r3, .L128+4
 1840 0014 0022     		movs	r2, #0
 1841 0016 1A60     		str	r2, [r3]
 416:..\..\src/scsiPhy.c **** 		dmaBuffer = NULL;
 1842              		.loc 1 416 0
 1843 0018 4D4B     		ldr	r3, .L128+8
 1844 001a 0022     		movs	r2, #0
 1845 001c 1A60     		str	r2, [r3]
 417:..\..\src/scsiPhy.c **** 		dmaSentCount = 0;
 1846              		.loc 1 417 0
 1847 001e 4D4B     		ldr	r3, .L128+12
 1848 0020 0022     		movs	r2, #0
 1849 0022 1A60     		str	r2, [r3]
 418:..\..\src/scsiPhy.c **** 		dmaTotalCount = 0;
 1850              		.loc 1 418 0
 1851 0024 4C4B     		ldr	r3, .L128+16
 1852 0026 0022     		movs	r2, #0
 1853 0028 1A60     		str	r2, [r3]
 419:..\..\src/scsiPhy.c **** 		CyDmaChSetRequest(scsiDmaTxChan, CY_DMA_CPU_TERM_CHAIN);
 1854              		.loc 1 419 0
 1855 002a 4C4B     		ldr	r3, .L128+20
 1856 002c 1B78     		ldrb	r3, [r3]	@ zero_extendqisi2
 1857 002e 0421     		movs	r1, #4
 1858 0030 1846     		mov	r0, r3
 1859 0032 FFF7FEFF 		bl	CyDmaChSetRequest
 420:..\..\src/scsiPhy.c **** 		CyDmaChSetRequest(scsiDmaRxChan, CY_DMA_CPU_TERM_CHAIN);
 1860              		.loc 1 420 0
 1861 0036 4A4B     		ldr	r3, .L128+24
 1862 0038 1B78     		ldrb	r3, [r3]	@ zero_extendqisi2
 1863 003a 0421     		movs	r1, #4
 1864 003c 1846     		mov	r0, r3
 1865 003e FFF7FEFF 		bl	CyDmaChSetRequest
 421:..\..\src/scsiPhy.c **** 
 422:..\..\src/scsiPhy.c **** 		// CyDmaChGetRequest returns 0 for the relevant bit once the
 423:..\..\src/scsiPhy.c **** 		// request is completed.
 424:..\..\src/scsiPhy.c **** 		trace(trace_spinDMAReset);
 1866              		.loc 1 424 0
 1867 0042 414B     		ldr	r3, .L128
 1868 0044 2522     		movs	r2, #37
 1869 0046 1A70     		strb	r2, [r3]
 425:..\..\src/scsiPhy.c **** 		while (
ARM GAS  C:\Users\r\AppData\Local\Temp\ccqe305w.s 			page 42


 1870              		.loc 1 425 0
 1871 0048 00BF     		nop
 1872              	.L124:
 426:..\..\src/scsiPhy.c **** 			(CyDmaChGetRequest(scsiDmaTxChan) & CY_DMA_CPU_TERM_CHAIN) &&
 1873              		.loc 1 426 0 discriminator 1
 1874 004a 444B     		ldr	r3, .L128+20
 1875 004c 1B78     		ldrb	r3, [r3]	@ zero_extendqisi2
 1876 004e 1846     		mov	r0, r3
 1877 0050 FFF7FEFF 		bl	CyDmaChGetRequest
 1878 0054 0346     		mov	r3, r0
 1879 0056 03F00403 		and	r3, r3, #4
 425:..\..\src/scsiPhy.c **** 		while (
 1880              		.loc 1 425 0 discriminator 1
 1881 005a 002B     		cmp	r3, #0
 1882 005c 04D0     		beq	.L127
 427:..\..\src/scsiPhy.c **** 			!scsiTxDMAComplete
 1883              		.loc 1 427 0
 1884 005e 414B     		ldr	r3, .L128+28
 1885 0060 1B78     		ldrb	r3, [r3]
 1886 0062 DBB2     		uxtb	r3, r3
 426:..\..\src/scsiPhy.c **** 			(CyDmaChGetRequest(scsiDmaTxChan) & CY_DMA_CPU_TERM_CHAIN) &&
 1887              		.loc 1 426 0
 1888 0064 002B     		cmp	r3, #0
 1889 0066 F0D0     		beq	.L124
 1890              	.L127:
 428:..\..\src/scsiPhy.c **** 			)
 429:..\..\src/scsiPhy.c **** 		{}
 430:..\..\src/scsiPhy.c **** 
 431:..\..\src/scsiPhy.c **** 		while ((
 1891              		.loc 1 431 0
 1892 0068 00BF     		nop
 1893              	.L126:
 432:..\..\src/scsiPhy.c **** 			CyDmaChGetRequest(scsiDmaRxChan) & CY_DMA_CPU_TERM_CHAIN) &&
 1894              		.loc 1 432 0 discriminator 1
 1895 006a 3D4B     		ldr	r3, .L128+24
 1896 006c 1B78     		ldrb	r3, [r3]	@ zero_extendqisi2
 1897 006e 1846     		mov	r0, r3
 1898 0070 FFF7FEFF 		bl	CyDmaChGetRequest
 1899 0074 0346     		mov	r3, r0
 1900 0076 03F00403 		and	r3, r3, #4
 431:..\..\src/scsiPhy.c **** 			CyDmaChGetRequest(scsiDmaRxChan) & CY_DMA_CPU_TERM_CHAIN) &&
 1901              		.loc 1 431 0 discriminator 1
 1902 007a 002B     		cmp	r3, #0
 1903 007c 04D0     		beq	.L125
 433:..\..\src/scsiPhy.c **** 			!scsiRxDMAComplete
 1904              		.loc 1 433 0
 1905 007e 3A4B     		ldr	r3, .L128+32
 1906 0080 1B78     		ldrb	r3, [r3]
 1907 0082 DBB2     		uxtb	r3, r3
 432:..\..\src/scsiPhy.c **** 			CyDmaChGetRequest(scsiDmaRxChan) & CY_DMA_CPU_TERM_CHAIN) &&
 1908              		.loc 1 432 0
 1909 0084 002B     		cmp	r3, #0
 1910 0086 F0D0     		beq	.L126
 1911              	.L125:
 434:..\..\src/scsiPhy.c **** 			)
 435:..\..\src/scsiPhy.c **** 		{}
 436:..\..\src/scsiPhy.c **** 
ARM GAS  C:\Users\r\AppData\Local\Temp\ccqe305w.s 			page 43


 437:..\..\src/scsiPhy.c **** 		CyDelayUs(1);
 1912              		.loc 1 437 0
 1913 0088 0120     		movs	r0, #1
 1914 008a FFF7FEFF 		bl	CyDelayUs
 438:..\..\src/scsiPhy.c **** 
 439:..\..\src/scsiPhy.c **** 		CyDmaChDisable(scsiDmaTxChan);
 1915              		.loc 1 439 0
 1916 008e 334B     		ldr	r3, .L128+20
 1917 0090 1B78     		ldrb	r3, [r3]	@ zero_extendqisi2
 1918 0092 1846     		mov	r0, r3
 1919 0094 FFF7FEFF 		bl	CyDmaChDisable
 440:..\..\src/scsiPhy.c **** 		CyDmaChDisable(scsiDmaRxChan);
 1920              		.loc 1 440 0
 1921 0098 314B     		ldr	r3, .L128+24
 1922 009a 1B78     		ldrb	r3, [r3]	@ zero_extendqisi2
 1923 009c 1846     		mov	r0, r3
 1924 009e FFF7FEFF 		bl	CyDmaChDisable
 1925              	.L122:
 441:..\..\src/scsiPhy.c **** 	}
 442:..\..\src/scsiPhy.c **** 
 443:..\..\src/scsiPhy.c **** 	// Set the Clear bits for both SCSI device FIFOs
 444:..\..\src/scsiPhy.c **** 	scsiTarget_AUX_CTL = scsiTarget_AUX_CTL | 0x03;
 1926              		.loc 1 444 0
 1927 00a2 324A     		ldr	r2, .L128+36
 1928 00a4 314B     		ldr	r3, .L128+36
 1929 00a6 1B78     		ldrb	r3, [r3]
 1930 00a8 DBB2     		uxtb	r3, r3
 1931 00aa 43F00303 		orr	r3, r3, #3
 1932 00ae DBB2     		uxtb	r3, r3
 1933 00b0 1370     		strb	r3, [r2]
 445:..\..\src/scsiPhy.c **** 
 446:..\..\src/scsiPhy.c **** 	// Trigger RST outselves.  It is connected to the datapath and will
 447:..\..\src/scsiPhy.c **** 	// ensure it returns to the idle state.  The datapath runs at the BUS clk
 448:..\..\src/scsiPhy.c **** 	// speed (ie. same as the CPU), so we can be sure it is active for a sufficient
 449:..\..\src/scsiPhy.c **** 	// duration.
 450:..\..\src/scsiPhy.c **** 	SCSI_RST_ISR_Disable();
 1934              		.loc 1 450 0
 1935 00b2 FFF7FEFF 		bl	SCSI_RST_ISR_Disable
 451:..\..\src/scsiPhy.c **** 	SCSI_SetPin(SCSI_Out_RST);
 1936              		.loc 1 451 0
 1937 00b6 2E4A     		ldr	r2, .L128+40
 1938 00b8 2D4B     		ldr	r3, .L128+40
 1939 00ba 1B78     		ldrb	r3, [r3]
 1940 00bc DBB2     		uxtb	r3, r3
 1941 00be 43F00103 		orr	r3, r3, #1
 1942 00c2 DBB2     		uxtb	r3, r3
 1943 00c4 1370     		strb	r3, [r2]
 452:..\..\src/scsiPhy.c **** 
 453:..\..\src/scsiPhy.c **** 	SCSI_CTL_PHASE_Write(0);
 1944              		.loc 1 453 0
 1945 00c6 0020     		movs	r0, #0
 1946 00c8 FFF7FEFF 		bl	SCSI_CTL_PHASE_Write
 454:..\..\src/scsiPhy.c **** 	#ifdef SCSI_Out_ATN
 455:..\..\src/scsiPhy.c **** 	SCSI_ClearPin(SCSI_Out_ATN);
 1947              		.loc 1 455 0
 1948 00cc 294A     		ldr	r2, .L128+44
 1949 00ce 294B     		ldr	r3, .L128+44
ARM GAS  C:\Users\r\AppData\Local\Temp\ccqe305w.s 			page 44


 1950 00d0 1B78     		ldrb	r3, [r3]
 1951 00d2 DBB2     		uxtb	r3, r3
 1952 00d4 23F00103 		bic	r3, r3, #1
 1953 00d8 DBB2     		uxtb	r3, r3
 1954 00da 1370     		strb	r3, [r2]
 456:..\..\src/scsiPhy.c **** 	#endif
 457:..\..\src/scsiPhy.c **** 	SCSI_ClearPin(SCSI_Out_BSY);
 1955              		.loc 1 457 0
 1956 00dc 264A     		ldr	r2, .L128+48
 1957 00de 264B     		ldr	r3, .L128+48
 1958 00e0 1B78     		ldrb	r3, [r3]
 1959 00e2 DBB2     		uxtb	r3, r3
 1960 00e4 23F00103 		bic	r3, r3, #1
 1961 00e8 DBB2     		uxtb	r3, r3
 1962 00ea 1370     		strb	r3, [r2]
 458:..\..\src/scsiPhy.c **** 	#ifdef SCSI_Out_ACK
 459:..\..\src/scsiPhy.c **** 	SCSI_ClearPin(SCSI_Out_ACK);
 1963              		.loc 1 459 0
 1964 00ec 234A     		ldr	r2, .L128+52
 1965 00ee 234B     		ldr	r3, .L128+52
 1966 00f0 1B78     		ldrb	r3, [r3]
 1967 00f2 DBB2     		uxtb	r3, r3
 1968 00f4 23F00103 		bic	r3, r3, #1
 1969 00f8 DBB2     		uxtb	r3, r3
 1970 00fa 1370     		strb	r3, [r2]
 460:..\..\src/scsiPhy.c **** 	#endif
 461:..\..\src/scsiPhy.c **** 	SCSI_ClearPin(SCSI_Out_SEL);
 1971              		.loc 1 461 0
 1972 00fc 204A     		ldr	r2, .L128+56
 1973 00fe 204B     		ldr	r3, .L128+56
 1974 0100 1B78     		ldrb	r3, [r3]
 1975 0102 DBB2     		uxtb	r3, r3
 1976 0104 23F00103 		bic	r3, r3, #1
 1977 0108 DBB2     		uxtb	r3, r3
 1978 010a 1370     		strb	r3, [r2]
 462:..\..\src/scsiPhy.c **** 	SCSI_ClearPin(SCSI_Out_REQ);
 1979              		.loc 1 462 0
 1980 010c 1D4A     		ldr	r2, .L128+60
 1981 010e 1D4B     		ldr	r3, .L128+60
 1982 0110 1B78     		ldrb	r3, [r3]
 1983 0112 DBB2     		uxtb	r3, r3
 1984 0114 23F00103 		bic	r3, r3, #1
 1985 0118 DBB2     		uxtb	r3, r3
 1986 011a 1370     		strb	r3, [r2]
 463:..\..\src/scsiPhy.c **** 
 464:..\..\src/scsiPhy.c **** 	// Allow the FIFOs to fill up again.
 465:..\..\src/scsiPhy.c **** 	SCSI_ClearPin(SCSI_Out_RST);
 1987              		.loc 1 465 0
 1988 011c 144A     		ldr	r2, .L128+40
 1989 011e 144B     		ldr	r3, .L128+40
 1990 0120 1B78     		ldrb	r3, [r3]
 1991 0122 DBB2     		uxtb	r3, r3
 1992 0124 23F00103 		bic	r3, r3, #1
 1993 0128 DBB2     		uxtb	r3, r3
 1994 012a 1370     		strb	r3, [r2]
 466:..\..\src/scsiPhy.c **** 	SCSI_RST_ISR_Enable();
 1995              		.loc 1 466 0
ARM GAS  C:\Users\r\AppData\Local\Temp\ccqe305w.s 			page 45


 1996 012c FFF7FEFF 		bl	SCSI_RST_ISR_Enable
 467:..\..\src/scsiPhy.c **** 	scsiTarget_AUX_CTL = scsiTarget_AUX_CTL & ~(0x03);
 1997              		.loc 1 467 0
 1998 0130 0E4A     		ldr	r2, .L128+36
 1999 0132 0E4B     		ldr	r3, .L128+36
 2000 0134 1B78     		ldrb	r3, [r3]
 2001 0136 DBB2     		uxtb	r3, r3
 2002 0138 23F00303 		bic	r3, r3, #3
 2003 013c DBB2     		uxtb	r3, r3
 2004 013e 1370     		strb	r3, [r2]
 468:..\..\src/scsiPhy.c **** 
 469:..\..\src/scsiPhy.c **** 	SCSI_Parity_Error_Read(); // clear sticky bits
 2005              		.loc 1 469 0
 2006 0140 FFF7FEFF 		bl	SCSI_Parity_Error_Read
 470:..\..\src/scsiPhy.c **** }
 2007              		.loc 1 470 0
 2008 0144 00BF     		nop
 2009 0146 80BD     		pop	{r7, pc}
 2010              	.L129:
 2011              		.align	2
 2012              	.L128:
 2013 0148 00000000 		.word	LastTrace
 2014 014c 00000000 		.word	dmaInProgress
 2015 0150 04000000 		.word	dmaBuffer
 2016 0154 08000000 		.word	dmaSentCount
 2017 0158 0C000000 		.word	dmaTotalCount
 2018 015c 01000000 		.word	scsiDmaTxChan
 2019 0160 00000000 		.word	scsiDmaRxChan
 2020 0164 00000000 		.word	scsiTxDMAComplete
 2021 0168 00000000 		.word	scsiRxDMAComplete
 2022 016c 90640040 		.word	1073767568
 2023 0170 25500040 		.word	1073762341
 2024 0174 7C500040 		.word	1073762428
 2025 0178 31500040 		.word	1073762353
 2026 017c 30500040 		.word	1073762352
 2027 0180 07500040 		.word	1073762311
 2028 0184 03500040 		.word	1073762307
 2029              		.cfi_endproc
 2030              	.LFE83:
 2031              		.size	scsiPhyReset, .-scsiPhyReset
 2032              		.section	.text.scsiPhyInitDMA,"ax",%progbits
 2033              		.align	2
 2034              		.thumb
 2035              		.thumb_func
 2036              		.type	scsiPhyInitDMA, %function
 2037              	scsiPhyInitDMA:
 2038              	.LFB84:
 471:..\..\src/scsiPhy.c **** 
 472:..\..\src/scsiPhy.c **** static void scsiPhyInitDMA()
 473:..\..\src/scsiPhy.c **** {
 2039              		.loc 1 473 0
 2040              		.cfi_startproc
 2041              		@ args = 0, pretend = 0, frame = 0
 2042              		@ frame_needed = 1, uses_anonymous_args = 0
 2043 0000 80B5     		push	{r7, lr}
 2044              		.cfi_def_cfa_offset 8
 2045              		.cfi_offset 7, -8
ARM GAS  C:\Users\r\AppData\Local\Temp\ccqe305w.s 			page 46


 2046              		.cfi_offset 14, -4
 2047 0002 00AF     		add	r7, sp, #0
 2048              		.cfi_def_cfa_register 7
 474:..\..\src/scsiPhy.c **** 	// One-time init only.
 475:..\..\src/scsiPhy.c **** 	if (scsiDmaTxChan == CY_DMA_INVALID_CHANNEL)
 2049              		.loc 1 475 0
 2050 0004 1C4B     		ldr	r3, .L133
 2051 0006 1B78     		ldrb	r3, [r3]	@ zero_extendqisi2
 2052 0008 FF2B     		cmp	r3, #255
 2053 000a 33D1     		bne	.L132
 476:..\..\src/scsiPhy.c **** 	{
 477:..\..\src/scsiPhy.c **** 		scsiDmaRxChan =
 478:..\..\src/scsiPhy.c **** 			SCSI_RX_DMA_DmaInitialize(
 2054              		.loc 1 478 0
 2055 000c 41F6FF73 		movw	r3, #8191
 2056 0010 4FF48042 		mov	r2, #16384
 2057 0014 0121     		movs	r1, #1
 2058 0016 0120     		movs	r0, #1
 2059 0018 FFF7FEFF 		bl	SCSI_RX_DMA_DmaInitialize
 2060 001c 0346     		mov	r3, r0
 2061 001e 1A46     		mov	r2, r3
 477:..\..\src/scsiPhy.c **** 			SCSI_RX_DMA_DmaInitialize(
 2062              		.loc 1 477 0
 2063 0020 164B     		ldr	r3, .L133+4
 2064 0022 1A70     		strb	r2, [r3]
 479:..\..\src/scsiPhy.c **** 				1, // Bytes per burst
 480:..\..\src/scsiPhy.c **** 				1, // request per burst
 481:..\..\src/scsiPhy.c **** 				HI16(CYDEV_PERIPH_BASE),
 482:..\..\src/scsiPhy.c **** 				HI16(CYDEV_SRAM_BASE)
 483:..\..\src/scsiPhy.c **** 				);
 484:..\..\src/scsiPhy.c **** 
 485:..\..\src/scsiPhy.c **** 		scsiDmaTxChan =
 486:..\..\src/scsiPhy.c **** 			SCSI_TX_DMA_DmaInitialize(
 2065              		.loc 1 486 0
 2066 0024 4FF48043 		mov	r3, #16384
 2067 0028 41F6FF72 		movw	r2, #8191
 2068 002c 0121     		movs	r1, #1
 2069 002e 0120     		movs	r0, #1
 2070 0030 FFF7FEFF 		bl	SCSI_TX_DMA_DmaInitialize
 2071 0034 0346     		mov	r3, r0
 2072 0036 1A46     		mov	r2, r3
 485:..\..\src/scsiPhy.c **** 			SCSI_TX_DMA_DmaInitialize(
 2073              		.loc 1 485 0
 2074 0038 0F4B     		ldr	r3, .L133
 2075 003a 1A70     		strb	r2, [r3]
 487:..\..\src/scsiPhy.c **** 				1, // Bytes per burst
 488:..\..\src/scsiPhy.c **** 				1, // request per burst
 489:..\..\src/scsiPhy.c **** 				HI16(CYDEV_SRAM_BASE),
 490:..\..\src/scsiPhy.c **** 				HI16(CYDEV_PERIPH_BASE)
 491:..\..\src/scsiPhy.c **** 				);
 492:..\..\src/scsiPhy.c **** 
 493:..\..\src/scsiPhy.c **** 		CyDmaChDisable(scsiDmaRxChan);
 2076              		.loc 1 493 0
 2077 003c 0F4B     		ldr	r3, .L133+4
 2078 003e 1B78     		ldrb	r3, [r3]	@ zero_extendqisi2
 2079 0040 1846     		mov	r0, r3
 2080 0042 FFF7FEFF 		bl	CyDmaChDisable
ARM GAS  C:\Users\r\AppData\Local\Temp\ccqe305w.s 			page 47


 494:..\..\src/scsiPhy.c **** 		CyDmaChDisable(scsiDmaTxChan);
 2081              		.loc 1 494 0
 2082 0046 0C4B     		ldr	r3, .L133
 2083 0048 1B78     		ldrb	r3, [r3]	@ zero_extendqisi2
 2084 004a 1846     		mov	r0, r3
 2085 004c FFF7FEFF 		bl	CyDmaChDisable
 495:..\..\src/scsiPhy.c **** 
 496:..\..\src/scsiPhy.c **** 		scsiDmaRxTd[0] = CyDmaTdAllocate();
 2086              		.loc 1 496 0
 2087 0050 FFF7FEFF 		bl	CyDmaTdAllocate
 2088 0054 0346     		mov	r3, r0
 2089 0056 1A46     		mov	r2, r3
 2090 0058 094B     		ldr	r3, .L133+8
 2091 005a 1A70     		strb	r2, [r3]
 497:..\..\src/scsiPhy.c **** 		scsiDmaTxTd[0] = CyDmaTdAllocate();
 2092              		.loc 1 497 0
 2093 005c FFF7FEFF 		bl	CyDmaTdAllocate
 2094 0060 0346     		mov	r3, r0
 2095 0062 1A46     		mov	r2, r3
 2096 0064 074B     		ldr	r3, .L133+12
 2097 0066 1A70     		strb	r2, [r3]
 498:..\..\src/scsiPhy.c **** 
 499:..\..\src/scsiPhy.c **** 		SCSI_RX_DMA_COMPLETE_StartEx(scsiRxCompleteISR);
 2098              		.loc 1 499 0
 2099 0068 0748     		ldr	r0, .L133+16
 2100 006a FFF7FEFF 		bl	SCSI_RX_DMA_COMPLETE_StartEx
 500:..\..\src/scsiPhy.c **** 		SCSI_TX_DMA_COMPLETE_StartEx(scsiTxCompleteISR);
 2101              		.loc 1 500 0
 2102 006e 0748     		ldr	r0, .L133+20
 2103 0070 FFF7FEFF 		bl	SCSI_TX_DMA_COMPLETE_StartEx
 2104              	.L132:
 501:..\..\src/scsiPhy.c **** 	}
 502:..\..\src/scsiPhy.c **** }
 2105              		.loc 1 502 0
 2106 0074 00BF     		nop
 2107 0076 80BD     		pop	{r7, pc}
 2108              	.L134:
 2109              		.align	2
 2110              	.L133:
 2111 0078 01000000 		.word	scsiDmaTxChan
 2112 007c 00000000 		.word	scsiDmaRxChan
 2113 0080 04000000 		.word	scsiDmaRxTd
 2114 0084 08000000 		.word	scsiDmaTxTd
 2115 0088 00000000 		.word	scsiRxCompleteISR
 2116 008c 00000000 		.word	scsiTxCompleteISR
 2117              		.cfi_endproc
 2118              	.LFE84:
 2119              		.size	scsiPhyInitDMA, .-scsiPhyInitDMA
 2120              		.section	.text.scsiPhyInit,"ax",%progbits
 2121              		.align	2
 2122              		.global	scsiPhyInit
 2123              		.thumb
 2124              		.thumb_func
 2125              		.type	scsiPhyInit, %function
 2126              	scsiPhyInit:
 2127              	.LFB85:
 503:..\..\src/scsiPhy.c **** 
ARM GAS  C:\Users\r\AppData\Local\Temp\ccqe305w.s 			page 48


 504:..\..\src/scsiPhy.c **** 
 505:..\..\src/scsiPhy.c **** void scsiPhyInit()
 506:..\..\src/scsiPhy.c **** {
 2128              		.loc 1 506 0
 2129              		.cfi_startproc
 2130              		@ args = 0, pretend = 0, frame = 0
 2131              		@ frame_needed = 1, uses_anonymous_args = 0
 2132 0000 80B5     		push	{r7, lr}
 2133              		.cfi_def_cfa_offset 8
 2134              		.cfi_offset 7, -8
 2135              		.cfi_offset 14, -4
 2136 0002 00AF     		add	r7, sp, #0
 2137              		.cfi_def_cfa_register 7
 507:..\..\src/scsiPhy.c **** 	scsiPhyInitDMA();
 2138              		.loc 1 507 0
 2139 0004 FFF7FEFF 		bl	scsiPhyInitDMA
 508:..\..\src/scsiPhy.c **** 
 509:..\..\src/scsiPhy.c **** 	SCSI_RST_ISR_StartEx(scsiResetISR);
 2140              		.loc 1 509 0
 2141 0008 0348     		ldr	r0, .L136
 2142 000a FFF7FEFF 		bl	SCSI_RST_ISR_StartEx
 510:..\..\src/scsiPhy.c **** 
 511:..\..\src/scsiPhy.c **** 	SCSI_SEL_ISR_StartEx(scsiSelectionISR);
 2143              		.loc 1 511 0
 2144 000e 0348     		ldr	r0, .L136+4
 2145 0010 FFF7FEFF 		bl	SCSI_SEL_ISR_StartEx
 512:..\..\src/scsiPhy.c **** }
 2146              		.loc 1 512 0
 2147 0014 00BF     		nop
 2148 0016 80BD     		pop	{r7, pc}
 2149              	.L137:
 2150              		.align	2
 2151              	.L136:
 2152 0018 00000000 		.word	scsiResetISR
 2153 001c 00000000 		.word	scsiSelectionISR
 2154              		.cfi_endproc
 2155              	.LFE85:
 2156              		.size	scsiPhyInit, .-scsiPhyInit
 2157              		.section	.text.scsiPhyConfig,"ax",%progbits
 2158              		.align	2
 2159              		.global	scsiPhyConfig
 2160              		.thumb
 2161              		.thumb_func
 2162              		.type	scsiPhyConfig, %function
 2163              	scsiPhyConfig:
 2164              	.LFB86:
 513:..\..\src/scsiPhy.c **** 
 514:..\..\src/scsiPhy.c **** void scsiPhyConfig()
 515:..\..\src/scsiPhy.c **** {
 2165              		.loc 1 515 0
 2166              		.cfi_startproc
 2167              		@ args = 0, pretend = 0, frame = 8
 2168              		@ frame_needed = 1, uses_anonymous_args = 0
 2169 0000 80B5     		push	{r7, lr}
 2170              		.cfi_def_cfa_offset 8
 2171              		.cfi_offset 7, -8
 2172              		.cfi_offset 14, -4
ARM GAS  C:\Users\r\AppData\Local\Temp\ccqe305w.s 			page 49


 2173 0002 82B0     		sub	sp, sp, #8
 2174              		.cfi_def_cfa_offset 16
 2175 0004 00AF     		add	r7, sp, #0
 2176              		.cfi_def_cfa_register 7
 516:..\..\src/scsiPhy.c **** 	// Disable the glitch filter for ACK to improve performance.
 517:..\..\src/scsiPhy.c **** 	if (scsiDev.boardCfg.flags & CONFIG_DISABLE_GLITCH)
 2177              		.loc 1 517 0
 2178 0006 1A4B     		ldr	r3, .L143
 2179 0008 93F86830 		ldrb	r3, [r3, #104]	@ zero_extendqisi2
 2180 000c 03F00803 		and	r3, r3, #8
 2181 0010 002B     		cmp	r3, #0
 2182 0012 05D0     		beq	.L139
 518:..\..\src/scsiPhy.c **** 	{
 519:..\..\src/scsiPhy.c **** 		SCSI_Glitch_Ctl_Write(1);
 2183              		.loc 1 519 0
 2184 0014 0120     		movs	r0, #1
 2185 0016 FFF7FEFF 		bl	SCSI_Glitch_Ctl_Write
 520:..\..\src/scsiPhy.c **** 
 521:..\..\src/scsiPhy.c **** 		// Reduce deskew time to 1. (deskew init + 0)
 522:..\..\src/scsiPhy.c **** 		CY_SET_REG8(scsiTarget_datapath__D0_REG, 0);
 2186              		.loc 1 522 0
 2187 001a 164B     		ldr	r3, .L143+4
 2188 001c 0022     		movs	r2, #0
 2189 001e 1A70     		strb	r2, [r3]
 2190              	.L139:
 523:..\..\src/scsiPhy.c **** 	}
 524:..\..\src/scsiPhy.c **** 	if ((scsiDev.target->cfg->quirks & CONFIG_QUIRKS_XEBEC) ||
 2191              		.loc 1 524 0
 2192 0020 134B     		ldr	r3, .L143
 2193 0022 1B6E     		ldr	r3, [r3, #96]
 2194 0024 5B68     		ldr	r3, [r3, #4]
 2195 0026 DB8F     		ldrh	r3, [r3, #62]	@ unaligned
 2196 0028 9BB2     		uxth	r3, r3
 2197 002a 03F00403 		and	r3, r3, #4
 2198 002e 002B     		cmp	r3, #0
 2199 0030 04D1     		bne	.L140
 525:..\..\src/scsiPhy.c **** 		(scsiDev.boardCfg.scsiSpeed == CONFIG_SPEED_ASYNC_15))
 2200              		.loc 1 525 0 discriminator 1
 2201 0032 0F4B     		ldr	r3, .L143
 2202 0034 93F86C30 		ldrb	r3, [r3, #108]	@ zero_extendqisi2
 524:..\..\src/scsiPhy.c **** 		(scsiDev.boardCfg.scsiSpeed == CONFIG_SPEED_ASYNC_15))
 2203              		.loc 1 524 0 discriminator 1
 2204 0038 012B     		cmp	r3, #1
 2205 003a 14D1     		bne	.L142
 2206              	.L140:
 2207              	.LBB5:
 526:..\..\src/scsiPhy.c **** 	{
 527:..\..\src/scsiPhy.c **** 		// 125ns to 250ns deskew time = 3.125 clocks
 528:..\..\src/scsiPhy.c **** 		// - 1 (valid during DESKEW INIT)
 529:..\..\src/scsiPhy.c **** 		// = 2.125. Default is 1.
 530:..\..\src/scsiPhy.c **** 		// Round down because it's going to be doubled anyway due to clock
 531:..\..\src/scsiPhy.c **** 		// divider change below.
 532:..\..\src/scsiPhy.c **** 		CY_SET_REG8(scsiTarget_datapath__D0_REG, 2);
 2208              		.loc 1 532 0
 2209 003c 0D4B     		ldr	r3, .L143+4
 2210 003e 0222     		movs	r2, #2
 2211 0040 1A70     		strb	r2, [r3]
ARM GAS  C:\Users\r\AppData\Local\Temp\ccqe305w.s 			page 50


 533:..\..\src/scsiPhy.c **** 
 534:..\..\src/scsiPhy.c **** 		// Half the SCSI clock as a way to extend the glitch filter.
 535:..\..\src/scsiPhy.c **** 		// This also helps meet the 250ns delays between ACK and reading
 536:..\..\src/scsiPhy.c **** 		// data, or release ack and reassert req.
 537:..\..\src/scsiPhy.c **** 
 538:..\..\src/scsiPhy.c **** 		// The register contains (divider - 1)
 539:..\..\src/scsiPhy.c **** 		uint16_t clkDiv25MHz =  SCSI_CLK_GetDividerRegister();
 2212              		.loc 1 539 0
 2213 0042 FFF7FEFF 		bl	SCSI_CLK_GetDividerRegister
 2214 0046 0346     		mov	r3, r0
 2215 0048 FB80     		strh	r3, [r7, #6]	@ movhi
 540:..\..\src/scsiPhy.c **** 		SCSI_CLK_SetDivider(((clkDiv25MHz + 1) * 2) - 1);
 2216              		.loc 1 540 0
 2217 004a FB88     		ldrh	r3, [r7, #6]
 2218 004c 0133     		adds	r3, r3, #1
 2219 004e 9BB2     		uxth	r3, r3
 2220 0050 5B00     		lsls	r3, r3, #1
 2221 0052 9BB2     		uxth	r3, r3
 2222 0054 013B     		subs	r3, r3, #1
 2223 0056 9BB2     		uxth	r3, r3
 2224 0058 0121     		movs	r1, #1
 2225 005a 1846     		mov	r0, r3
 2226 005c FFF7FEFF 		bl	SCSI_CLK_SetDividerRegister
 541:..\..\src/scsiPhy.c **** 		// Wait for the clock to settle.
 542:..\..\src/scsiPhy.c **** 		CyDelayUs(1);
 2227              		.loc 1 542 0
 2228 0060 0120     		movs	r0, #1
 2229 0062 FFF7FEFF 		bl	CyDelayUs
 2230              	.L142:
 2231              	.LBE5:
 543:..\..\src/scsiPhy.c **** 	}
 544:..\..\src/scsiPhy.c **** 
 545:..\..\src/scsiPhy.c **** 	#ifdef TERM_EN_0
 546:..\..\src/scsiPhy.c **** 	TERM_EN_Write((scsiDev.boardCfg.flags6 & S2S_CFG_ENABLE_TERMINATOR) ? 0 : 1);
 547:..\..\src/scsiPhy.c **** 	#endif
 548:..\..\src/scsiPhy.c **** }
 2232              		.loc 1 548 0
 2233 0066 00BF     		nop
 2234 0068 0837     		adds	r7, r7, #8
 2235              		.cfi_def_cfa_offset 8
 2236 006a BD46     		mov	sp, r7
 2237              		.cfi_def_cfa_register 13
 2238              		@ sp needed
 2239 006c 80BD     		pop	{r7, pc}
 2240              	.L144:
 2241 006e 00BF     		.align	2
 2242              	.L143:
 2243 0070 00000000 		.word	scsiDev
 2244 0074 20640040 		.word	1073767456
 2245              		.cfi_endproc
 2246              	.LFE86:
 2247              		.size	scsiPhyConfig, .-scsiPhyConfig
 2248              		.section	.rodata
 2249              		.align	2
 2250              	.LC0:
 2251 0000 31500040 		.word	1073762353
 2252 0004 25500040 		.word	1073762341
ARM GAS  C:\Users\r\AppData\Local\Temp\ccqe305w.s 			page 51


 2253 0008 07500040 		.word	1073762311
 2254              		.align	2
 2255              	.LC1:
 2256 000c 02000000 		.word	2
 2257 0010 08000000 		.word	8
 2258 0014 04000000 		.word	4
 2259              		.section	.text.scsiSelfTest,"ax",%progbits
 2260              		.align	2
 2261              		.global	scsiSelfTest
 2262              		.thumb
 2263              		.thumb_func
 2264              		.type	scsiSelfTest, %function
 2265              	scsiSelfTest:
 2266              	.LFB87:
 549:..\..\src/scsiPhy.c **** 
 550:..\..\src/scsiPhy.c **** // 1 = DBx error
 551:..\..\src/scsiPhy.c **** // 2 = Parity error
 552:..\..\src/scsiPhy.c **** // 4 = MSG error
 553:..\..\src/scsiPhy.c **** // 8 = CD error
 554:..\..\src/scsiPhy.c **** // 16 = IO error
 555:..\..\src/scsiPhy.c **** // 32 = other error
 556:..\..\src/scsiPhy.c **** int scsiSelfTest()
 557:..\..\src/scsiPhy.c **** {
 2267              		.loc 1 557 0
 2268              		.cfi_startproc
 2269              		@ args = 0, pretend = 0, frame = 40
 2270              		@ frame_needed = 1, uses_anonymous_args = 0
 2271 0000 80B5     		push	{r7, lr}
 2272              		.cfi_def_cfa_offset 8
 2273              		.cfi_offset 7, -8
 2274              		.cfi_offset 14, -4
 2275 0002 8AB0     		sub	sp, sp, #40
 2276              		.cfi_def_cfa_offset 48
 2277 0004 00AF     		add	r7, sp, #0
 2278              		.cfi_def_cfa_register 7
 558:..\..\src/scsiPhy.c **** 	int result = 0;
 2279              		.loc 1 558 0
 2280 0006 0023     		movs	r3, #0
 2281 0008 7B62     		str	r3, [r7, #36]
 559:..\..\src/scsiPhy.c **** 
 560:..\..\src/scsiPhy.c **** 	// TEST DBx and DBp
 561:..\..\src/scsiPhy.c **** 	int i;
 562:..\..\src/scsiPhy.c **** 	SCSI_Out_Ctl_Write(1); // Write bits manually.
 2282              		.loc 1 562 0
 2283 000a 0120     		movs	r0, #1
 2284 000c FFF7FEFF 		bl	SCSI_Out_Ctl_Write
 563:..\..\src/scsiPhy.c **** 	SCSI_CTL_PHASE_Write(__scsiphase_io); // Needed for parity generation
 2285              		.loc 1 563 0
 2286 0010 0420     		movs	r0, #4
 2287 0012 FFF7FEFF 		bl	SCSI_CTL_PHASE_Write
 564:..\..\src/scsiPhy.c **** 	for (i = 0; i < 256; ++i)
 2288              		.loc 1 564 0
 2289 0016 0023     		movs	r3, #0
 2290 0018 3B62     		str	r3, [r7, #32]
 2291 001a 2BE0     		b	.L146
 2292              	.L149:
 565:..\..\src/scsiPhy.c **** 	{
ARM GAS  C:\Users\r\AppData\Local\Temp\ccqe305w.s 			page 52


 566:..\..\src/scsiPhy.c **** 		SCSI_Out_Bits_Write(i);
 2293              		.loc 1 566 0
 2294 001c 3B6A     		ldr	r3, [r7, #32]
 2295 001e DBB2     		uxtb	r3, r3
 2296 0020 1846     		mov	r0, r3
 2297 0022 FFF7FEFF 		bl	SCSI_Out_Bits_Write
 567:..\..\src/scsiPhy.c **** 		scsiDeskewDelay();
 2298              		.loc 1 567 0
 2299 0026 0320     		movs	r0, #3
 2300 0028 FFF7FEFF 		bl	CyDelayCycles
 568:..\..\src/scsiPhy.c **** 		if (scsiReadDBxPins() != (i & 0xff))
 2301              		.loc 1 568 0
 2302 002c FFF7FEFF 		bl	scsiReadDBxPins
 2303 0030 0346     		mov	r3, r0
 2304 0032 1A46     		mov	r2, r3
 2305 0034 3B6A     		ldr	r3, [r7, #32]
 2306 0036 DBB2     		uxtb	r3, r3
 2307 0038 9A42     		cmp	r2, r3
 2308 003a 03D0     		beq	.L147
 569:..\..\src/scsiPhy.c **** 		{
 570:..\..\src/scsiPhy.c **** 			result |= 1;
 2309              		.loc 1 570 0
 2310 003c 7B6A     		ldr	r3, [r7, #36]
 2311 003e 43F00103 		orr	r3, r3, #1
 2312 0042 7B62     		str	r3, [r7, #36]
 2313              	.L147:
 571:..\..\src/scsiPhy.c **** 		}
 572:..\..\src/scsiPhy.c **** 		if (Lookup_OddParity[i & 0xff] != SCSI_ReadPin(SCSI_In_DBP))
 2314              		.loc 1 572 0
 2315 0044 3B6A     		ldr	r3, [r7, #32]
 2316 0046 DBB2     		uxtb	r3, r3
 2317 0048 7A4A     		ldr	r2, .L163
 2318 004a D35C     		ldrb	r3, [r2, r3]	@ zero_extendqisi2
 2319 004c 1A46     		mov	r2, r3
 2320 004e 7A4B     		ldr	r3, .L163+4
 2321 0050 1B78     		ldrb	r3, [r3]
 2322 0052 DBB2     		uxtb	r3, r3
 2323 0054 03F01003 		and	r3, r3, #16
 2324 0058 002B     		cmp	r3, #0
 2325 005a 0CBF     		ite	eq
 2326 005c 0123     		moveq	r3, #1
 2327 005e 0023     		movne	r3, #0
 2328 0060 DBB2     		uxtb	r3, r3
 2329 0062 9A42     		cmp	r2, r3
 2330 0064 03D0     		beq	.L148
 573:..\..\src/scsiPhy.c **** 		{
 574:..\..\src/scsiPhy.c **** 			result |= 2;
 2331              		.loc 1 574 0
 2332 0066 7B6A     		ldr	r3, [r7, #36]
 2333 0068 43F00203 		orr	r3, r3, #2
 2334 006c 7B62     		str	r3, [r7, #36]
 2335              	.L148:
 564:..\..\src/scsiPhy.c **** 	{
 2336              		.loc 1 564 0 discriminator 2
 2337 006e 3B6A     		ldr	r3, [r7, #32]
 2338 0070 0133     		adds	r3, r3, #1
 2339 0072 3B62     		str	r3, [r7, #32]
ARM GAS  C:\Users\r\AppData\Local\Temp\ccqe305w.s 			page 53


 2340              	.L146:
 564:..\..\src/scsiPhy.c **** 	{
 2341              		.loc 1 564 0 is_stmt 0 discriminator 1
 2342 0074 3B6A     		ldr	r3, [r7, #32]
 2343 0076 FF2B     		cmp	r3, #255
 2344 0078 D0DD     		ble	.L149
 575:..\..\src/scsiPhy.c **** 		}
 576:..\..\src/scsiPhy.c **** 	}
 577:..\..\src/scsiPhy.c **** 	SCSI_Out_Ctl_Write(0); // Write bits normally.
 2345              		.loc 1 577 0 is_stmt 1
 2346 007a 0020     		movs	r0, #0
 2347 007c FFF7FEFF 		bl	SCSI_Out_Ctl_Write
 578:..\..\src/scsiPhy.c **** 
 579:..\..\src/scsiPhy.c **** 	// TEST MSG, CD, IO
 580:..\..\src/scsiPhy.c **** 	#ifdef SCSI_In_MSG
 581:..\..\src/scsiPhy.c **** 	for (i = 0; i < 8; ++i)
 2348              		.loc 1 581 0
 2349 0080 0023     		movs	r3, #0
 2350 0082 3B62     		str	r3, [r7, #32]
 2351 0084 58E0     		b	.L150
 2352              	.L154:
 582:..\..\src/scsiPhy.c **** 	{
 583:..\..\src/scsiPhy.c **** 		SCSI_CTL_PHASE_Write(i);
 2353              		.loc 1 583 0
 2354 0086 3B6A     		ldr	r3, [r7, #32]
 2355 0088 DBB2     		uxtb	r3, r3
 2356 008a 1846     		mov	r0, r3
 2357 008c FFF7FEFF 		bl	SCSI_CTL_PHASE_Write
 584:..\..\src/scsiPhy.c **** 		scsiDeskewDelay();
 2358              		.loc 1 584 0
 2359 0090 0320     		movs	r0, #3
 2360 0092 FFF7FEFF 		bl	CyDelayCycles
 585:..\..\src/scsiPhy.c **** 
 586:..\..\src/scsiPhy.c **** 		if (SCSI_ReadPin(SCSI_In_MSG) != !!(i & __scsiphase_msg))
 2361              		.loc 1 586 0
 2362 0096 694B     		ldr	r3, .L163+8
 2363 0098 1B78     		ldrb	r3, [r3]
 2364 009a DBB2     		uxtb	r3, r3
 2365 009c 03F01003 		and	r3, r3, #16
 2366 00a0 002B     		cmp	r3, #0
 2367 00a2 0CBF     		ite	eq
 2368 00a4 0123     		moveq	r3, #1
 2369 00a6 0023     		movne	r3, #0
 2370 00a8 DAB2     		uxtb	r2, r3
 2371 00aa 3B6A     		ldr	r3, [r7, #32]
 2372 00ac 03F00103 		and	r3, r3, #1
 2373 00b0 002B     		cmp	r3, #0
 2374 00b2 14BF     		ite	ne
 2375 00b4 0123     		movne	r3, #1
 2376 00b6 0023     		moveq	r3, #0
 2377 00b8 DBB2     		uxtb	r3, r3
 2378 00ba 5340     		eors	r3, r3, r2
 2379 00bc DBB2     		uxtb	r3, r3
 2380 00be 002B     		cmp	r3, #0
 2381 00c0 03D0     		beq	.L151
 587:..\..\src/scsiPhy.c **** 		{
 588:..\..\src/scsiPhy.c **** 			result |= 4;
ARM GAS  C:\Users\r\AppData\Local\Temp\ccqe305w.s 			page 54


 2382              		.loc 1 588 0
 2383 00c2 7B6A     		ldr	r3, [r7, #36]
 2384 00c4 43F00403 		orr	r3, r3, #4
 2385 00c8 7B62     		str	r3, [r7, #36]
 2386              	.L151:
 589:..\..\src/scsiPhy.c **** 		}
 590:..\..\src/scsiPhy.c **** 		if (SCSI_ReadPin(SCSI_In_CD) != !!(i & __scsiphase_cd))
 2387              		.loc 1 590 0
 2388 00ca 5D4B     		ldr	r3, .L163+12
 2389 00cc 1B78     		ldrb	r3, [r3]
 2390 00ce DBB2     		uxtb	r3, r3
 2391 00d0 03F01003 		and	r3, r3, #16
 2392 00d4 002B     		cmp	r3, #0
 2393 00d6 0CBF     		ite	eq
 2394 00d8 0123     		moveq	r3, #1
 2395 00da 0023     		movne	r3, #0
 2396 00dc DAB2     		uxtb	r2, r3
 2397 00de 3B6A     		ldr	r3, [r7, #32]
 2398 00e0 03F00203 		and	r3, r3, #2
 2399 00e4 002B     		cmp	r3, #0
 2400 00e6 14BF     		ite	ne
 2401 00e8 0123     		movne	r3, #1
 2402 00ea 0023     		moveq	r3, #0
 2403 00ec DBB2     		uxtb	r3, r3
 2404 00ee 5340     		eors	r3, r3, r2
 2405 00f0 DBB2     		uxtb	r3, r3
 2406 00f2 002B     		cmp	r3, #0
 2407 00f4 03D0     		beq	.L152
 591:..\..\src/scsiPhy.c **** 		{
 592:..\..\src/scsiPhy.c **** 			result |= 8;
 2408              		.loc 1 592 0
 2409 00f6 7B6A     		ldr	r3, [r7, #36]
 2410 00f8 43F00803 		orr	r3, r3, #8
 2411 00fc 7B62     		str	r3, [r7, #36]
 2412              	.L152:
 593:..\..\src/scsiPhy.c **** 		}
 594:..\..\src/scsiPhy.c **** 		if (SCSI_ReadPin(SCSI_In_IO) != !!(i & __scsiphase_io))
 2413              		.loc 1 594 0
 2414 00fe 514B     		ldr	r3, .L163+16
 2415 0100 1B78     		ldrb	r3, [r3]
 2416 0102 DBB2     		uxtb	r3, r3
 2417 0104 03F01003 		and	r3, r3, #16
 2418 0108 002B     		cmp	r3, #0
 2419 010a 0CBF     		ite	eq
 2420 010c 0123     		moveq	r3, #1
 2421 010e 0023     		movne	r3, #0
 2422 0110 DAB2     		uxtb	r2, r3
 2423 0112 3B6A     		ldr	r3, [r7, #32]
 2424 0114 03F00403 		and	r3, r3, #4
 2425 0118 002B     		cmp	r3, #0
 2426 011a 14BF     		ite	ne
 2427 011c 0123     		movne	r3, #1
 2428 011e 0023     		moveq	r3, #0
 2429 0120 DBB2     		uxtb	r3, r3
 2430 0122 5340     		eors	r3, r3, r2
 2431 0124 DBB2     		uxtb	r3, r3
 2432 0126 002B     		cmp	r3, #0
ARM GAS  C:\Users\r\AppData\Local\Temp\ccqe305w.s 			page 55


 2433 0128 03D0     		beq	.L153
 595:..\..\src/scsiPhy.c **** 		{
 596:..\..\src/scsiPhy.c **** 			result |= 16;
 2434              		.loc 1 596 0
 2435 012a 7B6A     		ldr	r3, [r7, #36]
 2436 012c 43F01003 		orr	r3, r3, #16
 2437 0130 7B62     		str	r3, [r7, #36]
 2438              	.L153:
 581:..\..\src/scsiPhy.c **** 	{
 2439              		.loc 1 581 0 discriminator 2
 2440 0132 3B6A     		ldr	r3, [r7, #32]
 2441 0134 0133     		adds	r3, r3, #1
 2442 0136 3B62     		str	r3, [r7, #32]
 2443              	.L150:
 581:..\..\src/scsiPhy.c **** 	{
 2444              		.loc 1 581 0 is_stmt 0 discriminator 1
 2445 0138 3B6A     		ldr	r3, [r7, #32]
 2446 013a 072B     		cmp	r3, #7
 2447 013c A3DD     		ble	.L154
 597:..\..\src/scsiPhy.c **** 		}
 598:..\..\src/scsiPhy.c **** 	}
 599:..\..\src/scsiPhy.c **** 	#endif
 600:..\..\src/scsiPhy.c **** 	SCSI_CTL_PHASE_Write(0);
 2448              		.loc 1 600 0 is_stmt 1
 2449 013e 0020     		movs	r0, #0
 2450 0140 FFF7FEFF 		bl	SCSI_CTL_PHASE_Write
 601:..\..\src/scsiPhy.c **** 
 602:..\..\src/scsiPhy.c **** 	uint32_t signalsOut[] = { SCSI_Out_BSY, SCSI_Out_RST, SCSI_Out_SEL };
 2451              		.loc 1 602 0
 2452 0144 404A     		ldr	r2, .L163+20
 2453 0146 07F11003 		add	r3, r7, #16
 2454 014a 07CA     		ldmia	r2, {r0, r1, r2}
 2455 014c 83E80700 		stmia	r3, {r0, r1, r2}
 603:..\..\src/scsiPhy.c **** 	uint32_t signalsIn[] = { SCSI_Filt_BSY, SCSI_Filt_RST, SCSI_Filt_SEL };
 2456              		.loc 1 603 0
 2457 0150 3E4A     		ldr	r2, .L163+24
 2458 0152 3B1D     		adds	r3, r7, #4
 2459 0154 07CA     		ldmia	r2, {r0, r1, r2}
 2460 0156 83E80700 		stmia	r3, {r0, r1, r2}
 604:..\..\src/scsiPhy.c **** 
 605:..\..\src/scsiPhy.c **** 	for (i = 0; i < 3; ++i)
 2461              		.loc 1 605 0
 2462 015a 0023     		movs	r3, #0
 2463 015c 3B62     		str	r3, [r7, #32]
 2464 015e 61E0     		b	.L155
 2465              	.L161:
 2466              	.LBB6:
 606:..\..\src/scsiPhy.c **** 	{
 607:..\..\src/scsiPhy.c **** 		SCSI_SetPin(signalsOut[i]);
 2467              		.loc 1 607 0
 2468 0160 3B6A     		ldr	r3, [r7, #32]
 2469 0162 9B00     		lsls	r3, r3, #2
 2470 0164 07F12802 		add	r2, r7, #40
 2471 0168 1344     		add	r3, r3, r2
 2472 016a 53F8183C 		ldr	r3, [r3, #-24]
 2473 016e 1A46     		mov	r2, r3
 2474 0170 3B6A     		ldr	r3, [r7, #32]
ARM GAS  C:\Users\r\AppData\Local\Temp\ccqe305w.s 			page 56


 2475 0172 9B00     		lsls	r3, r3, #2
 2476 0174 07F12801 		add	r1, r7, #40
 2477 0178 0B44     		add	r3, r3, r1
 2478 017a 53F8183C 		ldr	r3, [r3, #-24]
 2479 017e 1B78     		ldrb	r3, [r3]
 2480 0180 DBB2     		uxtb	r3, r3
 2481 0182 43F00103 		orr	r3, r3, #1
 2482 0186 DBB2     		uxtb	r3, r3
 2483 0188 1370     		strb	r3, [r2]
 608:..\..\src/scsiPhy.c **** 		scsiDeskewDelay();
 2484              		.loc 1 608 0
 2485 018a 0320     		movs	r0, #3
 2486 018c FFF7FEFF 		bl	CyDelayCycles
 609:..\..\src/scsiPhy.c **** 
 610:..\..\src/scsiPhy.c **** 		int j;
 611:..\..\src/scsiPhy.c **** 		for (j = 0; j < 3; ++j)
 2487              		.loc 1 611 0
 2488 0190 0023     		movs	r3, #0
 2489 0192 FB61     		str	r3, [r7, #28]
 2490 0194 2BE0     		b	.L156
 2491              	.L160:
 612:..\..\src/scsiPhy.c **** 		{
 613:..\..\src/scsiPhy.c **** 			if (i == j)
 2492              		.loc 1 613 0
 2493 0196 3A6A     		ldr	r2, [r7, #32]
 2494 0198 FB69     		ldr	r3, [r7, #28]
 2495 019a 9A42     		cmp	r2, r3
 2496 019c 12D1     		bne	.L157
 614:..\..\src/scsiPhy.c **** 			{
 615:..\..\src/scsiPhy.c **** 				if (! SCSI_ReadFilt(signalsIn[j]))
 2497              		.loc 1 615 0
 2498 019e FFF7FEFF 		bl	SCSI_Filtered_Read
 2499 01a2 0346     		mov	r3, r0
 2500 01a4 1A46     		mov	r2, r3
 2501 01a6 FB69     		ldr	r3, [r7, #28]
 2502 01a8 9B00     		lsls	r3, r3, #2
 2503 01aa 07F12801 		add	r1, r7, #40
 2504 01ae 0B44     		add	r3, r3, r1
 2505 01b0 53F8243C 		ldr	r3, [r3, #-36]
 2506 01b4 1340     		ands	r3, r3, r2
 2507 01b6 002B     		cmp	r3, #0
 2508 01b8 16D0     		beq	.L159
 616:..\..\src/scsiPhy.c **** 				{
 617:..\..\src/scsiPhy.c **** 					result |= 32;
 2509              		.loc 1 617 0
 2510 01ba 7B6A     		ldr	r3, [r7, #36]
 2511 01bc 43F02003 		orr	r3, r3, #32
 2512 01c0 7B62     		str	r3, [r7, #36]
 2513 01c2 11E0     		b	.L159
 2514              	.L157:
 618:..\..\src/scsiPhy.c **** 				}
 619:..\..\src/scsiPhy.c **** 			}
 620:..\..\src/scsiPhy.c **** 			else
 621:..\..\src/scsiPhy.c **** 			{
 622:..\..\src/scsiPhy.c **** 				if (SCSI_ReadFilt(signalsIn[j]))
 2515              		.loc 1 622 0
 2516 01c4 FFF7FEFF 		bl	SCSI_Filtered_Read
ARM GAS  C:\Users\r\AppData\Local\Temp\ccqe305w.s 			page 57


 2517 01c8 0346     		mov	r3, r0
 2518 01ca 1A46     		mov	r2, r3
 2519 01cc FB69     		ldr	r3, [r7, #28]
 2520 01ce 9B00     		lsls	r3, r3, #2
 2521 01d0 07F12801 		add	r1, r7, #40
 2522 01d4 0B44     		add	r3, r3, r1
 2523 01d6 53F8243C 		ldr	r3, [r3, #-36]
 2524 01da 1340     		ands	r3, r3, r2
 2525 01dc 002B     		cmp	r3, #0
 2526 01de 03D1     		bne	.L159
 623:..\..\src/scsiPhy.c **** 				{
 624:..\..\src/scsiPhy.c **** 					result |= 32;
 2527              		.loc 1 624 0
 2528 01e0 7B6A     		ldr	r3, [r7, #36]
 2529 01e2 43F02003 		orr	r3, r3, #32
 2530 01e6 7B62     		str	r3, [r7, #36]
 2531              	.L159:
 611:..\..\src/scsiPhy.c **** 		{
 2532              		.loc 1 611 0 discriminator 2
 2533 01e8 FB69     		ldr	r3, [r7, #28]
 2534 01ea 0133     		adds	r3, r3, #1
 2535 01ec FB61     		str	r3, [r7, #28]
 2536              	.L156:
 611:..\..\src/scsiPhy.c **** 		{
 2537              		.loc 1 611 0 is_stmt 0 discriminator 1
 2538 01ee FB69     		ldr	r3, [r7, #28]
 2539 01f0 022B     		cmp	r3, #2
 2540 01f2 D0DD     		ble	.L160
 625:..\..\src/scsiPhy.c **** 				}
 626:..\..\src/scsiPhy.c **** 			}
 627:..\..\src/scsiPhy.c **** 		}
 628:..\..\src/scsiPhy.c **** 		SCSI_ClearPin(signalsOut[i]);
 2541              		.loc 1 628 0 is_stmt 1 discriminator 2
 2542 01f4 3B6A     		ldr	r3, [r7, #32]
 2543 01f6 9B00     		lsls	r3, r3, #2
 2544 01f8 07F12802 		add	r2, r7, #40
 2545 01fc 1344     		add	r3, r3, r2
 2546 01fe 53F8183C 		ldr	r3, [r3, #-24]
 2547 0202 1A46     		mov	r2, r3
 2548 0204 3B6A     		ldr	r3, [r7, #32]
 2549 0206 9B00     		lsls	r3, r3, #2
 2550 0208 07F12801 		add	r1, r7, #40
 2551 020c 0B44     		add	r3, r3, r1
 2552 020e 53F8183C 		ldr	r3, [r3, #-24]
 2553 0212 1B78     		ldrb	r3, [r3]
 2554 0214 DBB2     		uxtb	r3, r3
 2555 0216 23F00103 		bic	r3, r3, #1
 2556 021a DBB2     		uxtb	r3, r3
 2557 021c 1370     		strb	r3, [r2]
 2558              	.LBE6:
 605:..\..\src/scsiPhy.c **** 	{
 2559              		.loc 1 605 0 discriminator 2
 2560 021e 3B6A     		ldr	r3, [r7, #32]
 2561 0220 0133     		adds	r3, r3, #1
 2562 0222 3B62     		str	r3, [r7, #32]
 2563              	.L155:
 605:..\..\src/scsiPhy.c **** 	{
ARM GAS  C:\Users\r\AppData\Local\Temp\ccqe305w.s 			page 58


 2564              		.loc 1 605 0 is_stmt 0 discriminator 1
 2565 0224 3B6A     		ldr	r3, [r7, #32]
 2566 0226 022B     		cmp	r3, #2
 2567 0228 9ADD     		ble	.L161
 629:..\..\src/scsiPhy.c **** 	}
 630:..\..\src/scsiPhy.c **** 	return result;
 2568              		.loc 1 630 0 is_stmt 1
 2569 022a 7B6A     		ldr	r3, [r7, #36]
 631:..\..\src/scsiPhy.c **** }
 2570              		.loc 1 631 0
 2571 022c 1846     		mov	r0, r3
 2572 022e 2837     		adds	r7, r7, #40
 2573              		.cfi_def_cfa_offset 8
 2574 0230 BD46     		mov	sp, r7
 2575              		.cfi_def_cfa_register 13
 2576              		@ sp needed
 2577 0232 80BD     		pop	{r7, pc}
 2578              	.L164:
 2579              		.align	2
 2580              	.L163:
 2581 0234 00000000 		.word	Lookup_OddParity
 2582 0238 11500040 		.word	1073762321
 2583 023c 26500040 		.word	1073762342
 2584 0240 22500040 		.word	1073762338
 2585 0244 04500040 		.word	1073762308
 2586 0248 00000000 		.word	.LC0
 2587 024c 0C000000 		.word	.LC1
 2588              		.cfi_endproc
 2589              	.LFE87:
 2590              		.size	scsiSelfTest, .-scsiSelfTest
 2591              		.text
 2592              	.Letext0:
 2593              		.file 2 "c:\\program files (x86)\\cypress\\psoc creator\\4.2\\psoc creator\\import\\gnu\\arm\\5.4.
 2594              		.file 3 "c:\\program files (x86)\\cypress\\psoc creator\\4.2\\psoc creator\\import\\gnu\\arm\\5.4.
 2595              		.file 4 "Generated_Source\\PSoC5/cytypes.h"
 2596              		.file 5 "../../../include/scsi2sd.h"
 2597              		.file 6 "..\\..\\src\\sense.h"
 2598              		.file 7 "..\\..\\src\\scsi.h"
 2599              		.file 8 "..\\..\\src\\scsiPhy.h"
 2600              		.file 9 "..\\..\\src\\trace.h"
 2601              		.file 10 "Generated_Source\\PSoC5/core_cm3.h"
 2602              		.file 11 "..\\..\\src\\bits.h"
 2603              		.section	.debug_info,"",%progbits
 2604              	.Ldebug_info0:
 2605 0000 C30C0000 		.4byte	0xcc3
 2606 0004 0400     		.2byte	0x4
 2607 0006 00000000 		.4byte	.Ldebug_abbrev0
 2608 000a 04       		.byte	0x4
 2609 000b 01       		.uleb128 0x1
 2610 000c CE060000 		.4byte	.LASF199
 2611 0010 0C       		.byte	0xc
 2612 0011 25040000 		.4byte	.LASF200
 2613 0015 1A080000 		.4byte	.LASF201
 2614 0019 00000000 		.4byte	.Ldebug_ranges0+0
 2615 001d 00000000 		.4byte	0
 2616 0021 00000000 		.4byte	.Ldebug_line0
 2617 0025 02       		.uleb128 0x2
ARM GAS  C:\Users\r\AppData\Local\Temp\ccqe305w.s 			page 59


 2618 0026 01       		.byte	0x1
 2619 0027 06       		.byte	0x6
 2620 0028 AC010000 		.4byte	.LASF0
 2621 002c 03       		.uleb128 0x3
 2622 002d 91000000 		.4byte	.LASF3
 2623 0031 02       		.byte	0x2
 2624 0032 1D       		.byte	0x1d
 2625 0033 37000000 		.4byte	0x37
 2626 0037 02       		.uleb128 0x2
 2627 0038 01       		.byte	0x1
 2628 0039 08       		.byte	0x8
 2629 003a 64070000 		.4byte	.LASF1
 2630 003e 02       		.uleb128 0x2
 2631 003f 02       		.byte	0x2
 2632 0040 05       		.byte	0x5
 2633 0041 C7070000 		.4byte	.LASF2
 2634 0045 03       		.uleb128 0x3
 2635 0046 05090000 		.4byte	.LASF4
 2636 004a 02       		.byte	0x2
 2637 004b 2B       		.byte	0x2b
 2638 004c 50000000 		.4byte	0x50
 2639 0050 02       		.uleb128 0x2
 2640 0051 02       		.byte	0x2
 2641 0052 07       		.byte	0x7
 2642 0053 78040000 		.4byte	.LASF5
 2643 0057 03       		.uleb128 0x3
 2644 0058 E8040000 		.4byte	.LASF6
 2645 005c 02       		.byte	0x2
 2646 005d 3F       		.byte	0x3f
 2647 005e 62000000 		.4byte	0x62
 2648 0062 02       		.uleb128 0x2
 2649 0063 04       		.byte	0x4
 2650 0064 05       		.byte	0x5
 2651 0065 29020000 		.4byte	.LASF7
 2652 0069 03       		.uleb128 0x3
 2653 006a 45030000 		.4byte	.LASF8
 2654 006e 02       		.byte	0x2
 2655 006f 41       		.byte	0x41
 2656 0070 74000000 		.4byte	0x74
 2657 0074 02       		.uleb128 0x2
 2658 0075 04       		.byte	0x4
 2659 0076 07       		.byte	0x7
 2660 0077 FB030000 		.4byte	.LASF9
 2661 007b 02       		.uleb128 0x2
 2662 007c 08       		.byte	0x8
 2663 007d 05       		.byte	0x5
 2664 007e 9E010000 		.4byte	.LASF10
 2665 0082 02       		.uleb128 0x2
 2666 0083 08       		.byte	0x8
 2667 0084 07       		.byte	0x7
 2668 0085 16010000 		.4byte	.LASF11
 2669 0089 04       		.uleb128 0x4
 2670 008a 04       		.byte	0x4
 2671 008b 05       		.byte	0x5
 2672 008c 696E7400 		.ascii	"int\000"
 2673 0090 02       		.uleb128 0x2
 2674 0091 04       		.byte	0x4
ARM GAS  C:\Users\r\AppData\Local\Temp\ccqe305w.s 			page 60


 2675 0092 07       		.byte	0x7
 2676 0093 CB030000 		.4byte	.LASF12
 2677 0097 03       		.uleb128 0x3
 2678 0098 710A0000 		.4byte	.LASF13
 2679 009c 03       		.byte	0x3
 2680 009d 18       		.byte	0x18
 2681 009e 2C000000 		.4byte	0x2c
 2682 00a2 03       		.uleb128 0x3
 2683 00a3 90020000 		.4byte	.LASF14
 2684 00a7 03       		.byte	0x3
 2685 00a8 24       		.byte	0x24
 2686 00a9 45000000 		.4byte	0x45
 2687 00ad 03       		.uleb128 0x3
 2688 00ae 5C070000 		.4byte	.LASF15
 2689 00b2 03       		.byte	0x3
 2690 00b3 2C       		.byte	0x2c
 2691 00b4 57000000 		.4byte	0x57
 2692 00b8 03       		.uleb128 0x3
 2693 00b9 A2080000 		.4byte	.LASF16
 2694 00bd 03       		.byte	0x3
 2695 00be 30       		.byte	0x30
 2696 00bf 69000000 		.4byte	0x69
 2697 00c3 05       		.uleb128 0x5
 2698 00c4 D6050000 		.4byte	.LASF17
 2699 00c8 04       		.byte	0x4
 2700 00c9 E401     		.2byte	0x1e4
 2701 00cb 37000000 		.4byte	0x37
 2702 00cf 05       		.uleb128 0x5
 2703 00d0 72070000 		.4byte	.LASF18
 2704 00d4 04       		.byte	0x4
 2705 00d5 E501     		.2byte	0x1e5
 2706 00d7 50000000 		.4byte	0x50
 2707 00db 05       		.uleb128 0x5
 2708 00dc 1A030000 		.4byte	.LASF19
 2709 00e0 04       		.byte	0x4
 2710 00e1 E601     		.2byte	0x1e6
 2711 00e3 74000000 		.4byte	0x74
 2712 00e7 05       		.uleb128 0x5
 2713 00e8 8B040000 		.4byte	.LASF20
 2714 00ec 04       		.byte	0x4
 2715 00ed E701     		.2byte	0x1e7
 2716 00ef 25000000 		.4byte	0x25
 2717 00f3 02       		.uleb128 0x2
 2718 00f4 04       		.byte	0x4
 2719 00f5 04       		.byte	0x4
 2720 00f6 75060000 		.4byte	.LASF21
 2721 00fa 02       		.uleb128 0x2
 2722 00fb 08       		.byte	0x8
 2723 00fc 04       		.byte	0x4
 2724 00fd A6020000 		.4byte	.LASF22
 2725 0101 02       		.uleb128 0x2
 2726 0102 01       		.byte	0x1
 2727 0103 08       		.byte	0x8
 2728 0104 E8080000 		.4byte	.LASF23
 2729 0108 05       		.uleb128 0x5
 2730 0109 BD060000 		.4byte	.LASF24
 2731 010d 04       		.byte	0x4
ARM GAS  C:\Users\r\AppData\Local\Temp\ccqe305w.s 			page 61


 2732 010e 8E02     		.2byte	0x28e
 2733 0110 14010000 		.4byte	0x114
 2734 0114 06       		.uleb128 0x6
 2735 0115 C3000000 		.4byte	0xc3
 2736 0119 07       		.uleb128 0x7
 2737 011a 04       		.byte	0x4
 2738 011b 1F010000 		.4byte	0x11f
 2739 011f 08       		.uleb128 0x8
 2740 0120 02       		.uleb128 0x2
 2741 0121 08       		.byte	0x8
 2742 0122 04       		.byte	0x4
 2743 0123 DC080000 		.4byte	.LASF25
 2744 0127 02       		.uleb128 0x2
 2745 0128 04       		.byte	0x4
 2746 0129 07       		.byte	0x7
 2747 012a 7A050000 		.4byte	.LASF26
 2748 012e 09       		.uleb128 0x9
 2749 012f 01010000 		.4byte	0x101
 2750 0133 3E010000 		.4byte	0x13e
 2751 0137 0A       		.uleb128 0xa
 2752 0138 27010000 		.4byte	0x127
 2753 013c 07       		.byte	0x7
 2754 013d 00       		.byte	0
 2755 013e 06       		.uleb128 0x6
 2756 013f 97000000 		.4byte	0x97
 2757 0143 0B       		.uleb128 0xb
 2758 0144 01       		.byte	0x1
 2759 0145 37000000 		.4byte	0x37
 2760 0149 05       		.byte	0x5
 2761 014a 66       		.byte	0x66
 2762 014b 80010000 		.4byte	0x180
 2763 014f 0C       		.uleb128 0xc
 2764 0150 A50A0000 		.4byte	.LASF27
 2765 0154 01       		.byte	0x1
 2766 0155 0C       		.uleb128 0xc
 2767 0156 32020000 		.4byte	.LASF28
 2768 015a 02       		.byte	0x2
 2769 015b 0C       		.uleb128 0xc
 2770 015c 35060000 		.4byte	.LASF29
 2771 0160 04       		.byte	0x4
 2772 0161 0C       		.uleb128 0xc
 2773 0162 D6020000 		.4byte	.LASF30
 2774 0166 08       		.byte	0x8
 2775 0167 0C       		.uleb128 0xc
 2776 0168 7C020000 		.4byte	.LASF31
 2777 016c 10       		.byte	0x10
 2778 016d 0C       		.uleb128 0xc
 2779 016e 16000000 		.4byte	.LASF32
 2780 0172 20       		.byte	0x20
 2781 0173 0C       		.uleb128 0xc
 2782 0174 56090000 		.4byte	.LASF33
 2783 0178 40       		.byte	0x40
 2784 0179 0C       		.uleb128 0xc
 2785 017a 65030000 		.4byte	.LASF34
 2786 017e 80       		.byte	0x80
 2787 017f 00       		.byte	0
 2788 0180 0B       		.uleb128 0xb
ARM GAS  C:\Users\r\AppData\Local\Temp\ccqe305w.s 			page 62


 2789 0181 01       		.byte	0x1
 2790 0182 37000000 		.4byte	0x37
 2791 0186 05       		.byte	0x5
 2792 0187 82       		.byte	0x82
 2793 0188 A5010000 		.4byte	0x1a5
 2794 018c 0C       		.uleb128 0xc
 2795 018d 4C020000 		.4byte	.LASF35
 2796 0191 00       		.byte	0
 2797 0192 0C       		.uleb128 0xc
 2798 0193 06030000 		.4byte	.LASF36
 2799 0197 01       		.byte	0x1
 2800 0198 0C       		.uleb128 0xc
 2801 0199 14060000 		.4byte	.LASF37
 2802 019d 02       		.byte	0x2
 2803 019e 0C       		.uleb128 0xc
 2804 019f C2050000 		.4byte	.LASF38
 2805 01a3 04       		.byte	0x4
 2806 01a4 00       		.byte	0
 2807 01a5 0B       		.uleb128 0xb
 2808 01a6 01       		.byte	0x1
 2809 01a7 37000000 		.4byte	0x37
 2810 01ab 05       		.byte	0x5
 2811 01ac 8A       		.byte	0x8a
 2812 01ad BE010000 		.4byte	0x1be
 2813 01b1 0C       		.uleb128 0xc
 2814 01b2 D1000000 		.4byte	.LASF39
 2815 01b6 00       		.byte	0
 2816 01b7 0C       		.uleb128 0xc
 2817 01b8 E6000000 		.4byte	.LASF40
 2818 01bc 01       		.byte	0x1
 2819 01bd 00       		.byte	0
 2820 01be 0D       		.uleb128 0xd
 2821 01bf 0010     		.2byte	0x1000
 2822 01c1 05       		.byte	0x5
 2823 01c2 98       		.byte	0x98
 2824 01c3 A3020000 		.4byte	0x2a3
 2825 01c7 0E       		.uleb128 0xe
 2826 01c8 5B040000 		.4byte	.LASF41
 2827 01cc 05       		.byte	0x5
 2828 01cd 9C       		.byte	0x9c
 2829 01ce 97000000 		.4byte	0x97
 2830 01d2 00       		.byte	0
 2831 01d3 0E       		.uleb128 0xe
 2832 01d4 96070000 		.4byte	.LASF42
 2833 01d8 05       		.byte	0x5
 2834 01d9 9E       		.byte	0x9e
 2835 01da 97000000 		.4byte	0x97
 2836 01de 01       		.byte	0x1
 2837 01df 0E       		.uleb128 0xe
 2838 01e0 21030000 		.4byte	.LASF43
 2839 01e4 05       		.byte	0x5
 2840 01e5 9F       		.byte	0x9f
 2841 01e6 97000000 		.4byte	0x97
 2842 01ea 02       		.byte	0x2
 2843 01eb 0E       		.uleb128 0xe
 2844 01ec E0090000 		.4byte	.LASF44
 2845 01f0 05       		.byte	0x5
ARM GAS  C:\Users\r\AppData\Local\Temp\ccqe305w.s 			page 63


 2846 01f1 A0       		.byte	0xa0
 2847 01f2 97000000 		.4byte	0x97
 2848 01f6 03       		.byte	0x3
 2849 01f7 0E       		.uleb128 0xe
 2850 01f8 EC070000 		.4byte	.LASF45
 2851 01fc 05       		.byte	0x5
 2852 01fd A2       		.byte	0xa2
 2853 01fe B8000000 		.4byte	0xb8
 2854 0202 04       		.byte	0x4
 2855 0203 0E       		.uleb128 0xe
 2856 0204 7C030000 		.4byte	.LASF46
 2857 0208 05       		.byte	0x5
 2858 0209 A3       		.byte	0xa3
 2859 020a B8000000 		.4byte	0xb8
 2860 020e 08       		.byte	0x8
 2861 020f 0E       		.uleb128 0xe
 2862 0210 BB080000 		.4byte	.LASF47
 2863 0214 05       		.byte	0x5
 2864 0215 A5       		.byte	0xa5
 2865 0216 A2000000 		.4byte	0xa2
 2866 021a 0C       		.byte	0xc
 2867 021b 0E       		.uleb128 0xe
 2868 021c 0B0B0000 		.4byte	.LASF48
 2869 0220 05       		.byte	0x5
 2870 0221 A8       		.byte	0xa8
 2871 0222 A2000000 		.4byte	0xa2
 2872 0226 0E       		.byte	0xe
 2873 0227 0E       		.uleb128 0xe
 2874 0228 90040000 		.4byte	.LASF49
 2875 022c 05       		.byte	0x5
 2876 022d AB       		.byte	0xab
 2877 022e A2000000 		.4byte	0xa2
 2878 0232 10       		.byte	0x10
 2879 0233 0E       		.uleb128 0xe
 2880 0234 25090000 		.4byte	.LASF50
 2881 0238 05       		.byte	0x5
 2882 0239 AE       		.byte	0xae
 2883 023a 2E010000 		.4byte	0x12e
 2884 023e 12       		.byte	0x12
 2885 023f 0E       		.uleb128 0xe
 2886 0240 31050000 		.4byte	.LASF51
 2887 0244 05       		.byte	0x5
 2888 0245 AF       		.byte	0xaf
 2889 0246 A3020000 		.4byte	0x2a3
 2890 024a 1A       		.byte	0x1a
 2891 024b 0E       		.uleb128 0xe
 2892 024c 9B000000 		.4byte	.LASF52
 2893 0250 05       		.byte	0x5
 2894 0251 B0       		.byte	0xb0
 2895 0252 B3020000 		.4byte	0x2b3
 2896 0256 2A       		.byte	0x2a
 2897 0257 0E       		.uleb128 0xe
 2898 0258 7F0A0000 		.4byte	.LASF53
 2899 025c 05       		.byte	0x5
 2900 025d B1       		.byte	0xb1
 2901 025e A3020000 		.4byte	0x2a3
 2902 0262 2E       		.byte	0x2e
ARM GAS  C:\Users\r\AppData\Local\Temp\ccqe305w.s 			page 64


 2903 0263 0E       		.uleb128 0xe
 2904 0264 B0040000 		.4byte	.LASF54
 2905 0268 05       		.byte	0x5
 2906 0269 B3       		.byte	0xb3
 2907 026a A2000000 		.4byte	0xa2
 2908 026e 3E       		.byte	0x3e
 2909 026f 0E       		.uleb128 0xe
 2910 0270 C6090000 		.4byte	.LASF55
 2911 0274 05       		.byte	0x5
 2912 0275 B5       		.byte	0xb5
 2913 0276 C3020000 		.4byte	0x2c3
 2914 027a 40       		.byte	0x40
 2915 027b 0F       		.uleb128 0xf
 2916 027c 5F020000 		.4byte	.LASF56
 2917 0280 05       		.byte	0x5
 2918 0281 B7       		.byte	0xb7
 2919 0282 D4020000 		.4byte	0x2d4
 2920 0286 0004     		.2byte	0x400
 2921 0288 10       		.uleb128 0x10
 2922 0289 76706400 		.ascii	"vpd\000"
 2923 028d 05       		.byte	0x5
 2924 028e B8       		.byte	0xb8
 2925 028f D4020000 		.4byte	0x2d4
 2926 0293 0008     		.2byte	0x800
 2927 0295 0F       		.uleb128 0xf
 2928 0296 4F050000 		.4byte	.LASF57
 2929 029a 05       		.byte	0x5
 2930 029b B9       		.byte	0xb9
 2931 029c D4020000 		.4byte	0x2d4
 2932 02a0 000C     		.2byte	0xc00
 2933 02a2 00       		.byte	0
 2934 02a3 09       		.uleb128 0x9
 2935 02a4 01010000 		.4byte	0x101
 2936 02a8 B3020000 		.4byte	0x2b3
 2937 02ac 0A       		.uleb128 0xa
 2938 02ad 27010000 		.4byte	0x127
 2939 02b1 0F       		.byte	0xf
 2940 02b2 00       		.byte	0
 2941 02b3 09       		.uleb128 0x9
 2942 02b4 01010000 		.4byte	0x101
 2943 02b8 C3020000 		.4byte	0x2c3
 2944 02bc 0A       		.uleb128 0xa
 2945 02bd 27010000 		.4byte	0x127
 2946 02c1 03       		.byte	0x3
 2947 02c2 00       		.byte	0
 2948 02c3 09       		.uleb128 0x9
 2949 02c4 97000000 		.4byte	0x97
 2950 02c8 D4020000 		.4byte	0x2d4
 2951 02cc 11       		.uleb128 0x11
 2952 02cd 27010000 		.4byte	0x127
 2953 02d1 BF03     		.2byte	0x3bf
 2954 02d3 00       		.byte	0
 2955 02d4 09       		.uleb128 0x9
 2956 02d5 97000000 		.4byte	0x97
 2957 02d9 E5020000 		.4byte	0x2e5
 2958 02dd 11       		.uleb128 0x11
 2959 02de 27010000 		.4byte	0x127
ARM GAS  C:\Users\r\AppData\Local\Temp\ccqe305w.s 			page 65


 2960 02e2 FF03     		.2byte	0x3ff
 2961 02e4 00       		.byte	0
 2962 02e5 03       		.uleb128 0x3
 2963 02e6 ED080000 		.4byte	.LASF58
 2964 02ea 05       		.byte	0x5
 2965 02eb BA       		.byte	0xba
 2966 02ec BE010000 		.4byte	0x1be
 2967 02f0 0D       		.uleb128 0xd
 2968 02f1 0001     		.2byte	0x100
 2969 02f3 05       		.byte	0x5
 2970 02f4 BC       		.byte	0xbc
 2971 02f5 4E030000 		.4byte	0x34e
 2972 02f9 0E       		.uleb128 0xe
 2973 02fa D1070000 		.4byte	.LASF59
 2974 02fe 05       		.byte	0x5
 2975 02ff BE       		.byte	0xbe
 2976 0300 B3020000 		.4byte	0x2b3
 2977 0304 00       		.byte	0
 2978 0305 0E       		.uleb128 0xe
 2979 0306 790A0000 		.4byte	.LASF60
 2980 030a 05       		.byte	0x5
 2981 030b BF       		.byte	0xbf
 2982 030c 97000000 		.4byte	0x97
 2983 0310 04       		.byte	0x4
 2984 0311 0E       		.uleb128 0xe
 2985 0312 D8030000 		.4byte	.LASF61
 2986 0316 05       		.byte	0x5
 2987 0317 C0       		.byte	0xc0
 2988 0318 97000000 		.4byte	0x97
 2989 031c 05       		.byte	0x5
 2990 031d 0E       		.uleb128 0xe
 2991 031e A4000000 		.4byte	.LASF62
 2992 0322 05       		.byte	0x5
 2993 0323 C1       		.byte	0xc1
 2994 0324 97000000 		.4byte	0x97
 2995 0328 06       		.byte	0x6
 2996 0329 0E       		.uleb128 0xe
 2997 032a 49000000 		.4byte	.LASF63
 2998 032e 05       		.byte	0x5
 2999 032f C2       		.byte	0xc2
 3000 0330 97000000 		.4byte	0x97
 3001 0334 07       		.byte	0x7
 3002 0335 0E       		.uleb128 0xe
 3003 0336 3D0A0000 		.4byte	.LASF64
 3004 033a 05       		.byte	0x5
 3005 033b C4       		.byte	0xc4
 3006 033c 97000000 		.4byte	0x97
 3007 0340 08       		.byte	0x8
 3008 0341 0E       		.uleb128 0xe
 3009 0342 C6090000 		.4byte	.LASF55
 3010 0346 05       		.byte	0x5
 3011 0347 C7       		.byte	0xc7
 3012 0348 4E030000 		.4byte	0x34e
 3013 034c 09       		.byte	0x9
 3014 034d 00       		.byte	0
 3015 034e 09       		.uleb128 0x9
 3016 034f 97000000 		.4byte	0x97
ARM GAS  C:\Users\r\AppData\Local\Temp\ccqe305w.s 			page 66


 3017 0353 5E030000 		.4byte	0x35e
 3018 0357 0A       		.uleb128 0xa
 3019 0358 27010000 		.4byte	0x127
 3020 035c F6       		.byte	0xf6
 3021 035d 00       		.byte	0
 3022 035e 03       		.uleb128 0x3
 3023 035f 0C0A0000 		.4byte	.LASF65
 3024 0363 05       		.byte	0x5
 3025 0364 C8       		.byte	0xc8
 3026 0365 F0020000 		.4byte	0x2f0
 3027 0369 12       		.uleb128 0x12
 3028 036a 04       		.byte	0x4
 3029 036b 06       		.byte	0x6
 3030 036c AA       		.byte	0xaa
 3031 036d 8A030000 		.4byte	0x38a
 3032 0371 0E       		.uleb128 0xe
 3033 0372 47020000 		.4byte	.LASF66
 3034 0376 06       		.byte	0x6
 3035 0377 AC       		.byte	0xac
 3036 0378 C3000000 		.4byte	0xc3
 3037 037c 00       		.byte	0
 3038 037d 13       		.uleb128 0x13
 3039 037e 61736300 		.ascii	"asc\000"
 3040 0382 06       		.byte	0x6
 3041 0383 AD       		.byte	0xad
 3042 0384 CF000000 		.4byte	0xcf
 3043 0388 02       		.byte	0x2
 3044 0389 00       		.byte	0
 3045 038a 03       		.uleb128 0x3
 3046 038b DC050000 		.4byte	.LASF67
 3047 038f 06       		.byte	0x6
 3048 0390 AE       		.byte	0xae
 3049 0391 69030000 		.4byte	0x369
 3050 0395 0B       		.uleb128 0xb
 3051 0396 01       		.byte	0x1
 3052 0397 25000000 		.4byte	0x25
 3053 039b 07       		.byte	0x7
 3054 039c 18       		.byte	0x18
 3055 039d F6030000 		.4byte	0x3f6
 3056 03a1 0C       		.uleb128 0xc
 3057 03a2 AB080000 		.4byte	.LASF68
 3058 03a6 01       		.byte	0x1
 3059 03a7 0C       		.uleb128 0xc
 3060 03a8 50000000 		.4byte	.LASF69
 3061 03ac 02       		.byte	0x2
 3062 03ad 0C       		.uleb128 0xc
 3063 03ae AE090000 		.4byte	.LASF70
 3064 03b2 04       		.byte	0x4
 3065 03b3 14       		.uleb128 0x14
 3066 03b4 BF010000 		.4byte	.LASF71
 3067 03b8 7F       		.sleb128 -1
 3068 03b9 14       		.uleb128 0x14
 3069 03ba 900A0000 		.4byte	.LASF72
 3070 03be 7E       		.sleb128 -2
 3071 03bf 14       		.uleb128 0x14
 3072 03c0 FA070000 		.4byte	.LASF73
 3073 03c4 7D       		.sleb128 -3
ARM GAS  C:\Users\r\AppData\Local\Temp\ccqe305w.s 			page 67


 3074 03c5 14       		.uleb128 0x14
 3075 03c6 98080000 		.4byte	.LASF74
 3076 03ca 7C       		.sleb128 -4
 3077 03cb 14       		.uleb128 0x14
 3078 03cc F3090000 		.4byte	.LASF75
 3079 03d0 7B       		.sleb128 -5
 3080 03d1 0C       		.uleb128 0xc
 3081 03d2 180A0000 		.4byte	.LASF76
 3082 03d6 06       		.byte	0x6
 3083 03d7 0C       		.uleb128 0xc
 3084 03d8 CE020000 		.4byte	.LASF77
 3085 03dc 02       		.byte	0x2
 3086 03dd 0C       		.uleb128 0xc
 3087 03de C6020000 		.4byte	.LASF78
 3088 03e2 04       		.byte	0x4
 3089 03e3 0C       		.uleb128 0xc
 3090 03e4 80010000 		.4byte	.LASF79
 3091 03e8 00       		.byte	0
 3092 03e9 0C       		.uleb128 0xc
 3093 03ea F30A0000 		.4byte	.LASF80
 3094 03ee 07       		.byte	0x7
 3095 03ef 0C       		.uleb128 0xc
 3096 03f0 8C080000 		.4byte	.LASF81
 3097 03f4 03       		.byte	0x3
 3098 03f5 00       		.byte	0
 3099 03f6 0B       		.uleb128 0xb
 3100 03f7 01       		.byte	0x1
 3101 03f8 37000000 		.4byte	0x37
 3102 03fc 07       		.byte	0x7
 3103 03fd 3D       		.byte	0x3d
 3104 03fe 1B040000 		.4byte	0x41b
 3105 0402 0C       		.uleb128 0xc
 3106 0403 A1040000 		.4byte	.LASF82
 3107 0407 00       		.byte	0
 3108 0408 0C       		.uleb128 0xc
 3109 0409 570A0000 		.4byte	.LASF83
 3110 040d 01       		.byte	0x1
 3111 040e 0C       		.uleb128 0xc
 3112 040f BB000000 		.4byte	.LASF84
 3113 0413 02       		.byte	0x2
 3114 0414 0C       		.uleb128 0xc
 3115 0415 640A0000 		.4byte	.LASF85
 3116 0419 03       		.byte	0x3
 3117 041a 00       		.byte	0
 3118 041b 12       		.uleb128 0x12
 3119 041c 02       		.byte	0x2
 3120 041d 07       		.byte	0x7
 3121 041e 4E       		.byte	0x4e
 3122 041f 30040000 		.4byte	0x430
 3123 0423 0E       		.uleb128 0xe
 3124 0424 BB080000 		.4byte	.LASF47
 3125 0428 07       		.byte	0x7
 3126 0429 50       		.byte	0x50
 3127 042a A2000000 		.4byte	0xa2
 3128 042e 00       		.byte	0
 3129 042f 00       		.byte	0
 3130 0430 03       		.uleb128 0x3
ARM GAS  C:\Users\r\AppData\Local\Temp\ccqe305w.s 			page 68


 3131 0431 10090000 		.4byte	.LASF86
 3132 0435 07       		.byte	0x7
 3133 0436 51       		.byte	0x51
 3134 0437 1B040000 		.4byte	0x41b
 3135 043b 12       		.uleb128 0x12
 3136 043c 18       		.byte	0x18
 3137 043d 07       		.byte	0x7
 3138 043e 53       		.byte	0x53
 3139 043f 98040000 		.4byte	0x498
 3140 0443 0E       		.uleb128 0xe
 3141 0444 1F0A0000 		.4byte	.LASF87
 3142 0448 07       		.byte	0x7
 3143 0449 55       		.byte	0x55
 3144 044a 97000000 		.4byte	0x97
 3145 044e 00       		.byte	0
 3146 044f 13       		.uleb128 0x13
 3147 0450 63666700 		.ascii	"cfg\000"
 3148 0454 07       		.byte	0x7
 3149 0455 57       		.byte	0x57
 3150 0456 98040000 		.4byte	0x498
 3151 045a 04       		.byte	0x4
 3152 045b 0E       		.uleb128 0xe
 3153 045c 49060000 		.4byte	.LASF88
 3154 0460 07       		.byte	0x7
 3155 0461 59       		.byte	0x59
 3156 0462 30040000 		.4byte	0x430
 3157 0466 08       		.byte	0x8
 3158 0467 0E       		.uleb128 0xe
 3159 0468 18040000 		.4byte	.LASF89
 3160 046c 07       		.byte	0x7
 3161 046d 5B       		.byte	0x5b
 3162 046e 8A030000 		.4byte	0x38a
 3163 0472 0A       		.byte	0xa
 3164 0473 0E       		.uleb128 0xe
 3165 0474 FC000000 		.4byte	.LASF90
 3166 0478 07       		.byte	0x7
 3167 0479 5D       		.byte	0x5d
 3168 047a CF000000 		.4byte	0xcf
 3169 047e 0E       		.byte	0xe
 3170 047f 0E       		.uleb128 0xe
 3171 0480 FA080000 		.4byte	.LASF91
 3172 0484 07       		.byte	0x7
 3173 0485 61       		.byte	0x61
 3174 0486 89000000 		.4byte	0x89
 3175 048a 10       		.byte	0x10
 3176 048b 0E       		.uleb128 0xe
 3177 048c AD020000 		.4byte	.LASF92
 3178 0490 07       		.byte	0x7
 3179 0491 62       		.byte	0x62
 3180 0492 89000000 		.4byte	0x89
 3181 0496 14       		.byte	0x14
 3182 0497 00       		.byte	0
 3183 0498 07       		.uleb128 0x7
 3184 0499 04       		.byte	0x4
 3185 049a 9E040000 		.4byte	0x49e
 3186 049e 15       		.uleb128 0x15
 3187 049f E5020000 		.4byte	0x2e5
ARM GAS  C:\Users\r\AppData\Local\Temp\ccqe305w.s 			page 69


 3188 04a3 03       		.uleb128 0x3
 3189 04a4 B2070000 		.4byte	.LASF93
 3190 04a8 07       		.byte	0x7
 3191 04a9 63       		.byte	0x63
 3192 04aa 3B040000 		.4byte	0x43b
 3193 04ae 0D       		.uleb128 0xd
 3194 04af B041     		.2byte	0x41b0
 3195 04b1 07       		.byte	0x7
 3196 04b2 65       		.byte	0x65
 3197 04b3 48060000 		.4byte	0x648
 3198 04b7 0E       		.uleb128 0xe
 3199 04b8 62040000 		.4byte	.LASF94
 3200 04bc 07       		.byte	0x7
 3201 04bd 67       		.byte	0x67
 3202 04be 48060000 		.4byte	0x648
 3203 04c2 00       		.byte	0
 3204 04c3 0E       		.uleb128 0xe
 3205 04c4 B7040000 		.4byte	.LASF95
 3206 04c8 07       		.byte	0x7
 3207 04c9 68       		.byte	0x68
 3208 04ca 58060000 		.4byte	0x658
 3209 04ce 60       		.byte	0x60
 3210 04cf 0E       		.uleb128 0xe
 3211 04d0 F2030000 		.4byte	.LASF96
 3212 04d4 07       		.byte	0x7
 3213 04d5 69       		.byte	0x69
 3214 04d6 5E030000 		.4byte	0x35e
 3215 04da 64       		.byte	0x64
 3216 04db 0F       		.uleb128 0xf
 3217 04dc 2F000000 		.4byte	.LASF97
 3218 04e0 07       		.byte	0x7
 3219 04e1 6E       		.byte	0x6e
 3220 04e2 89000000 		.4byte	0x89
 3221 04e6 6401     		.2byte	0x164
 3222 04e8 0F       		.uleb128 0xf
 3223 04e9 860A0000 		.4byte	.LASF98
 3224 04ed 07       		.byte	0x7
 3225 04ee 71       		.byte	0x71
 3226 04ef 5E060000 		.4byte	0x65e
 3227 04f3 6801     		.2byte	0x168
 3228 04f5 0F       		.uleb128 0xf
 3229 04f6 7B060000 		.4byte	.LASF99
 3230 04fa 07       		.byte	0x7
 3231 04fb 74       		.byte	0x74
 3232 04fc 5E060000 		.4byte	0x65e
 3233 0500 6C01     		.2byte	0x16c
 3234 0502 0F       		.uleb128 0xf
 3235 0503 D60A0000 		.4byte	.LASF100
 3236 0507 07       		.byte	0x7
 3237 0508 77       		.byte	0x77
 3238 0509 89000000 		.4byte	0x89
 3239 050d 7001     		.2byte	0x170
 3240 050f 0F       		.uleb128 0xf
 3241 0510 B8010000 		.4byte	.LASF101
 3242 0514 07       		.byte	0x7
 3243 0515 79       		.byte	0x79
 3244 0516 5E060000 		.4byte	0x65e
ARM GAS  C:\Users\r\AppData\Local\Temp\ccqe305w.s 			page 70


 3245 051a 7401     		.2byte	0x174
 3246 051c 0F       		.uleb128 0xf
 3247 051d 17020000 		.4byte	.LASF102
 3248 0521 07       		.byte	0x7
 3249 0522 7B       		.byte	0x7b
 3250 0523 89000000 		.4byte	0x89
 3251 0527 7801     		.2byte	0x178
 3252 0529 0F       		.uleb128 0xf
 3253 052a 6A040000 		.4byte	.LASF103
 3254 052e 07       		.byte	0x7
 3255 052f 7D       		.byte	0x7d
 3256 0530 63060000 		.4byte	0x663
 3257 0534 7C01     		.2byte	0x17c
 3258 0536 0F       		.uleb128 0xf
 3259 0537 FA050000 		.4byte	.LASF104
 3260 053b 07       		.byte	0x7
 3261 053c 7E       		.byte	0x7e
 3262 053d 89000000 		.4byte	0x89
 3263 0541 7C41     		.2byte	0x417c
 3264 0543 0F       		.uleb128 0xf
 3265 0544 18090000 		.4byte	.LASF105
 3266 0548 07       		.byte	0x7
 3267 0549 7F       		.byte	0x7f
 3268 054a 89000000 		.4byte	0x89
 3269 054e 8041     		.2byte	0x4180
 3270 0550 0F       		.uleb128 0xf
 3271 0551 B3000000 		.4byte	.LASF106
 3272 0555 07       		.byte	0x7
 3273 0556 80       		.byte	0x80
 3274 0557 89000000 		.4byte	0x89
 3275 055b 8441     		.2byte	0x4184
 3276 055d 10       		.uleb128 0x10
 3277 055e 63646200 		.ascii	"cdb\000"
 3278 0562 07       		.byte	0x7
 3279 0563 82       		.byte	0x82
 3280 0564 74060000 		.4byte	0x674
 3281 0568 8841     		.2byte	0x4188
 3282 056a 0F       		.uleb128 0xf
 3283 056b 1E040000 		.4byte	.LASF107
 3284 056f 07       		.byte	0x7
 3285 0570 83       		.byte	0x83
 3286 0571 C3000000 		.4byte	0xc3
 3287 0575 9441     		.2byte	0x4194
 3288 0577 10       		.uleb128 0x10
 3289 0578 6C756E00 		.ascii	"lun\000"
 3290 057c 07       		.byte	0x7
 3291 057d 84       		.byte	0x84
 3292 057e E7000000 		.4byte	0xe7
 3293 0582 9541     		.2byte	0x4195
 3294 0584 0F       		.uleb128 0xf
 3295 0585 CD0A0000 		.4byte	.LASF108
 3296 0589 07       		.byte	0x7
 3297 058a 85       		.byte	0x85
 3298 058b C3000000 		.4byte	0xc3
 3299 058f 9641     		.2byte	0x4196
 3300 0591 0F       		.uleb128 0xf
 3301 0592 0D040000 		.4byte	.LASF109
ARM GAS  C:\Users\r\AppData\Local\Temp\ccqe305w.s 			page 71


 3302 0596 07       		.byte	0x7
 3303 0597 86       		.byte	0x86
 3304 0598 97000000 		.4byte	0x97
 3305 059c 9741     		.2byte	0x4197
 3306 059e 0F       		.uleb128 0xf
 3307 059f DC040000 		.4byte	.LASF110
 3308 05a3 07       		.byte	0x7
 3309 05a4 8A       		.byte	0x8a
 3310 05a5 89000000 		.4byte	0x89
 3311 05a9 9841     		.2byte	0x4198
 3312 05ab 0F       		.uleb128 0xf
 3313 05ac 280A0000 		.4byte	.LASF111
 3314 05b0 07       		.byte	0x7
 3315 05b1 8E       		.byte	0x8e
 3316 05b2 C3000000 		.4byte	0xc3
 3317 05b6 9C41     		.2byte	0x419c
 3318 05b8 0F       		.uleb128 0xf
 3319 05b9 37090000 		.4byte	.LASF112
 3320 05bd 07       		.byte	0x7
 3321 05be 90       		.byte	0x90
 3322 05bf C3000000 		.4byte	0xc3
 3323 05c3 9D41     		.2byte	0x419d
 3324 05c5 0F       		.uleb128 0xf
 3325 05c6 09000000 		.4byte	.LASF113
 3326 05ca 07       		.byte	0x7
 3327 05cb 91       		.byte	0x91
 3328 05cc C3000000 		.4byte	0xc3
 3329 05d0 9E41     		.2byte	0x419e
 3330 05d2 0F       		.uleb128 0xf
 3331 05d3 37010000 		.4byte	.LASF114
 3332 05d7 07       		.byte	0x7
 3333 05d8 93       		.byte	0x93
 3334 05d9 19010000 		.4byte	0x119
 3335 05dd A041     		.2byte	0x41a0
 3336 05df 0F       		.uleb128 0xf
 3337 05e0 BE070000 		.4byte	.LASF115
 3338 05e4 07       		.byte	0x7
 3339 05e5 95       		.byte	0x95
 3340 05e6 C3000000 		.4byte	0xc3
 3341 05ea A441     		.2byte	0x41a4
 3342 05ec 0F       		.uleb128 0xf
 3343 05ed 6F040000 		.4byte	.LASF116
 3344 05f1 07       		.byte	0x7
 3345 05f2 96       		.byte	0x96
 3346 05f3 C3000000 		.4byte	0xc3
 3347 05f7 A541     		.2byte	0x41a5
 3348 05f9 0F       		.uleb128 0xf
 3349 05fa 50030000 		.4byte	.LASF117
 3350 05fe 07       		.byte	0x7
 3351 05ff 97       		.byte	0x97
 3352 0600 C3000000 		.4byte	0xc3
 3353 0604 A641     		.2byte	0x41a6
 3354 0606 0F       		.uleb128 0xf
 3355 0607 00000000 		.4byte	.LASF118
 3356 060b 07       		.byte	0x7
 3357 060c 98       		.byte	0x98
 3358 060d C3000000 		.4byte	0xc3
ARM GAS  C:\Users\r\AppData\Local\Temp\ccqe305w.s 			page 72


 3359 0611 A741     		.2byte	0x41a7
 3360 0613 0F       		.uleb128 0xf
 3361 0614 83050000 		.4byte	.LASF119
 3362 0618 07       		.byte	0x7
 3363 0619 99       		.byte	0x99
 3364 061a C3000000 		.4byte	0xc3
 3365 061e A841     		.2byte	0x41a8
 3366 0620 0F       		.uleb128 0xf
 3367 0621 2C090000 		.4byte	.LASF120
 3368 0625 07       		.byte	0x7
 3369 0626 9A       		.byte	0x9a
 3370 0627 C3000000 		.4byte	0xc3
 3371 062b A941     		.2byte	0x41a9
 3372 062d 0F       		.uleb128 0xf
 3373 062e E90A0000 		.4byte	.LASF121
 3374 0632 07       		.byte	0x7
 3375 0633 9B       		.byte	0x9b
 3376 0634 C3000000 		.4byte	0xc3
 3377 0638 AA41     		.2byte	0x41aa
 3378 063a 0F       		.uleb128 0xf
 3379 063b FD010000 		.4byte	.LASF122
 3380 063f 07       		.byte	0x7
 3381 0640 9C       		.byte	0x9c
 3382 0641 A2000000 		.4byte	0xa2
 3383 0645 AC41     		.2byte	0x41ac
 3384 0647 00       		.byte	0
 3385 0648 09       		.uleb128 0x9
 3386 0649 A3040000 		.4byte	0x4a3
 3387 064d 58060000 		.4byte	0x658
 3388 0651 0A       		.uleb128 0xa
 3389 0652 27010000 		.4byte	0x127
 3390 0656 03       		.byte	0x3
 3391 0657 00       		.byte	0
 3392 0658 07       		.uleb128 0x7
 3393 0659 04       		.byte	0x4
 3394 065a A3040000 		.4byte	0x4a3
 3395 065e 06       		.uleb128 0x6
 3396 065f 89000000 		.4byte	0x89
 3397 0663 09       		.uleb128 0x9
 3398 0664 C3000000 		.4byte	0xc3
 3399 0668 74060000 		.4byte	0x674
 3400 066c 11       		.uleb128 0x11
 3401 066d 27010000 		.4byte	0x127
 3402 0671 FF3F     		.2byte	0x3fff
 3403 0673 00       		.byte	0
 3404 0674 09       		.uleb128 0x9
 3405 0675 C3000000 		.4byte	0xc3
 3406 0679 84060000 		.4byte	0x684
 3407 067d 0A       		.uleb128 0xa
 3408 067e 27010000 		.4byte	0x127
 3409 0682 0B       		.byte	0xb
 3410 0683 00       		.byte	0
 3411 0684 03       		.uleb128 0x3
 3412 0685 C20A0000 		.4byte	.LASF123
 3413 0689 07       		.byte	0x7
 3414 068a 9D       		.byte	0x9d
 3415 068b AE040000 		.4byte	0x4ae
ARM GAS  C:\Users\r\AppData\Local\Temp\ccqe305w.s 			page 73


 3416 068f 0B       		.uleb128 0xb
 3417 0690 01       		.byte	0x1
 3418 0691 37000000 		.4byte	0x37
 3419 0695 08       		.byte	0x8
 3420 0696 16       		.byte	0x16
 3421 0697 AE060000 		.4byte	0x6ae
 3422 069b 0C       		.uleb128 0xc
 3423 069c EC020000 		.4byte	.LASF124
 3424 06a0 01       		.byte	0x1
 3425 06a1 0C       		.uleb128 0xc
 3426 06a2 83060000 		.4byte	.LASF125
 3427 06a6 02       		.byte	0x2
 3428 06a7 0C       		.uleb128 0xc
 3429 06a8 D7070000 		.4byte	.LASF126
 3430 06ac 10       		.byte	0x10
 3431 06ad 00       		.byte	0
 3432 06ae 16       		.uleb128 0x16
 3433 06af A0030000 		.4byte	.LASF132
 3434 06b3 01       		.byte	0x1
 3435 06b4 37000000 		.4byte	0x37
 3436 06b8 08       		.byte	0x8
 3437 06b9 3E       		.byte	0x3e
 3438 06ba DD060000 		.4byte	0x6dd
 3439 06be 0C       		.uleb128 0xc
 3440 06bf 2F0A0000 		.4byte	.LASF127
 3441 06c3 01       		.byte	0x1
 3442 06c4 0C       		.uleb128 0xc
 3443 06c5 67060000 		.4byte	.LASF128
 3444 06c9 02       		.byte	0x2
 3445 06ca 0C       		.uleb128 0xc
 3446 06cb 79070000 		.4byte	.LASF129
 3447 06cf 04       		.byte	0x4
 3448 06d0 0C       		.uleb128 0xc
 3449 06d1 5F080000 		.4byte	.LASF130
 3450 06d5 08       		.byte	0x8
 3451 06d6 0C       		.uleb128 0xc
 3452 06d7 B8020000 		.4byte	.LASF131
 3453 06db 10       		.byte	0x10
 3454 06dc 00       		.byte	0
 3455 06dd 16       		.uleb128 0x16
 3456 06de 6E050000 		.4byte	.LASF133
 3457 06e2 01       		.byte	0x1
 3458 06e3 37000000 		.4byte	0x37
 3459 06e7 09       		.byte	0x9
 3460 06e8 16       		.byte	0x16
 3461 06e9 66070000 		.4byte	0x766
 3462 06ed 0C       		.uleb128 0xc
 3463 06ee 71000000 		.4byte	.LASF134
 3464 06f2 00       		.byte	0
 3465 06f3 0C       		.uleb128 0xc
 3466 06f4 56050000 		.4byte	.LASF135
 3467 06f8 50       		.byte	0x50
 3468 06f9 0C       		.uleb128 0xc
 3469 06fa 88030000 		.4byte	.LASF136
 3470 06fe 51       		.byte	0x51
 3471 06ff 0C       		.uleb128 0xc
 3472 0700 89090000 		.4byte	.LASF137
ARM GAS  C:\Users\r\AppData\Local\Temp\ccqe305w.s 			page 74


 3473 0704 52       		.byte	0x52
 3474 0705 0C       		.uleb128 0xc
 3475 0706 47040000 		.4byte	.LASF138
 3476 070a 53       		.byte	0x53
 3477 070b 0C       		.uleb128 0xc
 3478 070c 31030000 		.4byte	.LASF139
 3479 0710 54       		.byte	0x54
 3480 0711 0C       		.uleb128 0xc
 3481 0712 6D080000 		.4byte	.LASF140
 3482 0716 55       		.byte	0x55
 3483 0717 0C       		.uleb128 0xc
 3484 0718 89010000 		.4byte	.LASF141
 3485 071c 20       		.byte	0x20
 3486 071d 0C       		.uleb128 0xc
 3487 071e 51060000 		.4byte	.LASF142
 3488 0722 21       		.byte	0x21
 3489 0723 0C       		.uleb128 0xc
 3490 0724 38050000 		.4byte	.LASF143
 3491 0728 22       		.byte	0x22
 3492 0729 0C       		.uleb128 0xc
 3493 072a 06080000 		.4byte	.LASF144
 3494 072e 23       		.byte	0x23
 3495 072f 0C       		.uleb128 0xc
 3496 0730 C8040000 		.4byte	.LASF145
 3497 0734 24       		.byte	0x24
 3498 0735 0C       		.uleb128 0xc
 3499 0736 00050000 		.4byte	.LASF146
 3500 073a 25       		.byte	0x25
 3501 073b 0C       		.uleb128 0xc
 3502 073c 37000000 		.4byte	.LASF147
 3503 0740 30       		.byte	0x30
 3504 0741 0C       		.uleb128 0xc
 3505 0742 69020000 		.4byte	.LASF148
 3506 0746 31       		.byte	0x31
 3507 0747 0C       		.uleb128 0xc
 3508 0748 A1070000 		.4byte	.LASF149
 3509 074c 32       		.byte	0x32
 3510 074d 0C       		.uleb128 0xc
 3511 074e 90050000 		.4byte	.LASF150
 3512 0752 33       		.byte	0x33
 3513 0753 0C       		.uleb128 0xc
 3514 0754 A8050000 		.4byte	.LASF151
 3515 0758 34       		.byte	0x34
 3516 0759 0C       		.uleb128 0xc
 3517 075a 3D090000 		.4byte	.LASF152
 3518 075e 35       		.byte	0x35
 3519 075f 0C       		.uleb128 0xc
 3520 0760 70010000 		.4byte	.LASF153
 3521 0764 40       		.byte	0x40
 3522 0765 00       		.byte	0
 3523 0766 17       		.uleb128 0x17
 3524 0767 5F000000 		.4byte	.LASF154
 3525 076b 01       		.byte	0x1
 3526 076c 32       		.byte	0x32
 3527 076d 00000000 		.4byte	.LFB64
 3528 0771 20000000 		.4byte	.LFE64-.LFB64
 3529 0775 01       		.uleb128 0x1
ARM GAS  C:\Users\r\AppData\Local\Temp\ccqe305w.s 			page 75


 3530 0776 9C       		.byte	0x9c
 3531 0777 17       		.uleb128 0x17
 3532 0778 9C090000 		.4byte	.LASF155
 3533 077c 01       		.byte	0x1
 3534 077d 39       		.byte	0x39
 3535 077e 00000000 		.4byte	.LFB65
 3536 0782 20000000 		.4byte	.LFE65-.LFB65
 3537 0786 01       		.uleb128 0x1
 3538 0787 9C       		.byte	0x9c
 3539 0788 17       		.uleb128 0x17
 3540 0789 E5030000 		.4byte	.LASF156
 3541 078d 01       		.byte	0x1
 3542 078e 40       		.byte	0x40
 3543 078f 00000000 		.4byte	.LFB66
 3544 0793 24000000 		.4byte	.LFE66-.LFB66
 3545 0797 01       		.uleb128 0x1
 3546 0798 9C       		.byte	0x9c
 3547 0799 18       		.uleb128 0x18
 3548 079a 9E060000 		.4byte	.LASF157
 3549 079e 01       		.byte	0x1
 3550 079f 47       		.byte	0x47
 3551 07a0 00000000 		.4byte	.LFB67
 3552 07a4 24000000 		.4byte	.LFE67-.LFB67
 3553 07a8 01       		.uleb128 0x1
 3554 07a9 9C       		.byte	0x9c
 3555 07aa 19       		.uleb128 0x19
 3556 07ab 470A0000 		.4byte	.LASF202
 3557 07af 01       		.byte	0x1
 3558 07b0 56       		.byte	0x56
 3559 07b1 97000000 		.4byte	0x97
 3560 07b5 00000000 		.4byte	.LFB68
 3561 07b9 F0000000 		.4byte	.LFE68-.LFB68
 3562 07bd 01       		.uleb128 0x1
 3563 07be 9C       		.byte	0x9c
 3564 07bf 1A       		.uleb128 0x1a
 3565 07c0 99020000 		.4byte	.LASF179
 3566 07c4 01       		.byte	0x1
 3567 07c5 64       		.byte	0x64
 3568 07c6 97000000 		.4byte	0x97
 3569 07ca 00000000 		.4byte	.LFB69
 3570 07ce B0000000 		.4byte	.LFE69-.LFB69
 3571 07d2 01       		.uleb128 0x1
 3572 07d3 9C       		.byte	0x9c
 3573 07d4 E7070000 		.4byte	0x7e7
 3574 07d8 1B       		.uleb128 0x1b
 3575 07d9 76616C00 		.ascii	"val\000"
 3576 07dd 01       		.byte	0x1
 3577 07de 6C       		.byte	0x6c
 3578 07df 97000000 		.4byte	0x97
 3579 07e3 02       		.uleb128 0x2
 3580 07e4 91       		.byte	0x91
 3581 07e5 77       		.sleb128 -9
 3582 07e6 00       		.byte	0
 3583 07e7 1C       		.uleb128 0x1c
 3584 07e8 C2060000 		.4byte	.LASF160
 3585 07ec 01       		.byte	0x1
 3586 07ed 73       		.byte	0x73
ARM GAS  C:\Users\r\AppData\Local\Temp\ccqe305w.s 			page 76


 3587 07ee 00000000 		.4byte	.LFB70
 3588 07f2 AC000000 		.4byte	.LFE70-.LFB70
 3589 07f6 01       		.uleb128 0x1
 3590 07f7 9C       		.byte	0x9c
 3591 07f8 4B080000 		.4byte	0x84b
 3592 07fc 1D       		.uleb128 0x1d
 3593 07fd 6A040000 		.4byte	.LASF103
 3594 0801 01       		.byte	0x1
 3595 0802 73       		.byte	0x73
 3596 0803 4B080000 		.4byte	0x84b
 3597 0807 02       		.uleb128 0x2
 3598 0808 91       		.byte	0x91
 3599 0809 64       		.sleb128 -28
 3600 080a 1D       		.uleb128 0x1d
 3601 080b 10000000 		.4byte	.LASF158
 3602 080f 01       		.byte	0x1
 3603 0810 73       		.byte	0x73
 3604 0811 DB000000 		.4byte	0xdb
 3605 0815 02       		.uleb128 0x2
 3606 0816 91       		.byte	0x91
 3607 0817 60       		.sleb128 -32
 3608 0818 1E       		.uleb128 0x1e
 3609 0819 7D000000 		.4byte	.LASF159
 3610 081d 01       		.byte	0x1
 3611 081e 75       		.byte	0x75
 3612 081f 89000000 		.4byte	0x89
 3613 0823 02       		.uleb128 0x2
 3614 0824 91       		.byte	0x91
 3615 0825 74       		.sleb128 -12
 3616 0826 1B       		.uleb128 0x1b
 3617 0827 6900     		.ascii	"i\000"
 3618 0829 01       		.byte	0x1
 3619 082a 76       		.byte	0x76
 3620 082b 89000000 		.4byte	0x89
 3621 082f 02       		.uleb128 0x2
 3622 0830 91       		.byte	0x91
 3623 0831 70       		.sleb128 -16
 3624 0832 1F       		.uleb128 0x1f
 3625 0833 14000000 		.4byte	.LBB2
 3626 0837 42000000 		.4byte	.LBE2-.LBB2
 3627 083b 1E       		.uleb128 0x1e
 3628 083c 280A0000 		.4byte	.LASF111
 3629 0840 01       		.byte	0x1
 3630 0841 7A       		.byte	0x7a
 3631 0842 97000000 		.4byte	0x97
 3632 0846 02       		.uleb128 0x2
 3633 0847 91       		.byte	0x91
 3634 0848 6F       		.sleb128 -17
 3635 0849 00       		.byte	0
 3636 084a 00       		.byte	0
 3637 084b 07       		.uleb128 0x7
 3638 084c 04       		.byte	0x4
 3639 084d C3000000 		.4byte	0xc3
 3640 0851 1C       		.uleb128 0x1c
 3641 0852 47010000 		.4byte	.LASF161
 3642 0856 01       		.byte	0x1
 3643 0857 8B       		.byte	0x8b
ARM GAS  C:\Users\r\AppData\Local\Temp\ccqe305w.s 			page 77


 3644 0858 00000000 		.4byte	.LFB71
 3645 085c E0000000 		.4byte	.LFE71-.LFB71
 3646 0860 01       		.uleb128 0x1
 3647 0861 9C       		.byte	0x9c
 3648 0862 83080000 		.4byte	0x883
 3649 0866 1D       		.uleb128 0x1d
 3650 0867 6A040000 		.4byte	.LASF103
 3651 086b 01       		.byte	0x1
 3652 086c 8B       		.byte	0x8b
 3653 086d 4B080000 		.4byte	0x84b
 3654 0871 02       		.uleb128 0x2
 3655 0872 91       		.byte	0x91
 3656 0873 74       		.sleb128 -12
 3657 0874 1D       		.uleb128 0x1d
 3658 0875 10000000 		.4byte	.LASF158
 3659 0879 01       		.byte	0x1
 3660 087a 8B       		.byte	0x8b
 3661 087b DB000000 		.4byte	0xdb
 3662 087f 02       		.uleb128 0x2
 3663 0880 91       		.byte	0x91
 3664 0881 70       		.sleb128 -16
 3665 0882 00       		.byte	0
 3666 0883 20       		.uleb128 0x20
 3667 0884 F1010000 		.4byte	.LASF163
 3668 0888 01       		.byte	0x1
 3669 0889 BA       		.byte	0xba
 3670 088a 00000000 		.4byte	.LFB72
 3671 088e 54000000 		.4byte	.LFE72-.LFB72
 3672 0892 01       		.uleb128 0x1
 3673 0893 9C       		.byte	0x9c
 3674 0894 C3080000 		.4byte	0x8c3
 3675 0898 1D       		.uleb128 0x1d
 3676 0899 6A040000 		.4byte	.LASF103
 3677 089d 01       		.byte	0x1
 3678 089e BA       		.byte	0xba
 3679 089f 4B080000 		.4byte	0x84b
 3680 08a3 02       		.uleb128 0x2
 3681 08a4 91       		.byte	0x91
 3682 08a5 6C       		.sleb128 -20
 3683 08a6 1D       		.uleb128 0x1d
 3684 08a7 10000000 		.4byte	.LASF158
 3685 08ab 01       		.byte	0x1
 3686 08ac BA       		.byte	0xba
 3687 08ad DB000000 		.4byte	0xdb
 3688 08b1 02       		.uleb128 0x2
 3689 08b2 91       		.byte	0x91
 3690 08b3 68       		.sleb128 -24
 3691 08b4 1E       		.uleb128 0x1e
 3692 08b5 0A010000 		.4byte	.LASF162
 3693 08b9 01       		.byte	0x1
 3694 08ba C0       		.byte	0xc0
 3695 08bb B8000000 		.4byte	0xb8
 3696 08bf 02       		.uleb128 0x2
 3697 08c0 91       		.byte	0x91
 3698 08c1 74       		.sleb128 -12
 3699 08c2 00       		.byte	0
 3700 08c3 21       		.uleb128 0x21
ARM GAS  C:\Users\r\AppData\Local\Temp\ccqe305w.s 			page 78


 3701 08c4 E1010000 		.4byte	.LASF164
 3702 08c8 01       		.byte	0x1
 3703 08c9 C6       		.byte	0xc6
 3704 08ca 89000000 		.4byte	0x89
 3705 08ce 00000000 		.4byte	.LFB73
 3706 08d2 C8000000 		.4byte	.LFE73-.LFB73
 3707 08d6 01       		.uleb128 0x1
 3708 08d7 9C       		.byte	0x9c
 3709 08d8 F5080000 		.4byte	0x8f5
 3710 08dc 1F       		.uleb128 0x1f
 3711 08dd 5A000000 		.4byte	.LBB3
 3712 08e1 48000000 		.4byte	.LBE3-.LBB3
 3713 08e5 1E       		.uleb128 0x1e
 3714 08e6 10000000 		.4byte	.LASF158
 3715 08ea 01       		.byte	0x1
 3716 08eb D4       		.byte	0xd4
 3717 08ec B8000000 		.4byte	0xb8
 3718 08f0 02       		.uleb128 0x2
 3719 08f1 91       		.byte	0x91
 3720 08f2 74       		.sleb128 -12
 3721 08f3 00       		.byte	0
 3722 08f4 00       		.byte	0
 3723 08f5 20       		.uleb128 0x20
 3724 08f6 F1050000 		.4byte	.LASF165
 3725 08fa 01       		.byte	0x1
 3726 08fb E2       		.byte	0xe2
 3727 08fc 00000000 		.4byte	.LFB74
 3728 0900 5C000000 		.4byte	.LFE74-.LFB74
 3729 0904 01       		.uleb128 0x1
 3730 0905 9C       		.byte	0x9c
 3731 0906 27090000 		.4byte	0x927
 3732 090a 1D       		.uleb128 0x1d
 3733 090b 6A040000 		.4byte	.LASF103
 3734 090f 01       		.byte	0x1
 3735 0910 E2       		.byte	0xe2
 3736 0911 27090000 		.4byte	0x927
 3737 0915 02       		.uleb128 0x2
 3738 0916 91       		.byte	0x91
 3739 0917 74       		.sleb128 -12
 3740 0918 1D       		.uleb128 0x1d
 3741 0919 10000000 		.4byte	.LASF158
 3742 091d 01       		.byte	0x1
 3743 091e E2       		.byte	0xe2
 3744 091f B8000000 		.4byte	0xb8
 3745 0923 02       		.uleb128 0x2
 3746 0924 91       		.byte	0x91
 3747 0925 70       		.sleb128 -16
 3748 0926 00       		.byte	0
 3749 0927 07       		.uleb128 0x7
 3750 0928 04       		.byte	0x4
 3751 0929 97000000 		.4byte	0x97
 3752 092d 22       		.uleb128 0x22
 3753 092e 39040000 		.4byte	.LASF166
 3754 0932 01       		.byte	0x1
 3755 0933 FA       		.byte	0xfa
 3756 0934 00000000 		.4byte	.LFB75
 3757 0938 90000000 		.4byte	.LFE75-.LFB75
ARM GAS  C:\Users\r\AppData\Local\Temp\ccqe305w.s 			page 79


 3758 093c 01       		.uleb128 0x1
 3759 093d 9C       		.byte	0x9c
 3760 093e 51090000 		.4byte	0x951
 3761 0942 1D       		.uleb128 0x1d
 3762 0943 B9030000 		.4byte	.LASF167
 3763 0947 01       		.byte	0x1
 3764 0948 FA       		.byte	0xfa
 3765 0949 C3000000 		.4byte	0xc3
 3766 094d 02       		.uleb128 0x2
 3767 094e 91       		.byte	0x91
 3768 094f 77       		.sleb128 -9
 3769 0950 00       		.byte	0
 3770 0951 23       		.uleb128 0x23
 3771 0952 13050000 		.4byte	.LASF168
 3772 0956 01       		.byte	0x1
 3773 0957 0601     		.2byte	0x106
 3774 0959 00000000 		.4byte	.LFB76
 3775 095d A4000000 		.4byte	.LFE76-.LFB76
 3776 0961 01       		.uleb128 0x1
 3777 0962 9C       		.byte	0x9c
 3778 0963 93090000 		.4byte	0x993
 3779 0967 24       		.uleb128 0x24
 3780 0968 6A040000 		.4byte	.LASF103
 3781 096c 01       		.byte	0x1
 3782 096d 0601     		.2byte	0x106
 3783 096f 93090000 		.4byte	0x993
 3784 0973 02       		.uleb128 0x2
 3785 0974 91       		.byte	0x91
 3786 0975 6C       		.sleb128 -20
 3787 0976 24       		.uleb128 0x24
 3788 0977 10000000 		.4byte	.LASF158
 3789 097b 01       		.byte	0x1
 3790 097c 0601     		.2byte	0x106
 3791 097e B8000000 		.4byte	0xb8
 3792 0982 02       		.uleb128 0x2
 3793 0983 91       		.byte	0x91
 3794 0984 68       		.sleb128 -24
 3795 0985 25       		.uleb128 0x25
 3796 0986 6900     		.ascii	"i\000"
 3797 0988 01       		.byte	0x1
 3798 0989 0801     		.2byte	0x108
 3799 098b 89000000 		.4byte	0x89
 3800 098f 02       		.uleb128 0x2
 3801 0990 91       		.byte	0x91
 3802 0991 74       		.sleb128 -12
 3803 0992 00       		.byte	0
 3804 0993 07       		.uleb128 0x7
 3805 0994 04       		.byte	0x4
 3806 0995 99090000 		.4byte	0x999
 3807 0999 15       		.uleb128 0x15
 3808 099a 97000000 		.4byte	0x97
 3809 099e 26       		.uleb128 0x26
 3810 099f 1B0B0000 		.4byte	.LASF169
 3811 09a3 01       		.byte	0x1
 3812 09a4 1901     		.2byte	0x119
 3813 09a6 00000000 		.4byte	.LFB77
 3814 09aa 8C000000 		.4byte	.LFE77-.LFB77
ARM GAS  C:\Users\r\AppData\Local\Temp\ccqe305w.s 			page 80


 3815 09ae 01       		.uleb128 0x1
 3816 09af 9C       		.byte	0x9c
 3817 09b0 D3090000 		.4byte	0x9d3
 3818 09b4 24       		.uleb128 0x24
 3819 09b5 6A040000 		.4byte	.LASF103
 3820 09b9 01       		.byte	0x1
 3821 09ba 1901     		.2byte	0x119
 3822 09bc D3090000 		.4byte	0x9d3
 3823 09c0 02       		.uleb128 0x2
 3824 09c1 91       		.byte	0x91
 3825 09c2 74       		.sleb128 -12
 3826 09c3 24       		.uleb128 0x24
 3827 09c4 10000000 		.4byte	.LASF158
 3828 09c8 01       		.byte	0x1
 3829 09c9 1901     		.2byte	0x119
 3830 09cb DB000000 		.4byte	0xdb
 3831 09cf 02       		.uleb128 0x2
 3832 09d0 91       		.byte	0x91
 3833 09d1 70       		.sleb128 -16
 3834 09d2 00       		.byte	0
 3835 09d3 07       		.uleb128 0x7
 3836 09d4 04       		.byte	0x4
 3837 09d5 D9090000 		.4byte	0x9d9
 3838 09d9 15       		.uleb128 0x15
 3839 09da C3000000 		.4byte	0xc3
 3840 09de 27       		.uleb128 0x27
 3841 09df FF090000 		.4byte	.LASF170
 3842 09e3 01       		.byte	0x1
 3843 09e4 3801     		.2byte	0x138
 3844 09e6 00000000 		.4byte	.LFB78
 3845 09ea 54000000 		.4byte	.LFE78-.LFB78
 3846 09ee 01       		.uleb128 0x1
 3847 09ef 9C       		.byte	0x9c
 3848 09f0 220A0000 		.4byte	0xa22
 3849 09f4 24       		.uleb128 0x24
 3850 09f5 6A040000 		.4byte	.LASF103
 3851 09f9 01       		.byte	0x1
 3852 09fa 3801     		.2byte	0x138
 3853 09fc D3090000 		.4byte	0x9d3
 3854 0a00 02       		.uleb128 0x2
 3855 0a01 91       		.byte	0x91
 3856 0a02 6C       		.sleb128 -20
 3857 0a03 24       		.uleb128 0x24
 3858 0a04 10000000 		.4byte	.LASF158
 3859 0a08 01       		.byte	0x1
 3860 0a09 3801     		.2byte	0x138
 3861 0a0b DB000000 		.4byte	0xdb
 3862 0a0f 02       		.uleb128 0x2
 3863 0a10 91       		.byte	0x91
 3864 0a11 68       		.sleb128 -24
 3865 0a12 28       		.uleb128 0x28
 3866 0a13 0A010000 		.4byte	.LASF162
 3867 0a17 01       		.byte	0x1
 3868 0a18 3E01     		.2byte	0x13e
 3869 0a1a B8000000 		.4byte	0xb8
 3870 0a1e 02       		.uleb128 0x2
 3871 0a1f 91       		.byte	0x91
ARM GAS  C:\Users\r\AppData\Local\Temp\ccqe305w.s 			page 81


 3872 0a20 74       		.sleb128 -12
 3873 0a21 00       		.byte	0
 3874 0a22 29       		.uleb128 0x29
 3875 0a23 CF090000 		.4byte	.LASF171
 3876 0a27 01       		.byte	0x1
 3877 0a28 4401     		.2byte	0x144
 3878 0a2a 89000000 		.4byte	0x89
 3879 0a2e 00000000 		.4byte	.LFB79
 3880 0a32 C8000000 		.4byte	.LFE79-.LFB79
 3881 0a36 01       		.uleb128 0x1
 3882 0a37 9C       		.byte	0x9c
 3883 0a38 560A0000 		.4byte	0xa56
 3884 0a3c 1F       		.uleb128 0x1f
 3885 0a3d 56000000 		.4byte	.LBB4
 3886 0a41 48000000 		.4byte	.LBE4-.LBB4
 3887 0a45 28       		.uleb128 0x28
 3888 0a46 10000000 		.4byte	.LASF158
 3889 0a4a 01       		.byte	0x1
 3890 0a4b 5701     		.2byte	0x157
 3891 0a4d B8000000 		.4byte	0xb8
 3892 0a51 02       		.uleb128 0x2
 3893 0a52 91       		.byte	0x91
 3894 0a53 74       		.sleb128 -12
 3895 0a54 00       		.byte	0
 3896 0a55 00       		.byte	0
 3897 0a56 27       		.uleb128 0x27
 3898 0a57 BE040000 		.4byte	.LASF172
 3899 0a5b 01       		.byte	0x1
 3900 0a5c 6501     		.2byte	0x165
 3901 0a5e 00000000 		.4byte	.LFB80
 3902 0a62 5C000000 		.4byte	.LFE80-.LFB80
 3903 0a66 01       		.uleb128 0x1
 3904 0a67 9C       		.byte	0x9c
 3905 0a68 8B0A0000 		.4byte	0xa8b
 3906 0a6c 24       		.uleb128 0x24
 3907 0a6d 6A040000 		.4byte	.LASF103
 3908 0a71 01       		.byte	0x1
 3909 0a72 6501     		.2byte	0x165
 3910 0a74 93090000 		.4byte	0x993
 3911 0a78 02       		.uleb128 0x2
 3912 0a79 91       		.byte	0x91
 3913 0a7a 74       		.sleb128 -12
 3914 0a7b 24       		.uleb128 0x24
 3915 0a7c 10000000 		.4byte	.LASF158
 3916 0a80 01       		.byte	0x1
 3917 0a81 6501     		.2byte	0x165
 3918 0a83 B8000000 		.4byte	0xb8
 3919 0a87 02       		.uleb128 0x2
 3920 0a88 91       		.byte	0x91
 3921 0a89 70       		.sleb128 -16
 3922 0a8a 00       		.byte	0
 3923 0a8b 2A       		.uleb128 0x2a
 3924 0a8c D2010000 		.4byte	.LASF203
 3925 0a90 01       		.byte	0x1
 3926 0a91 7C01     		.2byte	0x17c
 3927 0a93 00000000 		.4byte	.LFB81
 3928 0a97 0E000000 		.4byte	.LFE81-.LFB81
ARM GAS  C:\Users\r\AppData\Local\Temp\ccqe305w.s 			page 82


 3929 0a9b 01       		.uleb128 0x1
 3930 0a9c 9C       		.byte	0x9c
 3931 0a9d 27       		.uleb128 0x27
 3932 0a9e 87070000 		.4byte	.LASF173
 3933 0aa2 01       		.byte	0x1
 3934 0aa3 8301     		.2byte	0x183
 3935 0aa5 00000000 		.4byte	.LFB82
 3936 0aa9 74000000 		.4byte	.LFE82-.LFB82
 3937 0aad 01       		.uleb128 0x1
 3938 0aae 9C       		.byte	0x9c
 3939 0aaf D20A0000 		.4byte	0xad2
 3940 0ab3 24       		.uleb128 0x24
 3941 0ab4 17020000 		.4byte	.LASF102
 3942 0ab8 01       		.byte	0x1
 3943 0ab9 8301     		.2byte	0x183
 3944 0abb 89000000 		.4byte	0x89
 3945 0abf 02       		.uleb128 0x2
 3946 0ac0 91       		.byte	0x91
 3947 0ac1 6C       		.sleb128 -20
 3948 0ac2 28       		.uleb128 0x28
 3949 0ac3 BD090000 		.4byte	.LASF174
 3950 0ac7 01       		.byte	0x1
 3951 0ac8 8A01     		.2byte	0x18a
 3952 0aca 89000000 		.4byte	0x89
 3953 0ace 02       		.uleb128 0x2
 3954 0acf 91       		.byte	0x91
 3955 0ad0 74       		.sleb128 -12
 3956 0ad1 00       		.byte	0
 3957 0ad2 2B       		.uleb128 0x2b
 3958 0ad3 0A020000 		.4byte	.LASF175
 3959 0ad7 01       		.byte	0x1
 3960 0ad8 9A01     		.2byte	0x19a
 3961 0ada 00000000 		.4byte	.LFB83
 3962 0ade 88010000 		.4byte	.LFE83-.LFB83
 3963 0ae2 01       		.uleb128 0x1
 3964 0ae3 9C       		.byte	0x9c
 3965 0ae4 2C       		.uleb128 0x2c
 3966 0ae5 82000000 		.4byte	.LASF204
 3967 0ae9 01       		.byte	0x1
 3968 0aea D801     		.2byte	0x1d8
 3969 0aec 00000000 		.4byte	.LFB84
 3970 0af0 90000000 		.4byte	.LFE84-.LFB84
 3971 0af4 01       		.uleb128 0x1
 3972 0af5 9C       		.byte	0x9c
 3973 0af6 2B       		.uleb128 0x2b
 3974 0af7 1D020000 		.4byte	.LASF176
 3975 0afb 01       		.byte	0x1
 3976 0afc F901     		.2byte	0x1f9
 3977 0afe 00000000 		.4byte	.LFB85
 3978 0b02 20000000 		.4byte	.LFE85-.LFB85
 3979 0b06 01       		.uleb128 0x1
 3980 0b07 9C       		.byte	0x9c
 3981 0b08 27       		.uleb128 0x27
 3982 0b09 AF060000 		.4byte	.LASF177
 3983 0b0d 01       		.byte	0x1
 3984 0b0e 0202     		.2byte	0x202
 3985 0b10 00000000 		.4byte	.LFB86
ARM GAS  C:\Users\r\AppData\Local\Temp\ccqe305w.s 			page 83


 3986 0b14 78000000 		.4byte	.LFE86-.LFB86
 3987 0b18 01       		.uleb128 0x1
 3988 0b19 9C       		.byte	0x9c
 3989 0b1a 380B0000 		.4byte	0xb38
 3990 0b1e 1F       		.uleb128 0x1f
 3991 0b1f 3C000000 		.4byte	.LBB5
 3992 0b23 2A000000 		.4byte	.LBE5-.LBB5
 3993 0b27 28       		.uleb128 0x28
 3994 0b28 BF030000 		.4byte	.LASF178
 3995 0b2c 01       		.byte	0x1
 3996 0b2d 1B02     		.2byte	0x21b
 3997 0b2f A2000000 		.4byte	0xa2
 3998 0b33 02       		.uleb128 0x2
 3999 0b34 91       		.byte	0x91
 4000 0b35 76       		.sleb128 -10
 4001 0b36 00       		.byte	0
 4002 0b37 00       		.byte	0
 4003 0b38 2D       		.uleb128 0x2d
 4004 0b39 7C090000 		.4byte	.LASF180
 4005 0b3d 01       		.byte	0x1
 4006 0b3e 2C02     		.2byte	0x22c
 4007 0b40 89000000 		.4byte	0x89
 4008 0b44 00000000 		.4byte	.LFB87
 4009 0b48 50020000 		.4byte	.LFE87-.LFB87
 4010 0b4c 01       		.uleb128 0x1
 4011 0b4d 9C       		.byte	0x9c
 4012 0b4e A40B0000 		.4byte	0xba4
 4013 0b52 28       		.uleb128 0x28
 4014 0b53 E20A0000 		.4byte	.LASF181
 4015 0b57 01       		.byte	0x1
 4016 0b58 2E02     		.2byte	0x22e
 4017 0b5a 89000000 		.4byte	0x89
 4018 0b5e 02       		.uleb128 0x2
 4019 0b5f 91       		.byte	0x91
 4020 0b60 74       		.sleb128 -12
 4021 0b61 25       		.uleb128 0x25
 4022 0b62 6900     		.ascii	"i\000"
 4023 0b64 01       		.byte	0x1
 4024 0b65 3102     		.2byte	0x231
 4025 0b67 89000000 		.4byte	0x89
 4026 0b6b 02       		.uleb128 0x2
 4027 0b6c 91       		.byte	0x91
 4028 0b6d 70       		.sleb128 -16
 4029 0b6e 28       		.uleb128 0x28
 4030 0b6f E6050000 		.4byte	.LASF182
 4031 0b73 01       		.byte	0x1
 4032 0b74 5A02     		.2byte	0x25a
 4033 0b76 A40B0000 		.4byte	0xba4
 4034 0b7a 02       		.uleb128 0x2
 4035 0b7b 91       		.byte	0x91
 4036 0b7c 60       		.sleb128 -32
 4037 0b7d 28       		.uleb128 0x28
 4038 0b7e C8010000 		.4byte	.LASF183
 4039 0b82 01       		.byte	0x1
 4040 0b83 5B02     		.2byte	0x25b
 4041 0b85 A40B0000 		.4byte	0xba4
 4042 0b89 02       		.uleb128 0x2
ARM GAS  C:\Users\r\AppData\Local\Temp\ccqe305w.s 			page 84


 4043 0b8a 91       		.byte	0x91
 4044 0b8b 54       		.sleb128 -44
 4045 0b8c 1F       		.uleb128 0x1f
 4046 0b8d 60010000 		.4byte	.LBB6
 4047 0b91 BE000000 		.4byte	.LBE6-.LBB6
 4048 0b95 25       		.uleb128 0x25
 4049 0b96 6A00     		.ascii	"j\000"
 4050 0b98 01       		.byte	0x1
 4051 0b99 6202     		.2byte	0x262
 4052 0b9b 89000000 		.4byte	0x89
 4053 0b9f 02       		.uleb128 0x2
 4054 0ba0 91       		.byte	0x91
 4055 0ba1 6C       		.sleb128 -20
 4056 0ba2 00       		.byte	0
 4057 0ba3 00       		.byte	0
 4058 0ba4 09       		.uleb128 0x9
 4059 0ba5 B8000000 		.4byte	0xb8
 4060 0ba9 B40B0000 		.4byte	0xbb4
 4061 0bad 0A       		.uleb128 0xa
 4062 0bae 27010000 		.4byte	0x127
 4063 0bb2 02       		.byte	0x2
 4064 0bb3 00       		.byte	0
 4065 0bb4 1E       		.uleb128 0x1e
 4066 0bb5 6E090000 		.4byte	.LASF184
 4067 0bb9 01       		.byte	0x1
 4068 0bba 1E       		.byte	0x1e
 4069 0bbb 89000000 		.4byte	0x89
 4070 0bbf 05       		.uleb128 0x5
 4071 0bc0 03       		.byte	0x3
 4072 0bc1 00000000 		.4byte	dmaInProgress
 4073 0bc5 1E       		.uleb128 0x1e
 4074 0bc6 AF030000 		.4byte	.LASF185
 4075 0bca 01       		.byte	0x1
 4076 0bcb 20       		.byte	0x20
 4077 0bcc 27090000 		.4byte	0x927
 4078 0bd0 05       		.uleb128 0x5
 4079 0bd1 03       		.byte	0x3
 4080 0bd2 04000000 		.4byte	dmaBuffer
 4081 0bd6 1E       		.uleb128 0x1e
 4082 0bd7 FE0A0000 		.4byte	.LASF186
 4083 0bdb 01       		.byte	0x1
 4084 0bdc 21       		.byte	0x21
 4085 0bdd B8000000 		.4byte	0xb8
 4086 0be1 05       		.uleb128 0x5
 4087 0be2 03       		.byte	0x3
 4088 0be3 08000000 		.4byte	dmaSentCount
 4089 0be7 1E       		.uleb128 0x1e
 4090 0be8 F2040000 		.4byte	.LASF187
 4091 0bec 01       		.byte	0x1
 4092 0bed 22       		.byte	0x22
 4093 0bee B8000000 		.4byte	0xb8
 4094 0bf2 05       		.uleb128 0x5
 4095 0bf3 03       		.byte	0x3
 4096 0bf4 0C000000 		.4byte	dmaTotalCount
 4097 0bf8 1E       		.uleb128 0x1e
 4098 0bf9 27060000 		.4byte	.LASF188
 4099 0bfd 01       		.byte	0x1
ARM GAS  C:\Users\r\AppData\Local\Temp\ccqe305w.s 			page 85


 4100 0bfe 24       		.byte	0x24
 4101 0bff C3000000 		.4byte	0xc3
 4102 0c03 05       		.uleb128 0x5
 4103 0c04 03       		.byte	0x3
 4104 0c05 00000000 		.4byte	scsiDmaRxChan
 4105 0c09 1E       		.uleb128 0x1e
 4106 0c0a 62010000 		.4byte	.LASF189
 4107 0c0e 01       		.byte	0x1
 4108 0c0f 25       		.byte	0x25
 4109 0c10 C3000000 		.4byte	0xc3
 4110 0c14 05       		.uleb128 0x5
 4111 0c15 03       		.byte	0x3
 4112 0c16 01000000 		.4byte	scsiDmaTxChan
 4113 0c1a 09       		.uleb128 0x9
 4114 0c1b C3000000 		.4byte	0xc3
 4115 0c1f 2A0C0000 		.4byte	0xc2a
 4116 0c23 0A       		.uleb128 0xa
 4117 0c24 27010000 		.4byte	0x127
 4118 0c28 00       		.byte	0
 4119 0c29 00       		.byte	0
 4120 0c2a 1E       		.uleb128 0x1e
 4121 0c2b 990A0000 		.4byte	.LASF190
 4122 0c2f 01       		.byte	0x1
 4123 0c30 28       		.byte	0x28
 4124 0c31 1A0C0000 		.4byte	0xc1a
 4125 0c35 05       		.uleb128 0x5
 4126 0c36 03       		.byte	0x3
 4127 0c37 04000000 		.4byte	scsiDmaRxTd
 4128 0c3b 1E       		.uleb128 0x1e
 4129 0c3c 80080000 		.4byte	.LASF191
 4130 0c40 01       		.byte	0x1
 4131 0c41 29       		.byte	0x29
 4132 0c42 1A0C0000 		.4byte	0xc1a
 4133 0c46 05       		.uleb128 0x5
 4134 0c47 03       		.byte	0x3
 4135 0c48 08000000 		.4byte	scsiDmaTxTd
 4136 0c4c 1E       		.uleb128 0x1e
 4137 0c4d 59030000 		.4byte	.LASF192
 4138 0c51 01       		.byte	0x1
 4139 0c52 2C       		.byte	0x2c
 4140 0c53 C3000000 		.4byte	0xc3
 4141 0c57 05       		.uleb128 0x5
 4142 0c58 03       		.byte	0x3
 4143 0c59 09000000 		.4byte	dummyBuffer
 4144 0c5d 2E       		.uleb128 0x2e
 4145 0c5e 55010000 		.4byte	.LASF193
 4146 0c62 0A       		.byte	0xa
 4147 0c63 1207     		.2byte	0x712
 4148 0c65 690C0000 		.4byte	0xc69
 4149 0c69 06       		.uleb128 0x6
 4150 0c6a AD000000 		.4byte	0xad
 4151 0c6e 2F       		.uleb128 0x2f
 4152 0c6f A0050000 		.4byte	.LASF194
 4153 0c73 07       		.byte	0x7
 4154 0c74 9F       		.byte	0x9f
 4155 0c75 84060000 		.4byte	0x684
 4156 0c79 09       		.uleb128 0x9
ARM GAS  C:\Users\r\AppData\Local\Temp\ccqe305w.s 			page 86


 4157 0c7a D9090000 		.4byte	0x9d9
 4158 0c7e 890C0000 		.4byte	0xc89
 4159 0c82 0A       		.uleb128 0xa
 4160 0c83 27010000 		.4byte	0x127
 4161 0c87 FF       		.byte	0xff
 4162 0c88 00       		.byte	0
 4163 0c89 2F       		.uleb128 0x2f
 4164 0c8a 20050000 		.4byte	.LASF195
 4165 0c8e 0B       		.byte	0xb
 4166 0c8f 17       		.byte	0x17
 4167 0c90 940C0000 		.4byte	0xc94
 4168 0c94 15       		.uleb128 0x15
 4169 0c95 790C0000 		.4byte	0xc79
 4170 0c99 30       		.uleb128 0x30
 4171 0c9a 02060000 		.4byte	.LASF196
 4172 0c9e 01       		.byte	0x1
 4173 0c9f 2E       		.byte	0x2e
 4174 0ca0 3E010000 		.4byte	0x13e
 4175 0ca4 05       		.uleb128 0x5
 4176 0ca5 03       		.byte	0x3
 4177 0ca6 00000000 		.4byte	scsiRxDMAComplete
 4178 0caa 30       		.uleb128 0x30
 4179 0cab CA080000 		.4byte	.LASF197
 4180 0caf 01       		.byte	0x1
 4181 0cb0 2F       		.byte	0x2f
 4182 0cb1 3E010000 		.4byte	0x13e
 4183 0cb5 05       		.uleb128 0x5
 4184 0cb6 03       		.byte	0x3
 4185 0cb7 00000000 		.4byte	scsiTxDMAComplete
 4186 0cbb 2F       		.uleb128 0x2f
 4187 0cbc 2D010000 		.4byte	.LASF198
 4188 0cc0 09       		.byte	0x9
 4189 0cc1 12       		.byte	0x12
 4190 0cc2 97000000 		.4byte	0x97
 4191 0cc6 00       		.byte	0
 4192              		.section	.debug_abbrev,"",%progbits
 4193              	.Ldebug_abbrev0:
 4194 0000 01       		.uleb128 0x1
 4195 0001 11       		.uleb128 0x11
 4196 0002 01       		.byte	0x1
 4197 0003 25       		.uleb128 0x25
 4198 0004 0E       		.uleb128 0xe
 4199 0005 13       		.uleb128 0x13
 4200 0006 0B       		.uleb128 0xb
 4201 0007 03       		.uleb128 0x3
 4202 0008 0E       		.uleb128 0xe
 4203 0009 1B       		.uleb128 0x1b
 4204 000a 0E       		.uleb128 0xe
 4205 000b 55       		.uleb128 0x55
 4206 000c 17       		.uleb128 0x17
 4207 000d 11       		.uleb128 0x11
 4208 000e 01       		.uleb128 0x1
 4209 000f 10       		.uleb128 0x10
 4210 0010 17       		.uleb128 0x17
 4211 0011 00       		.byte	0
 4212 0012 00       		.byte	0
 4213 0013 02       		.uleb128 0x2
ARM GAS  C:\Users\r\AppData\Local\Temp\ccqe305w.s 			page 87


 4214 0014 24       		.uleb128 0x24
 4215 0015 00       		.byte	0
 4216 0016 0B       		.uleb128 0xb
 4217 0017 0B       		.uleb128 0xb
 4218 0018 3E       		.uleb128 0x3e
 4219 0019 0B       		.uleb128 0xb
 4220 001a 03       		.uleb128 0x3
 4221 001b 0E       		.uleb128 0xe
 4222 001c 00       		.byte	0
 4223 001d 00       		.byte	0
 4224 001e 03       		.uleb128 0x3
 4225 001f 16       		.uleb128 0x16
 4226 0020 00       		.byte	0
 4227 0021 03       		.uleb128 0x3
 4228 0022 0E       		.uleb128 0xe
 4229 0023 3A       		.uleb128 0x3a
 4230 0024 0B       		.uleb128 0xb
 4231 0025 3B       		.uleb128 0x3b
 4232 0026 0B       		.uleb128 0xb
 4233 0027 49       		.uleb128 0x49
 4234 0028 13       		.uleb128 0x13
 4235 0029 00       		.byte	0
 4236 002a 00       		.byte	0
 4237 002b 04       		.uleb128 0x4
 4238 002c 24       		.uleb128 0x24
 4239 002d 00       		.byte	0
 4240 002e 0B       		.uleb128 0xb
 4241 002f 0B       		.uleb128 0xb
 4242 0030 3E       		.uleb128 0x3e
 4243 0031 0B       		.uleb128 0xb
 4244 0032 03       		.uleb128 0x3
 4245 0033 08       		.uleb128 0x8
 4246 0034 00       		.byte	0
 4247 0035 00       		.byte	0
 4248 0036 05       		.uleb128 0x5
 4249 0037 16       		.uleb128 0x16
 4250 0038 00       		.byte	0
 4251 0039 03       		.uleb128 0x3
 4252 003a 0E       		.uleb128 0xe
 4253 003b 3A       		.uleb128 0x3a
 4254 003c 0B       		.uleb128 0xb
 4255 003d 3B       		.uleb128 0x3b
 4256 003e 05       		.uleb128 0x5
 4257 003f 49       		.uleb128 0x49
 4258 0040 13       		.uleb128 0x13
 4259 0041 00       		.byte	0
 4260 0042 00       		.byte	0
 4261 0043 06       		.uleb128 0x6
 4262 0044 35       		.uleb128 0x35
 4263 0045 00       		.byte	0
 4264 0046 49       		.uleb128 0x49
 4265 0047 13       		.uleb128 0x13
 4266 0048 00       		.byte	0
 4267 0049 00       		.byte	0
 4268 004a 07       		.uleb128 0x7
 4269 004b 0F       		.uleb128 0xf
 4270 004c 00       		.byte	0
ARM GAS  C:\Users\r\AppData\Local\Temp\ccqe305w.s 			page 88


 4271 004d 0B       		.uleb128 0xb
 4272 004e 0B       		.uleb128 0xb
 4273 004f 49       		.uleb128 0x49
 4274 0050 13       		.uleb128 0x13
 4275 0051 00       		.byte	0
 4276 0052 00       		.byte	0
 4277 0053 08       		.uleb128 0x8
 4278 0054 15       		.uleb128 0x15
 4279 0055 00       		.byte	0
 4280 0056 27       		.uleb128 0x27
 4281 0057 19       		.uleb128 0x19
 4282 0058 00       		.byte	0
 4283 0059 00       		.byte	0
 4284 005a 09       		.uleb128 0x9
 4285 005b 01       		.uleb128 0x1
 4286 005c 01       		.byte	0x1
 4287 005d 49       		.uleb128 0x49
 4288 005e 13       		.uleb128 0x13
 4289 005f 01       		.uleb128 0x1
 4290 0060 13       		.uleb128 0x13
 4291 0061 00       		.byte	0
 4292 0062 00       		.byte	0
 4293 0063 0A       		.uleb128 0xa
 4294 0064 21       		.uleb128 0x21
 4295 0065 00       		.byte	0
 4296 0066 49       		.uleb128 0x49
 4297 0067 13       		.uleb128 0x13
 4298 0068 2F       		.uleb128 0x2f
 4299 0069 0B       		.uleb128 0xb
 4300 006a 00       		.byte	0
 4301 006b 00       		.byte	0
 4302 006c 0B       		.uleb128 0xb
 4303 006d 04       		.uleb128 0x4
 4304 006e 01       		.byte	0x1
 4305 006f 0B       		.uleb128 0xb
 4306 0070 0B       		.uleb128 0xb
 4307 0071 49       		.uleb128 0x49
 4308 0072 13       		.uleb128 0x13
 4309 0073 3A       		.uleb128 0x3a
 4310 0074 0B       		.uleb128 0xb
 4311 0075 3B       		.uleb128 0x3b
 4312 0076 0B       		.uleb128 0xb
 4313 0077 01       		.uleb128 0x1
 4314 0078 13       		.uleb128 0x13
 4315 0079 00       		.byte	0
 4316 007a 00       		.byte	0
 4317 007b 0C       		.uleb128 0xc
 4318 007c 28       		.uleb128 0x28
 4319 007d 00       		.byte	0
 4320 007e 03       		.uleb128 0x3
 4321 007f 0E       		.uleb128 0xe
 4322 0080 1C       		.uleb128 0x1c
 4323 0081 0B       		.uleb128 0xb
 4324 0082 00       		.byte	0
 4325 0083 00       		.byte	0
 4326 0084 0D       		.uleb128 0xd
 4327 0085 13       		.uleb128 0x13
ARM GAS  C:\Users\r\AppData\Local\Temp\ccqe305w.s 			page 89


 4328 0086 01       		.byte	0x1
 4329 0087 0B       		.uleb128 0xb
 4330 0088 05       		.uleb128 0x5
 4331 0089 3A       		.uleb128 0x3a
 4332 008a 0B       		.uleb128 0xb
 4333 008b 3B       		.uleb128 0x3b
 4334 008c 0B       		.uleb128 0xb
 4335 008d 01       		.uleb128 0x1
 4336 008e 13       		.uleb128 0x13
 4337 008f 00       		.byte	0
 4338 0090 00       		.byte	0
 4339 0091 0E       		.uleb128 0xe
 4340 0092 0D       		.uleb128 0xd
 4341 0093 00       		.byte	0
 4342 0094 03       		.uleb128 0x3
 4343 0095 0E       		.uleb128 0xe
 4344 0096 3A       		.uleb128 0x3a
 4345 0097 0B       		.uleb128 0xb
 4346 0098 3B       		.uleb128 0x3b
 4347 0099 0B       		.uleb128 0xb
 4348 009a 49       		.uleb128 0x49
 4349 009b 13       		.uleb128 0x13
 4350 009c 38       		.uleb128 0x38
 4351 009d 0B       		.uleb128 0xb
 4352 009e 00       		.byte	0
 4353 009f 00       		.byte	0
 4354 00a0 0F       		.uleb128 0xf
 4355 00a1 0D       		.uleb128 0xd
 4356 00a2 00       		.byte	0
 4357 00a3 03       		.uleb128 0x3
 4358 00a4 0E       		.uleb128 0xe
 4359 00a5 3A       		.uleb128 0x3a
 4360 00a6 0B       		.uleb128 0xb
 4361 00a7 3B       		.uleb128 0x3b
 4362 00a8 0B       		.uleb128 0xb
 4363 00a9 49       		.uleb128 0x49
 4364 00aa 13       		.uleb128 0x13
 4365 00ab 38       		.uleb128 0x38
 4366 00ac 05       		.uleb128 0x5
 4367 00ad 00       		.byte	0
 4368 00ae 00       		.byte	0
 4369 00af 10       		.uleb128 0x10
 4370 00b0 0D       		.uleb128 0xd
 4371 00b1 00       		.byte	0
 4372 00b2 03       		.uleb128 0x3
 4373 00b3 08       		.uleb128 0x8
 4374 00b4 3A       		.uleb128 0x3a
 4375 00b5 0B       		.uleb128 0xb
 4376 00b6 3B       		.uleb128 0x3b
 4377 00b7 0B       		.uleb128 0xb
 4378 00b8 49       		.uleb128 0x49
 4379 00b9 13       		.uleb128 0x13
 4380 00ba 38       		.uleb128 0x38
 4381 00bb 05       		.uleb128 0x5
 4382 00bc 00       		.byte	0
 4383 00bd 00       		.byte	0
 4384 00be 11       		.uleb128 0x11
ARM GAS  C:\Users\r\AppData\Local\Temp\ccqe305w.s 			page 90


 4385 00bf 21       		.uleb128 0x21
 4386 00c0 00       		.byte	0
 4387 00c1 49       		.uleb128 0x49
 4388 00c2 13       		.uleb128 0x13
 4389 00c3 2F       		.uleb128 0x2f
 4390 00c4 05       		.uleb128 0x5
 4391 00c5 00       		.byte	0
 4392 00c6 00       		.byte	0
 4393 00c7 12       		.uleb128 0x12
 4394 00c8 13       		.uleb128 0x13
 4395 00c9 01       		.byte	0x1
 4396 00ca 0B       		.uleb128 0xb
 4397 00cb 0B       		.uleb128 0xb
 4398 00cc 3A       		.uleb128 0x3a
 4399 00cd 0B       		.uleb128 0xb
 4400 00ce 3B       		.uleb128 0x3b
 4401 00cf 0B       		.uleb128 0xb
 4402 00d0 01       		.uleb128 0x1
 4403 00d1 13       		.uleb128 0x13
 4404 00d2 00       		.byte	0
 4405 00d3 00       		.byte	0
 4406 00d4 13       		.uleb128 0x13
 4407 00d5 0D       		.uleb128 0xd
 4408 00d6 00       		.byte	0
 4409 00d7 03       		.uleb128 0x3
 4410 00d8 08       		.uleb128 0x8
 4411 00d9 3A       		.uleb128 0x3a
 4412 00da 0B       		.uleb128 0xb
 4413 00db 3B       		.uleb128 0x3b
 4414 00dc 0B       		.uleb128 0xb
 4415 00dd 49       		.uleb128 0x49
 4416 00de 13       		.uleb128 0x13
 4417 00df 38       		.uleb128 0x38
 4418 00e0 0B       		.uleb128 0xb
 4419 00e1 00       		.byte	0
 4420 00e2 00       		.byte	0
 4421 00e3 14       		.uleb128 0x14
 4422 00e4 28       		.uleb128 0x28
 4423 00e5 00       		.byte	0
 4424 00e6 03       		.uleb128 0x3
 4425 00e7 0E       		.uleb128 0xe
 4426 00e8 1C       		.uleb128 0x1c
 4427 00e9 0D       		.uleb128 0xd
 4428 00ea 00       		.byte	0
 4429 00eb 00       		.byte	0
 4430 00ec 15       		.uleb128 0x15
 4431 00ed 26       		.uleb128 0x26
 4432 00ee 00       		.byte	0
 4433 00ef 49       		.uleb128 0x49
 4434 00f0 13       		.uleb128 0x13
 4435 00f1 00       		.byte	0
 4436 00f2 00       		.byte	0
 4437 00f3 16       		.uleb128 0x16
 4438 00f4 04       		.uleb128 0x4
 4439 00f5 01       		.byte	0x1
 4440 00f6 03       		.uleb128 0x3
 4441 00f7 0E       		.uleb128 0xe
ARM GAS  C:\Users\r\AppData\Local\Temp\ccqe305w.s 			page 91


 4442 00f8 0B       		.uleb128 0xb
 4443 00f9 0B       		.uleb128 0xb
 4444 00fa 49       		.uleb128 0x49
 4445 00fb 13       		.uleb128 0x13
 4446 00fc 3A       		.uleb128 0x3a
 4447 00fd 0B       		.uleb128 0xb
 4448 00fe 3B       		.uleb128 0x3b
 4449 00ff 0B       		.uleb128 0xb
 4450 0100 01       		.uleb128 0x1
 4451 0101 13       		.uleb128 0x13
 4452 0102 00       		.byte	0
 4453 0103 00       		.byte	0
 4454 0104 17       		.uleb128 0x17
 4455 0105 2E       		.uleb128 0x2e
 4456 0106 00       		.byte	0
 4457 0107 3F       		.uleb128 0x3f
 4458 0108 19       		.uleb128 0x19
 4459 0109 03       		.uleb128 0x3
 4460 010a 0E       		.uleb128 0xe
 4461 010b 3A       		.uleb128 0x3a
 4462 010c 0B       		.uleb128 0xb
 4463 010d 3B       		.uleb128 0x3b
 4464 010e 0B       		.uleb128 0xb
 4465 010f 27       		.uleb128 0x27
 4466 0110 19       		.uleb128 0x19
 4467 0111 11       		.uleb128 0x11
 4468 0112 01       		.uleb128 0x1
 4469 0113 12       		.uleb128 0x12
 4470 0114 06       		.uleb128 0x6
 4471 0115 40       		.uleb128 0x40
 4472 0116 18       		.uleb128 0x18
 4473 0117 9742     		.uleb128 0x2117
 4474 0119 19       		.uleb128 0x19
 4475 011a 00       		.byte	0
 4476 011b 00       		.byte	0
 4477 011c 18       		.uleb128 0x18
 4478 011d 2E       		.uleb128 0x2e
 4479 011e 00       		.byte	0
 4480 011f 3F       		.uleb128 0x3f
 4481 0120 19       		.uleb128 0x19
 4482 0121 03       		.uleb128 0x3
 4483 0122 0E       		.uleb128 0xe
 4484 0123 3A       		.uleb128 0x3a
 4485 0124 0B       		.uleb128 0xb
 4486 0125 3B       		.uleb128 0x3b
 4487 0126 0B       		.uleb128 0xb
 4488 0127 27       		.uleb128 0x27
 4489 0128 19       		.uleb128 0x19
 4490 0129 11       		.uleb128 0x11
 4491 012a 01       		.uleb128 0x1
 4492 012b 12       		.uleb128 0x12
 4493 012c 06       		.uleb128 0x6
 4494 012d 40       		.uleb128 0x40
 4495 012e 18       		.uleb128 0x18
 4496 012f 9642     		.uleb128 0x2116
 4497 0131 19       		.uleb128 0x19
 4498 0132 00       		.byte	0
ARM GAS  C:\Users\r\AppData\Local\Temp\ccqe305w.s 			page 92


 4499 0133 00       		.byte	0
 4500 0134 19       		.uleb128 0x19
 4501 0135 2E       		.uleb128 0x2e
 4502 0136 00       		.byte	0
 4503 0137 3F       		.uleb128 0x3f
 4504 0138 19       		.uleb128 0x19
 4505 0139 03       		.uleb128 0x3
 4506 013a 0E       		.uleb128 0xe
 4507 013b 3A       		.uleb128 0x3a
 4508 013c 0B       		.uleb128 0xb
 4509 013d 3B       		.uleb128 0x3b
 4510 013e 0B       		.uleb128 0xb
 4511 013f 27       		.uleb128 0x27
 4512 0140 19       		.uleb128 0x19
 4513 0141 49       		.uleb128 0x49
 4514 0142 13       		.uleb128 0x13
 4515 0143 11       		.uleb128 0x11
 4516 0144 01       		.uleb128 0x1
 4517 0145 12       		.uleb128 0x12
 4518 0146 06       		.uleb128 0x6
 4519 0147 40       		.uleb128 0x40
 4520 0148 18       		.uleb128 0x18
 4521 0149 9742     		.uleb128 0x2117
 4522 014b 19       		.uleb128 0x19
 4523 014c 00       		.byte	0
 4524 014d 00       		.byte	0
 4525 014e 1A       		.uleb128 0x1a
 4526 014f 2E       		.uleb128 0x2e
 4527 0150 01       		.byte	0x1
 4528 0151 3F       		.uleb128 0x3f
 4529 0152 19       		.uleb128 0x19
 4530 0153 03       		.uleb128 0x3
 4531 0154 0E       		.uleb128 0xe
 4532 0155 3A       		.uleb128 0x3a
 4533 0156 0B       		.uleb128 0xb
 4534 0157 3B       		.uleb128 0x3b
 4535 0158 0B       		.uleb128 0xb
 4536 0159 27       		.uleb128 0x27
 4537 015a 19       		.uleb128 0x19
 4538 015b 49       		.uleb128 0x49
 4539 015c 13       		.uleb128 0x13
 4540 015d 11       		.uleb128 0x11
 4541 015e 01       		.uleb128 0x1
 4542 015f 12       		.uleb128 0x12
 4543 0160 06       		.uleb128 0x6
 4544 0161 40       		.uleb128 0x40
 4545 0162 18       		.uleb128 0x18
 4546 0163 9642     		.uleb128 0x2116
 4547 0165 19       		.uleb128 0x19
 4548 0166 01       		.uleb128 0x1
 4549 0167 13       		.uleb128 0x13
 4550 0168 00       		.byte	0
 4551 0169 00       		.byte	0
 4552 016a 1B       		.uleb128 0x1b
 4553 016b 34       		.uleb128 0x34
 4554 016c 00       		.byte	0
 4555 016d 03       		.uleb128 0x3
ARM GAS  C:\Users\r\AppData\Local\Temp\ccqe305w.s 			page 93


 4556 016e 08       		.uleb128 0x8
 4557 016f 3A       		.uleb128 0x3a
 4558 0170 0B       		.uleb128 0xb
 4559 0171 3B       		.uleb128 0x3b
 4560 0172 0B       		.uleb128 0xb
 4561 0173 49       		.uleb128 0x49
 4562 0174 13       		.uleb128 0x13
 4563 0175 02       		.uleb128 0x2
 4564 0176 18       		.uleb128 0x18
 4565 0177 00       		.byte	0
 4566 0178 00       		.byte	0
 4567 0179 1C       		.uleb128 0x1c
 4568 017a 2E       		.uleb128 0x2e
 4569 017b 01       		.byte	0x1
 4570 017c 03       		.uleb128 0x3
 4571 017d 0E       		.uleb128 0xe
 4572 017e 3A       		.uleb128 0x3a
 4573 017f 0B       		.uleb128 0xb
 4574 0180 3B       		.uleb128 0x3b
 4575 0181 0B       		.uleb128 0xb
 4576 0182 27       		.uleb128 0x27
 4577 0183 19       		.uleb128 0x19
 4578 0184 11       		.uleb128 0x11
 4579 0185 01       		.uleb128 0x1
 4580 0186 12       		.uleb128 0x12
 4581 0187 06       		.uleb128 0x6
 4582 0188 40       		.uleb128 0x40
 4583 0189 18       		.uleb128 0x18
 4584 018a 9642     		.uleb128 0x2116
 4585 018c 19       		.uleb128 0x19
 4586 018d 01       		.uleb128 0x1
 4587 018e 13       		.uleb128 0x13
 4588 018f 00       		.byte	0
 4589 0190 00       		.byte	0
 4590 0191 1D       		.uleb128 0x1d
 4591 0192 05       		.uleb128 0x5
 4592 0193 00       		.byte	0
 4593 0194 03       		.uleb128 0x3
 4594 0195 0E       		.uleb128 0xe
 4595 0196 3A       		.uleb128 0x3a
 4596 0197 0B       		.uleb128 0xb
 4597 0198 3B       		.uleb128 0x3b
 4598 0199 0B       		.uleb128 0xb
 4599 019a 49       		.uleb128 0x49
 4600 019b 13       		.uleb128 0x13
 4601 019c 02       		.uleb128 0x2
 4602 019d 18       		.uleb128 0x18
 4603 019e 00       		.byte	0
 4604 019f 00       		.byte	0
 4605 01a0 1E       		.uleb128 0x1e
 4606 01a1 34       		.uleb128 0x34
 4607 01a2 00       		.byte	0
 4608 01a3 03       		.uleb128 0x3
 4609 01a4 0E       		.uleb128 0xe
 4610 01a5 3A       		.uleb128 0x3a
 4611 01a6 0B       		.uleb128 0xb
 4612 01a7 3B       		.uleb128 0x3b
ARM GAS  C:\Users\r\AppData\Local\Temp\ccqe305w.s 			page 94


 4613 01a8 0B       		.uleb128 0xb
 4614 01a9 49       		.uleb128 0x49
 4615 01aa 13       		.uleb128 0x13
 4616 01ab 02       		.uleb128 0x2
 4617 01ac 18       		.uleb128 0x18
 4618 01ad 00       		.byte	0
 4619 01ae 00       		.byte	0
 4620 01af 1F       		.uleb128 0x1f
 4621 01b0 0B       		.uleb128 0xb
 4622 01b1 01       		.byte	0x1
 4623 01b2 11       		.uleb128 0x11
 4624 01b3 01       		.uleb128 0x1
 4625 01b4 12       		.uleb128 0x12
 4626 01b5 06       		.uleb128 0x6
 4627 01b6 00       		.byte	0
 4628 01b7 00       		.byte	0
 4629 01b8 20       		.uleb128 0x20
 4630 01b9 2E       		.uleb128 0x2e
 4631 01ba 01       		.byte	0x1
 4632 01bb 3F       		.uleb128 0x3f
 4633 01bc 19       		.uleb128 0x19
 4634 01bd 03       		.uleb128 0x3
 4635 01be 0E       		.uleb128 0xe
 4636 01bf 3A       		.uleb128 0x3a
 4637 01c0 0B       		.uleb128 0xb
 4638 01c1 3B       		.uleb128 0x3b
 4639 01c2 0B       		.uleb128 0xb
 4640 01c3 27       		.uleb128 0x27
 4641 01c4 19       		.uleb128 0x19
 4642 01c5 11       		.uleb128 0x11
 4643 01c6 01       		.uleb128 0x1
 4644 01c7 12       		.uleb128 0x12
 4645 01c8 06       		.uleb128 0x6
 4646 01c9 40       		.uleb128 0x40
 4647 01ca 18       		.uleb128 0x18
 4648 01cb 9642     		.uleb128 0x2116
 4649 01cd 19       		.uleb128 0x19
 4650 01ce 01       		.uleb128 0x1
 4651 01cf 13       		.uleb128 0x13
 4652 01d0 00       		.byte	0
 4653 01d1 00       		.byte	0
 4654 01d2 21       		.uleb128 0x21
 4655 01d3 2E       		.uleb128 0x2e
 4656 01d4 01       		.byte	0x1
 4657 01d5 3F       		.uleb128 0x3f
 4658 01d6 19       		.uleb128 0x19
 4659 01d7 03       		.uleb128 0x3
 4660 01d8 0E       		.uleb128 0xe
 4661 01d9 3A       		.uleb128 0x3a
 4662 01da 0B       		.uleb128 0xb
 4663 01db 3B       		.uleb128 0x3b
 4664 01dc 0B       		.uleb128 0xb
 4665 01dd 49       		.uleb128 0x49
 4666 01de 13       		.uleb128 0x13
 4667 01df 11       		.uleb128 0x11
 4668 01e0 01       		.uleb128 0x1
 4669 01e1 12       		.uleb128 0x12
ARM GAS  C:\Users\r\AppData\Local\Temp\ccqe305w.s 			page 95


 4670 01e2 06       		.uleb128 0x6
 4671 01e3 40       		.uleb128 0x40
 4672 01e4 18       		.uleb128 0x18
 4673 01e5 9642     		.uleb128 0x2116
 4674 01e7 19       		.uleb128 0x19
 4675 01e8 01       		.uleb128 0x1
 4676 01e9 13       		.uleb128 0x13
 4677 01ea 00       		.byte	0
 4678 01eb 00       		.byte	0
 4679 01ec 22       		.uleb128 0x22
 4680 01ed 2E       		.uleb128 0x2e
 4681 01ee 01       		.byte	0x1
 4682 01ef 3F       		.uleb128 0x3f
 4683 01f0 19       		.uleb128 0x19
 4684 01f1 03       		.uleb128 0x3
 4685 01f2 0E       		.uleb128 0xe
 4686 01f3 3A       		.uleb128 0x3a
 4687 01f4 0B       		.uleb128 0xb
 4688 01f5 3B       		.uleb128 0x3b
 4689 01f6 0B       		.uleb128 0xb
 4690 01f7 27       		.uleb128 0x27
 4691 01f8 19       		.uleb128 0x19
 4692 01f9 11       		.uleb128 0x11
 4693 01fa 01       		.uleb128 0x1
 4694 01fb 12       		.uleb128 0x12
 4695 01fc 06       		.uleb128 0x6
 4696 01fd 40       		.uleb128 0x40
 4697 01fe 18       		.uleb128 0x18
 4698 01ff 9742     		.uleb128 0x2117
 4699 0201 19       		.uleb128 0x19
 4700 0202 01       		.uleb128 0x1
 4701 0203 13       		.uleb128 0x13
 4702 0204 00       		.byte	0
 4703 0205 00       		.byte	0
 4704 0206 23       		.uleb128 0x23
 4705 0207 2E       		.uleb128 0x2e
 4706 0208 01       		.byte	0x1
 4707 0209 03       		.uleb128 0x3
 4708 020a 0E       		.uleb128 0xe
 4709 020b 3A       		.uleb128 0x3a
 4710 020c 0B       		.uleb128 0xb
 4711 020d 3B       		.uleb128 0x3b
 4712 020e 05       		.uleb128 0x5
 4713 020f 27       		.uleb128 0x27
 4714 0210 19       		.uleb128 0x19
 4715 0211 11       		.uleb128 0x11
 4716 0212 01       		.uleb128 0x1
 4717 0213 12       		.uleb128 0x12
 4718 0214 06       		.uleb128 0x6
 4719 0215 40       		.uleb128 0x40
 4720 0216 18       		.uleb128 0x18
 4721 0217 9742     		.uleb128 0x2117
 4722 0219 19       		.uleb128 0x19
 4723 021a 01       		.uleb128 0x1
 4724 021b 13       		.uleb128 0x13
 4725 021c 00       		.byte	0
 4726 021d 00       		.byte	0
ARM GAS  C:\Users\r\AppData\Local\Temp\ccqe305w.s 			page 96


 4727 021e 24       		.uleb128 0x24
 4728 021f 05       		.uleb128 0x5
 4729 0220 00       		.byte	0
 4730 0221 03       		.uleb128 0x3
 4731 0222 0E       		.uleb128 0xe
 4732 0223 3A       		.uleb128 0x3a
 4733 0224 0B       		.uleb128 0xb
 4734 0225 3B       		.uleb128 0x3b
 4735 0226 05       		.uleb128 0x5
 4736 0227 49       		.uleb128 0x49
 4737 0228 13       		.uleb128 0x13
 4738 0229 02       		.uleb128 0x2
 4739 022a 18       		.uleb128 0x18
 4740 022b 00       		.byte	0
 4741 022c 00       		.byte	0
 4742 022d 25       		.uleb128 0x25
 4743 022e 34       		.uleb128 0x34
 4744 022f 00       		.byte	0
 4745 0230 03       		.uleb128 0x3
 4746 0231 08       		.uleb128 0x8
 4747 0232 3A       		.uleb128 0x3a
 4748 0233 0B       		.uleb128 0xb
 4749 0234 3B       		.uleb128 0x3b
 4750 0235 05       		.uleb128 0x5
 4751 0236 49       		.uleb128 0x49
 4752 0237 13       		.uleb128 0x13
 4753 0238 02       		.uleb128 0x2
 4754 0239 18       		.uleb128 0x18
 4755 023a 00       		.byte	0
 4756 023b 00       		.byte	0
 4757 023c 26       		.uleb128 0x26
 4758 023d 2E       		.uleb128 0x2e
 4759 023e 01       		.byte	0x1
 4760 023f 03       		.uleb128 0x3
 4761 0240 0E       		.uleb128 0xe
 4762 0241 3A       		.uleb128 0x3a
 4763 0242 0B       		.uleb128 0xb
 4764 0243 3B       		.uleb128 0x3b
 4765 0244 05       		.uleb128 0x5
 4766 0245 27       		.uleb128 0x27
 4767 0246 19       		.uleb128 0x19
 4768 0247 11       		.uleb128 0x11
 4769 0248 01       		.uleb128 0x1
 4770 0249 12       		.uleb128 0x12
 4771 024a 06       		.uleb128 0x6
 4772 024b 40       		.uleb128 0x40
 4773 024c 18       		.uleb128 0x18
 4774 024d 9642     		.uleb128 0x2116
 4775 024f 19       		.uleb128 0x19
 4776 0250 01       		.uleb128 0x1
 4777 0251 13       		.uleb128 0x13
 4778 0252 00       		.byte	0
 4779 0253 00       		.byte	0
 4780 0254 27       		.uleb128 0x27
 4781 0255 2E       		.uleb128 0x2e
 4782 0256 01       		.byte	0x1
 4783 0257 3F       		.uleb128 0x3f
ARM GAS  C:\Users\r\AppData\Local\Temp\ccqe305w.s 			page 97


 4784 0258 19       		.uleb128 0x19
 4785 0259 03       		.uleb128 0x3
 4786 025a 0E       		.uleb128 0xe
 4787 025b 3A       		.uleb128 0x3a
 4788 025c 0B       		.uleb128 0xb
 4789 025d 3B       		.uleb128 0x3b
 4790 025e 05       		.uleb128 0x5
 4791 025f 27       		.uleb128 0x27
 4792 0260 19       		.uleb128 0x19
 4793 0261 11       		.uleb128 0x11
 4794 0262 01       		.uleb128 0x1
 4795 0263 12       		.uleb128 0x12
 4796 0264 06       		.uleb128 0x6
 4797 0265 40       		.uleb128 0x40
 4798 0266 18       		.uleb128 0x18
 4799 0267 9642     		.uleb128 0x2116
 4800 0269 19       		.uleb128 0x19
 4801 026a 01       		.uleb128 0x1
 4802 026b 13       		.uleb128 0x13
 4803 026c 00       		.byte	0
 4804 026d 00       		.byte	0
 4805 026e 28       		.uleb128 0x28
 4806 026f 34       		.uleb128 0x34
 4807 0270 00       		.byte	0
 4808 0271 03       		.uleb128 0x3
 4809 0272 0E       		.uleb128 0xe
 4810 0273 3A       		.uleb128 0x3a
 4811 0274 0B       		.uleb128 0xb
 4812 0275 3B       		.uleb128 0x3b
 4813 0276 05       		.uleb128 0x5
 4814 0277 49       		.uleb128 0x49
 4815 0278 13       		.uleb128 0x13
 4816 0279 02       		.uleb128 0x2
 4817 027a 18       		.uleb128 0x18
 4818 027b 00       		.byte	0
 4819 027c 00       		.byte	0
 4820 027d 29       		.uleb128 0x29
 4821 027e 2E       		.uleb128 0x2e
 4822 027f 01       		.byte	0x1
 4823 0280 3F       		.uleb128 0x3f
 4824 0281 19       		.uleb128 0x19
 4825 0282 03       		.uleb128 0x3
 4826 0283 0E       		.uleb128 0xe
 4827 0284 3A       		.uleb128 0x3a
 4828 0285 0B       		.uleb128 0xb
 4829 0286 3B       		.uleb128 0x3b
 4830 0287 05       		.uleb128 0x5
 4831 0288 49       		.uleb128 0x49
 4832 0289 13       		.uleb128 0x13
 4833 028a 11       		.uleb128 0x11
 4834 028b 01       		.uleb128 0x1
 4835 028c 12       		.uleb128 0x12
 4836 028d 06       		.uleb128 0x6
 4837 028e 40       		.uleb128 0x40
 4838 028f 18       		.uleb128 0x18
 4839 0290 9642     		.uleb128 0x2116
 4840 0292 19       		.uleb128 0x19
ARM GAS  C:\Users\r\AppData\Local\Temp\ccqe305w.s 			page 98


 4841 0293 01       		.uleb128 0x1
 4842 0294 13       		.uleb128 0x13
 4843 0295 00       		.byte	0
 4844 0296 00       		.byte	0
 4845 0297 2A       		.uleb128 0x2a
 4846 0298 2E       		.uleb128 0x2e
 4847 0299 00       		.byte	0
 4848 029a 03       		.uleb128 0x3
 4849 029b 0E       		.uleb128 0xe
 4850 029c 3A       		.uleb128 0x3a
 4851 029d 0B       		.uleb128 0xb
 4852 029e 3B       		.uleb128 0x3b
 4853 029f 05       		.uleb128 0x5
 4854 02a0 27       		.uleb128 0x27
 4855 02a1 19       		.uleb128 0x19
 4856 02a2 11       		.uleb128 0x11
 4857 02a3 01       		.uleb128 0x1
 4858 02a4 12       		.uleb128 0x12
 4859 02a5 06       		.uleb128 0x6
 4860 02a6 40       		.uleb128 0x40
 4861 02a7 18       		.uleb128 0x18
 4862 02a8 9642     		.uleb128 0x2116
 4863 02aa 19       		.uleb128 0x19
 4864 02ab 00       		.byte	0
 4865 02ac 00       		.byte	0
 4866 02ad 2B       		.uleb128 0x2b
 4867 02ae 2E       		.uleb128 0x2e
 4868 02af 00       		.byte	0
 4869 02b0 3F       		.uleb128 0x3f
 4870 02b1 19       		.uleb128 0x19
 4871 02b2 03       		.uleb128 0x3
 4872 02b3 0E       		.uleb128 0xe
 4873 02b4 3A       		.uleb128 0x3a
 4874 02b5 0B       		.uleb128 0xb
 4875 02b6 3B       		.uleb128 0x3b
 4876 02b7 05       		.uleb128 0x5
 4877 02b8 27       		.uleb128 0x27
 4878 02b9 19       		.uleb128 0x19
 4879 02ba 11       		.uleb128 0x11
 4880 02bb 01       		.uleb128 0x1
 4881 02bc 12       		.uleb128 0x12
 4882 02bd 06       		.uleb128 0x6
 4883 02be 40       		.uleb128 0x40
 4884 02bf 18       		.uleb128 0x18
 4885 02c0 9642     		.uleb128 0x2116
 4886 02c2 19       		.uleb128 0x19
 4887 02c3 00       		.byte	0
 4888 02c4 00       		.byte	0
 4889 02c5 2C       		.uleb128 0x2c
 4890 02c6 2E       		.uleb128 0x2e
 4891 02c7 00       		.byte	0
 4892 02c8 03       		.uleb128 0x3
 4893 02c9 0E       		.uleb128 0xe
 4894 02ca 3A       		.uleb128 0x3a
 4895 02cb 0B       		.uleb128 0xb
 4896 02cc 3B       		.uleb128 0x3b
 4897 02cd 05       		.uleb128 0x5
ARM GAS  C:\Users\r\AppData\Local\Temp\ccqe305w.s 			page 99


 4898 02ce 11       		.uleb128 0x11
 4899 02cf 01       		.uleb128 0x1
 4900 02d0 12       		.uleb128 0x12
 4901 02d1 06       		.uleb128 0x6
 4902 02d2 40       		.uleb128 0x40
 4903 02d3 18       		.uleb128 0x18
 4904 02d4 9642     		.uleb128 0x2116
 4905 02d6 19       		.uleb128 0x19
 4906 02d7 00       		.byte	0
 4907 02d8 00       		.byte	0
 4908 02d9 2D       		.uleb128 0x2d
 4909 02da 2E       		.uleb128 0x2e
 4910 02db 01       		.byte	0x1
 4911 02dc 3F       		.uleb128 0x3f
 4912 02dd 19       		.uleb128 0x19
 4913 02de 03       		.uleb128 0x3
 4914 02df 0E       		.uleb128 0xe
 4915 02e0 3A       		.uleb128 0x3a
 4916 02e1 0B       		.uleb128 0xb
 4917 02e2 3B       		.uleb128 0x3b
 4918 02e3 05       		.uleb128 0x5
 4919 02e4 27       		.uleb128 0x27
 4920 02e5 19       		.uleb128 0x19
 4921 02e6 49       		.uleb128 0x49
 4922 02e7 13       		.uleb128 0x13
 4923 02e8 11       		.uleb128 0x11
 4924 02e9 01       		.uleb128 0x1
 4925 02ea 12       		.uleb128 0x12
 4926 02eb 06       		.uleb128 0x6
 4927 02ec 40       		.uleb128 0x40
 4928 02ed 18       		.uleb128 0x18
 4929 02ee 9642     		.uleb128 0x2116
 4930 02f0 19       		.uleb128 0x19
 4931 02f1 01       		.uleb128 0x1
 4932 02f2 13       		.uleb128 0x13
 4933 02f3 00       		.byte	0
 4934 02f4 00       		.byte	0
 4935 02f5 2E       		.uleb128 0x2e
 4936 02f6 34       		.uleb128 0x34
 4937 02f7 00       		.byte	0
 4938 02f8 03       		.uleb128 0x3
 4939 02f9 0E       		.uleb128 0xe
 4940 02fa 3A       		.uleb128 0x3a
 4941 02fb 0B       		.uleb128 0xb
 4942 02fc 3B       		.uleb128 0x3b
 4943 02fd 05       		.uleb128 0x5
 4944 02fe 49       		.uleb128 0x49
 4945 02ff 13       		.uleb128 0x13
 4946 0300 3F       		.uleb128 0x3f
 4947 0301 19       		.uleb128 0x19
 4948 0302 3C       		.uleb128 0x3c
 4949 0303 19       		.uleb128 0x19
 4950 0304 00       		.byte	0
 4951 0305 00       		.byte	0
 4952 0306 2F       		.uleb128 0x2f
 4953 0307 34       		.uleb128 0x34
 4954 0308 00       		.byte	0
ARM GAS  C:\Users\r\AppData\Local\Temp\ccqe305w.s 			page 100


 4955 0309 03       		.uleb128 0x3
 4956 030a 0E       		.uleb128 0xe
 4957 030b 3A       		.uleb128 0x3a
 4958 030c 0B       		.uleb128 0xb
 4959 030d 3B       		.uleb128 0x3b
 4960 030e 0B       		.uleb128 0xb
 4961 030f 49       		.uleb128 0x49
 4962 0310 13       		.uleb128 0x13
 4963 0311 3F       		.uleb128 0x3f
 4964 0312 19       		.uleb128 0x19
 4965 0313 3C       		.uleb128 0x3c
 4966 0314 19       		.uleb128 0x19
 4967 0315 00       		.byte	0
 4968 0316 00       		.byte	0
 4969 0317 30       		.uleb128 0x30
 4970 0318 34       		.uleb128 0x34
 4971 0319 00       		.byte	0
 4972 031a 03       		.uleb128 0x3
 4973 031b 0E       		.uleb128 0xe
 4974 031c 3A       		.uleb128 0x3a
 4975 031d 0B       		.uleb128 0xb
 4976 031e 3B       		.uleb128 0x3b
 4977 031f 0B       		.uleb128 0xb
 4978 0320 49       		.uleb128 0x49
 4979 0321 13       		.uleb128 0x13
 4980 0322 3F       		.uleb128 0x3f
 4981 0323 19       		.uleb128 0x19
 4982 0324 02       		.uleb128 0x2
 4983 0325 18       		.uleb128 0x18
 4984 0326 00       		.byte	0
 4985 0327 00       		.byte	0
 4986 0328 00       		.byte	0
 4987              		.section	.debug_aranges,"",%progbits
 4988 0000 D4000000 		.4byte	0xd4
 4989 0004 0200     		.2byte	0x2
 4990 0006 00000000 		.4byte	.Ldebug_info0
 4991 000a 04       		.byte	0x4
 4992 000b 00       		.byte	0
 4993 000c 0000     		.2byte	0
 4994 000e 0000     		.2byte	0
 4995 0010 00000000 		.4byte	.LFB64
 4996 0014 20000000 		.4byte	.LFE64-.LFB64
 4997 0018 00000000 		.4byte	.LFB65
 4998 001c 20000000 		.4byte	.LFE65-.LFB65
 4999 0020 00000000 		.4byte	.LFB66
 5000 0024 24000000 		.4byte	.LFE66-.LFB66
 5001 0028 00000000 		.4byte	.LFB67
 5002 002c 24000000 		.4byte	.LFE67-.LFB67
 5003 0030 00000000 		.4byte	.LFB68
 5004 0034 F0000000 		.4byte	.LFE68-.LFB68
 5005 0038 00000000 		.4byte	.LFB69
 5006 003c B0000000 		.4byte	.LFE69-.LFB69
 5007 0040 00000000 		.4byte	.LFB70
 5008 0044 AC000000 		.4byte	.LFE70-.LFB70
 5009 0048 00000000 		.4byte	.LFB71
 5010 004c E0000000 		.4byte	.LFE71-.LFB71
 5011 0050 00000000 		.4byte	.LFB72
ARM GAS  C:\Users\r\AppData\Local\Temp\ccqe305w.s 			page 101


 5012 0054 54000000 		.4byte	.LFE72-.LFB72
 5013 0058 00000000 		.4byte	.LFB73
 5014 005c C8000000 		.4byte	.LFE73-.LFB73
 5015 0060 00000000 		.4byte	.LFB74
 5016 0064 5C000000 		.4byte	.LFE74-.LFB74
 5017 0068 00000000 		.4byte	.LFB75
 5018 006c 90000000 		.4byte	.LFE75-.LFB75
 5019 0070 00000000 		.4byte	.LFB76
 5020 0074 A4000000 		.4byte	.LFE76-.LFB76
 5021 0078 00000000 		.4byte	.LFB77
 5022 007c 8C000000 		.4byte	.LFE77-.LFB77
 5023 0080 00000000 		.4byte	.LFB78
 5024 0084 54000000 		.4byte	.LFE78-.LFB78
 5025 0088 00000000 		.4byte	.LFB79
 5026 008c C8000000 		.4byte	.LFE79-.LFB79
 5027 0090 00000000 		.4byte	.LFB80
 5028 0094 5C000000 		.4byte	.LFE80-.LFB80
 5029 0098 00000000 		.4byte	.LFB81
 5030 009c 0E000000 		.4byte	.LFE81-.LFB81
 5031 00a0 00000000 		.4byte	.LFB82
 5032 00a4 74000000 		.4byte	.LFE82-.LFB82
 5033 00a8 00000000 		.4byte	.LFB83
 5034 00ac 88010000 		.4byte	.LFE83-.LFB83
 5035 00b0 00000000 		.4byte	.LFB84
 5036 00b4 90000000 		.4byte	.LFE84-.LFB84
 5037 00b8 00000000 		.4byte	.LFB85
 5038 00bc 20000000 		.4byte	.LFE85-.LFB85
 5039 00c0 00000000 		.4byte	.LFB86
 5040 00c4 78000000 		.4byte	.LFE86-.LFB86
 5041 00c8 00000000 		.4byte	.LFB87
 5042 00cc 50020000 		.4byte	.LFE87-.LFB87
 5043 00d0 00000000 		.4byte	0
 5044 00d4 00000000 		.4byte	0
 5045              		.section	.debug_ranges,"",%progbits
 5046              	.Ldebug_ranges0:
 5047 0000 00000000 		.4byte	.LFB64
 5048 0004 20000000 		.4byte	.LFE64
 5049 0008 00000000 		.4byte	.LFB65
 5050 000c 20000000 		.4byte	.LFE65
 5051 0010 00000000 		.4byte	.LFB66
 5052 0014 24000000 		.4byte	.LFE66
 5053 0018 00000000 		.4byte	.LFB67
 5054 001c 24000000 		.4byte	.LFE67
 5055 0020 00000000 		.4byte	.LFB68
 5056 0024 F0000000 		.4byte	.LFE68
 5057 0028 00000000 		.4byte	.LFB69
 5058 002c B0000000 		.4byte	.LFE69
 5059 0030 00000000 		.4byte	.LFB70
 5060 0034 AC000000 		.4byte	.LFE70
 5061 0038 00000000 		.4byte	.LFB71
 5062 003c E0000000 		.4byte	.LFE71
 5063 0040 00000000 		.4byte	.LFB72
 5064 0044 54000000 		.4byte	.LFE72
 5065 0048 00000000 		.4byte	.LFB73
 5066 004c C8000000 		.4byte	.LFE73
 5067 0050 00000000 		.4byte	.LFB74
 5068 0054 5C000000 		.4byte	.LFE74
ARM GAS  C:\Users\r\AppData\Local\Temp\ccqe305w.s 			page 102


 5069 0058 00000000 		.4byte	.LFB75
 5070 005c 90000000 		.4byte	.LFE75
 5071 0060 00000000 		.4byte	.LFB76
 5072 0064 A4000000 		.4byte	.LFE76
 5073 0068 00000000 		.4byte	.LFB77
 5074 006c 8C000000 		.4byte	.LFE77
 5075 0070 00000000 		.4byte	.LFB78
 5076 0074 54000000 		.4byte	.LFE78
 5077 0078 00000000 		.4byte	.LFB79
 5078 007c C8000000 		.4byte	.LFE79
 5079 0080 00000000 		.4byte	.LFB80
 5080 0084 5C000000 		.4byte	.LFE80
 5081 0088 00000000 		.4byte	.LFB81
 5082 008c 0E000000 		.4byte	.LFE81
 5083 0090 00000000 		.4byte	.LFB82
 5084 0094 74000000 		.4byte	.LFE82
 5085 0098 00000000 		.4byte	.LFB83
 5086 009c 88010000 		.4byte	.LFE83
 5087 00a0 00000000 		.4byte	.LFB84
 5088 00a4 90000000 		.4byte	.LFE84
 5089 00a8 00000000 		.4byte	.LFB85
 5090 00ac 20000000 		.4byte	.LFE85
 5091 00b0 00000000 		.4byte	.LFB86
 5092 00b4 78000000 		.4byte	.LFE86
 5093 00b8 00000000 		.4byte	.LFB87
 5094 00bc 50020000 		.4byte	.LFE87
 5095 00c0 00000000 		.4byte	0
 5096 00c4 00000000 		.4byte	0
 5097              		.section	.debug_line,"",%progbits
 5098              	.Ldebug_line0:
 5099 0000 32060000 		.section	.debug_str,"MS",%progbits,1
 5099      0200AE01 
 5099      00000201 
 5099      FB0E0D00 
 5099      01010101 
 5100              	.LASF118:
 5101 0000 6D736743 		.ascii	"msgCount\000"
 5101      6F756E74 
 5101      00
 5102              	.LASF113:
 5103 0009 6D73674F 		.ascii	"msgOut\000"
 5103      757400
 5104              	.LASF158:
 5105 0010 636F756E 		.ascii	"count\000"
 5105      7400
 5106              	.LASF32:
 5107 0016 434F4E46 		.ascii	"CONFIG_ENABLE_DISCONNECT\000"
 5107      49475F45 
 5107      4E41424C 
 5107      455F4449 
 5107      53434F4E 
 5108              	.LASF97:
 5109 002f 61746E46 		.ascii	"atnFlag\000"
 5109      6C616700 
 5110              	.LASF147:
 5111 0037 74726163 		.ascii	"trace_spinSpiByte\000"
 5111      655F7370 
ARM GAS  C:\Users\r\AppData\Local\Temp\ccqe305w.s 			page 103


 5111      696E5370 
 5111      69427974 
 5111      6500
 5112              	.LASF63:
 5113 0049 666C6167 		.ascii	"flags6\000"
 5113      733600
 5114              	.LASF69:
 5115 0050 5F5F7363 		.ascii	"__scsiphase_cd\000"
 5115      73697068 
 5115      6173655F 
 5115      636400
 5116              	.LASF154:
 5117 005f 73637369 		.ascii	"scsiRxCompleteISR\000"
 5117      5278436F 
 5117      6D706C65 
 5117      74654953 
 5117      5200
 5118              	.LASF134:
 5119 0071 74726163 		.ascii	"trace_begin\000"
 5119      655F6265 
 5119      67696E00 
 5120              	.LASF159:
 5121 007d 70726570 		.ascii	"prep\000"
 5121      00
 5122              	.LASF204:
 5123 0082 73637369 		.ascii	"scsiPhyInitDMA\000"
 5123      50687949 
 5123      6E697444 
 5123      4D4100
 5124              	.LASF3:
 5125 0091 5F5F7569 		.ascii	"__uint8_t\000"
 5125      6E74385F 
 5125      7400
 5126              	.LASF52:
 5127 009b 72657669 		.ascii	"revision\000"
 5127      73696F6E 
 5127      00
 5128              	.LASF62:
 5129 00a4 73656C65 		.ascii	"selectionDelay\000"
 5129      6374696F 
 5129      6E44656C 
 5129      617900
 5130              	.LASF106:
 5131 00b3 64617461 		.ascii	"dataLen\000"
 5131      4C656E00 
 5132              	.LASF84:
 5133 00bb 434F4D50 		.ascii	"COMPAT_SCSI2_DISABLED\000"
 5133      41545F53 
 5133      43534932 
 5133      5F444953 
 5133      41424C45 
 5134              	.LASF39:
 5135 00d1 434F4E46 		.ascii	"CONFIG_SPEED_NoLimit\000"
 5135      49475F53 
 5135      50454544 
 5135      5F4E6F4C 
 5135      696D6974 
ARM GAS  C:\Users\r\AppData\Local\Temp\ccqe305w.s 			page 104


 5136              	.LASF40:
 5137 00e6 434F4E46 		.ascii	"CONFIG_SPEED_ASYNC_15\000"
 5137      49475F53 
 5137      50454544 
 5137      5F415359 
 5137      4E435F31 
 5138              	.LASF90:
 5139 00fc 756E6974 		.ascii	"unitAttention\000"
 5139      41747465 
 5139      6E74696F 
 5139      6E00
 5140              	.LASF162:
 5141 010a 73696E67 		.ascii	"singleCount\000"
 5141      6C65436F 
 5141      756E7400 
 5142              	.LASF11:
 5143 0116 6C6F6E67 		.ascii	"long long unsigned int\000"
 5143      206C6F6E 
 5143      6720756E 
 5143      7369676E 
 5143      65642069 
 5144              	.LASF198:
 5145 012d 4C617374 		.ascii	"LastTrace\000"
 5145      54726163 
 5145      6500
 5146              	.LASF114:
 5147 0137 706F7374 		.ascii	"postDataOutHook\000"
 5147      44617461 
 5147      4F757448 
 5147      6F6F6B00 
 5148              	.LASF161:
 5149 0147 646F5278 		.ascii	"doRxSingleDMA\000"
 5149      53696E67 
 5149      6C65444D 
 5149      4100
 5150              	.LASF193:
 5151 0155 49544D5F 		.ascii	"ITM_RxBuffer\000"
 5151      52784275 
 5151      66666572 
 5151      00
 5152              	.LASF189:
 5153 0162 73637369 		.ascii	"scsiDmaTxChan\000"
 5153      446D6154 
 5153      78436861 
 5153      6E00
 5154              	.LASF153:
 5155 0170 74726163 		.ascii	"trace_sdSpiByte\000"
 5155      655F7364 
 5155      53706942 
 5155      79746500 
 5156              	.LASF79:
 5157 0180 44415441 		.ascii	"DATA_OUT\000"
 5157      5F4F5554 
 5157      00
 5158              	.LASF141:
 5159 0189 74726163 		.ascii	"trace_spinTxComplete\000"
 5159      655F7370 
ARM GAS  C:\Users\r\AppData\Local\Temp\ccqe305w.s 			page 105


 5159      696E5478 
 5159      436F6D70 
 5159      6C657465 
 5160              	.LASF10:
 5161 019e 6C6F6E67 		.ascii	"long long int\000"
 5161      206C6F6E 
 5161      6720696E 
 5161      7400
 5162              	.LASF0:
 5163 01ac 7369676E 		.ascii	"signed char\000"
 5163      65642063 
 5163      68617200 
 5164              	.LASF101:
 5165 01b8 73656C44 		.ascii	"selDBX\000"
 5165      425800
 5166              	.LASF71:
 5167 01bf 4255535F 		.ascii	"BUS_FREE\000"
 5167      46524545 
 5167      00
 5168              	.LASF183:
 5169 01c8 7369676E 		.ascii	"signalsIn\000"
 5169      616C7349 
 5169      6E00
 5170              	.LASF203:
 5171 01d2 62757353 		.ascii	"busSettleDelay\000"
 5171      6574746C 
 5171      6544656C 
 5171      617900
 5172              	.LASF164:
 5173 01e1 73637369 		.ascii	"scsiReadDMAPoll\000"
 5173      52656164 
 5173      444D4150 
 5173      6F6C6C00 
 5174              	.LASF163:
 5175 01f1 73637369 		.ascii	"scsiReadDMA\000"
 5175      52656164 
 5175      444D4100 
 5176              	.LASF122:
 5177 01fd 6C617374 		.ascii	"lastSenseASC\000"
 5177      53656E73 
 5177      65415343 
 5177      00
 5178              	.LASF175:
 5179 020a 73637369 		.ascii	"scsiPhyReset\000"
 5179      50687952 
 5179      65736574 
 5179      00
 5180              	.LASF102:
 5181 0217 70686173 		.ascii	"phase\000"
 5181      6500
 5182              	.LASF176:
 5183 021d 73637369 		.ascii	"scsiPhyInit\000"
 5183      50687949 
 5183      6E697400 
 5184              	.LASF7:
 5185 0229 6C6F6E67 		.ascii	"long int\000"
 5185      20696E74 
ARM GAS  C:\Users\r\AppData\Local\Temp\ccqe305w.s 			page 106


 5185      00
 5186              	.LASF28:
 5187 0232 434F4E46 		.ascii	"CONFIG_ENABLE_PARITY\000"
 5187      49475F45 
 5187      4E41424C 
 5187      455F5041 
 5187      52495459 
 5188              	.LASF66:
 5189 0247 636F6465 		.ascii	"code\000"
 5189      00
 5190              	.LASF35:
 5191 024c 434F4E46 		.ascii	"CONFIG_QUIRKS_NONE\000"
 5191      49475F51 
 5191      5549524B 
 5191      535F4E4F 
 5191      4E4500
 5192              	.LASF56:
 5193 025f 6D6F6465 		.ascii	"modePages\000"
 5193      50616765 
 5193      7300
 5194              	.LASF148:
 5195 0269 74726163 		.ascii	"trace_spinSDRxFIFO\000"
 5195      655F7370 
 5195      696E5344 
 5195      52784649 
 5195      464F00
 5196              	.LASF31:
 5197 027c 434F4E46 		.ascii	"CONFIG_ENABLE_CACHE\000"
 5197      49475F45 
 5197      4E41424C 
 5197      455F4341 
 5197      43484500 
 5198              	.LASF14:
 5199 0290 75696E74 		.ascii	"uint16_t\000"
 5199      31365F74 
 5199      00
 5200              	.LASF179:
 5201 0299 73637369 		.ascii	"scsiReadByte\000"
 5201      52656164 
 5201      42797465 
 5201      00
 5202              	.LASF22:
 5203 02a6 646F7562 		.ascii	"double\000"
 5203      6C6500
 5204              	.LASF92:
 5205 02ad 72657365 		.ascii	"reserverId\000"
 5205      72766572 
 5205      496400
 5206              	.LASF131:
 5207 02b8 53435349 		.ascii	"SCSI_Filt_ACK\000"
 5207      5F46696C 
 5207      745F4143 
 5207      4B00
 5208              	.LASF78:
 5209 02c6 44415441 		.ascii	"DATA_IN\000"
 5209      5F494E00 
 5210              	.LASF77:
ARM GAS  C:\Users\r\AppData\Local\Temp\ccqe305w.s 			page 107


 5211 02ce 434F4D4D 		.ascii	"COMMAND\000"
 5211      414E4400 
 5212              	.LASF30:
 5213 02d6 434F4E46 		.ascii	"CONFIG_DISABLE_GLITCH\000"
 5213      49475F44 
 5213      49534142 
 5213      4C455F47 
 5213      4C495443 
 5214              	.LASF124:
 5215 02ec 53435349 		.ascii	"SCSI_PHY_TX_FIFO_NOT_FULL\000"
 5215      5F504859 
 5215      5F54585F 
 5215      4649464F 
 5215      5F4E4F54 
 5216              	.LASF36:
 5217 0306 434F4E46 		.ascii	"CONFIG_QUIRKS_APPLE\000"
 5217      49475F51 
 5217      5549524B 
 5217      535F4150 
 5217      504C4500 
 5218              	.LASF19:
 5219 031a 75696E74 		.ascii	"uint32\000"
 5219      333200
 5220              	.LASF43:
 5221 0321 666C6167 		.ascii	"flagsDEPRECATED\000"
 5221      73444550 
 5221      52454341 
 5221      54454400 
 5222              	.LASF139:
 5223 0331 74726163 		.ascii	"trace_doTxSingleDMA\000"
 5223      655F646F 
 5223      54785369 
 5223      6E676C65 
 5223      444D4100 
 5224              	.LASF8:
 5225 0345 5F5F7569 		.ascii	"__uint32_t\000"
 5225      6E743332 
 5225      5F7400
 5226              	.LASF117:
 5227 0350 72737443 		.ascii	"rstCount\000"
 5227      6F756E74 
 5227      00
 5228              	.LASF192:
 5229 0359 64756D6D 		.ascii	"dummyBuffer\000"
 5229      79427566 
 5229      66657200 
 5230              	.LASF34:
 5231 0365 434F4E46 		.ascii	"CONFIG_MAP_LUNS_TO_IDS\000"
 5231      49475F4D 
 5231      41505F4C 
 5231      554E535F 
 5231      544F5F49 
 5232              	.LASF46:
 5233 037c 73637369 		.ascii	"scsiSectors\000"
 5233      53656374 
 5233      6F727300 
 5234              	.LASF136:
ARM GAS  C:\Users\r\AppData\Local\Temp\ccqe305w.s 			page 108


 5235 0388 74726163 		.ascii	"trace_scsiTxCompleteISR\000"
 5235      655F7363 
 5235      73695478 
 5235      436F6D70 
 5235      6C657465 
 5236              	.LASF132:
 5237 03a0 46696C74 		.ascii	"FilteredInputs\000"
 5237      65726564 
 5237      496E7075 
 5237      747300
 5238              	.LASF185:
 5239 03af 646D6142 		.ascii	"dmaBuffer\000"
 5239      75666665 
 5239      7200
 5240              	.LASF167:
 5241 03b9 76616C75 		.ascii	"value\000"
 5241      6500
 5242              	.LASF178:
 5243 03bf 636C6B44 		.ascii	"clkDiv25MHz\000"
 5243      69763235 
 5243      4D487A00 
 5244              	.LASF12:
 5245 03cb 756E7369 		.ascii	"unsigned int\000"
 5245      676E6564 
 5245      20696E74 
 5245      00
 5246              	.LASF61:
 5247 03d8 73746172 		.ascii	"startupDelay\000"
 5247      74757044 
 5247      656C6179 
 5247      00
 5248              	.LASF156:
 5249 03e5 73637369 		.ascii	"scsiResetISR\000"
 5249      52657365 
 5249      74495352 
 5249      00
 5250              	.LASF96:
 5251 03f2 626F6172 		.ascii	"boardCfg\000"
 5251      64436667 
 5251      00
 5252              	.LASF9:
 5253 03fb 6C6F6E67 		.ascii	"long unsigned int\000"
 5253      20756E73 
 5253      69676E65 
 5253      6420696E 
 5253      7400
 5254              	.LASF109:
 5255 040d 636F6D70 		.ascii	"compatMode\000"
 5255      61744D6F 
 5255      646500
 5256              	.LASF89:
 5257 0418 73656E73 		.ascii	"sense\000"
 5257      6500
 5258              	.LASF107:
 5259 041e 6364624C 		.ascii	"cdbLen\000"
 5259      656E00
 5260              	.LASF200:
ARM GAS  C:\Users\r\AppData\Local\Temp\ccqe305w.s 			page 109


 5261 0425 2E2E5C2E 		.ascii	"..\\..\\src\\scsiPhy.c\000"
 5261      2E5C7372 
 5261      635C7363 
 5261      73695068 
 5261      792E6300 
 5262              	.LASF166:
 5263 0439 73637369 		.ascii	"scsiWriteByte\000"
 5263      57726974 
 5263      65427974 
 5263      6500
 5264              	.LASF138:
 5265 0447 74726163 		.ascii	"trace_doRxSingleDMA\000"
 5265      655F646F 
 5265      52785369 
 5265      6E676C65 
 5265      444D4100 
 5266              	.LASF41:
 5267 045b 73637369 		.ascii	"scsiId\000"
 5267      496400
 5268              	.LASF94:
 5269 0462 74617267 		.ascii	"targets\000"
 5269      65747300 
 5270              	.LASF103:
 5271 046a 64617461 		.ascii	"data\000"
 5271      00
 5272              	.LASF116:
 5273 046f 73656C43 		.ascii	"selCount\000"
 5273      6F756E74 
 5273      00
 5274              	.LASF5:
 5275 0478 73686F72 		.ascii	"short unsigned int\000"
 5275      7420756E 
 5275      7369676E 
 5275      65642069 
 5275      6E7400
 5276              	.LASF20:
 5277 048b 696E7438 		.ascii	"int8\000"
 5277      00
 5278              	.LASF49:
 5279 0490 68656164 		.ascii	"headsPerCylinder\000"
 5279      73506572 
 5279      43796C69 
 5279      6E646572 
 5279      00
 5280              	.LASF82:
 5281 04a1 434F4D50 		.ascii	"COMPAT_UNKNOWN\000"
 5281      41545F55 
 5281      4E4B4E4F 
 5281      574E00
 5282              	.LASF54:
 5283 04b0 71756972 		.ascii	"quirks\000"
 5283      6B7300
 5284              	.LASF95:
 5285 04b7 74617267 		.ascii	"target\000"
 5285      657400
 5286              	.LASF172:
 5287 04be 73637369 		.ascii	"scsiWrite\000"
ARM GAS  C:\Users\r\AppData\Local\Temp\ccqe305w.s 			page 110


 5287      57726974 
 5287      6500
 5288              	.LASF145:
 5289 04c8 74726163 		.ascii	"trace_spinPhyRxFifo\000"
 5289      655F7370 
 5289      696E5068 
 5289      79527846 
 5289      69666F00 
 5290              	.LASF110:
 5291 04dc 696E6974 		.ascii	"initiatorId\000"
 5291      6961746F 
 5291      72496400 
 5292              	.LASF6:
 5293 04e8 5F5F696E 		.ascii	"__int32_t\000"
 5293      7433325F 
 5293      7400
 5294              	.LASF187:
 5295 04f2 646D6154 		.ascii	"dmaTotalCount\000"
 5295      6F74616C 
 5295      436F756E 
 5295      7400
 5296              	.LASF146:
 5297 0500 74726163 		.ascii	"trace_spinDMAReset\000"
 5297      655F7370 
 5297      696E444D 
 5297      41526573 
 5297      657400
 5298              	.LASF168:
 5299 0513 73637369 		.ascii	"scsiWritePIO\000"
 5299      57726974 
 5299      6550494F 
 5299      00
 5300              	.LASF195:
 5301 0520 4C6F6F6B 		.ascii	"Lookup_OddParity\000"
 5301      75705F4F 
 5301      64645061 
 5301      72697479 
 5301      00
 5302              	.LASF51:
 5303 0531 70726F64 		.ascii	"prodId\000"
 5303      496400
 5304              	.LASF143:
 5305 0538 74726163 		.ascii	"trace_spinWriteDMAPoll\000"
 5305      655F7370 
 5305      696E5772 
 5305      69746544 
 5305      4D41506F 
 5306              	.LASF57:
 5307 054f 756E7573 		.ascii	"unused\000"
 5307      656400
 5308              	.LASF135:
 5309 0556 74726163 		.ascii	"trace_scsiRxCompleteISR\000"
 5309      655F7363 
 5309      73695278 
 5309      436F6D70 
 5309      6C657465 
 5310              	.LASF133:
ARM GAS  C:\Users\r\AppData\Local\Temp\ccqe305w.s 			page 111


 5311 056e 74726163 		.ascii	"trace_event\000"
 5311      655F6576 
 5311      656E7400 
 5312              	.LASF26:
 5313 057a 73697A65 		.ascii	"sizetype\000"
 5313      74797065 
 5313      00
 5314              	.LASF119:
 5315 0583 77617463 		.ascii	"watchdogTick\000"
 5315      68646F67 
 5315      5469636B 
 5315      00
 5316              	.LASF150:
 5317 0590 74726163 		.ascii	"trace_spinSDDMA\000"
 5317      655F7370 
 5317      696E5344 
 5317      444D4100 
 5318              	.LASF194:
 5319 05a0 73637369 		.ascii	"scsiDev\000"
 5319      44657600 
 5320              	.LASF151:
 5321 05a8 74726163 		.ascii	"trace_spinSDCompleteWrite\000"
 5321      655F7370 
 5321      696E5344 
 5321      436F6D70 
 5321      6C657465 
 5322              	.LASF38:
 5323 05c2 434F4E46 		.ascii	"CONFIG_QUIRKS_XEBEC\000"
 5323      49475F51 
 5323      5549524B 
 5323      535F5845 
 5323      42454300 
 5324              	.LASF17:
 5325 05d6 75696E74 		.ascii	"uint8\000"
 5325      3800
 5326              	.LASF67:
 5327 05dc 53637369 		.ascii	"ScsiSense\000"
 5327      53656E73 
 5327      6500
 5328              	.LASF182:
 5329 05e6 7369676E 		.ascii	"signalsOut\000"
 5329      616C734F 
 5329      757400
 5330              	.LASF165:
 5331 05f1 73637369 		.ascii	"scsiRead\000"
 5331      52656164 
 5331      00
 5332              	.LASF104:
 5333 05fa 64617461 		.ascii	"dataPtr\000"
 5333      50747200 
 5334              	.LASF196:
 5335 0602 73637369 		.ascii	"scsiRxDMAComplete\000"
 5335      5278444D 
 5335      41436F6D 
 5335      706C6574 
 5335      6500
 5336              	.LASF37:
ARM GAS  C:\Users\r\AppData\Local\Temp\ccqe305w.s 			page 112


 5337 0614 434F4E46 		.ascii	"CONFIG_QUIRKS_OMTI\000"
 5337      49475F51 
 5337      5549524B 
 5337      535F4F4D 
 5337      544900
 5338              	.LASF188:
 5339 0627 73637369 		.ascii	"scsiDmaRxChan\000"
 5339      446D6152 
 5339      78436861 
 5339      6E00
 5340              	.LASF29:
 5341 0635 434F4E46 		.ascii	"CONFIG_ENABLE_SCSI2\000"
 5341      49475F45 
 5341      4E41424C 
 5341      455F5343 
 5341      53493200 
 5342              	.LASF88:
 5343 0649 6C697665 		.ascii	"liveCfg\000"
 5343      43666700 
 5344              	.LASF142:
 5345 0651 74726163 		.ascii	"trace_spinReadDMAPoll\000"
 5345      655F7370 
 5345      696E5265 
 5345      6164444D 
 5345      41506F6C 
 5346              	.LASF128:
 5347 0667 53435349 		.ascii	"SCSI_Filt_BSY\000"
 5347      5F46696C 
 5347      745F4253 
 5347      5900
 5348              	.LASF21:
 5349 0675 666C6F61 		.ascii	"float\000"
 5349      7400
 5350              	.LASF99:
 5351 067b 73656C46 		.ascii	"selFlag\000"
 5351      6C616700 
 5352              	.LASF125:
 5353 0683 53435349 		.ascii	"SCSI_PHY_RX_FIFO_NOT_EMPTY\000"
 5353      5F504859 
 5353      5F52585F 
 5353      4649464F 
 5353      5F4E4F54 
 5354              	.LASF157:
 5355 069e 73637369 		.ascii	"scsiSelectionISR\000"
 5355      53656C65 
 5355      6374696F 
 5355      6E495352 
 5355      00
 5356              	.LASF177:
 5357 06af 73637369 		.ascii	"scsiPhyConfig\000"
 5357      50687943 
 5357      6F6E6669 
 5357      6700
 5358              	.LASF24:
 5359 06bd 72656738 		.ascii	"reg8\000"
 5359      00
 5360              	.LASF160:
ARM GAS  C:\Users\r\AppData\Local\Temp\ccqe305w.s 			page 113


 5361 06c2 73637369 		.ascii	"scsiReadPIO\000"
 5361      52656164 
 5361      50494F00 
 5362              	.LASF199:
 5363 06ce 474E5520 		.ascii	"GNU C11 5.4.1 20160609 (release) [ARM/embedded-5-br"
 5363      43313120 
 5363      352E342E 
 5363      31203230 
 5363      31363036 
 5364 0701 616E6368 		.ascii	"anch revision 237715] -mcpu=cortex-m3 -mthumb -g -O"
 5364      20726576 
 5364      6973696F 
 5364      6E203233 
 5364      37373135 
 5365 0734 30202D66 		.ascii	"0 -ffunction-sections -ffat-lto-objects\000"
 5365      66756E63 
 5365      74696F6E 
 5365      2D736563 
 5365      74696F6E 
 5366              	.LASF15:
 5367 075c 696E7433 		.ascii	"int32_t\000"
 5367      325F7400 
 5368              	.LASF1:
 5369 0764 756E7369 		.ascii	"unsigned char\000"
 5369      676E6564 
 5369      20636861 
 5369      7200
 5370              	.LASF18:
 5371 0772 75696E74 		.ascii	"uint16\000"
 5371      313600
 5372              	.LASF129:
 5373 0779 53435349 		.ascii	"SCSI_Filt_SEL\000"
 5373      5F46696C 
 5373      745F5345 
 5373      4C00
 5374              	.LASF173:
 5375 0787 73637369 		.ascii	"scsiEnterPhase\000"
 5375      456E7465 
 5375      72506861 
 5375      736500
 5376              	.LASF42:
 5377 0796 64657669 		.ascii	"deviceType\000"
 5377      63655479 
 5377      706500
 5378              	.LASF149:
 5379 07a1 74726163 		.ascii	"trace_spinSDBusy\000"
 5379      655F7370 
 5379      696E5344 
 5379      42757379 
 5379      00
 5380              	.LASF93:
 5381 07b2 54617267 		.ascii	"TargetState\000"
 5381      65745374 
 5381      61746500 
 5382              	.LASF115:
 5383 07be 636D6443 		.ascii	"cmdCount\000"
 5383      6F756E74 
ARM GAS  C:\Users\r\AppData\Local\Temp\ccqe305w.s 			page 114


 5383      00
 5384              	.LASF2:
 5385 07c7 73686F72 		.ascii	"short int\000"
 5385      7420696E 
 5385      7400
 5386              	.LASF59:
 5387 07d1 6D616769 		.ascii	"magic\000"
 5387      6300
 5388              	.LASF126:
 5389 07d7 53435349 		.ascii	"SCSI_PHY_TX_COMPLETE\000"
 5389      5F504859 
 5389      5F54585F 
 5389      434F4D50 
 5389      4C455445 
 5390              	.LASF45:
 5391 07ec 73645365 		.ascii	"sdSectorStart\000"
 5391      63746F72 
 5391      53746172 
 5391      7400
 5392              	.LASF73:
 5393 07fa 41524249 		.ascii	"ARBITRATION\000"
 5393      54524154 
 5393      494F4E00 
 5394              	.LASF144:
 5395 0806 74726163 		.ascii	"trace_spinPhyTxFifo\000"
 5395      655F7370 
 5395      696E5068 
 5395      79547846 
 5395      69666F00 
 5396              	.LASF201:
 5397 081a 433A5C55 		.ascii	"C:\\Users\\r\\Documents\\Data Sheets\\apple\\SCSI2S"
 5397      73657273 
 5397      5C725C44 
 5397      6F63756D 
 5397      656E7473 
 5398 0847 445C5343 		.ascii	"D\\SCSI2SD_Copy_01.cydsn\000"
 5398      53493253 
 5398      445F436F 
 5398      70795F30 
 5398      312E6379 
 5399              	.LASF130:
 5400 085f 53435349 		.ascii	"SCSI_Filt_RST\000"
 5400      5F46696C 
 5400      745F5253 
 5400      5400
 5401              	.LASF140:
 5402 086d 74726163 		.ascii	"trace_scsiPhyReset\000"
 5402      655F7363 
 5402      73695068 
 5402      79526573 
 5402      657400
 5403              	.LASF191:
 5404 0880 73637369 		.ascii	"scsiDmaTxTd\000"
 5404      446D6154 
 5404      78546400 
 5405              	.LASF81:
 5406 088c 4D455353 		.ascii	"MESSAGE_OUT\000"
ARM GAS  C:\Users\r\AppData\Local\Temp\ccqe305w.s 			page 115


 5406      4147455F 
 5406      4F555400 
 5407              	.LASF74:
 5408 0898 53454C45 		.ascii	"SELECTION\000"
 5408      4354494F 
 5408      4E00
 5409              	.LASF16:
 5410 08a2 75696E74 		.ascii	"uint32_t\000"
 5410      33325F74 
 5410      00
 5411              	.LASF68:
 5412 08ab 5F5F7363 		.ascii	"__scsiphase_msg\000"
 5412      73697068 
 5412      6173655F 
 5412      6D736700 
 5413              	.LASF47:
 5414 08bb 62797465 		.ascii	"bytesPerSector\000"
 5414      73506572 
 5414      53656374 
 5414      6F7200
 5415              	.LASF197:
 5416 08ca 73637369 		.ascii	"scsiTxDMAComplete\000"
 5416      5478444D 
 5416      41436F6D 
 5416      706C6574 
 5416      6500
 5417              	.LASF25:
 5418 08dc 6C6F6E67 		.ascii	"long double\000"
 5418      20646F75 
 5418      626C6500 
 5419              	.LASF23:
 5420 08e8 63686172 		.ascii	"char\000"
 5420      00
 5421              	.LASF58:
 5422 08ed 54617267 		.ascii	"TargetConfig\000"
 5422      6574436F 
 5422      6E666967 
 5422      00
 5423              	.LASF91:
 5424 08fa 72657365 		.ascii	"reservedId\000"
 5424      72766564 
 5424      496400
 5425              	.LASF4:
 5426 0905 5F5F7569 		.ascii	"__uint16_t\000"
 5426      6E743136 
 5426      5F7400
 5427              	.LASF86:
 5428 0910 4C697665 		.ascii	"LiveCfg\000"
 5428      43666700 
 5429              	.LASF105:
 5430 0918 73617665 		.ascii	"savedDataPtr\000"
 5430      64446174 
 5430      61507472 
 5430      00
 5431              	.LASF50:
 5432 0925 76656E64 		.ascii	"vendor\000"
 5432      6F7200
ARM GAS  C:\Users\r\AppData\Local\Temp\ccqe305w.s 			page 116


 5433              	.LASF120:
 5434 092c 6C617374 		.ascii	"lastStatus\000"
 5434      53746174 
 5434      757300
 5435              	.LASF112:
 5436 0937 6D736749 		.ascii	"msgIn\000"
 5436      6E00
 5437              	.LASF152:
 5438 093d 74726163 		.ascii	"trace_spinSDCompleteRead\000"
 5438      655F7370 
 5438      696E5344 
 5438      436F6D70 
 5438      6C657465 
 5439              	.LASF33:
 5440 0956 434F4E46 		.ascii	"CONFIG_ENABLE_SEL_LATCH\000"
 5440      49475F45 
 5440      4E41424C 
 5440      455F5345 
 5440      4C5F4C41 
 5441              	.LASF184:
 5442 096e 646D6149 		.ascii	"dmaInProgress\000"
 5442      6E50726F 
 5442      67726573 
 5442      7300
 5443              	.LASF180:
 5444 097c 73637369 		.ascii	"scsiSelfTest\000"
 5444      53656C66 
 5444      54657374 
 5444      00
 5445              	.LASF137:
 5446 0989 74726163 		.ascii	"trace_scsiResetISR\000"
 5446      655F7363 
 5446      73695265 
 5446      73657449 
 5446      535200
 5447              	.LASF155:
 5448 099c 73637369 		.ascii	"scsiTxCompleteISR\000"
 5448      5478436F 
 5448      6D706C65 
 5448      74654953 
 5448      5200
 5449              	.LASF70:
 5450 09ae 5F5F7363 		.ascii	"__scsiphase_io\000"
 5450      73697068 
 5450      6173655F 
 5450      696F00
 5451              	.LASF174:
 5452 09bd 6E657750 		.ascii	"newPhase\000"
 5452      68617365 
 5452      00
 5453              	.LASF55:
 5454 09c6 72657365 		.ascii	"reserved\000"
 5454      72766564 
 5454      00
 5455              	.LASF171:
 5456 09cf 73637369 		.ascii	"scsiWriteDMAPoll\000"
 5456      57726974 
ARM GAS  C:\Users\r\AppData\Local\Temp\ccqe305w.s 			page 117


 5456      65444D41 
 5456      506F6C6C 
 5456      00
 5457              	.LASF44:
 5458 09e0 64657669 		.ascii	"deviceTypeModifier\000"
 5458      63655479 
 5458      70654D6F 
 5458      64696669 
 5458      657200
 5459              	.LASF75:
 5460 09f3 52455345 		.ascii	"RESELECTION\000"
 5460      4C454354 
 5460      494F4E00 
 5461              	.LASF170:
 5462 09ff 73637369 		.ascii	"scsiWriteDMA\000"
 5462      57726974 
 5462      65444D41 
 5462      00
 5463              	.LASF65:
 5464 0a0c 426F6172 		.ascii	"BoardConfig\000"
 5464      64436F6E 
 5464      66696700 
 5465              	.LASF76:
 5466 0a18 53544154 		.ascii	"STATUS\000"
 5466      555300
 5467              	.LASF87:
 5468 0a1f 74617267 		.ascii	"targetId\000"
 5468      65744964 
 5468      00
 5469              	.LASF111:
 5470 0a28 73746174 		.ascii	"status\000"
 5470      757300
 5471              	.LASF127:
 5472 0a2f 53435349 		.ascii	"SCSI_Filt_ATN\000"
 5472      5F46696C 
 5472      745F4154 
 5472      4E00
 5473              	.LASF64:
 5474 0a3d 73637369 		.ascii	"scsiSpeed\000"
 5474      53706565 
 5474      6400
 5475              	.LASF202:
 5476 0a47 73637369 		.ascii	"scsiReadDBxPins\000"
 5476      52656164 
 5476      44427850 
 5476      696E7300 
 5477              	.LASF83:
 5478 0a57 434F4D50 		.ascii	"COMPAT_SCSI1\000"
 5478      41545F53 
 5478      43534931 
 5478      00
 5479              	.LASF85:
 5480 0a64 434F4D50 		.ascii	"COMPAT_SCSI2\000"
 5480      41545F53 
 5480      43534932 
 5480      00
 5481              	.LASF13:
ARM GAS  C:\Users\r\AppData\Local\Temp\ccqe305w.s 			page 118


 5482 0a71 75696E74 		.ascii	"uint8_t\000"
 5482      385F7400 
 5483              	.LASF60:
 5484 0a79 666C6167 		.ascii	"flags\000"
 5484      7300
 5485              	.LASF53:
 5486 0a7f 73657269 		.ascii	"serial\000"
 5486      616C00
 5487              	.LASF98:
 5488 0a86 72657365 		.ascii	"resetFlag\000"
 5488      74466C61 
 5488      6700
 5489              	.LASF72:
 5490 0a90 4255535F 		.ascii	"BUS_BUSY\000"
 5490      42555359 
 5490      00
 5491              	.LASF190:
 5492 0a99 73637369 		.ascii	"scsiDmaRxTd\000"
 5492      446D6152 
 5492      78546400 
 5493              	.LASF27:
 5494 0aa5 434F4E46 		.ascii	"CONFIG_ENABLE_UNIT_ATTENTION\000"
 5494      49475F45 
 5494      4E41424C 
 5494      455F554E 
 5494      49545F41 
 5495              	.LASF123:
 5496 0ac2 53637369 		.ascii	"ScsiDevice\000"
 5496      44657669 
 5496      636500
 5497              	.LASF108:
 5498 0acd 64697363 		.ascii	"discPriv\000"
 5498      50726976 
 5498      00
 5499              	.LASF100:
 5500 0ad6 70617269 		.ascii	"parityError\000"
 5500      74794572 
 5500      726F7200 
 5501              	.LASF181:
 5502 0ae2 72657375 		.ascii	"result\000"
 5502      6C7400
 5503              	.LASF121:
 5504 0ae9 6C617374 		.ascii	"lastSense\000"
 5504      53656E73 
 5504      6500
 5505              	.LASF80:
 5506 0af3 4D455353 		.ascii	"MESSAGE_IN\000"
 5506      4147455F 
 5506      494E00
 5507              	.LASF186:
 5508 0afe 646D6153 		.ascii	"dmaSentCount\000"
 5508      656E7443 
 5508      6F756E74 
 5508      00
 5509              	.LASF48:
 5510 0b0b 73656374 		.ascii	"sectorsPerTrack\000"
 5510      6F727350 
ARM GAS  C:\Users\r\AppData\Local\Temp\ccqe305w.s 			page 119


 5510      65725472 
 5510      61636B00 
 5511              	.LASF169:
 5512 0b1b 646F5478 		.ascii	"doTxSingleDMA\000"
 5512      53696E67 
 5512      6C65444D 
 5512      4100
 5513              		.ident	"GCC: (GNU Tools for ARM Embedded Processors) 5.4.1 20160609 (release) [ARM/embedded-5-bran
