ARM GAS  C:\Users\r\AppData\Local\Temp\ccPyPv3P.s 			page 1


   1              		.syntax unified
   2              		.cpu cortex-m3
   3              		.fpu softvfp
   4              		.eabi_attribute 20, 1
   5              		.eabi_attribute 21, 1
   6              		.eabi_attribute 23, 3
   7              		.eabi_attribute 24, 1
   8              		.eabi_attribute 25, 1
   9              		.eabi_attribute 26, 1
  10              		.eabi_attribute 30, 6
  11              		.eabi_attribute 34, 1
  12              		.eabi_attribute 18, 4
  13              		.thumb
  14              		.syntax unified
  15              		.file	"SDCard_INT.c"
  16              		.text
  17              	.Ltext0:
  18              		.cfi_sections	.debug_frame
  19              		.section	.text.SDCard_TX_ISR,"ax",%progbits
  20              		.align	2
  21              		.global	SDCard_TX_ISR
  22              		.thumb
  23              		.thumb_func
  24              		.type	SDCard_TX_ISR, %function
  25              	SDCard_TX_ISR:
  26              	.LFB0:
  27              		.file 1 "Generated_Source\\PSoC5\\SDCard_INT.c"
   1:Generated_Source\PSoC5/SDCard_INT.c **** /*******************************************************************************
   2:Generated_Source\PSoC5/SDCard_INT.c **** * File Name: SDCard_INT.c
   3:Generated_Source\PSoC5/SDCard_INT.c **** * Version 2.50
   4:Generated_Source\PSoC5/SDCard_INT.c **** *
   5:Generated_Source\PSoC5/SDCard_INT.c **** * Description:
   6:Generated_Source\PSoC5/SDCard_INT.c **** *  This file provides all Interrupt Service Routine (ISR) for the SPI Master
   7:Generated_Source\PSoC5/SDCard_INT.c **** *  component.
   8:Generated_Source\PSoC5/SDCard_INT.c **** *
   9:Generated_Source\PSoC5/SDCard_INT.c **** * Note:
  10:Generated_Source\PSoC5/SDCard_INT.c **** *  None.
  11:Generated_Source\PSoC5/SDCard_INT.c **** *
  12:Generated_Source\PSoC5/SDCard_INT.c **** ********************************************************************************
  13:Generated_Source\PSoC5/SDCard_INT.c **** * Copyright 2008-2015, Cypress Semiconductor Corporation.  All rights reserved.
  14:Generated_Source\PSoC5/SDCard_INT.c **** * You may use this file only in accordance with the license, terms, conditions,
  15:Generated_Source\PSoC5/SDCard_INT.c **** * disclaimers, and limitations in the end user license agreement accompanying
  16:Generated_Source\PSoC5/SDCard_INT.c **** * the software package with which this file was provided.
  17:Generated_Source\PSoC5/SDCard_INT.c **** *******************************************************************************/
  18:Generated_Source\PSoC5/SDCard_INT.c **** 
  19:Generated_Source\PSoC5/SDCard_INT.c **** #include "SDCard_PVT.h"
  20:Generated_Source\PSoC5/SDCard_INT.c **** 
  21:Generated_Source\PSoC5/SDCard_INT.c **** 
  22:Generated_Source\PSoC5/SDCard_INT.c **** /* User code required at start of ISR */
  23:Generated_Source\PSoC5/SDCard_INT.c **** /* `#START SDCard_ISR_START_DEF` */
  24:Generated_Source\PSoC5/SDCard_INT.c **** 
  25:Generated_Source\PSoC5/SDCard_INT.c **** /* `#END` */
  26:Generated_Source\PSoC5/SDCard_INT.c **** 
  27:Generated_Source\PSoC5/SDCard_INT.c **** 
  28:Generated_Source\PSoC5/SDCard_INT.c **** /*******************************************************************************
  29:Generated_Source\PSoC5/SDCard_INT.c **** * Function Name: SDCard_TX_ISR
  30:Generated_Source\PSoC5/SDCard_INT.c **** ********************************************************************************
ARM GAS  C:\Users\r\AppData\Local\Temp\ccPyPv3P.s 			page 2


  31:Generated_Source\PSoC5/SDCard_INT.c **** *
  32:Generated_Source\PSoC5/SDCard_INT.c **** * Summary:
  33:Generated_Source\PSoC5/SDCard_INT.c **** *  Interrupt Service Routine for TX portion of the SPI Master.
  34:Generated_Source\PSoC5/SDCard_INT.c **** *
  35:Generated_Source\PSoC5/SDCard_INT.c **** * Parameters:
  36:Generated_Source\PSoC5/SDCard_INT.c **** *  None.
  37:Generated_Source\PSoC5/SDCard_INT.c **** *
  38:Generated_Source\PSoC5/SDCard_INT.c **** * Return:
  39:Generated_Source\PSoC5/SDCard_INT.c **** *  None.
  40:Generated_Source\PSoC5/SDCard_INT.c **** *
  41:Generated_Source\PSoC5/SDCard_INT.c **** * Global variables:
  42:Generated_Source\PSoC5/SDCard_INT.c **** *  SDCard_txBufferWrite - used for the account of the bytes which
  43:Generated_Source\PSoC5/SDCard_INT.c **** *  have been written down in the TX software buffer.
  44:Generated_Source\PSoC5/SDCard_INT.c **** *  SDCard_txBufferRead - used for the account of the bytes which
  45:Generated_Source\PSoC5/SDCard_INT.c **** *  have been read from the TX software buffer, modified when exist data to
  46:Generated_Source\PSoC5/SDCard_INT.c **** *  sending and FIFO Not Full.
  47:Generated_Source\PSoC5/SDCard_INT.c **** *  SDCard_txBuffer[SDCard_TX_BUFFER_SIZE] - used to store
  48:Generated_Source\PSoC5/SDCard_INT.c **** *  data to sending.
  49:Generated_Source\PSoC5/SDCard_INT.c **** *  All described above Global variables are used when Software Buffer is used.
  50:Generated_Source\PSoC5/SDCard_INT.c **** *
  51:Generated_Source\PSoC5/SDCard_INT.c **** *******************************************************************************/
  52:Generated_Source\PSoC5/SDCard_INT.c **** CY_ISR(SDCard_TX_ISR)
  53:Generated_Source\PSoC5/SDCard_INT.c **** {
  28              		.loc 1 53 0
  29              		.cfi_startproc
  30              		@ args = 0, pretend = 0, frame = 0
  31              		@ frame_needed = 1, uses_anonymous_args = 0
  32              		@ link register save eliminated.
  33 0000 80B4     		push	{r7}
  34              		.cfi_def_cfa_offset 4
  35              		.cfi_offset 7, -4
  36 0002 00AF     		add	r7, sp, #0
  37              		.cfi_def_cfa_register 7
  54:Generated_Source\PSoC5/SDCard_INT.c ****     #if(SDCard_TX_SOFTWARE_BUF_ENABLED)
  55:Generated_Source\PSoC5/SDCard_INT.c ****         uint8 tmpStatus;
  56:Generated_Source\PSoC5/SDCard_INT.c ****     #endif /* (SDCard_TX_SOFTWARE_BUF_ENABLED) */
  57:Generated_Source\PSoC5/SDCard_INT.c **** 
  58:Generated_Source\PSoC5/SDCard_INT.c ****     #ifdef SDCard_TX_ISR_ENTRY_CALLBACK
  59:Generated_Source\PSoC5/SDCard_INT.c ****         SDCard_TX_ISR_EntryCallback();
  60:Generated_Source\PSoC5/SDCard_INT.c ****     #endif /* SDCard_TX_ISR_ENTRY_CALLBACK */
  61:Generated_Source\PSoC5/SDCard_INT.c **** 
  62:Generated_Source\PSoC5/SDCard_INT.c ****     /* User code required at start of ISR */
  63:Generated_Source\PSoC5/SDCard_INT.c ****     /* `#START SDCard_TX_ISR_START` */
  64:Generated_Source\PSoC5/SDCard_INT.c **** 
  65:Generated_Source\PSoC5/SDCard_INT.c ****     /* `#END` */
  66:Generated_Source\PSoC5/SDCard_INT.c ****     
  67:Generated_Source\PSoC5/SDCard_INT.c ****     #if(SDCard_TX_SOFTWARE_BUF_ENABLED)
  68:Generated_Source\PSoC5/SDCard_INT.c ****         /* Check if TX data buffer is not empty and there is space in TX FIFO */
  69:Generated_Source\PSoC5/SDCard_INT.c ****         while(SDCard_txBufferRead != SDCard_txBufferWrite)
  70:Generated_Source\PSoC5/SDCard_INT.c ****         {
  71:Generated_Source\PSoC5/SDCard_INT.c ****             tmpStatus = SDCard_GET_STATUS_TX(SDCard_swStatusTx);
  72:Generated_Source\PSoC5/SDCard_INT.c ****             SDCard_swStatusTx = tmpStatus;
  73:Generated_Source\PSoC5/SDCard_INT.c **** 
  74:Generated_Source\PSoC5/SDCard_INT.c ****             if(0u != (SDCard_swStatusTx & SDCard_STS_TX_FIFO_NOT_FULL))
  75:Generated_Source\PSoC5/SDCard_INT.c ****             {
  76:Generated_Source\PSoC5/SDCard_INT.c ****                 if(0u == SDCard_txBufferFull)
  77:Generated_Source\PSoC5/SDCard_INT.c ****                 {
ARM GAS  C:\Users\r\AppData\Local\Temp\ccPyPv3P.s 			page 3


  78:Generated_Source\PSoC5/SDCard_INT.c ****                    SDCard_txBufferRead++;
  79:Generated_Source\PSoC5/SDCard_INT.c **** 
  80:Generated_Source\PSoC5/SDCard_INT.c ****                     if(SDCard_txBufferRead >= SDCard_TX_BUFFER_SIZE)
  81:Generated_Source\PSoC5/SDCard_INT.c ****                     {
  82:Generated_Source\PSoC5/SDCard_INT.c ****                         SDCard_txBufferRead = 0u;
  83:Generated_Source\PSoC5/SDCard_INT.c ****                     }
  84:Generated_Source\PSoC5/SDCard_INT.c ****                 }
  85:Generated_Source\PSoC5/SDCard_INT.c ****                 else
  86:Generated_Source\PSoC5/SDCard_INT.c ****                 {
  87:Generated_Source\PSoC5/SDCard_INT.c ****                     SDCard_txBufferFull = 0u;
  88:Generated_Source\PSoC5/SDCard_INT.c ****                 }
  89:Generated_Source\PSoC5/SDCard_INT.c **** 
  90:Generated_Source\PSoC5/SDCard_INT.c ****                 /* Put data element into the TX FIFO */
  91:Generated_Source\PSoC5/SDCard_INT.c ****                 CY_SET_REG8(SDCard_TXDATA_PTR, 
  92:Generated_Source\PSoC5/SDCard_INT.c ****                                              SDCard_txBuffer[SDCard_txBufferRead]);
  93:Generated_Source\PSoC5/SDCard_INT.c ****             }
  94:Generated_Source\PSoC5/SDCard_INT.c ****             else
  95:Generated_Source\PSoC5/SDCard_INT.c ****             {
  96:Generated_Source\PSoC5/SDCard_INT.c ****                 break;
  97:Generated_Source\PSoC5/SDCard_INT.c ****             }
  98:Generated_Source\PSoC5/SDCard_INT.c ****         }
  99:Generated_Source\PSoC5/SDCard_INT.c **** 
 100:Generated_Source\PSoC5/SDCard_INT.c ****         if(SDCard_txBufferRead == SDCard_txBufferWrite)
 101:Generated_Source\PSoC5/SDCard_INT.c ****         {
 102:Generated_Source\PSoC5/SDCard_INT.c ****             /* TX Buffer is EMPTY: disable interrupt on TX NOT FULL */
 103:Generated_Source\PSoC5/SDCard_INT.c ****             SDCard_TX_STATUS_MASK_REG &= ((uint8) ~SDCard_STS_TX_FIFO_NOT_FULL);
 104:Generated_Source\PSoC5/SDCard_INT.c ****         }
 105:Generated_Source\PSoC5/SDCard_INT.c **** 
 106:Generated_Source\PSoC5/SDCard_INT.c ****     #endif /* (SDCard_TX_SOFTWARE_BUF_ENABLED) */
 107:Generated_Source\PSoC5/SDCard_INT.c **** 
 108:Generated_Source\PSoC5/SDCard_INT.c ****     /* User code required at end of ISR (Optional) */
 109:Generated_Source\PSoC5/SDCard_INT.c ****     /* `#START SDCard_TX_ISR_END` */
 110:Generated_Source\PSoC5/SDCard_INT.c **** 
 111:Generated_Source\PSoC5/SDCard_INT.c ****     /* `#END` */
 112:Generated_Source\PSoC5/SDCard_INT.c ****     
 113:Generated_Source\PSoC5/SDCard_INT.c ****     #ifdef SDCard_TX_ISR_EXIT_CALLBACK
 114:Generated_Source\PSoC5/SDCard_INT.c ****         SDCard_TX_ISR_ExitCallback();
 115:Generated_Source\PSoC5/SDCard_INT.c ****     #endif /* SDCard_TX_ISR_EXIT_CALLBACK */
 116:Generated_Source\PSoC5/SDCard_INT.c **** }
  38              		.loc 1 116 0
  39 0004 00BF     		nop
  40 0006 BD46     		mov	sp, r7
  41              		.cfi_def_cfa_register 13
  42              		@ sp needed
  43 0008 80BC     		pop	{r7}
  44              		.cfi_restore 7
  45              		.cfi_def_cfa_offset 0
  46 000a 7047     		bx	lr
  47              		.cfi_endproc
  48              	.LFE0:
  49              		.size	SDCard_TX_ISR, .-SDCard_TX_ISR
  50              		.section	.text.SDCard_RX_ISR,"ax",%progbits
  51              		.align	2
  52              		.global	SDCard_RX_ISR
  53              		.thumb
  54              		.thumb_func
  55              		.type	SDCard_RX_ISR, %function
ARM GAS  C:\Users\r\AppData\Local\Temp\ccPyPv3P.s 			page 4


  56              	SDCard_RX_ISR:
  57              	.LFB1:
 117:Generated_Source\PSoC5/SDCard_INT.c **** 
 118:Generated_Source\PSoC5/SDCard_INT.c **** 
 119:Generated_Source\PSoC5/SDCard_INT.c **** /*******************************************************************************
 120:Generated_Source\PSoC5/SDCard_INT.c **** * Function Name: SDCard_RX_ISR
 121:Generated_Source\PSoC5/SDCard_INT.c **** ********************************************************************************
 122:Generated_Source\PSoC5/SDCard_INT.c **** *
 123:Generated_Source\PSoC5/SDCard_INT.c **** * Summary:
 124:Generated_Source\PSoC5/SDCard_INT.c **** *  Interrupt Service Routine for RX portion of the SPI Master.
 125:Generated_Source\PSoC5/SDCard_INT.c **** *
 126:Generated_Source\PSoC5/SDCard_INT.c **** * Parameters:
 127:Generated_Source\PSoC5/SDCard_INT.c **** *  None.
 128:Generated_Source\PSoC5/SDCard_INT.c **** *
 129:Generated_Source\PSoC5/SDCard_INT.c **** * Return:
 130:Generated_Source\PSoC5/SDCard_INT.c **** *  None.
 131:Generated_Source\PSoC5/SDCard_INT.c **** *
 132:Generated_Source\PSoC5/SDCard_INT.c **** * Global variables:
 133:Generated_Source\PSoC5/SDCard_INT.c **** *  SDCard_rxBufferWrite - used for the account of the bytes which
 134:Generated_Source\PSoC5/SDCard_INT.c **** *  have been written down in the RX software buffer modified when FIFO contains
 135:Generated_Source\PSoC5/SDCard_INT.c **** *  new data.
 136:Generated_Source\PSoC5/SDCard_INT.c **** *  SDCard_rxBufferRead - used for the account of the bytes which
 137:Generated_Source\PSoC5/SDCard_INT.c **** *  have been read from the RX software buffer, modified when overflow occurred.
 138:Generated_Source\PSoC5/SDCard_INT.c **** *  SDCard_rxBuffer[SDCard_RX_BUFFER_SIZE] - used to store
 139:Generated_Source\PSoC5/SDCard_INT.c **** *  received data, modified when FIFO contains new data.
 140:Generated_Source\PSoC5/SDCard_INT.c **** *  All described above Global variables are used when Software Buffer is used.
 141:Generated_Source\PSoC5/SDCard_INT.c **** *
 142:Generated_Source\PSoC5/SDCard_INT.c **** *******************************************************************************/
 143:Generated_Source\PSoC5/SDCard_INT.c **** CY_ISR(SDCard_RX_ISR)
 144:Generated_Source\PSoC5/SDCard_INT.c **** {
  58              		.loc 1 144 0
  59              		.cfi_startproc
  60              		@ args = 0, pretend = 0, frame = 0
  61              		@ frame_needed = 1, uses_anonymous_args = 0
  62              		@ link register save eliminated.
  63 0000 80B4     		push	{r7}
  64              		.cfi_def_cfa_offset 4
  65              		.cfi_offset 7, -4
  66 0002 00AF     		add	r7, sp, #0
  67              		.cfi_def_cfa_register 7
 145:Generated_Source\PSoC5/SDCard_INT.c ****     #if(SDCard_RX_SOFTWARE_BUF_ENABLED)
 146:Generated_Source\PSoC5/SDCard_INT.c ****         uint8 tmpStatus;
 147:Generated_Source\PSoC5/SDCard_INT.c ****         uint8 rxData;
 148:Generated_Source\PSoC5/SDCard_INT.c ****     #endif /* (SDCard_RX_SOFTWARE_BUF_ENABLED) */
 149:Generated_Source\PSoC5/SDCard_INT.c **** 
 150:Generated_Source\PSoC5/SDCard_INT.c ****     #ifdef SDCard_RX_ISR_ENTRY_CALLBACK
 151:Generated_Source\PSoC5/SDCard_INT.c ****         SDCard_RX_ISR_EntryCallback();
 152:Generated_Source\PSoC5/SDCard_INT.c ****     #endif /* SDCard_RX_ISR_ENTRY_CALLBACK */
 153:Generated_Source\PSoC5/SDCard_INT.c **** 
 154:Generated_Source\PSoC5/SDCard_INT.c ****     /* User code required at start of ISR */
 155:Generated_Source\PSoC5/SDCard_INT.c ****     /* `#START SDCard_RX_ISR_START` */
 156:Generated_Source\PSoC5/SDCard_INT.c **** 
 157:Generated_Source\PSoC5/SDCard_INT.c ****     /* `#END` */
 158:Generated_Source\PSoC5/SDCard_INT.c ****     
 159:Generated_Source\PSoC5/SDCard_INT.c ****     #if(SDCard_RX_SOFTWARE_BUF_ENABLED)
 160:Generated_Source\PSoC5/SDCard_INT.c **** 
 161:Generated_Source\PSoC5/SDCard_INT.c ****         tmpStatus = SDCard_GET_STATUS_RX(SDCard_swStatusRx);
ARM GAS  C:\Users\r\AppData\Local\Temp\ccPyPv3P.s 			page 5


 162:Generated_Source\PSoC5/SDCard_INT.c ****         SDCard_swStatusRx = tmpStatus;
 163:Generated_Source\PSoC5/SDCard_INT.c **** 
 164:Generated_Source\PSoC5/SDCard_INT.c ****         /* Check if RX data FIFO has some data to be moved into the RX Buffer */
 165:Generated_Source\PSoC5/SDCard_INT.c ****         while(0u != (SDCard_swStatusRx & SDCard_STS_RX_FIFO_NOT_EMPTY))
 166:Generated_Source\PSoC5/SDCard_INT.c ****         {
 167:Generated_Source\PSoC5/SDCard_INT.c ****             rxData = CY_GET_REG8(SDCard_RXDATA_PTR);
 168:Generated_Source\PSoC5/SDCard_INT.c **** 
 169:Generated_Source\PSoC5/SDCard_INT.c ****             /* Set next pointer. */
 170:Generated_Source\PSoC5/SDCard_INT.c ****             SDCard_rxBufferWrite++;
 171:Generated_Source\PSoC5/SDCard_INT.c ****             if(SDCard_rxBufferWrite >= SDCard_RX_BUFFER_SIZE)
 172:Generated_Source\PSoC5/SDCard_INT.c ****             {
 173:Generated_Source\PSoC5/SDCard_INT.c ****                 SDCard_rxBufferWrite = 0u;
 174:Generated_Source\PSoC5/SDCard_INT.c ****             }
 175:Generated_Source\PSoC5/SDCard_INT.c **** 
 176:Generated_Source\PSoC5/SDCard_INT.c ****             if(SDCard_rxBufferWrite == SDCard_rxBufferRead)
 177:Generated_Source\PSoC5/SDCard_INT.c ****             {
 178:Generated_Source\PSoC5/SDCard_INT.c ****                 SDCard_rxBufferRead++;
 179:Generated_Source\PSoC5/SDCard_INT.c ****                 if(SDCard_rxBufferRead >= SDCard_RX_BUFFER_SIZE)
 180:Generated_Source\PSoC5/SDCard_INT.c ****                 {
 181:Generated_Source\PSoC5/SDCard_INT.c ****                     SDCard_rxBufferRead = 0u;
 182:Generated_Source\PSoC5/SDCard_INT.c ****                 }
 183:Generated_Source\PSoC5/SDCard_INT.c **** 
 184:Generated_Source\PSoC5/SDCard_INT.c ****                 SDCard_rxBufferFull = 1u;
 185:Generated_Source\PSoC5/SDCard_INT.c ****             }
 186:Generated_Source\PSoC5/SDCard_INT.c **** 
 187:Generated_Source\PSoC5/SDCard_INT.c ****             /* Move data from the FIFO to the Buffer */
 188:Generated_Source\PSoC5/SDCard_INT.c ****             SDCard_rxBuffer[SDCard_rxBufferWrite] = rxData;
 189:Generated_Source\PSoC5/SDCard_INT.c **** 
 190:Generated_Source\PSoC5/SDCard_INT.c ****             tmpStatus = SDCard_GET_STATUS_RX(SDCard_swStatusRx);
 191:Generated_Source\PSoC5/SDCard_INT.c ****             SDCard_swStatusRx = tmpStatus;
 192:Generated_Source\PSoC5/SDCard_INT.c ****         }
 193:Generated_Source\PSoC5/SDCard_INT.c **** 
 194:Generated_Source\PSoC5/SDCard_INT.c ****     #endif /* (SDCard_RX_SOFTWARE_BUF_ENABLED) */
 195:Generated_Source\PSoC5/SDCard_INT.c **** 
 196:Generated_Source\PSoC5/SDCard_INT.c ****     /* User code required at end of ISR (Optional) */
 197:Generated_Source\PSoC5/SDCard_INT.c ****     /* `#START SDCard_RX_ISR_END` */
 198:Generated_Source\PSoC5/SDCard_INT.c **** 
 199:Generated_Source\PSoC5/SDCard_INT.c ****     /* `#END` */
 200:Generated_Source\PSoC5/SDCard_INT.c ****     
 201:Generated_Source\PSoC5/SDCard_INT.c ****     #ifdef SDCard_RX_ISR_EXIT_CALLBACK
 202:Generated_Source\PSoC5/SDCard_INT.c ****         SDCard_RX_ISR_ExitCallback();
 203:Generated_Source\PSoC5/SDCard_INT.c ****     #endif /* SDCard_RX_ISR_EXIT_CALLBACK */
 204:Generated_Source\PSoC5/SDCard_INT.c **** }
  68              		.loc 1 204 0
  69 0004 00BF     		nop
  70 0006 BD46     		mov	sp, r7
  71              		.cfi_def_cfa_register 13
  72              		@ sp needed
  73 0008 80BC     		pop	{r7}
  74              		.cfi_restore 7
  75              		.cfi_def_cfa_offset 0
  76 000a 7047     		bx	lr
  77              		.cfi_endproc
  78              	.LFE1:
  79              		.size	SDCard_RX_ISR, .-SDCard_RX_ISR
  80              		.text
  81              	.Letext0:
ARM GAS  C:\Users\r\AppData\Local\Temp\ccPyPv3P.s 			page 6

