ARM GAS  C:\Users\r\AppData\Local\Temp\ccp8vXPe.s 			page 1


   1              		.syntax unified
   2              		.cpu cortex-m3
   3              		.fpu softvfp
   4              		.eabi_attribute 20, 1
   5              		.eabi_attribute 21, 1
   6              		.eabi_attribute 23, 3
   7              		.eabi_attribute 24, 1
   8              		.eabi_attribute 25, 1
   9              		.eabi_attribute 26, 1
  10              		.eabi_attribute 30, 6
  11              		.eabi_attribute 34, 1
  12              		.eabi_attribute 18, 4
  13              		.thumb
  14              		.syntax unified
  15              		.file	"tape.c"
  16              		.text
  17              	.Ltext0:
  18              		.cfi_sections	.debug_frame
  19              		.section	.text.scsiTapeCommand,"ax",%progbits
  20              		.align	2
  21              		.global	scsiTapeCommand
  22              		.thumb
  23              		.thumb_func
  24              		.type	scsiTapeCommand, %function
  25              	scsiTapeCommand:
  26              	.LFB64:
  27              		.file 1 "..\\..\\src\\tape.c"
   1:..\..\src/tape.c **** //	Copyright (C) 2015 Michael McMaster <michael@codesrc.com>
   2:..\..\src/tape.c **** //
   3:..\..\src/tape.c **** //	This file is part of SCSI2SD.
   4:..\..\src/tape.c **** //
   5:..\..\src/tape.c **** //	SCSI2SD is free software: you can redistribute it and/or modify
   6:..\..\src/tape.c **** //	it under the terms of the GNU General Public License as published by
   7:..\..\src/tape.c **** //	the Free Software Foundation, either version 3 of the License, or
   8:..\..\src/tape.c **** //	(at your option) any later version.
   9:..\..\src/tape.c **** //
  10:..\..\src/tape.c **** //	SCSI2SD is distributed in the hope that it will be useful,
  11:..\..\src/tape.c **** //	but WITHOUT ANY WARRANTY; without even the implied warranty of
  12:..\..\src/tape.c **** //	MERCHANTABILITY or FITNESS FOR A PARTICULAR PURPOSE.  See the
  13:..\..\src/tape.c **** //	GNU General Public License for more details.
  14:..\..\src/tape.c **** //
  15:..\..\src/tape.c **** //	You should have received a copy of the GNU General Public License
  16:..\..\src/tape.c **** //	along with SCSI2SD.  If not, see <http://www.gnu.org/licenses/>.
  17:..\..\src/tape.c **** 
  18:..\..\src/tape.c **** #include "device.h"
  19:..\..\src/tape.c **** #include "scsi.h"
  20:..\..\src/tape.c **** #include "config.h"
  21:..\..\src/tape.c **** #include "tape.h"
  22:..\..\src/tape.c **** 
  23:..\..\src/tape.c **** // Handle sequential scsi device commands
  24:..\..\src/tape.c **** int scsiTapeCommand()
  25:..\..\src/tape.c **** {
  28              		.loc 1 25 0
  29              		.cfi_startproc
  30              		@ args = 0, pretend = 0, frame = 0
  31              		@ frame_needed = 1, uses_anonymous_args = 0
  32              		@ link register save eliminated.
ARM GAS  C:\Users\r\AppData\Local\Temp\ccp8vXPe.s 			page 2


  33 0000 80B4     		push	{r7}
  34              		.cfi_def_cfa_offset 4
  35              		.cfi_offset 7, -4
  36 0002 00AF     		add	r7, sp, #0
  37              		.cfi_def_cfa_register 7
  26:..\..\src/tape.c **** 	// TODO handle tape-specific read/write commands and return 1
  27:..\..\src/tape.c **** 
  28:..\..\src/tape.c **** 	return 0;
  38              		.loc 1 28 0
  39 0004 0023     		movs	r3, #0
  29:..\..\src/tape.c **** }...
  40              		.loc 1 29 0
  41 0006 1846     		mov	r0, r3
  42 0008 BD46     		mov	sp, r7
  43              		.cfi_def_cfa_register 13
  44              		@ sp needed
  45 000a 80BC     		pop	{r7}
  46              		.cfi_restore 7
  47              		.cfi_def_cfa_offset 0
  48 000c 7047     		bx	lr
  49              		.cfi_endproc
  50              	.LFE64:
  51              		.size	scsiTapeCommand, .-scsiTapeCommand
  52 000e 00BF     		.text
  53              	.Letext0:
  54              		.file 2 "c:\\program files (x86)\\cypress\\psoc creator\\4.2\\psoc creator\\import\\gnu\\arm\\5.4.
  55              		.file 3 "c:\\program files (x86)\\cypress\\psoc creator\\4.2\\psoc creator\\import\\gnu\\arm\\5.4.
  56              		.file 4 "Generated_Source\\PSoC5/core_cm3.h"