ARM GAS  C:\Users\r\AppData\Local\Temp\ccfl9CKh.s 			page 1


   1              		.syntax unified
   2              		.cpu cortex-m3
   3              		.fpu softvfp
   4              		.eabi_attribute 20, 1
   5              		.eabi_attribute 21, 1
   6              		.eabi_attribute 23, 3
   7              		.eabi_attribute 24, 1
   8              		.eabi_attribute 25, 1
   9              		.eabi_attribute 26, 1
  10              		.eabi_attribute 30, 6
  11              		.eabi_attribute 34, 1
  12              		.eabi_attribute 18, 4
  13              		.thumb
  14              		.syntax unified
  15              		.file	"trace.c"
  16              		.text
  17              	.Ltext0:
  18              		.cfi_sections	.debug_frame
  19              		.comm	LastTrace,1,1
  20              		.section	.text.traceInit,"ax",%progbits
  21              		.align	2
  22              		.global	traceInit
  23              		.thumb
  24              		.thumb_func
  25              		.type	traceInit, %function
  26              	traceInit:
  27              	.LFB63:
  28              		.file 1 "..\\..\\src\\trace.c"
   1:..\..\src/trace.c **** //	Copyright (C) 2015 James Laird-Wah <james@laird-wah.net>
   2:..\..\src/trace.c **** //
   3:..\..\src/trace.c **** //	This file is part of SCSI2SD.
   4:..\..\src/trace.c **** //
   5:..\..\src/trace.c **** //	SCSI2SD is free software: you can redistribute it and/or modify
   6:..\..\src/trace.c **** //	it under the terms of the GNU General Public License as published by
   7:..\..\src/trace.c **** //	the Free Software Foundation, either version 3 of the License, or
   8:..\..\src/trace.c **** //	(at your option) any later version.
   9:..\..\src/trace.c **** //
  10:..\..\src/trace.c **** //	SCSI2SD is distributed in the hope that it will be useful,
  11:..\..\src/trace.c **** //	but WITHOUT ANY WARRANTY; without even the implied warranty of
  12:..\..\src/trace.c **** //	MERCHANTABILITY or FITNESS FOR A PARTICULAR PURPOSE.  See the
  13:..\..\src/trace.c **** //	GNU General Public License for more details.
  14:..\..\src/trace.c **** //
  15:..\..\src/trace.c **** //	You should have received a copy of the GNU General Public License
  16:..\..\src/trace.c **** //	along with SCSI2SD.  If not, see <http://www.gnu.org/licenses/>.
  17:..\..\src/trace.c **** 
  18:..\..\src/trace.c **** #include <core_cm3_psoc5.h>
  19:..\..\src/trace.c **** #include <stdint.h>
  20:..\..\src/trace.c **** #include <cyfitter.h>
  21:..\..\src/trace.c **** #include <cytypes.h>
  22:..\..\src/trace.c **** #include <device.h>
  23:..\..\src/trace.c **** #include "trace.h"
  24:..\..\src/trace.c **** 
  25:..\..\src/trace.c **** // configure desired baud rate on the SWV pin.
  26:..\..\src/trace.c **** // up to the lower of CPU_clk/2 or 33MHz
  27:..\..\src/trace.c **** #define BAUD_RATE 921600
  28:..\..\src/trace.c **** 
  29:..\..\src/trace.c **** // Cortex-M3 Trace Port Interface Unit (TPIU)
ARM GAS  C:\Users\r\AppData\Local\Temp\ccfl9CKh.s 			page 2


  30:..\..\src/trace.c **** #define TPIU_BASE	0xe0040000
  31:..\..\src/trace.c **** #define MMIO32(addr) *((volatile uint32_t*)(addr))
  32:..\..\src/trace.c **** #define TPIU_SSPSR	MMIO32(TPIU_BASE + 0x000)
  33:..\..\src/trace.c **** #define TPIU_CSPSR	MMIO32(TPIU_BASE + 0x004)
  34:..\..\src/trace.c **** #define TPIU_ACPR	MMIO32(TPIU_BASE + 0x010)
  35:..\..\src/trace.c **** #define TPIU_SPPR	MMIO32(TPIU_BASE + 0x0F0)
  36:..\..\src/trace.c **** #define TPIU_FFSR	MMIO32(TPIU_BASE + 0x300)
  37:..\..\src/trace.c **** #define TPIU_FFCR	MMIO32(TPIU_BASE + 0x304)
  38:..\..\src/trace.c **** 
  39:..\..\src/trace.c **** #define TPIU_CSPSR_BYTE (1 << 0)
  40:..\..\src/trace.c **** #define TPIU_CSPSR_HALFWORD	(1 << 1)
  41:..\..\src/trace.c **** #define TPIU_CSPSR_WORD	(1 << 3)
  42:..\..\src/trace.c **** 
  43:..\..\src/trace.c **** #define TPIU_SPPR_SYNC	(0x0)
  44:..\..\src/trace.c **** #define TPIU_SPPR_ASYNC_MANCHESTER	(0x1)
  45:..\..\src/trace.c **** #define TPIU_SPPR_ASYNC_NRZ	(0x2)
  46:..\..\src/trace.c **** 
  47:..\..\src/trace.c **** #define TPIU_FFCR_ENFCONT	(1 << 1)
  48:..\..\src/trace.c **** 
  49:..\..\src/trace.c **** uint8_t LastTrace;
  50:..\..\src/trace.c **** 
  51:..\..\src/trace.c **** void traceInit(void) {
  29              		.loc 1 51 0
  30              		.cfi_startproc
  31              		@ args = 0, pretend = 0, frame = 0
  32              		@ frame_needed = 1, uses_anonymous_args = 0
  33              		@ link register save eliminated.
  34 0000 80B4     		push	{r7}
  35              		.cfi_def_cfa_offset 4
  36              		.cfi_offset 7, -4
  37 0002 00AF     		add	r7, sp, #0
  38              		.cfi_def_cfa_register 7
  52:..\..\src/trace.c **** 	// enable the trace module clocks
  53:..\..\src/trace.c **** 	CoreDebug->DEMCR |= CoreDebug_DEMCR_TRCENA_Msk;
  39              		.loc 1 53 0
  40 0004 154A     		ldr	r2, .L2
  41 0006 154B     		ldr	r3, .L2
  42 0008 DB68     		ldr	r3, [r3, #12]
  43 000a 43F08073 		orr	r3, r3, #16777216
  44 000e D360     		str	r3, [r2, #12]
  54:..\..\src/trace.c **** 	
  55:..\..\src/trace.c **** 	// set SWV clock = CPU clock / 2, and enable
  56:..\..\src/trace.c **** 	CY_SET_REG8(CYDEV_MFGCFG_MLOGIC_DEBUG, 0xc); // swv_clk_sel = CPU_clk / 2, swv_clk enable
  45              		.loc 1 56 0
  46 0010 134B     		ldr	r3, .L2+4
  47 0012 0C22     		movs	r2, #12
  48 0014 1A70     		strb	r2, [r3]
  57:..\..\src/trace.c **** 	
  58:..\..\src/trace.c **** 	// unlock the ETM/TPIU registers
  59:..\..\src/trace.c **** 	*((volatile uint32_t*)0xE0000FB0) = 0xC5ACCE55;
  49              		.loc 1 59 0
  50 0016 134B     		ldr	r3, .L2+8
  51 0018 134A     		ldr	r2, .L2+12
  52 001a 1A60     		str	r2, [r3]
  60:..\..\src/trace.c **** 	
  61:..\..\src/trace.c **** 	// NRZ is "UART mode"
  62:..\..\src/trace.c **** 	TPIU_SPPR = TPIU_SPPR_ASYNC_NRZ;
ARM GAS  C:\Users\r\AppData\Local\Temp\ccfl9CKh.s 			page 3


  53              		.loc 1 62 0
  54 001c 134B     		ldr	r3, .L2+16
  55 001e 0222     		movs	r2, #2
  56 0020 1A60     		str	r2, [r3]
  63:..\..\src/trace.c **** 	// prescaler, 0 = divide by 1
  64:..\..\src/trace.c **** 	TPIU_ACPR = (BCLK__BUS_CLK__HZ/2/BAUD_RATE) - 1;
  57              		.loc 1 64 0
  58 0022 134B     		ldr	r3, .L2+20
  59 0024 1A22     		movs	r2, #26
  60 0026 1A60     		str	r2, [r3]
  65:..\..\src/trace.c **** 	// can write 1, 2 or 4 byte ports
  66:..\..\src/trace.c **** 	TPIU_CSPSR = TPIU_CSPSR_BYTE;
  61              		.loc 1 66 0
  62 0028 124B     		ldr	r3, .L2+24
  63 002a 0122     		movs	r2, #1
  64 002c 1A60     		str	r2, [r3]
  67:..\..\src/trace.c **** 
  68:..\..\src/trace.c **** 	// bypass formatter (puts sync & stuff in otherwise)
  69:..\..\src/trace.c **** 	TPIU_FFCR &= ~TPIU_FFCR_ENFCONT;
  65              		.loc 1 69 0
  66 002e 124A     		ldr	r2, .L2+28
  67 0030 114B     		ldr	r3, .L2+28
  68 0032 1B68     		ldr	r3, [r3]
  69 0034 23F00203 		bic	r3, r3, #2
  70 0038 1360     		str	r3, [r2]
  70:..\..\src/trace.c **** 	// enable ITM, enable the first 2 stimulus ports
  71:..\..\src/trace.c **** 	ITM->TCR = ITM_TCR_ITMENA_Msk;
  71              		.loc 1 71 0
  72 003a 4FF06043 		mov	r3, #-536870912
  73 003e 0122     		movs	r2, #1
  74 0040 C3F8802E 		str	r2, [r3, #3712]
  72:..\..\src/trace.c **** 	ITM->TER = 0x3;
  75              		.loc 1 72 0
  76 0044 4FF06043 		mov	r3, #-536870912
  77 0048 0322     		movs	r2, #3
  78 004a C3F8002E 		str	r2, [r3, #3584]
  73:..\..\src/trace.c **** 	
  74:..\..\src/trace.c **** 	trace(trace_begin);
  79              		.loc 1 74 0
  80 004e 0B4B     		ldr	r3, .L2+32
  81 0050 0022     		movs	r2, #0
  82 0052 1A70     		strb	r2, [r3]
  75:..\..\src/trace.c **** }
  83              		.loc 1 75 0
  84 0054 00BF     		nop
  85 0056 BD46     		mov	sp, r7
  86              		.cfi_def_cfa_register 13
  87              		@ sp needed
  88 0058 80BC     		pop	{r7}
  89              		.cfi_restore 7
  90              		.cfi_def_cfa_offset 0
  91 005a 7047     		bx	lr
  92              	.L3:
  93              		.align	2
  94              	.L2:
  95 005c F0ED00E0 		.word	-536810000
  96 0060 E8460040 		.word	1073759976
ARM GAS  C:\Users\r\AppData\Local\Temp\ccfl9CKh.s 			page 4


  97 0064 B00F00E0 		.word	-536866896
  98 0068 55CEACC5 		.word	-978530731
  99 006c F00004E0 		.word	-536608528
 100 0070 100004E0 		.word	-536608752
 101 0074 040004E0 		.word	-536608764
 102 0078 040304E0 		.word	-536607996
 103 007c 00000000 		.word	LastTrace
 104              		.cfi_endproc
 105              	.LFE63:
 106              		.size	traceInit, .-traceInit
 107              		.text
 108              	.Letext0:
 109              		.file 2 "c:\\program files (x86)\\cypress\\psoc creator\\4.2\\psoc creator\\import\\gnu\\arm\\5.4.
 110              		.file 3 "c:\\program files (x86)\\cypress\\psoc creator\\4.2\\psoc creator\\import\\gnu\\arm\\5.4.
 111              		.file 4 "Generated_Source\\PSoC5/cytypes.h"
 112              		.file 5 "Generated_Source\\PSoC5/core_cm3.h"
 113              		.file 6 "..\\..\\src\\trace.h"