ARM GAS  C:\Users\r\AppData\Local\Temp\cc1ZPxnI.s 			page 1


   1              		.syntax unified
   2              		.cpu cortex-m3
   3              		.fpu softvfp
   4              		.eabi_attribute 20, 1
   5              		.eabi_attribute 21, 1
   6              		.eabi_attribute 23, 3
   7              		.eabi_attribute 24, 1
   8              		.eabi_attribute 25, 1
   9              		.eabi_attribute 26, 1
  10              		.eabi_attribute 30, 6
  11              		.eabi_attribute 34, 1
  12              		.eabi_attribute 18, 4
  13              		.thumb
  14              		.syntax unified
  15              		.file	"USBFS_cls.c"
  16              		.text
  17              	.Ltext0:
  18              		.cfi_sections	.debug_frame
  19              		.section	.text.USBFS_DispatchClassRqst,"ax",%progbits
  20              		.align	2
  21              		.global	USBFS_DispatchClassRqst
  22              		.thumb
  23              		.thumb_func
  24              		.type	USBFS_DispatchClassRqst, %function
  25              	USBFS_DispatchClassRqst:
  26              	.LFB0:
  27              		.file 1 "Generated_Source\\PSoC5\\USBFS_cls.c"
   1:Generated_Source\PSoC5/USBFS_cls.c **** /***************************************************************************//**
   2:Generated_Source\PSoC5/USBFS_cls.c **** * \file USBFS_cls.c
   3:Generated_Source\PSoC5/USBFS_cls.c **** * \version 3.20
   4:Generated_Source\PSoC5/USBFS_cls.c **** *
   5:Generated_Source\PSoC5/USBFS_cls.c **** * \brief
   6:Generated_Source\PSoC5/USBFS_cls.c **** *  This file contains the USB Class request handler.
   7:Generated_Source\PSoC5/USBFS_cls.c **** *
   8:Generated_Source\PSoC5/USBFS_cls.c **** ********************************************************************************
   9:Generated_Source\PSoC5/USBFS_cls.c **** * \copyright
  10:Generated_Source\PSoC5/USBFS_cls.c **** * Copyright 2008-2016, Cypress Semiconductor Corporation.  All rights reserved.
  11:Generated_Source\PSoC5/USBFS_cls.c **** * You may use this file only in accordance with the license, terms, conditions,
  12:Generated_Source\PSoC5/USBFS_cls.c **** * disclaimers, and limitations in the end user license agreement accompanying
  13:Generated_Source\PSoC5/USBFS_cls.c **** * the software package with which this file was provided.
  14:Generated_Source\PSoC5/USBFS_cls.c **** *******************************************************************************/
  15:Generated_Source\PSoC5/USBFS_cls.c **** 
  16:Generated_Source\PSoC5/USBFS_cls.c **** #include "USBFS_pvt.h"
  17:Generated_Source\PSoC5/USBFS_cls.c **** 
  18:Generated_Source\PSoC5/USBFS_cls.c **** 
  19:Generated_Source\PSoC5/USBFS_cls.c **** #if(USBFS_EXTERN_CLS == USBFS_FALSE)
  20:Generated_Source\PSoC5/USBFS_cls.c **** 
  21:Generated_Source\PSoC5/USBFS_cls.c **** /***************************************
  22:Generated_Source\PSoC5/USBFS_cls.c **** * User Implemented Class Driver Declarations.
  23:Generated_Source\PSoC5/USBFS_cls.c **** ***************************************/
  24:Generated_Source\PSoC5/USBFS_cls.c **** /* `#START USER_DEFINED_CLASS_DECLARATIONS` Place your declaration here */
  25:Generated_Source\PSoC5/USBFS_cls.c **** 
  26:Generated_Source\PSoC5/USBFS_cls.c **** /* `#END` */
  27:Generated_Source\PSoC5/USBFS_cls.c **** 
  28:Generated_Source\PSoC5/USBFS_cls.c **** 
  29:Generated_Source\PSoC5/USBFS_cls.c **** /*******************************************************************************
  30:Generated_Source\PSoC5/USBFS_cls.c **** * Function Name: USBFS_DispatchClassRqst
ARM GAS  C:\Users\r\AppData\Local\Temp\cc1ZPxnI.s 			page 2


  31:Generated_Source\PSoC5/USBFS_cls.c **** ****************************************************************************//**
  32:Generated_Source\PSoC5/USBFS_cls.c **** *  This routine dispatches class specific requests depend on interface class.
  33:Generated_Source\PSoC5/USBFS_cls.c **** *
  34:Generated_Source\PSoC5/USBFS_cls.c **** * \return
  35:Generated_Source\PSoC5/USBFS_cls.c **** *  requestHandled.
  36:Generated_Source\PSoC5/USBFS_cls.c **** *
  37:Generated_Source\PSoC5/USBFS_cls.c **** * \reentrant
  38:Generated_Source\PSoC5/USBFS_cls.c **** *  No.
  39:Generated_Source\PSoC5/USBFS_cls.c **** *
  40:Generated_Source\PSoC5/USBFS_cls.c **** *******************************************************************************/
  41:Generated_Source\PSoC5/USBFS_cls.c **** uint8 USBFS_DispatchClassRqst(void) 
  42:Generated_Source\PSoC5/USBFS_cls.c **** {
  28              		.loc 1 42 0
  29              		.cfi_startproc
  30              		@ args = 0, pretend = 0, frame = 8
  31              		@ frame_needed = 1, uses_anonymous_args = 0
  32 0000 80B5     		push	{r7, lr}
  33              		.cfi_def_cfa_offset 8
  34              		.cfi_offset 7, -8
  35              		.cfi_offset 14, -4
  36 0002 82B0     		sub	sp, sp, #8
  37              		.cfi_def_cfa_offset 16
  38 0004 00AF     		add	r7, sp, #0
  39              		.cfi_def_cfa_register 7
  43:Generated_Source\PSoC5/USBFS_cls.c ****     uint8 interfaceNumber;
  44:Generated_Source\PSoC5/USBFS_cls.c ****     uint8 requestHandled = USBFS_FALSE;
  40              		.loc 1 44 0
  41 0006 0023     		movs	r3, #0
  42 0008 BB71     		strb	r3, [r7, #6]
  45:Generated_Source\PSoC5/USBFS_cls.c **** 
  46:Generated_Source\PSoC5/USBFS_cls.c ****     /* Get interface to which request is intended. */
  47:Generated_Source\PSoC5/USBFS_cls.c ****     switch (USBFS_bmRequestTypeReg & USBFS_RQST_RCPT_MASK)
  43              		.loc 1 47 0
  44 000a 1B4B     		ldr	r3, .L12
  45 000c 1B78     		ldrb	r3, [r3]
  46 000e DBB2     		uxtb	r3, r3
  47 0010 03F00303 		and	r3, r3, #3
  48 0014 012B     		cmp	r3, #1
  49 0016 02D0     		beq	.L3
  50 0018 022B     		cmp	r3, #2
  51 001a 04D0     		beq	.L4
  52 001c 12E0     		b	.L10
  53              	.L3:
  48:Generated_Source\PSoC5/USBFS_cls.c ****     {
  49:Generated_Source\PSoC5/USBFS_cls.c ****         case USBFS_RQST_RCPT_IFC:
  50:Generated_Source\PSoC5/USBFS_cls.c ****             /* Class-specific request directed to interface: wIndexLoReg 
  51:Generated_Source\PSoC5/USBFS_cls.c ****             * contains interface number.
  52:Generated_Source\PSoC5/USBFS_cls.c ****             */
  53:Generated_Source\PSoC5/USBFS_cls.c ****             interfaceNumber = (uint8) USBFS_wIndexLoReg;
  54              		.loc 1 53 0
  55 001e 164B     		ldr	r3, .L12
  56 0020 1B79     		ldrb	r3, [r3, #4]
  57 0022 FB71     		strb	r3, [r7, #7]
  54:Generated_Source\PSoC5/USBFS_cls.c ****             break;
  58              		.loc 1 54 0
  59 0024 11E0     		b	.L5
  60              	.L4:
ARM GAS  C:\Users\r\AppData\Local\Temp\cc1ZPxnI.s 			page 3


  55:Generated_Source\PSoC5/USBFS_cls.c ****         
  56:Generated_Source\PSoC5/USBFS_cls.c ****         case USBFS_RQST_RCPT_EP:
  57:Generated_Source\PSoC5/USBFS_cls.c ****             /* Class-specific request directed to endpoint: wIndexLoReg contains 
  58:Generated_Source\PSoC5/USBFS_cls.c ****             * endpoint number. Find interface related to endpoint. 
  59:Generated_Source\PSoC5/USBFS_cls.c ****             */
  60:Generated_Source\PSoC5/USBFS_cls.c ****             interfaceNumber = USBFS_EP[USBFS_wIndexLoReg & USBFS_DIR_UNUSED].interface;
  61              		.loc 1 60 0
  62 0026 144B     		ldr	r3, .L12
  63 0028 1B79     		ldrb	r3, [r3, #4]
  64 002a DBB2     		uxtb	r3, r3
  65 002c 03F07F02 		and	r2, r3, #127
  66 0030 1249     		ldr	r1, .L12+4
  67 0032 1346     		mov	r3, r2
  68 0034 5B00     		lsls	r3, r3, #1
  69 0036 1344     		add	r3, r3, r2
  70 0038 9B00     		lsls	r3, r3, #2
  71 003a 0B44     		add	r3, r3, r1
  72 003c 0A33     		adds	r3, r3, #10
  73 003e 1B78     		ldrb	r3, [r3]
  74 0040 FB71     		strb	r3, [r7, #7]
  61:Generated_Source\PSoC5/USBFS_cls.c ****             break;
  75              		.loc 1 61 0
  76 0042 02E0     		b	.L5
  77              	.L10:
  62:Generated_Source\PSoC5/USBFS_cls.c ****             
  63:Generated_Source\PSoC5/USBFS_cls.c ****         default:
  64:Generated_Source\PSoC5/USBFS_cls.c ****             /* Default interface is zero. */
  65:Generated_Source\PSoC5/USBFS_cls.c ****             interfaceNumber = 0u;
  78              		.loc 1 65 0
  79 0044 0023     		movs	r3, #0
  80 0046 FB71     		strb	r3, [r7, #7]
  66:Generated_Source\PSoC5/USBFS_cls.c ****             break;
  81              		.loc 1 66 0
  82 0048 00BF     		nop
  83              	.L5:
  67:Generated_Source\PSoC5/USBFS_cls.c ****     }
  68:Generated_Source\PSoC5/USBFS_cls.c ****     
  69:Generated_Source\PSoC5/USBFS_cls.c ****     /* Check that interface is within acceptable range */
  70:Generated_Source\PSoC5/USBFS_cls.c ****     if (interfaceNumber <= USBFS_MAX_INTERFACES_NUMBER)
  84              		.loc 1 70 0
  85 004a FB79     		ldrb	r3, [r7, #7]	@ zero_extendqisi2
  86 004c 022B     		cmp	r3, #2
  87 004e 0ED8     		bhi	.L6
  71:Generated_Source\PSoC5/USBFS_cls.c ****     {
  72:Generated_Source\PSoC5/USBFS_cls.c ****     #if (defined(USBFS_ENABLE_HID_CLASS)   || \
  73:Generated_Source\PSoC5/USBFS_cls.c ****          defined(USBFS_ENABLE_AUDIO_CLASS) || \
  74:Generated_Source\PSoC5/USBFS_cls.c ****          defined(USBFS_ENABLE_CDC_CLASS)   || \
  75:Generated_Source\PSoC5/USBFS_cls.c ****          USBFS_ENABLE_MSC_CLASS)
  76:Generated_Source\PSoC5/USBFS_cls.c **** 
  77:Generated_Source\PSoC5/USBFS_cls.c ****         /* Handle class request depends on interface type. */
  78:Generated_Source\PSoC5/USBFS_cls.c ****         switch (USBFS_interfaceClass[interfaceNumber])
  88              		.loc 1 78 0
  89 0050 0B4B     		ldr	r3, .L12+8
  90 0052 1A68     		ldr	r2, [r3]
  91 0054 FB79     		ldrb	r3, [r7, #7]	@ zero_extendqisi2
  92 0056 1344     		add	r3, r3, r2
  93 0058 1B78     		ldrb	r3, [r3]	@ zero_extendqisi2
ARM GAS  C:\Users\r\AppData\Local\Temp\cc1ZPxnI.s 			page 4


  94 005a 032B     		cmp	r3, #3
  95 005c 04D1     		bne	.L11
  79:Generated_Source\PSoC5/USBFS_cls.c ****         {
  80:Generated_Source\PSoC5/USBFS_cls.c ****         #if defined(USBFS_ENABLE_HID_CLASS)
  81:Generated_Source\PSoC5/USBFS_cls.c ****             case USBFS_CLASS_HID:
  82:Generated_Source\PSoC5/USBFS_cls.c ****                 requestHandled = USBFS_DispatchHIDClassRqst();
  96              		.loc 1 82 0
  97 005e FFF7FEFF 		bl	USBFS_DispatchHIDClassRqst
  98 0062 0346     		mov	r3, r0
  99 0064 BB71     		strb	r3, [r7, #6]
  83:Generated_Source\PSoC5/USBFS_cls.c ****                 break;
 100              		.loc 1 83 0
 101 0066 02E0     		b	.L6
 102              	.L11:
  84:Generated_Source\PSoC5/USBFS_cls.c ****         #endif /* (USBFS_ENABLE_HID_CLASS) */
  85:Generated_Source\PSoC5/USBFS_cls.c ****                 
  86:Generated_Source\PSoC5/USBFS_cls.c ****         #if defined(USBFS_ENABLE_AUDIO_CLASS)
  87:Generated_Source\PSoC5/USBFS_cls.c ****             case USBFS_CLASS_AUDIO:
  88:Generated_Source\PSoC5/USBFS_cls.c ****                 requestHandled = USBFS_DispatchAUDIOClassRqst();
  89:Generated_Source\PSoC5/USBFS_cls.c ****                 break;
  90:Generated_Source\PSoC5/USBFS_cls.c ****         #endif /* (USBFS_CLASS_AUDIO) */
  91:Generated_Source\PSoC5/USBFS_cls.c ****                 
  92:Generated_Source\PSoC5/USBFS_cls.c ****         #if defined(USBFS_ENABLE_CDC_CLASS)
  93:Generated_Source\PSoC5/USBFS_cls.c ****             case USBFS_CLASS_CDC:
  94:Generated_Source\PSoC5/USBFS_cls.c ****                 requestHandled = USBFS_DispatchCDCClassRqst();
  95:Generated_Source\PSoC5/USBFS_cls.c ****                 break;
  96:Generated_Source\PSoC5/USBFS_cls.c ****         #endif /* (USBFS_ENABLE_CDC_CLASS) */
  97:Generated_Source\PSoC5/USBFS_cls.c ****             
  98:Generated_Source\PSoC5/USBFS_cls.c ****         #if (USBFS_ENABLE_MSC_CLASS)
  99:Generated_Source\PSoC5/USBFS_cls.c ****             case USBFS_CLASS_MSD:
 100:Generated_Source\PSoC5/USBFS_cls.c ****             #if (USBFS_HANDLE_MSC_REQUESTS)
 101:Generated_Source\PSoC5/USBFS_cls.c ****                 /* MSC requests are handled by the component. */
 102:Generated_Source\PSoC5/USBFS_cls.c ****                 requestHandled = USBFS_DispatchMSCClassRqst();
 103:Generated_Source\PSoC5/USBFS_cls.c ****             #elif defined(USBFS_DISPATCH_MSC_CLASS_RQST_CALLBACK)
 104:Generated_Source\PSoC5/USBFS_cls.c ****                 /* MSC requests are handled by user defined callbcak. */
 105:Generated_Source\PSoC5/USBFS_cls.c ****                 requestHandled = USBFS_DispatchMSCClassRqst_Callback();
 106:Generated_Source\PSoC5/USBFS_cls.c ****             #else
 107:Generated_Source\PSoC5/USBFS_cls.c ****                 /* MSC requests are not handled. */
 108:Generated_Source\PSoC5/USBFS_cls.c ****                 requestHandled = USBFS_FALSE;
 109:Generated_Source\PSoC5/USBFS_cls.c ****             #endif /* (USBFS_HANDLE_MSC_REQUESTS) */
 110:Generated_Source\PSoC5/USBFS_cls.c ****                 break;
 111:Generated_Source\PSoC5/USBFS_cls.c ****         #endif /* (USBFS_ENABLE_MSC_CLASS) */
 112:Generated_Source\PSoC5/USBFS_cls.c ****             
 113:Generated_Source\PSoC5/USBFS_cls.c ****             default:
 114:Generated_Source\PSoC5/USBFS_cls.c ****                 /* Request is not handled: unknown class request type. */
 115:Generated_Source\PSoC5/USBFS_cls.c ****                 requestHandled = USBFS_FALSE;
 103              		.loc 1 115 0
 104 0068 0023     		movs	r3, #0
 105 006a BB71     		strb	r3, [r7, #6]
 116:Generated_Source\PSoC5/USBFS_cls.c ****                 break;
 106              		.loc 1 116 0
 107 006c 00BF     		nop
 108              	.L6:
 117:Generated_Source\PSoC5/USBFS_cls.c ****         }
 118:Generated_Source\PSoC5/USBFS_cls.c ****     #endif /* Class support is enabled */
 119:Generated_Source\PSoC5/USBFS_cls.c ****     }
 120:Generated_Source\PSoC5/USBFS_cls.c ****     
ARM GAS  C:\Users\r\AppData\Local\Temp\cc1ZPxnI.s 			page 5


 121:Generated_Source\PSoC5/USBFS_cls.c ****     /* `#START USER_DEFINED_CLASS_CODE` Place your Class request here */
 122:Generated_Source\PSoC5/USBFS_cls.c **** 
 123:Generated_Source\PSoC5/USBFS_cls.c ****     /* `#END` */
 124:Generated_Source\PSoC5/USBFS_cls.c **** 
 125:Generated_Source\PSoC5/USBFS_cls.c **** #ifdef USBFS_DISPATCH_CLASS_RQST_CALLBACK
 126:Generated_Source\PSoC5/USBFS_cls.c ****     if (USBFS_FALSE == requestHandled)
 127:Generated_Source\PSoC5/USBFS_cls.c ****     {
 128:Generated_Source\PSoC5/USBFS_cls.c ****         requestHandled = USBFS_DispatchClassRqst_Callback(interfaceNumber);
 129:Generated_Source\PSoC5/USBFS_cls.c ****     }
 130:Generated_Source\PSoC5/USBFS_cls.c **** #endif /* (USBFS_DISPATCH_CLASS_RQST_CALLBACK) */
 131:Generated_Source\PSoC5/USBFS_cls.c **** 
 132:Generated_Source\PSoC5/USBFS_cls.c ****     return (requestHandled);
 109              		.loc 1 132 0
 110 006e BB79     		ldrb	r3, [r7, #6]	@ zero_extendqisi2
 133:Generated_Source\PSoC5/USBFS_cls.c **** }
 111              		.loc 1 133 0
 112 0070 1846     		mov	r0, r3
 113 0072 0837     		adds	r7, r7, #8
 114              		.cfi_def_cfa_offset 8
 115 0074 BD46     		mov	sp, r7
 116              		.cfi_def_cfa_register 13
 117              		@ sp needed
 118 0076 80BD     		pop	{r7, pc}
 119              	.L13:
 120              		.align	2
 121              	.L12:
 122 0078 00600040 		.word	1073766400
 123 007c 00000000 		.word	USBFS_EP
 124 0080 00000000 		.word	USBFS_interfaceClass
 125              		.cfi_endproc
 126              	.LFE0:
 127              		.size	USBFS_DispatchClassRqst, .-USBFS_DispatchClassRqst
 128              		.text
 129              	.Letext0:
 130              		.file 2 "Generated_Source\\PSoC5\\cytypes.h"
 131              		.file 3 "Generated_Source\\PSoC5\\USBFS.h"
 132              		.file 4 "Generated_Source\\PSoC5\\USBFS_pvt.h"