ARM GAS  C:\Users\r\AppData\Local\Temp\ccDuGy4S.s 			page 1


   1              		.syntax unified
   2              		.cpu cortex-m3
   3              		.fpu softvfp
   4              		.eabi_attribute 20, 1
   5              		.eabi_attribute 21, 1
   6              		.eabi_attribute 23, 3
   7              		.eabi_attribute 24, 1
   8              		.eabi_attribute 25, 1
   9              		.eabi_attribute 26, 1
  10              		.eabi_attribute 30, 6
  11              		.eabi_attribute 34, 1
  12              		.eabi_attribute 18, 4
  13              		.thumb
  14              		.syntax unified
  15              		.file	"USBFS_std.c"
  16              		.text
  17              	.Ltext0:
  18              		.cfi_sections	.debug_frame
  19              		.section	.text.USBFS_HandleStandardRqst,"ax",%progbits
  20              		.align	2
  21              		.global	USBFS_HandleStandardRqst
  22              		.thumb
  23              		.thumb_func
  24              		.type	USBFS_HandleStandardRqst, %function
  25              	USBFS_HandleStandardRqst:
  26              	.LFB0:
  27              		.file 1 "Generated_Source\\PSoC5\\USBFS_std.c"
   1:Generated_Source\PSoC5/USBFS_std.c **** /***************************************************************************//**
   2:Generated_Source\PSoC5/USBFS_std.c **** * \file USBFS_std.c
   3:Generated_Source\PSoC5/USBFS_std.c **** * \version 3.20
   4:Generated_Source\PSoC5/USBFS_std.c **** *
   5:Generated_Source\PSoC5/USBFS_std.c **** * \brief
   6:Generated_Source\PSoC5/USBFS_std.c **** *  This file contains the USB Standard request handler.
   7:Generated_Source\PSoC5/USBFS_std.c **** *
   8:Generated_Source\PSoC5/USBFS_std.c **** ********************************************************************************
   9:Generated_Source\PSoC5/USBFS_std.c **** * \copyright
  10:Generated_Source\PSoC5/USBFS_std.c **** * Copyright 2008-2016, Cypress Semiconductor Corporation.  All rights reserved.
  11:Generated_Source\PSoC5/USBFS_std.c **** * You may use this file only in accordance with the license, terms, conditions,
  12:Generated_Source\PSoC5/USBFS_std.c **** * disclaimers, and limitations in the end user license agreement accompanying
  13:Generated_Source\PSoC5/USBFS_std.c **** * the software package with which this file was provided.
  14:Generated_Source\PSoC5/USBFS_std.c **** *******************************************************************************/
  15:Generated_Source\PSoC5/USBFS_std.c **** 
  16:Generated_Source\PSoC5/USBFS_std.c **** #include "USBFS_pvt.h"
  17:Generated_Source\PSoC5/USBFS_std.c **** 
  18:Generated_Source\PSoC5/USBFS_std.c **** /***************************************
  19:Generated_Source\PSoC5/USBFS_std.c **** *   Static data allocation
  20:Generated_Source\PSoC5/USBFS_std.c **** ***************************************/
  21:Generated_Source\PSoC5/USBFS_std.c **** 
  22:Generated_Source\PSoC5/USBFS_std.c **** #if defined(USBFS_ENABLE_FWSN_STRING)
  23:Generated_Source\PSoC5/USBFS_std.c ****     static volatile uint8* USBFS_fwSerialNumberStringDescriptor;
  24:Generated_Source\PSoC5/USBFS_std.c ****     static volatile uint8  USBFS_snStringConfirm = USBFS_FALSE;
  25:Generated_Source\PSoC5/USBFS_std.c **** #endif  /* (USBFS_ENABLE_FWSN_STRING) */
  26:Generated_Source\PSoC5/USBFS_std.c **** 
  27:Generated_Source\PSoC5/USBFS_std.c **** #if defined(USBFS_ENABLE_FWSN_STRING)
  28:Generated_Source\PSoC5/USBFS_std.c ****     /***************************************************************************
  29:Generated_Source\PSoC5/USBFS_std.c ****     * Function Name: USBFS_SerialNumString
  30:Generated_Source\PSoC5/USBFS_std.c ****     ************************************************************************//**
ARM GAS  C:\Users\r\AppData\Local\Temp\ccDuGy4S.s 			page 2


  31:Generated_Source\PSoC5/USBFS_std.c ****     *
  32:Generated_Source\PSoC5/USBFS_std.c ****     *  This function is available only when the User Call Back option in the 
  33:Generated_Source\PSoC5/USBFS_std.c ****     *  Serial Number String descriptor properties is selected. Application 
  34:Generated_Source\PSoC5/USBFS_std.c ****     *  firmware can provide the source of the USB device serial number string 
  35:Generated_Source\PSoC5/USBFS_std.c ****     *  descriptor during run time. The default string is used if the application 
  36:Generated_Source\PSoC5/USBFS_std.c ****     *  firmware does not use this function or sets the wrong string descriptor.
  37:Generated_Source\PSoC5/USBFS_std.c ****     *
  38:Generated_Source\PSoC5/USBFS_std.c ****     *  \param snString:  Pointer to the user-defined string descriptor. The 
  39:Generated_Source\PSoC5/USBFS_std.c ****     *  string descriptor should meet the Universal Serial Bus Specification 
  40:Generated_Source\PSoC5/USBFS_std.c ****     *  revision 2.0 chapter 9.6.7
  41:Generated_Source\PSoC5/USBFS_std.c ****     *  Offset|Size|Value|Description
  42:Generated_Source\PSoC5/USBFS_std.c ****     *  ------|----|------|---------------------------------
  43:Generated_Source\PSoC5/USBFS_std.c ****     *  0     |1   |N     |Size of this descriptor in bytes
  44:Generated_Source\PSoC5/USBFS_std.c ****     *  1     |1   |0x03  |STRING Descriptor Type
  45:Generated_Source\PSoC5/USBFS_std.c ****     *  2     |N-2 |Number|UNICODE encoded string
  46:Generated_Source\PSoC5/USBFS_std.c ****     *  
  47:Generated_Source\PSoC5/USBFS_std.c ****     * *For example:* uint8 snString[16]={0x0E,0x03,'F',0,'W',0,'S',0,'N',0,'0',0,'1',0};
  48:Generated_Source\PSoC5/USBFS_std.c ****     *
  49:Generated_Source\PSoC5/USBFS_std.c ****     * \reentrant
  50:Generated_Source\PSoC5/USBFS_std.c ****     *  No.
  51:Generated_Source\PSoC5/USBFS_std.c ****     *
  52:Generated_Source\PSoC5/USBFS_std.c ****     ***************************************************************************/
  53:Generated_Source\PSoC5/USBFS_std.c ****     void  USBFS_SerialNumString(uint8 snString[]) 
  54:Generated_Source\PSoC5/USBFS_std.c ****     {
  55:Generated_Source\PSoC5/USBFS_std.c ****         USBFS_snStringConfirm = USBFS_FALSE;
  56:Generated_Source\PSoC5/USBFS_std.c ****         
  57:Generated_Source\PSoC5/USBFS_std.c ****         if (snString != NULL)
  58:Generated_Source\PSoC5/USBFS_std.c ****         {
  59:Generated_Source\PSoC5/USBFS_std.c ****             /* Check descriptor validation */
  60:Generated_Source\PSoC5/USBFS_std.c ****             if ((snString[0u] > 1u) && (snString[1u] == USBFS_DESCR_STRING))
  61:Generated_Source\PSoC5/USBFS_std.c ****             {
  62:Generated_Source\PSoC5/USBFS_std.c ****                 USBFS_fwSerialNumberStringDescriptor = snString;
  63:Generated_Source\PSoC5/USBFS_std.c ****                 USBFS_snStringConfirm = USBFS_TRUE;
  64:Generated_Source\PSoC5/USBFS_std.c ****             }
  65:Generated_Source\PSoC5/USBFS_std.c ****         }
  66:Generated_Source\PSoC5/USBFS_std.c ****     }
  67:Generated_Source\PSoC5/USBFS_std.c **** #endif  /* USBFS_ENABLE_FWSN_STRING */
  68:Generated_Source\PSoC5/USBFS_std.c **** 
  69:Generated_Source\PSoC5/USBFS_std.c **** 
  70:Generated_Source\PSoC5/USBFS_std.c **** /*******************************************************************************
  71:Generated_Source\PSoC5/USBFS_std.c **** * Function Name: USBFS_HandleStandardRqst
  72:Generated_Source\PSoC5/USBFS_std.c **** ****************************************************************************//**
  73:Generated_Source\PSoC5/USBFS_std.c **** *
  74:Generated_Source\PSoC5/USBFS_std.c **** *  This Routine dispatches standard requests
  75:Generated_Source\PSoC5/USBFS_std.c **** *
  76:Generated_Source\PSoC5/USBFS_std.c **** *
  77:Generated_Source\PSoC5/USBFS_std.c **** * \return
  78:Generated_Source\PSoC5/USBFS_std.c **** *  TRUE if request handled.
  79:Generated_Source\PSoC5/USBFS_std.c **** *
  80:Generated_Source\PSoC5/USBFS_std.c **** * \reentrant
  81:Generated_Source\PSoC5/USBFS_std.c **** *  No.
  82:Generated_Source\PSoC5/USBFS_std.c **** *
  83:Generated_Source\PSoC5/USBFS_std.c **** *******************************************************************************/
  84:Generated_Source\PSoC5/USBFS_std.c **** uint8 USBFS_HandleStandardRqst(void) 
  85:Generated_Source\PSoC5/USBFS_std.c **** {
  28              		.loc 1 85 0
  29              		.cfi_startproc
ARM GAS  C:\Users\r\AppData\Local\Temp\ccDuGy4S.s 			page 3


  30              		@ args = 0, pretend = 0, frame = 24
  31              		@ frame_needed = 1, uses_anonymous_args = 0
  32 0000 80B5     		push	{r7, lr}
  33              		.cfi_def_cfa_offset 8
  34              		.cfi_offset 7, -8
  35              		.cfi_offset 14, -4
  36 0002 86B0     		sub	sp, sp, #24
  37              		.cfi_def_cfa_offset 32
  38 0004 00AF     		add	r7, sp, #0
  39              		.cfi_def_cfa_register 7
  86:Generated_Source\PSoC5/USBFS_std.c ****     uint8 requestHandled = USBFS_FALSE;
  40              		.loc 1 86 0
  41 0006 0023     		movs	r3, #0
  42 0008 FB75     		strb	r3, [r7, #23]
  87:Generated_Source\PSoC5/USBFS_std.c ****     uint8 interfaceNumber;
  88:Generated_Source\PSoC5/USBFS_std.c ****     uint8 configurationN;
  89:Generated_Source\PSoC5/USBFS_std.c ****     uint8 bmRequestType = USBFS_bmRequestTypeReg;
  43              		.loc 1 89 0
  44 000a AE4B     		ldr	r3, .L67
  45 000c 1B78     		ldrb	r3, [r3]
  46 000e FB71     		strb	r3, [r7, #7]
  90:Generated_Source\PSoC5/USBFS_std.c **** 
  91:Generated_Source\PSoC5/USBFS_std.c **** #if defined(USBFS_ENABLE_STRINGS)
  92:Generated_Source\PSoC5/USBFS_std.c ****     volatile uint8 *pStr = 0u;
  47              		.loc 1 92 0
  48 0010 0023     		movs	r3, #0
  49 0012 3B61     		str	r3, [r7, #16]
  93:Generated_Source\PSoC5/USBFS_std.c ****     #if defined(USBFS_ENABLE_DESCRIPTOR_STRINGS)
  94:Generated_Source\PSoC5/USBFS_std.c ****         uint8 nStr;
  95:Generated_Source\PSoC5/USBFS_std.c ****         uint8 descrLength;
  96:Generated_Source\PSoC5/USBFS_std.c ****     #endif /* (USBFS_ENABLE_DESCRIPTOR_STRINGS) */
  97:Generated_Source\PSoC5/USBFS_std.c **** #endif /* (USBFS_ENABLE_STRINGS) */
  98:Generated_Source\PSoC5/USBFS_std.c ****     
  99:Generated_Source\PSoC5/USBFS_std.c ****     static volatile uint8 USBFS_tBuffer[USBFS_STATUS_LENGTH_MAX];
 100:Generated_Source\PSoC5/USBFS_std.c ****     const T_USBFS_LUT CYCODE *pTmp;
 101:Generated_Source\PSoC5/USBFS_std.c **** 
 102:Generated_Source\PSoC5/USBFS_std.c ****     USBFS_currentTD.count = 0u;
  50              		.loc 1 102 0
  51 0014 AC4B     		ldr	r3, .L67+4
  52 0016 0022     		movs	r2, #0
  53 0018 1A80     		strh	r2, [r3]	@ movhi
 103:Generated_Source\PSoC5/USBFS_std.c **** 
 104:Generated_Source\PSoC5/USBFS_std.c ****     if (USBFS_RQST_DIR_D2H == (bmRequestType & USBFS_RQST_DIR_MASK))
  54              		.loc 1 104 0
  55 001a 97F90730 		ldrsb	r3, [r7, #7]
  56 001e 002B     		cmp	r3, #0
  57 0020 80F2FA80 		bge	.L2
 105:Generated_Source\PSoC5/USBFS_std.c ****     {
 106:Generated_Source\PSoC5/USBFS_std.c ****         /* Control Read */
 107:Generated_Source\PSoC5/USBFS_std.c ****         switch (USBFS_bRequestReg)
  58              		.loc 1 107 0
  59 0024 A74B     		ldr	r3, .L67
  60 0026 5B78     		ldrb	r3, [r3, #1]
  61 0028 DBB2     		uxtb	r3, r3
  62 002a 0A2B     		cmp	r3, #10
  63 002c 00F21282 		bhi	.L56
  64 0030 01A2     		adr	r2, .L5
ARM GAS  C:\Users\r\AppData\Local\Temp\ccDuGy4S.s 			page 4


  65 0032 52F823F0 		ldr	pc, [r2, r3, lsl #2]
  66 0036 00BF     		.p2align 2
  67              	.L5:
  68 0038 6F010000 		.word	.L4+1
  69 003c 55040000 		.word	.L56+1
  70 0040 55040000 		.word	.L56+1
  71 0044 55040000 		.word	.L56+1
  72 0048 55040000 		.word	.L56+1
  73 004c 55040000 		.word	.L56+1
  74 0050 65000000 		.word	.L6+1
  75 0054 55040000 		.word	.L56+1
  76 0058 E3010000 		.word	.L7+1
  77 005c 55040000 		.word	.L56+1
  78 0060 F9010000 		.word	.L8+1
  79              		.p2align 1
  80              	.L6:
 108:Generated_Source\PSoC5/USBFS_std.c ****         {
 109:Generated_Source\PSoC5/USBFS_std.c ****             case USBFS_GET_DESCRIPTOR:
 110:Generated_Source\PSoC5/USBFS_std.c ****                 if (USBFS_DESCR_DEVICE ==USBFS_wValueHiReg)
  81              		.loc 1 110 0
  82 0064 974B     		ldr	r3, .L67
  83 0066 DB78     		ldrb	r3, [r3, #3]
  84 0068 DBB2     		uxtb	r3, r3
  85 006a 012B     		cmp	r3, #1
  86 006c 0ED1     		bne	.L9
 111:Generated_Source\PSoC5/USBFS_std.c ****                 {
 112:Generated_Source\PSoC5/USBFS_std.c ****                     pTmp = USBFS_GetDeviceTablePtr();
  87              		.loc 1 112 0
  88 006e FFF7FEFF 		bl	USBFS_GetDeviceTablePtr
  89 0072 B860     		str	r0, [r7, #8]
 113:Generated_Source\PSoC5/USBFS_std.c ****                     USBFS_currentTD.pData = (volatile uint8 *)pTmp->p_list;
  90              		.loc 1 113 0
  91 0074 BB68     		ldr	r3, [r7, #8]
  92 0076 5B68     		ldr	r3, [r3, #4]
  93 0078 934A     		ldr	r2, .L67+4
  94 007a 5360     		str	r3, [r2, #4]
 114:Generated_Source\PSoC5/USBFS_std.c ****                     USBFS_currentTD.count = USBFS_DEVICE_DESCR_LENGTH;
  95              		.loc 1 114 0
  96 007c 924B     		ldr	r3, .L67+4
  97 007e 1222     		movs	r2, #18
  98 0080 1A80     		strh	r2, [r3]	@ movhi
 115:Generated_Source\PSoC5/USBFS_std.c ****                     
 116:Generated_Source\PSoC5/USBFS_std.c ****                     requestHandled  = USBFS_InitControlRead();
  99              		.loc 1 116 0
 100 0082 FFF7FEFF 		bl	USBFS_InitControlRead
 101 0086 0346     		mov	r3, r0
 102 0088 FB75     		strb	r3, [r7, #23]
 117:Generated_Source\PSoC5/USBFS_std.c ****                 }
 118:Generated_Source\PSoC5/USBFS_std.c ****                 else if (USBFS_DESCR_CONFIG == USBFS_wValueHiReg)
 119:Generated_Source\PSoC5/USBFS_std.c ****                 {
 120:Generated_Source\PSoC5/USBFS_std.c ****                     pTmp = USBFS_GetConfigTablePtr((uint8) USBFS_wValueLoReg);
 121:Generated_Source\PSoC5/USBFS_std.c ****                     
 122:Generated_Source\PSoC5/USBFS_std.c ****                     /* Verify that requested descriptor exists */
 123:Generated_Source\PSoC5/USBFS_std.c ****                     if (pTmp != NULL)
 124:Generated_Source\PSoC5/USBFS_std.c ****                     {
 125:Generated_Source\PSoC5/USBFS_std.c ****                         USBFS_currentTD.pData = (volatile uint8 *)pTmp->p_list;
 126:Generated_Source\PSoC5/USBFS_std.c ****                         USBFS_currentTD.count = (uint16)((uint16)(USBFS_currentTD.pData)[USBFS_CONF
ARM GAS  C:\Users\r\AppData\Local\Temp\ccDuGy4S.s 			page 5


 127:Generated_Source\PSoC5/USBFS_std.c ****                                                                             (USBFS_currentTD.pData)
 128:Generated_Source\PSoC5/USBFS_std.c ****                         requestHandled  = USBFS_InitControlRead();
 129:Generated_Source\PSoC5/USBFS_std.c ****                     }
 130:Generated_Source\PSoC5/USBFS_std.c ****                 }
 131:Generated_Source\PSoC5/USBFS_std.c ****                 
 132:Generated_Source\PSoC5/USBFS_std.c ****             #if(USBFS_BOS_ENABLE)
 133:Generated_Source\PSoC5/USBFS_std.c ****                 else if (USBFS_DESCR_BOS == USBFS_wValueHiReg)
 134:Generated_Source\PSoC5/USBFS_std.c ****                 {
 135:Generated_Source\PSoC5/USBFS_std.c ****                     pTmp = USBFS_GetBOSPtr();
 136:Generated_Source\PSoC5/USBFS_std.c ****                     
 137:Generated_Source\PSoC5/USBFS_std.c ****                     /* Verify that requested descriptor exists */
 138:Generated_Source\PSoC5/USBFS_std.c ****                     if (pTmp != NULL)
 139:Generated_Source\PSoC5/USBFS_std.c ****                     {
 140:Generated_Source\PSoC5/USBFS_std.c ****                         USBFS_currentTD.pData = (volatile uint8 *)pTmp;
 141:Generated_Source\PSoC5/USBFS_std.c ****                         USBFS_currentTD.count = ((uint16)((uint16)(USBFS_currentTD.pData)[USBFS_BOS
 142:Generated_Source\PSoC5/USBFS_std.c ****                                                                              (USBFS_currentTD.pData
 143:Generated_Source\PSoC5/USBFS_std.c ****                         requestHandled  = USBFS_InitControlRead();
 144:Generated_Source\PSoC5/USBFS_std.c ****                     }
 145:Generated_Source\PSoC5/USBFS_std.c ****                 }
 146:Generated_Source\PSoC5/USBFS_std.c ****             #endif /*(USBFS_BOS_ENABLE)*/
 147:Generated_Source\PSoC5/USBFS_std.c ****             
 148:Generated_Source\PSoC5/USBFS_std.c ****             #if defined(USBFS_ENABLE_STRINGS)
 149:Generated_Source\PSoC5/USBFS_std.c ****                 else if (USBFS_DESCR_STRING == USBFS_wValueHiReg)
 150:Generated_Source\PSoC5/USBFS_std.c ****                 {
 151:Generated_Source\PSoC5/USBFS_std.c ****                 /* Descriptor Strings */
 152:Generated_Source\PSoC5/USBFS_std.c ****                 #if defined(USBFS_ENABLE_DESCRIPTOR_STRINGS)
 153:Generated_Source\PSoC5/USBFS_std.c ****                     nStr = 0u;
 154:Generated_Source\PSoC5/USBFS_std.c ****                     pStr = (volatile uint8 *) &USBFS_STRING_DESCRIPTORS[0u];
 155:Generated_Source\PSoC5/USBFS_std.c ****                     
 156:Generated_Source\PSoC5/USBFS_std.c ****                     while ((USBFS_wValueLoReg > nStr) && (*pStr != 0u))
 157:Generated_Source\PSoC5/USBFS_std.c ****                     {
 158:Generated_Source\PSoC5/USBFS_std.c ****                         /* Read descriptor length from 1st byte */
 159:Generated_Source\PSoC5/USBFS_std.c ****                         descrLength = *pStr;
 160:Generated_Source\PSoC5/USBFS_std.c ****                         /* Move to next string descriptor */
 161:Generated_Source\PSoC5/USBFS_std.c ****                         pStr = &pStr[descrLength];
 162:Generated_Source\PSoC5/USBFS_std.c ****                         nStr++;
 163:Generated_Source\PSoC5/USBFS_std.c ****                     }
 164:Generated_Source\PSoC5/USBFS_std.c ****                 #endif /* (USBFS_ENABLE_DESCRIPTOR_STRINGS) */
 165:Generated_Source\PSoC5/USBFS_std.c ****                 
 166:Generated_Source\PSoC5/USBFS_std.c ****                 /* Microsoft OS String */
 167:Generated_Source\PSoC5/USBFS_std.c ****                 #if defined(USBFS_ENABLE_MSOS_STRING)
 168:Generated_Source\PSoC5/USBFS_std.c ****                     if (USBFS_STRING_MSOS == USBFS_wValueLoReg)
 169:Generated_Source\PSoC5/USBFS_std.c ****                     {
 170:Generated_Source\PSoC5/USBFS_std.c ****                         pStr = (volatile uint8 *)& USBFS_MSOS_DESCRIPTOR[0u];
 171:Generated_Source\PSoC5/USBFS_std.c ****                     }
 172:Generated_Source\PSoC5/USBFS_std.c ****                 #endif /* (USBFS_ENABLE_MSOS_STRING) */
 173:Generated_Source\PSoC5/USBFS_std.c ****                 
 174:Generated_Source\PSoC5/USBFS_std.c ****                 /* SN string */
 175:Generated_Source\PSoC5/USBFS_std.c ****                 #if defined(USBFS_ENABLE_SN_STRING)
 176:Generated_Source\PSoC5/USBFS_std.c ****                     if ((USBFS_wValueLoReg != 0u) && 
 177:Generated_Source\PSoC5/USBFS_std.c ****                         (USBFS_wValueLoReg == USBFS_DEVICE0_DESCR[USBFS_DEVICE_DESCR_SN_SHIFT]))
 178:Generated_Source\PSoC5/USBFS_std.c ****                     {
 179:Generated_Source\PSoC5/USBFS_std.c ****                     #if defined(USBFS_ENABLE_IDSN_STRING)
 180:Generated_Source\PSoC5/USBFS_std.c ****                         /* Read DIE ID and generate string descriptor in RAM */
 181:Generated_Source\PSoC5/USBFS_std.c ****                         USBFS_ReadDieID(USBFS_idSerialNumberStringDescriptor);
 182:Generated_Source\PSoC5/USBFS_std.c ****                         pStr = USBFS_idSerialNumberStringDescriptor;
 183:Generated_Source\PSoC5/USBFS_std.c ****                     #elif defined(USBFS_ENABLE_FWSN_STRING)
ARM GAS  C:\Users\r\AppData\Local\Temp\ccDuGy4S.s 			page 6


 184:Generated_Source\PSoC5/USBFS_std.c ****                         
 185:Generated_Source\PSoC5/USBFS_std.c ****                         if(USBFS_snStringConfirm != USBFS_FALSE)
 186:Generated_Source\PSoC5/USBFS_std.c ****                         {
 187:Generated_Source\PSoC5/USBFS_std.c ****                             pStr = USBFS_fwSerialNumberStringDescriptor;
 188:Generated_Source\PSoC5/USBFS_std.c ****                         }
 189:Generated_Source\PSoC5/USBFS_std.c ****                         else
 190:Generated_Source\PSoC5/USBFS_std.c ****                         {
 191:Generated_Source\PSoC5/USBFS_std.c ****                             pStr = (volatile uint8 *)&USBFS_SN_STRING_DESCRIPTOR[0u];
 192:Generated_Source\PSoC5/USBFS_std.c ****                         }
 193:Generated_Source\PSoC5/USBFS_std.c ****                     #else
 194:Generated_Source\PSoC5/USBFS_std.c ****                         pStr = (volatile uint8 *)&USBFS_SN_STRING_DESCRIPTOR[0u];
 195:Generated_Source\PSoC5/USBFS_std.c ****                     #endif  /* (USBFS_ENABLE_IDSN_STRING) */
 196:Generated_Source\PSoC5/USBFS_std.c ****                     }
 197:Generated_Source\PSoC5/USBFS_std.c ****                 #endif /* (USBFS_ENABLE_SN_STRING) */
 198:Generated_Source\PSoC5/USBFS_std.c ****                 
 199:Generated_Source\PSoC5/USBFS_std.c ****                     if (*pStr != 0u)
 200:Generated_Source\PSoC5/USBFS_std.c ****                     {
 201:Generated_Source\PSoC5/USBFS_std.c ****                         USBFS_currentTD.count = *pStr;
 202:Generated_Source\PSoC5/USBFS_std.c ****                         USBFS_currentTD.pData = pStr;
 203:Generated_Source\PSoC5/USBFS_std.c ****                         requestHandled  = USBFS_InitControlRead();
 204:Generated_Source\PSoC5/USBFS_std.c ****                     }
 205:Generated_Source\PSoC5/USBFS_std.c ****                 }
 206:Generated_Source\PSoC5/USBFS_std.c ****             #endif /*  USBFS_ENABLE_STRINGS */
 207:Generated_Source\PSoC5/USBFS_std.c ****                 else
 208:Generated_Source\PSoC5/USBFS_std.c ****                 {
 209:Generated_Source\PSoC5/USBFS_std.c ****                     requestHandled = USBFS_DispatchClassRqst();
 210:Generated_Source\PSoC5/USBFS_std.c ****                 }
 211:Generated_Source\PSoC5/USBFS_std.c ****                 break;
 103              		.loc 1 211 0
 104 008a E5E1     		b	.L57
 105              	.L9:
 118:Generated_Source\PSoC5/USBFS_std.c ****                 {
 106              		.loc 1 118 0
 107 008c 8D4B     		ldr	r3, .L67
 108 008e DB78     		ldrb	r3, [r3, #3]
 109 0090 DBB2     		uxtb	r3, r3
 110 0092 022B     		cmp	r3, #2
 111 0094 25D1     		bne	.L11
 120:Generated_Source\PSoC5/USBFS_std.c ****                     
 112              		.loc 1 120 0
 113 0096 8B4B     		ldr	r3, .L67
 114 0098 9B78     		ldrb	r3, [r3, #2]
 115 009a DBB2     		uxtb	r3, r3
 116 009c 1846     		mov	r0, r3
 117 009e FFF7FEFF 		bl	USBFS_GetConfigTablePtr
 118 00a2 B860     		str	r0, [r7, #8]
 123:Generated_Source\PSoC5/USBFS_std.c ****                     {
 119              		.loc 1 123 0
 120 00a4 BB68     		ldr	r3, [r7, #8]
 121 00a6 002B     		cmp	r3, #0
 122 00a8 00F0D681 		beq	.L57
 125:Generated_Source\PSoC5/USBFS_std.c ****                         USBFS_currentTD.count = (uint16)((uint16)(USBFS_currentTD.pData)[USBFS_CONF
 123              		.loc 1 125 0
 124 00ac BB68     		ldr	r3, [r7, #8]
 125 00ae 5B68     		ldr	r3, [r3, #4]
 126 00b0 854A     		ldr	r2, .L67+4
 127 00b2 5360     		str	r3, [r2, #4]
ARM GAS  C:\Users\r\AppData\Local\Temp\ccDuGy4S.s 			page 7


 126:Generated_Source\PSoC5/USBFS_std.c ****                                                                             (USBFS_currentTD.pData)
 128              		.loc 1 126 0
 129 00b4 844B     		ldr	r3, .L67+4
 130 00b6 5B68     		ldr	r3, [r3, #4]
 131 00b8 0333     		adds	r3, r3, #3
 132 00ba 1B78     		ldrb	r3, [r3]
 133 00bc DBB2     		uxtb	r3, r3
 134 00be 9BB2     		uxth	r3, r3
 135 00c0 1B02     		lsls	r3, r3, #8
 136 00c2 9AB2     		uxth	r2, r3
 127:Generated_Source\PSoC5/USBFS_std.c ****                         requestHandled  = USBFS_InitControlRead();
 137              		.loc 1 127 0
 138 00c4 804B     		ldr	r3, .L67+4
 139 00c6 5B68     		ldr	r3, [r3, #4]
 140 00c8 0233     		adds	r3, r3, #2
 141 00ca 1B78     		ldrb	r3, [r3]
 142 00cc DBB2     		uxtb	r3, r3
 126:Generated_Source\PSoC5/USBFS_std.c ****                                                                             (USBFS_currentTD.pData)
 143              		.loc 1 126 0
 144 00ce 9BB2     		uxth	r3, r3
 145 00d0 1343     		orrs	r3, r3, r2
 146 00d2 9AB2     		uxth	r2, r3
 147 00d4 7C4B     		ldr	r3, .L67+4
 148 00d6 1A80     		strh	r2, [r3]	@ movhi
 128:Generated_Source\PSoC5/USBFS_std.c ****                     }
 149              		.loc 1 128 0
 150 00d8 FFF7FEFF 		bl	USBFS_InitControlRead
 151 00dc 0346     		mov	r3, r0
 152 00de FB75     		strb	r3, [r7, #23]
 153              		.loc 1 211 0
 154 00e0 BAE1     		b	.L57
 155              	.L11:
 149:Generated_Source\PSoC5/USBFS_std.c ****                 {
 156              		.loc 1 149 0
 157 00e2 784B     		ldr	r3, .L67
 158 00e4 DB78     		ldrb	r3, [r3, #3]
 159 00e6 DBB2     		uxtb	r3, r3
 160 00e8 032B     		cmp	r3, #3
 161 00ea 3BD1     		bne	.L13
 153:Generated_Source\PSoC5/USBFS_std.c ****                     pStr = (volatile uint8 *) &USBFS_STRING_DESCRIPTORS[0u];
 162              		.loc 1 153 0
 163 00ec 0023     		movs	r3, #0
 164 00ee FB73     		strb	r3, [r7, #15]
 154:Generated_Source\PSoC5/USBFS_std.c ****                     
 165              		.loc 1 154 0
 166 00f0 764B     		ldr	r3, .L67+8
 167 00f2 3B61     		str	r3, [r7, #16]
 156:Generated_Source\PSoC5/USBFS_std.c ****                     {
 168              		.loc 1 156 0
 169 00f4 09E0     		b	.L14
 170              	.L16:
 159:Generated_Source\PSoC5/USBFS_std.c ****                         /* Move to next string descriptor */
 171              		.loc 1 159 0
 172 00f6 3B69     		ldr	r3, [r7, #16]
 173 00f8 1B78     		ldrb	r3, [r3]
 174 00fa BB71     		strb	r3, [r7, #6]
 161:Generated_Source\PSoC5/USBFS_std.c ****                         nStr++;
ARM GAS  C:\Users\r\AppData\Local\Temp\ccDuGy4S.s 			page 8


 175              		.loc 1 161 0
 176 00fc BB79     		ldrb	r3, [r7, #6]	@ zero_extendqisi2
 177 00fe 3A69     		ldr	r2, [r7, #16]
 178 0100 1344     		add	r3, r3, r2
 179 0102 3B61     		str	r3, [r7, #16]
 162:Generated_Source\PSoC5/USBFS_std.c ****                     }
 180              		.loc 1 162 0
 181 0104 FB7B     		ldrb	r3, [r7, #15]	@ zero_extendqisi2
 182 0106 0133     		adds	r3, r3, #1
 183 0108 FB73     		strb	r3, [r7, #15]
 184              	.L14:
 156:Generated_Source\PSoC5/USBFS_std.c ****                     {
 185              		.loc 1 156 0
 186 010a 6E4B     		ldr	r3, .L67
 187 010c 9B78     		ldrb	r3, [r3, #2]
 188 010e DBB2     		uxtb	r3, r3
 189 0110 FA7B     		ldrb	r2, [r7, #15]	@ zero_extendqisi2
 190 0112 9A42     		cmp	r2, r3
 191 0114 04D2     		bcs	.L15
 156:Generated_Source\PSoC5/USBFS_std.c ****                     {
 192              		.loc 1 156 0 is_stmt 0 discriminator 1
 193 0116 3B69     		ldr	r3, [r7, #16]
 194 0118 1B78     		ldrb	r3, [r3]
 195 011a DBB2     		uxtb	r3, r3
 196 011c 002B     		cmp	r3, #0
 197 011e EAD1     		bne	.L16
 198              	.L15:
 176:Generated_Source\PSoC5/USBFS_std.c ****                         (USBFS_wValueLoReg == USBFS_DEVICE0_DESCR[USBFS_DEVICE_DESCR_SN_SHIFT]))
 199              		.loc 1 176 0 is_stmt 1
 200 0120 684B     		ldr	r3, .L67
 201 0122 9B78     		ldrb	r3, [r3, #2]
 202 0124 DBB2     		uxtb	r3, r3
 203 0126 002B     		cmp	r3, #0
 204 0128 08D0     		beq	.L17
 177:Generated_Source\PSoC5/USBFS_std.c ****                     {
 205              		.loc 1 177 0 discriminator 1
 206 012a 664B     		ldr	r3, .L67
 207 012c 9B78     		ldrb	r3, [r3, #2]
 208 012e DAB2     		uxtb	r2, r3
 209 0130 674B     		ldr	r3, .L67+12
 210 0132 1B7C     		ldrb	r3, [r3, #16]	@ zero_extendqisi2
 176:Generated_Source\PSoC5/USBFS_std.c ****                         (USBFS_wValueLoReg == USBFS_DEVICE0_DESCR[USBFS_DEVICE_DESCR_SN_SHIFT]))
 211              		.loc 1 176 0 discriminator 1
 212 0134 9A42     		cmp	r2, r3
 213 0136 01D1     		bne	.L17
 194:Generated_Source\PSoC5/USBFS_std.c ****                     #endif  /* (USBFS_ENABLE_IDSN_STRING) */
 214              		.loc 1 194 0
 215 0138 664B     		ldr	r3, .L67+16
 216 013a 3B61     		str	r3, [r7, #16]
 217              	.L17:
 199:Generated_Source\PSoC5/USBFS_std.c ****                     {
 218              		.loc 1 199 0
 219 013c 3B69     		ldr	r3, [r7, #16]
 220 013e 1B78     		ldrb	r3, [r3]
 221 0140 DBB2     		uxtb	r3, r3
 222 0142 002B     		cmp	r3, #0
 223 0144 00F08881 		beq	.L57
ARM GAS  C:\Users\r\AppData\Local\Temp\ccDuGy4S.s 			page 9


 201:Generated_Source\PSoC5/USBFS_std.c ****                         USBFS_currentTD.pData = pStr;
 224              		.loc 1 201 0
 225 0148 3B69     		ldr	r3, [r7, #16]
 226 014a 1B78     		ldrb	r3, [r3]
 227 014c DBB2     		uxtb	r3, r3
 228 014e 9AB2     		uxth	r2, r3
 229 0150 5D4B     		ldr	r3, .L67+4
 230 0152 1A80     		strh	r2, [r3]	@ movhi
 202:Generated_Source\PSoC5/USBFS_std.c ****                         requestHandled  = USBFS_InitControlRead();
 231              		.loc 1 202 0
 232 0154 5C4A     		ldr	r2, .L67+4
 233 0156 3B69     		ldr	r3, [r7, #16]
 234 0158 5360     		str	r3, [r2, #4]
 203:Generated_Source\PSoC5/USBFS_std.c ****                     }
 235              		.loc 1 203 0
 236 015a FFF7FEFF 		bl	USBFS_InitControlRead
 237 015e 0346     		mov	r3, r0
 238 0160 FB75     		strb	r3, [r7, #23]
 239              		.loc 1 211 0
 240 0162 79E1     		b	.L57
 241              	.L13:
 209:Generated_Source\PSoC5/USBFS_std.c ****                 }
 242              		.loc 1 209 0
 243 0164 FFF7FEFF 		bl	USBFS_DispatchClassRqst
 244 0168 0346     		mov	r3, r0
 245 016a FB75     		strb	r3, [r7, #23]
 246              		.loc 1 211 0
 247 016c 74E1     		b	.L57
 248              	.L4:
 212:Generated_Source\PSoC5/USBFS_std.c ****                 
 213:Generated_Source\PSoC5/USBFS_std.c ****             case USBFS_GET_STATUS:
 214:Generated_Source\PSoC5/USBFS_std.c ****                 switch (bmRequestType & USBFS_RQST_RCPT_MASK)
 249              		.loc 1 214 0
 250 016e FB79     		ldrb	r3, [r7, #7]	@ zero_extendqisi2
 251 0170 03F00303 		and	r3, r3, #3
 252 0174 002B     		cmp	r3, #0
 253 0176 20D0     		beq	.L21
 254 0178 022B     		cmp	r3, #2
 255 017a 00D0     		beq	.L22
 215:Generated_Source\PSoC5/USBFS_std.c ****                 {
 216:Generated_Source\PSoC5/USBFS_std.c ****                     case USBFS_RQST_RCPT_EP:
 217:Generated_Source\PSoC5/USBFS_std.c ****                         USBFS_currentTD.count = USBFS_EP_STATUS_LENGTH;
 218:Generated_Source\PSoC5/USBFS_std.c ****                         USBFS_tBuffer[0u]     = USBFS_EP[USBFS_wIndexLoReg & USBFS_DIR_UNUSED].hwEp
 219:Generated_Source\PSoC5/USBFS_std.c ****                         USBFS_tBuffer[1u]     = 0u;
 220:Generated_Source\PSoC5/USBFS_std.c ****                         USBFS_currentTD.pData = &USBFS_tBuffer[0u];
 221:Generated_Source\PSoC5/USBFS_std.c ****                         
 222:Generated_Source\PSoC5/USBFS_std.c ****                         requestHandled  = USBFS_InitControlRead();
 223:Generated_Source\PSoC5/USBFS_std.c ****                         break;
 224:Generated_Source\PSoC5/USBFS_std.c ****                     case USBFS_RQST_RCPT_DEV:
 225:Generated_Source\PSoC5/USBFS_std.c ****                         USBFS_currentTD.count = USBFS_DEVICE_STATUS_LENGTH;
 226:Generated_Source\PSoC5/USBFS_std.c ****                         USBFS_tBuffer[0u]     = USBFS_deviceStatus;
 227:Generated_Source\PSoC5/USBFS_std.c ****                         USBFS_tBuffer[1u]     = 0u;
 228:Generated_Source\PSoC5/USBFS_std.c ****                         USBFS_currentTD.pData = &USBFS_tBuffer[0u];
 229:Generated_Source\PSoC5/USBFS_std.c ****                         
 230:Generated_Source\PSoC5/USBFS_std.c ****                         requestHandled  = USBFS_InitControlRead();
 231:Generated_Source\PSoC5/USBFS_std.c ****                         break;
 232:Generated_Source\PSoC5/USBFS_std.c ****                     default:    /* requestHandled is initialized as FALSE by default */
ARM GAS  C:\Users\r\AppData\Local\Temp\ccDuGy4S.s 			page 10


 233:Generated_Source\PSoC5/USBFS_std.c ****                         break;
 256              		.loc 1 233 0
 257 017c 30E0     		b	.L23
 258              	.L22:
 217:Generated_Source\PSoC5/USBFS_std.c ****                         USBFS_tBuffer[0u]     = USBFS_EP[USBFS_wIndexLoReg & USBFS_DIR_UNUSED].hwEp
 259              		.loc 1 217 0
 260 017e 524B     		ldr	r3, .L67+4
 261 0180 0222     		movs	r2, #2
 262 0182 1A80     		strh	r2, [r3]	@ movhi
 218:Generated_Source\PSoC5/USBFS_std.c ****                         USBFS_tBuffer[1u]     = 0u;
 263              		.loc 1 218 0
 264 0184 4F4B     		ldr	r3, .L67
 265 0186 1B79     		ldrb	r3, [r3, #4]
 266 0188 DBB2     		uxtb	r3, r3
 267 018a 03F07F02 		and	r2, r3, #127
 268 018e 5249     		ldr	r1, .L67+20
 269 0190 1346     		mov	r3, r2
 270 0192 5B00     		lsls	r3, r3, #1
 271 0194 1344     		add	r3, r3, r2
 272 0196 9B00     		lsls	r3, r3, #2
 273 0198 0B44     		add	r3, r3, r1
 274 019a 0233     		adds	r3, r3, #2
 275 019c 1B78     		ldrb	r3, [r3]
 276 019e DAB2     		uxtb	r2, r3
 277 01a0 4E4B     		ldr	r3, .L67+24
 278 01a2 1A70     		strb	r2, [r3]
 219:Generated_Source\PSoC5/USBFS_std.c ****                         USBFS_currentTD.pData = &USBFS_tBuffer[0u];
 279              		.loc 1 219 0
 280 01a4 4D4B     		ldr	r3, .L67+24
 281 01a6 0022     		movs	r2, #0
 282 01a8 5A70     		strb	r2, [r3, #1]
 220:Generated_Source\PSoC5/USBFS_std.c ****                         
 283              		.loc 1 220 0
 284 01aa 474B     		ldr	r3, .L67+4
 285 01ac 4B4A     		ldr	r2, .L67+24
 286 01ae 5A60     		str	r2, [r3, #4]
 222:Generated_Source\PSoC5/USBFS_std.c ****                         break;
 287              		.loc 1 222 0
 288 01b0 FFF7FEFF 		bl	USBFS_InitControlRead
 289 01b4 0346     		mov	r3, r0
 290 01b6 FB75     		strb	r3, [r7, #23]
 223:Generated_Source\PSoC5/USBFS_std.c ****                     case USBFS_RQST_RCPT_DEV:
 291              		.loc 1 223 0
 292 01b8 12E0     		b	.L23
 293              	.L21:
 225:Generated_Source\PSoC5/USBFS_std.c ****                         USBFS_tBuffer[0u]     = USBFS_deviceStatus;
 294              		.loc 1 225 0
 295 01ba 434B     		ldr	r3, .L67+4
 296 01bc 0222     		movs	r2, #2
 297 01be 1A80     		strh	r2, [r3]	@ movhi
 226:Generated_Source\PSoC5/USBFS_std.c ****                         USBFS_tBuffer[1u]     = 0u;
 298              		.loc 1 226 0
 299 01c0 474B     		ldr	r3, .L67+28
 300 01c2 1B78     		ldrb	r3, [r3]
 301 01c4 DAB2     		uxtb	r2, r3
 302 01c6 454B     		ldr	r3, .L67+24
 303 01c8 1A70     		strb	r2, [r3]
ARM GAS  C:\Users\r\AppData\Local\Temp\ccDuGy4S.s 			page 11


 227:Generated_Source\PSoC5/USBFS_std.c ****                         USBFS_currentTD.pData = &USBFS_tBuffer[0u];
 304              		.loc 1 227 0
 305 01ca 444B     		ldr	r3, .L67+24
 306 01cc 0022     		movs	r2, #0
 307 01ce 5A70     		strb	r2, [r3, #1]
 228:Generated_Source\PSoC5/USBFS_std.c ****                         
 308              		.loc 1 228 0
 309 01d0 3D4B     		ldr	r3, .L67+4
 310 01d2 424A     		ldr	r2, .L67+24
 311 01d4 5A60     		str	r2, [r3, #4]
 230:Generated_Source\PSoC5/USBFS_std.c ****                         break;
 312              		.loc 1 230 0
 313 01d6 FFF7FEFF 		bl	USBFS_InitControlRead
 314 01da 0346     		mov	r3, r0
 315 01dc FB75     		strb	r3, [r7, #23]
 231:Generated_Source\PSoC5/USBFS_std.c ****                     default:    /* requestHandled is initialized as FALSE by default */
 316              		.loc 1 231 0
 317 01de 00BF     		nop
 318              	.L23:
 234:Generated_Source\PSoC5/USBFS_std.c ****                 }
 235:Generated_Source\PSoC5/USBFS_std.c ****                 break;
 319              		.loc 1 235 0 discriminator 4
 320 01e0 41E1     		b	.L24
 321              	.L7:
 236:Generated_Source\PSoC5/USBFS_std.c ****                 
 237:Generated_Source\PSoC5/USBFS_std.c ****             case USBFS_GET_CONFIGURATION:
 238:Generated_Source\PSoC5/USBFS_std.c ****                 USBFS_currentTD.count = 1u;
 322              		.loc 1 238 0
 323 01e2 394B     		ldr	r3, .L67+4
 324 01e4 0122     		movs	r2, #1
 325 01e6 1A80     		strh	r2, [r3]	@ movhi
 239:Generated_Source\PSoC5/USBFS_std.c ****                 USBFS_currentTD.pData = (volatile uint8 *) &USBFS_configuration;
 326              		.loc 1 239 0
 327 01e8 374B     		ldr	r3, .L67+4
 328 01ea 3E4A     		ldr	r2, .L67+32
 329 01ec 5A60     		str	r2, [r3, #4]
 240:Generated_Source\PSoC5/USBFS_std.c ****                 requestHandled  = USBFS_InitControlRead();
 330              		.loc 1 240 0
 331 01ee FFF7FEFF 		bl	USBFS_InitControlRead
 332 01f2 0346     		mov	r3, r0
 333 01f4 FB75     		strb	r3, [r7, #23]
 241:Generated_Source\PSoC5/USBFS_std.c ****                 break;
 334              		.loc 1 241 0
 335 01f6 36E1     		b	.L24
 336              	.L8:
 242:Generated_Source\PSoC5/USBFS_std.c ****                 
 243:Generated_Source\PSoC5/USBFS_std.c ****             case USBFS_GET_INTERFACE:
 244:Generated_Source\PSoC5/USBFS_std.c ****                 USBFS_currentTD.count = 1u;
 337              		.loc 1 244 0
 338 01f8 334B     		ldr	r3, .L67+4
 339 01fa 0122     		movs	r2, #1
 340 01fc 1A80     		strh	r2, [r3]	@ movhi
 245:Generated_Source\PSoC5/USBFS_std.c ****                 USBFS_currentTD.pData = (volatile uint8 *) &USBFS_interfaceSetting[USBFS_wIndexLoRe
 341              		.loc 1 245 0
 342 01fe 314B     		ldr	r3, .L67
 343 0200 1B79     		ldrb	r3, [r3, #4]
 344 0202 DBB2     		uxtb	r3, r3
ARM GAS  C:\Users\r\AppData\Local\Temp\ccDuGy4S.s 			page 12


 345 0204 1A46     		mov	r2, r3
 346 0206 384B     		ldr	r3, .L67+36
 347 0208 1344     		add	r3, r3, r2
 348 020a 2F4A     		ldr	r2, .L67+4
 349 020c 5360     		str	r3, [r2, #4]
 246:Generated_Source\PSoC5/USBFS_std.c ****                 requestHandled  = USBFS_InitControlRead();
 350              		.loc 1 246 0
 351 020e FFF7FEFF 		bl	USBFS_InitControlRead
 352 0212 0346     		mov	r3, r0
 353 0214 FB75     		strb	r3, [r7, #23]
 247:Generated_Source\PSoC5/USBFS_std.c ****                 break;
 354              		.loc 1 247 0
 355 0216 26E1     		b	.L24
 356              	.L2:
 248:Generated_Source\PSoC5/USBFS_std.c ****                 
 249:Generated_Source\PSoC5/USBFS_std.c ****             default: /* requestHandled is initialized as FALSE by default */
 250:Generated_Source\PSoC5/USBFS_std.c ****                 break;
 251:Generated_Source\PSoC5/USBFS_std.c ****         }
 252:Generated_Source\PSoC5/USBFS_std.c ****     }
 253:Generated_Source\PSoC5/USBFS_std.c ****     else
 254:Generated_Source\PSoC5/USBFS_std.c ****     {
 255:Generated_Source\PSoC5/USBFS_std.c ****         /* Control Write */
 256:Generated_Source\PSoC5/USBFS_std.c ****         switch (USBFS_bRequestReg)
 357              		.loc 1 256 0
 358 0218 2A4B     		ldr	r3, .L67
 359 021a 5B78     		ldrb	r3, [r3, #1]
 360 021c DBB2     		uxtb	r3, r3
 361 021e 013B     		subs	r3, r3, #1
 362 0220 0A2B     		cmp	r3, #10
 363 0222 00F21B81 		bhi	.L58
 364 0226 01A2     		adr	r2, .L27
 365 0228 52F823F0 		ldr	pc, [r2, r3, lsl #2]
 366              		.p2align 2
 367              	.L27:
 368 022c 39030000 		.word	.L26+1
 369 0230 5D040000 		.word	.L58+1
 370 0234 C7030000 		.word	.L28+1
 371 0238 5D040000 		.word	.L58+1
 372 023c 59020000 		.word	.L29+1
 373 0240 5D040000 		.word	.L58+1
 374 0244 5D040000 		.word	.L58+1
 375 0248 5D040000 		.word	.L58+1
 376 024c 6D020000 		.word	.L30+1
 377 0250 5D040000 		.word	.L58+1
 378 0254 F5020000 		.word	.L31+1
 379              		.p2align 1
 380              	.L29:
 257:Generated_Source\PSoC5/USBFS_std.c ****         {
 258:Generated_Source\PSoC5/USBFS_std.c ****             case USBFS_SET_ADDRESS:
 259:Generated_Source\PSoC5/USBFS_std.c ****                 /* Store address to be set in USBFS_NoDataControlStatusStage(). */
 260:Generated_Source\PSoC5/USBFS_std.c ****                 USBFS_deviceAddress = (uint8) USBFS_wValueLoReg;
 381              		.loc 1 260 0
 382 0258 1A4B     		ldr	r3, .L67
 383 025a 9B78     		ldrb	r3, [r3, #2]
 384 025c DAB2     		uxtb	r2, r3
 385 025e 234B     		ldr	r3, .L67+40
 386 0260 1A70     		strb	r2, [r3]
ARM GAS  C:\Users\r\AppData\Local\Temp\ccDuGy4S.s 			page 13


 261:Generated_Source\PSoC5/USBFS_std.c ****                 requestHandled = USBFS_InitNoDataControlTransfer();
 387              		.loc 1 261 0
 388 0262 FFF7FEFF 		bl	USBFS_InitNoDataControlTransfer
 389 0266 0346     		mov	r3, r0
 390 0268 FB75     		strb	r3, [r7, #23]
 262:Generated_Source\PSoC5/USBFS_std.c ****                 break;
 391              		.loc 1 262 0
 392 026a FCE0     		b	.L24
 393              	.L30:
 263:Generated_Source\PSoC5/USBFS_std.c ****                 
 264:Generated_Source\PSoC5/USBFS_std.c ****             case USBFS_SET_CONFIGURATION:
 265:Generated_Source\PSoC5/USBFS_std.c ****                 configurationN = USBFS_wValueLoReg;
 394              		.loc 1 265 0
 395 026c 154B     		ldr	r3, .L67
 396 026e 9B78     		ldrb	r3, [r3, #2]
 397 0270 7B71     		strb	r3, [r7, #5]
 266:Generated_Source\PSoC5/USBFS_std.c ****                 
 267:Generated_Source\PSoC5/USBFS_std.c ****                 /* Verify that configuration descriptor exists */
 268:Generated_Source\PSoC5/USBFS_std.c ****                 if(configurationN > 0u)
 398              		.loc 1 268 0
 399 0272 7B79     		ldrb	r3, [r7, #5]	@ zero_extendqisi2
 400 0274 002B     		cmp	r3, #0
 401 0276 06D0     		beq	.L32
 269:Generated_Source\PSoC5/USBFS_std.c ****                 {
 270:Generated_Source\PSoC5/USBFS_std.c ****                     pTmp = USBFS_GetConfigTablePtr((uint8) configurationN - 1u);
 402              		.loc 1 270 0
 403 0278 7B79     		ldrb	r3, [r7, #5]
 404 027a 013B     		subs	r3, r3, #1
 405 027c DBB2     		uxtb	r3, r3
 406 027e 1846     		mov	r0, r3
 407 0280 FFF7FEFF 		bl	USBFS_GetConfigTablePtr
 408 0284 B860     		str	r0, [r7, #8]
 409              	.L32:
 271:Generated_Source\PSoC5/USBFS_std.c ****                 }
 272:Generated_Source\PSoC5/USBFS_std.c ****                 
 273:Generated_Source\PSoC5/USBFS_std.c ****                 /* Responds with a Request Error when configuration number is invalid */
 274:Generated_Source\PSoC5/USBFS_std.c ****                 if (((configurationN > 0u) && (pTmp != NULL)) || (configurationN == 0u))
 410              		.loc 1 274 0
 411 0286 7B79     		ldrb	r3, [r7, #5]	@ zero_extendqisi2
 412 0288 002B     		cmp	r3, #0
 413 028a 02D0     		beq	.L33
 414              		.loc 1 274 0 is_stmt 0 discriminator 1
 415 028c BB68     		ldr	r3, [r7, #8]
 416 028e 002B     		cmp	r3, #0
 417 0290 03D1     		bne	.L34
 418              	.L33:
 419              		.loc 1 274 0 discriminator 3
 420 0292 7B79     		ldrb	r3, [r7, #5]	@ zero_extendqisi2
 421 0294 002B     		cmp	r3, #0
 422 0296 40F0E380 		bne	.L59
 423              	.L34:
 275:Generated_Source\PSoC5/USBFS_std.c ****                 {
 276:Generated_Source\PSoC5/USBFS_std.c ****                     /* Set new configuration if it has been changed */
 277:Generated_Source\PSoC5/USBFS_std.c ****                     if(configurationN != USBFS_configuration)
 424              		.loc 1 277 0 is_stmt 1
 425 029a 124B     		ldr	r3, .L67+32
 426 029c 1B78     		ldrb	r3, [r3]
ARM GAS  C:\Users\r\AppData\Local\Temp\ccDuGy4S.s 			page 14


 427 029e DBB2     		uxtb	r3, r3
 428 02a0 7A79     		ldrb	r2, [r7, #5]	@ zero_extendqisi2
 429 02a2 9A42     		cmp	r2, r3
 430 02a4 08D0     		beq	.L36
 278:Generated_Source\PSoC5/USBFS_std.c ****                     {
 279:Generated_Source\PSoC5/USBFS_std.c ****                         USBFS_configuration = (uint8) configurationN;
 431              		.loc 1 279 0
 432 02a6 0F4A     		ldr	r2, .L67+32
 433 02a8 7B79     		ldrb	r3, [r7, #5]
 434 02aa 1370     		strb	r3, [r2]
 280:Generated_Source\PSoC5/USBFS_std.c ****                         USBFS_configurationChanged = USBFS_TRUE;
 435              		.loc 1 280 0
 436 02ac 104B     		ldr	r3, .L67+44
 437 02ae 0122     		movs	r2, #1
 438 02b0 1A70     		strb	r2, [r3]
 281:Generated_Source\PSoC5/USBFS_std.c ****                         USBFS_Config(USBFS_TRUE);
 439              		.loc 1 281 0
 440 02b2 0120     		movs	r0, #1
 441 02b4 FFF7FEFF 		bl	USBFS_Config
 442              	.L36:
 282:Generated_Source\PSoC5/USBFS_std.c ****                     }
 283:Generated_Source\PSoC5/USBFS_std.c ****                     requestHandled = USBFS_InitNoDataControlTransfer();
 443              		.loc 1 283 0
 444 02b8 FFF7FEFF 		bl	USBFS_InitNoDataControlTransfer
 445 02bc 0346     		mov	r3, r0
 446 02be FB75     		strb	r3, [r7, #23]
 284:Generated_Source\PSoC5/USBFS_std.c ****                 }
 285:Generated_Source\PSoC5/USBFS_std.c ****                 break;
 447              		.loc 1 285 0
 448 02c0 CEE0     		b	.L59
 449              	.L68:
 450 02c2 00BF     		.align	2
 451              	.L67:
 452 02c4 00600040 		.word	1073766400
 453 02c8 00000000 		.word	USBFS_currentTD
 454 02cc 00000000 		.word	USBFS_STRING_DESCRIPTORS
 455 02d0 00000000 		.word	USBFS_DEVICE0_DESCR
 456 02d4 00000000 		.word	USBFS_SN_STRING_DESCRIPTOR
 457 02d8 00000000 		.word	USBFS_EP
 458 02dc 00000000 		.word	USBFS_tBuffer.5206
 459 02e0 00000000 		.word	USBFS_deviceStatus
 460 02e4 00000000 		.word	USBFS_configuration
 461 02e8 00000000 		.word	USBFS_interfaceSetting
 462 02ec 00000000 		.word	USBFS_deviceAddress
 463 02f0 00000000 		.word	USBFS_configurationChanged
 464              	.L31:
 286:Generated_Source\PSoC5/USBFS_std.c ****                 
 287:Generated_Source\PSoC5/USBFS_std.c ****             case USBFS_SET_INTERFACE:
 288:Generated_Source\PSoC5/USBFS_std.c ****                 if (0u != USBFS_ValidateAlternateSetting())
 465              		.loc 1 288 0
 466 02f4 FFF7FEFF 		bl	USBFS_ValidateAlternateSetting
 467 02f8 0346     		mov	r3, r0
 468 02fa 002B     		cmp	r3, #0
 469 02fc 00F0B280 		beq	.L60
 289:Generated_Source\PSoC5/USBFS_std.c ****                 {
 290:Generated_Source\PSoC5/USBFS_std.c ****                     /* Get interface number from the request. */
 291:Generated_Source\PSoC5/USBFS_std.c ****                     interfaceNumber = USBFS_wIndexLoReg;
ARM GAS  C:\Users\r\AppData\Local\Temp\ccDuGy4S.s 			page 15


 470              		.loc 1 291 0
 471 0300 5B4B     		ldr	r3, .L69
 472 0302 1B79     		ldrb	r3, [r3, #4]
 473 0304 3B71     		strb	r3, [r7, #4]
 292:Generated_Source\PSoC5/USBFS_std.c ****                     USBFS_interfaceNumber = (uint8) USBFS_wIndexLoReg;
 474              		.loc 1 292 0
 475 0306 5A4B     		ldr	r3, .L69
 476 0308 1B79     		ldrb	r3, [r3, #4]
 477 030a DAB2     		uxtb	r2, r3
 478 030c 594B     		ldr	r3, .L69+4
 479 030e 1A70     		strb	r2, [r3]
 293:Generated_Source\PSoC5/USBFS_std.c ****                      
 294:Generated_Source\PSoC5/USBFS_std.c ****                     /* Check if alternate settings is changed for interface. */
 295:Generated_Source\PSoC5/USBFS_std.c ****                     if (USBFS_interfaceSettingLast[interfaceNumber] != USBFS_interfaceSetting[inter
 480              		.loc 1 295 0
 481 0310 3B79     		ldrb	r3, [r7, #4]	@ zero_extendqisi2
 482 0312 594A     		ldr	r2, .L69+8
 483 0314 D35C     		ldrb	r3, [r2, r3]
 484 0316 DAB2     		uxtb	r2, r3
 485 0318 3B79     		ldrb	r3, [r7, #4]	@ zero_extendqisi2
 486 031a 5849     		ldr	r1, .L69+12
 487 031c CB5C     		ldrb	r3, [r1, r3]
 488 031e DBB2     		uxtb	r3, r3
 489 0320 9A42     		cmp	r2, r3
 490 0322 04D0     		beq	.L38
 296:Generated_Source\PSoC5/USBFS_std.c ****                     {
 297:Generated_Source\PSoC5/USBFS_std.c ****                         USBFS_configurationChanged = USBFS_TRUE;
 491              		.loc 1 297 0
 492 0324 564B     		ldr	r3, .L69+16
 493 0326 0122     		movs	r2, #1
 494 0328 1A70     		strb	r2, [r3]
 298:Generated_Source\PSoC5/USBFS_std.c ****                     
 299:Generated_Source\PSoC5/USBFS_std.c ****                         /* Change alternate setting for the endpoints. */
 300:Generated_Source\PSoC5/USBFS_std.c ****                     #if (USBFS_EP_MANAGEMENT_MANUAL && USBFS_EP_ALLOC_DYNAMIC)
 301:Generated_Source\PSoC5/USBFS_std.c ****                         USBFS_Config(USBFS_FALSE);
 302:Generated_Source\PSoC5/USBFS_std.c ****                     #else
 303:Generated_Source\PSoC5/USBFS_std.c ****                         USBFS_ConfigAltChanged();
 495              		.loc 1 303 0
 496 032a FFF7FEFF 		bl	USBFS_ConfigAltChanged
 497              	.L38:
 304:Generated_Source\PSoC5/USBFS_std.c ****                     #endif /* (USBFS_EP_MANAGEMENT_MANUAL && USBFS_EP_ALLOC_DYNAMIC) */
 305:Generated_Source\PSoC5/USBFS_std.c ****                     }
 306:Generated_Source\PSoC5/USBFS_std.c ****                     
 307:Generated_Source\PSoC5/USBFS_std.c ****                     requestHandled = USBFS_InitNoDataControlTransfer();
 498              		.loc 1 307 0
 499 032e FFF7FEFF 		bl	USBFS_InitNoDataControlTransfer
 500 0332 0346     		mov	r3, r0
 501 0334 FB75     		strb	r3, [r7, #23]
 308:Generated_Source\PSoC5/USBFS_std.c ****                 }
 309:Generated_Source\PSoC5/USBFS_std.c ****                 break;
 502              		.loc 1 309 0
 503 0336 95E0     		b	.L60
 504              	.L26:
 310:Generated_Source\PSoC5/USBFS_std.c ****                 
 311:Generated_Source\PSoC5/USBFS_std.c ****             case USBFS_CLEAR_FEATURE:
 312:Generated_Source\PSoC5/USBFS_std.c ****                 switch (bmRequestType & USBFS_RQST_RCPT_MASK)
 505              		.loc 1 312 0
ARM GAS  C:\Users\r\AppData\Local\Temp\ccDuGy4S.s 			page 16


 506 0338 FB79     		ldrb	r3, [r7, #7]	@ zero_extendqisi2
 507 033a 03F00303 		and	r3, r3, #3
 508 033e 012B     		cmp	r3, #1
 509 0340 20D0     		beq	.L40
 510 0342 012B     		cmp	r3, #1
 511 0344 0CD3     		bcc	.L41
 512 0346 022B     		cmp	r3, #2
 513 0348 00D0     		beq	.L42
 313:Generated_Source\PSoC5/USBFS_std.c ****                 {
 314:Generated_Source\PSoC5/USBFS_std.c ****                     case USBFS_RQST_RCPT_EP:
 315:Generated_Source\PSoC5/USBFS_std.c ****                         if (USBFS_wValueLoReg == USBFS_ENDPOINT_HALT)
 316:Generated_Source\PSoC5/USBFS_std.c ****                         {
 317:Generated_Source\PSoC5/USBFS_std.c ****                             requestHandled = USBFS_ClearEndpointHalt();
 318:Generated_Source\PSoC5/USBFS_std.c ****                         }
 319:Generated_Source\PSoC5/USBFS_std.c ****                         break;
 320:Generated_Source\PSoC5/USBFS_std.c ****                     case USBFS_RQST_RCPT_DEV:
 321:Generated_Source\PSoC5/USBFS_std.c ****                         /* Clear device REMOTE_WAKEUP */
 322:Generated_Source\PSoC5/USBFS_std.c ****                         if (USBFS_wValueLoReg == USBFS_DEVICE_REMOTE_WAKEUP)
 323:Generated_Source\PSoC5/USBFS_std.c ****                         {
 324:Generated_Source\PSoC5/USBFS_std.c ****                             USBFS_deviceStatus &= (uint8)~USBFS_DEVICE_STATUS_REMOTE_WAKEUP;
 325:Generated_Source\PSoC5/USBFS_std.c ****                             requestHandled = USBFS_InitNoDataControlTransfer();
 326:Generated_Source\PSoC5/USBFS_std.c ****                         }
 327:Generated_Source\PSoC5/USBFS_std.c ****                         break;
 328:Generated_Source\PSoC5/USBFS_std.c ****                     case USBFS_RQST_RCPT_IFC:
 329:Generated_Source\PSoC5/USBFS_std.c ****                         /* Validate interfaceNumber */
 330:Generated_Source\PSoC5/USBFS_std.c ****                         if (USBFS_wIndexLoReg < USBFS_MAX_INTERFACES_NUMBER)
 331:Generated_Source\PSoC5/USBFS_std.c ****                         {
 332:Generated_Source\PSoC5/USBFS_std.c ****                             USBFS_interfaceStatus[USBFS_wIndexLoReg] &= (uint8) ~USBFS_wValueLoReg;
 333:Generated_Source\PSoC5/USBFS_std.c ****                             requestHandled = USBFS_InitNoDataControlTransfer();
 334:Generated_Source\PSoC5/USBFS_std.c ****                         }
 335:Generated_Source\PSoC5/USBFS_std.c ****                         break;
 336:Generated_Source\PSoC5/USBFS_std.c ****                     default:    /* requestHandled is initialized as FALSE by default */
 337:Generated_Source\PSoC5/USBFS_std.c ****                         break;
 514              		.loc 1 337 0
 515 034a 3BE0     		b	.L44
 516              	.L42:
 315:Generated_Source\PSoC5/USBFS_std.c ****                         {
 517              		.loc 1 315 0
 518 034c 484B     		ldr	r3, .L69
 519 034e 9B78     		ldrb	r3, [r3, #2]
 520 0350 DBB2     		uxtb	r3, r3
 521 0352 002B     		cmp	r3, #0
 522 0354 31D1     		bne	.L61
 317:Generated_Source\PSoC5/USBFS_std.c ****                         }
 523              		.loc 1 317 0
 524 0356 FFF7FEFF 		bl	USBFS_ClearEndpointHalt
 525 035a 0346     		mov	r3, r0
 526 035c FB75     		strb	r3, [r7, #23]
 319:Generated_Source\PSoC5/USBFS_std.c ****                     case USBFS_RQST_RCPT_DEV:
 527              		.loc 1 319 0
 528 035e 2CE0     		b	.L61
 529              	.L41:
 322:Generated_Source\PSoC5/USBFS_std.c ****                         {
 530              		.loc 1 322 0
 531 0360 434B     		ldr	r3, .L69
 532 0362 9B78     		ldrb	r3, [r3, #2]
 533 0364 DBB2     		uxtb	r3, r3
ARM GAS  C:\Users\r\AppData\Local\Temp\ccDuGy4S.s 			page 17


 534 0366 012B     		cmp	r3, #1
 535 0368 29D1     		bne	.L62
 324:Generated_Source\PSoC5/USBFS_std.c ****                             requestHandled = USBFS_InitNoDataControlTransfer();
 536              		.loc 1 324 0
 537 036a 464B     		ldr	r3, .L69+20
 538 036c 1B78     		ldrb	r3, [r3]
 539 036e DBB2     		uxtb	r3, r3
 540 0370 23F00203 		bic	r3, r3, #2
 541 0374 DAB2     		uxtb	r2, r3
 542 0376 434B     		ldr	r3, .L69+20
 543 0378 1A70     		strb	r2, [r3]
 325:Generated_Source\PSoC5/USBFS_std.c ****                         }
 544              		.loc 1 325 0
 545 037a FFF7FEFF 		bl	USBFS_InitNoDataControlTransfer
 546 037e 0346     		mov	r3, r0
 547 0380 FB75     		strb	r3, [r7, #23]
 327:Generated_Source\PSoC5/USBFS_std.c ****                     case USBFS_RQST_RCPT_IFC:
 548              		.loc 1 327 0
 549 0382 1CE0     		b	.L62
 550              	.L40:
 330:Generated_Source\PSoC5/USBFS_std.c ****                         {
 551              		.loc 1 330 0
 552 0384 3A4B     		ldr	r3, .L69
 553 0386 1B79     		ldrb	r3, [r3, #4]
 554 0388 DBB2     		uxtb	r3, r3
 555 038a 012B     		cmp	r3, #1
 556 038c 19D8     		bhi	.L63
 332:Generated_Source\PSoC5/USBFS_std.c ****                             requestHandled = USBFS_InitNoDataControlTransfer();
 557              		.loc 1 332 0
 558 038e 384B     		ldr	r3, .L69
 559 0390 9B78     		ldrb	r3, [r3, #2]
 560 0392 DBB2     		uxtb	r3, r3
 561 0394 DB43     		mvns	r3, r3
 562 0396 DBB2     		uxtb	r3, r3
 563 0398 354A     		ldr	r2, .L69
 564 039a 1279     		ldrb	r2, [r2, #4]
 565 039c D2B2     		uxtb	r2, r2
 566 039e 1146     		mov	r1, r2
 567 03a0 1046     		mov	r0, r2
 568 03a2 394A     		ldr	r2, .L69+24
 569 03a4 125C     		ldrb	r2, [r2, r0]
 570 03a6 D2B2     		uxtb	r2, r2
 571 03a8 1340     		ands	r3, r3, r2
 572 03aa DAB2     		uxtb	r2, r3
 573 03ac 364B     		ldr	r3, .L69+24
 574 03ae 5A54     		strb	r2, [r3, r1]
 333:Generated_Source\PSoC5/USBFS_std.c ****                         }
 575              		.loc 1 333 0
 576 03b0 FFF7FEFF 		bl	USBFS_InitNoDataControlTransfer
 577 03b4 0346     		mov	r3, r0
 578 03b6 FB75     		strb	r3, [r7, #23]
 335:Generated_Source\PSoC5/USBFS_std.c ****                     default:    /* requestHandled is initialized as FALSE by default */
 579              		.loc 1 335 0
 580 03b8 03E0     		b	.L63
 581              	.L61:
 319:Generated_Source\PSoC5/USBFS_std.c ****                     case USBFS_RQST_RCPT_DEV:
 582              		.loc 1 319 0
ARM GAS  C:\Users\r\AppData\Local\Temp\ccDuGy4S.s 			page 18


 583 03ba 00BF     		nop
 584 03bc 53E0     		b	.L24
 585              	.L62:
 327:Generated_Source\PSoC5/USBFS_std.c ****                     case USBFS_RQST_RCPT_IFC:
 586              		.loc 1 327 0
 587 03be 00BF     		nop
 588 03c0 51E0     		b	.L24
 589              	.L63:
 335:Generated_Source\PSoC5/USBFS_std.c ****                     default:    /* requestHandled is initialized as FALSE by default */
 590              		.loc 1 335 0
 591 03c2 00BF     		nop
 592              	.L44:
 338:Generated_Source\PSoC5/USBFS_std.c ****                 }
 339:Generated_Source\PSoC5/USBFS_std.c ****                 break;
 593              		.loc 1 339 0 discriminator 7
 594 03c4 4FE0     		b	.L24
 595              	.L28:
 340:Generated_Source\PSoC5/USBFS_std.c ****                 
 341:Generated_Source\PSoC5/USBFS_std.c ****             case USBFS_SET_FEATURE:
 342:Generated_Source\PSoC5/USBFS_std.c ****                 switch (bmRequestType & USBFS_RQST_RCPT_MASK)
 596              		.loc 1 342 0
 597 03c6 FB79     		ldrb	r3, [r7, #7]	@ zero_extendqisi2
 598 03c8 03F00303 		and	r3, r3, #3
 599 03cc 012B     		cmp	r3, #1
 600 03ce 20D0     		beq	.L48
 601 03d0 012B     		cmp	r3, #1
 602 03d2 0CD3     		bcc	.L49
 603 03d4 022B     		cmp	r3, #2
 604 03d6 00D0     		beq	.L50
 343:Generated_Source\PSoC5/USBFS_std.c ****                 {
 344:Generated_Source\PSoC5/USBFS_std.c ****                     case USBFS_RQST_RCPT_EP:
 345:Generated_Source\PSoC5/USBFS_std.c ****                         if (USBFS_wValueLoReg == USBFS_ENDPOINT_HALT)
 346:Generated_Source\PSoC5/USBFS_std.c ****                         {
 347:Generated_Source\PSoC5/USBFS_std.c ****                             requestHandled = USBFS_SetEndpointHalt();
 348:Generated_Source\PSoC5/USBFS_std.c ****                         }
 349:Generated_Source\PSoC5/USBFS_std.c ****                         break;
 350:Generated_Source\PSoC5/USBFS_std.c ****                         
 351:Generated_Source\PSoC5/USBFS_std.c ****                     case USBFS_RQST_RCPT_DEV:
 352:Generated_Source\PSoC5/USBFS_std.c ****                         /* Set device REMOTE_WAKEUP */
 353:Generated_Source\PSoC5/USBFS_std.c ****                         if (USBFS_wValueLoReg == USBFS_DEVICE_REMOTE_WAKEUP)
 354:Generated_Source\PSoC5/USBFS_std.c ****                         {
 355:Generated_Source\PSoC5/USBFS_std.c ****                             USBFS_deviceStatus |= USBFS_DEVICE_STATUS_REMOTE_WAKEUP;
 356:Generated_Source\PSoC5/USBFS_std.c ****                             requestHandled = USBFS_InitNoDataControlTransfer();
 357:Generated_Source\PSoC5/USBFS_std.c ****                         }
 358:Generated_Source\PSoC5/USBFS_std.c ****                         break;
 359:Generated_Source\PSoC5/USBFS_std.c ****                         
 360:Generated_Source\PSoC5/USBFS_std.c ****                     case USBFS_RQST_RCPT_IFC:
 361:Generated_Source\PSoC5/USBFS_std.c ****                         /* Validate interfaceNumber */
 362:Generated_Source\PSoC5/USBFS_std.c ****                         if (USBFS_wIndexLoReg < USBFS_MAX_INTERFACES_NUMBER)
 363:Generated_Source\PSoC5/USBFS_std.c ****                         {
 364:Generated_Source\PSoC5/USBFS_std.c ****                             USBFS_interfaceStatus[USBFS_wIndexLoReg] &= (uint8) ~USBFS_wValueLoReg;
 365:Generated_Source\PSoC5/USBFS_std.c ****                             requestHandled = USBFS_InitNoDataControlTransfer();
 366:Generated_Source\PSoC5/USBFS_std.c ****                         }
 367:Generated_Source\PSoC5/USBFS_std.c ****                         break;
 368:Generated_Source\PSoC5/USBFS_std.c ****                     
 369:Generated_Source\PSoC5/USBFS_std.c ****                     default:    /* requestHandled is initialized as FALSE by default */
 370:Generated_Source\PSoC5/USBFS_std.c ****                         break;
ARM GAS  C:\Users\r\AppData\Local\Temp\ccDuGy4S.s 			page 19


 605              		.loc 1 370 0
 606 03d8 3BE0     		b	.L52
 607              	.L50:
 345:Generated_Source\PSoC5/USBFS_std.c ****                         {
 608              		.loc 1 345 0
 609 03da 254B     		ldr	r3, .L69
 610 03dc 9B78     		ldrb	r3, [r3, #2]
 611 03de DBB2     		uxtb	r3, r3
 612 03e0 002B     		cmp	r3, #0
 613 03e2 31D1     		bne	.L64
 347:Generated_Source\PSoC5/USBFS_std.c ****                         }
 614              		.loc 1 347 0
 615 03e4 FFF7FEFF 		bl	USBFS_SetEndpointHalt
 616 03e8 0346     		mov	r3, r0
 617 03ea FB75     		strb	r3, [r7, #23]
 349:Generated_Source\PSoC5/USBFS_std.c ****                         
 618              		.loc 1 349 0
 619 03ec 2CE0     		b	.L64
 620              	.L49:
 353:Generated_Source\PSoC5/USBFS_std.c ****                         {
 621              		.loc 1 353 0
 622 03ee 204B     		ldr	r3, .L69
 623 03f0 9B78     		ldrb	r3, [r3, #2]
 624 03f2 DBB2     		uxtb	r3, r3
 625 03f4 012B     		cmp	r3, #1
 626 03f6 29D1     		bne	.L65
 355:Generated_Source\PSoC5/USBFS_std.c ****                             requestHandled = USBFS_InitNoDataControlTransfer();
 627              		.loc 1 355 0
 628 03f8 224B     		ldr	r3, .L69+20
 629 03fa 1B78     		ldrb	r3, [r3]
 630 03fc DBB2     		uxtb	r3, r3
 631 03fe 43F00203 		orr	r3, r3, #2
 632 0402 DAB2     		uxtb	r2, r3
 633 0404 1F4B     		ldr	r3, .L69+20
 634 0406 1A70     		strb	r2, [r3]
 356:Generated_Source\PSoC5/USBFS_std.c ****                         }
 635              		.loc 1 356 0
 636 0408 FFF7FEFF 		bl	USBFS_InitNoDataControlTransfer
 637 040c 0346     		mov	r3, r0
 638 040e FB75     		strb	r3, [r7, #23]
 358:Generated_Source\PSoC5/USBFS_std.c ****                         
 639              		.loc 1 358 0
 640 0410 1CE0     		b	.L65
 641              	.L48:
 362:Generated_Source\PSoC5/USBFS_std.c ****                         {
 642              		.loc 1 362 0
 643 0412 174B     		ldr	r3, .L69
 644 0414 1B79     		ldrb	r3, [r3, #4]
 645 0416 DBB2     		uxtb	r3, r3
 646 0418 012B     		cmp	r3, #1
 647 041a 19D8     		bhi	.L66
 364:Generated_Source\PSoC5/USBFS_std.c ****                             requestHandled = USBFS_InitNoDataControlTransfer();
 648              		.loc 1 364 0
 649 041c 144B     		ldr	r3, .L69
 650 041e 9B78     		ldrb	r3, [r3, #2]
 651 0420 DBB2     		uxtb	r3, r3
 652 0422 DB43     		mvns	r3, r3
ARM GAS  C:\Users\r\AppData\Local\Temp\ccDuGy4S.s 			page 20


 653 0424 DBB2     		uxtb	r3, r3
 654 0426 124A     		ldr	r2, .L69
 655 0428 1279     		ldrb	r2, [r2, #4]
 656 042a D2B2     		uxtb	r2, r2
 657 042c 1146     		mov	r1, r2
 658 042e 1046     		mov	r0, r2
 659 0430 154A     		ldr	r2, .L69+24
 660 0432 125C     		ldrb	r2, [r2, r0]
 661 0434 D2B2     		uxtb	r2, r2
 662 0436 1340     		ands	r3, r3, r2
 663 0438 DAB2     		uxtb	r2, r3
 664 043a 134B     		ldr	r3, .L69+24
 665 043c 5A54     		strb	r2, [r3, r1]
 365:Generated_Source\PSoC5/USBFS_std.c ****                         }
 666              		.loc 1 365 0
 667 043e FFF7FEFF 		bl	USBFS_InitNoDataControlTransfer
 668 0442 0346     		mov	r3, r0
 669 0444 FB75     		strb	r3, [r7, #23]
 367:Generated_Source\PSoC5/USBFS_std.c ****                     
 670              		.loc 1 367 0
 671 0446 03E0     		b	.L66
 672              	.L64:
 349:Generated_Source\PSoC5/USBFS_std.c ****                         
 673              		.loc 1 349 0
 674 0448 00BF     		nop
 675 044a 0CE0     		b	.L24
 676              	.L65:
 358:Generated_Source\PSoC5/USBFS_std.c ****                         
 677              		.loc 1 358 0
 678 044c 00BF     		nop
 679 044e 0AE0     		b	.L24
 680              	.L66:
 367:Generated_Source\PSoC5/USBFS_std.c ****                     
 681              		.loc 1 367 0
 682 0450 00BF     		nop
 683              	.L52:
 371:Generated_Source\PSoC5/USBFS_std.c ****                 }
 372:Generated_Source\PSoC5/USBFS_std.c ****                 break;
 684              		.loc 1 372 0 discriminator 11
 685 0452 08E0     		b	.L24
 686              	.L56:
 250:Generated_Source\PSoC5/USBFS_std.c ****         }
 687              		.loc 1 250 0
 688 0454 00BF     		nop
 689 0456 06E0     		b	.L24
 690              	.L57:
 211:Generated_Source\PSoC5/USBFS_std.c ****                 
 691              		.loc 1 211 0
 692 0458 00BF     		nop
 693 045a 04E0     		b	.L24
 694              	.L58:
 373:Generated_Source\PSoC5/USBFS_std.c ****                 
 374:Generated_Source\PSoC5/USBFS_std.c ****             default:    /* requestHandled is initialized as FALSE by default */
 375:Generated_Source\PSoC5/USBFS_std.c ****                 break;
 695              		.loc 1 375 0
 696 045c 00BF     		nop
 697 045e 02E0     		b	.L24
ARM GAS  C:\Users\r\AppData\Local\Temp\ccDuGy4S.s 			page 21


 698              	.L59:
 285:Generated_Source\PSoC5/USBFS_std.c ****                 
 699              		.loc 1 285 0
 700 0460 00BF     		nop
 701 0462 00E0     		b	.L24
 702              	.L60:
 309:Generated_Source\PSoC5/USBFS_std.c ****                 
 703              		.loc 1 309 0
 704 0464 00BF     		nop
 705              	.L24:
 376:Generated_Source\PSoC5/USBFS_std.c ****         }
 377:Generated_Source\PSoC5/USBFS_std.c ****     }
 378:Generated_Source\PSoC5/USBFS_std.c ****     
 379:Generated_Source\PSoC5/USBFS_std.c ****     return (requestHandled);
 706              		.loc 1 379 0
 707 0466 FB7D     		ldrb	r3, [r7, #23]	@ zero_extendqisi2
 380:Generated_Source\PSoC5/USBFS_std.c **** }
 708              		.loc 1 380 0
 709 0468 1846     		mov	r0, r3
 710 046a 1837     		adds	r7, r7, #24
 711              		.cfi_def_cfa_offset 8
 712 046c BD46     		mov	sp, r7
 713              		.cfi_def_cfa_register 13
 714              		@ sp needed
 715 046e 80BD     		pop	{r7, pc}
 716              	.L70:
 717              		.align	2
 718              	.L69:
 719 0470 00600040 		.word	1073766400
 720 0474 00000000 		.word	USBFS_interfaceNumber
 721 0478 00000000 		.word	USBFS_interfaceSettingLast
 722 047c 00000000 		.word	USBFS_interfaceSetting
 723 0480 00000000 		.word	USBFS_configurationChanged
 724 0484 00000000 		.word	USBFS_deviceStatus
 725 0488 00000000 		.word	USBFS_interfaceStatus
 726              		.cfi_endproc
 727              	.LFE0:
 728              		.size	USBFS_HandleStandardRqst, .-USBFS_HandleStandardRqst
 729              		.section	.text.USBFS_ConfigReg,"ax",%progbits
 730              		.align	2
 731              		.global	USBFS_ConfigReg
 732              		.thumb
 733              		.thumb_func
 734              		.type	USBFS_ConfigReg, %function
 735              	USBFS_ConfigReg:
 736              	.LFB1:
 381:Generated_Source\PSoC5/USBFS_std.c **** 
 382:Generated_Source\PSoC5/USBFS_std.c **** 
 383:Generated_Source\PSoC5/USBFS_std.c **** #if defined(USBFS_ENABLE_IDSN_STRING)
 384:Generated_Source\PSoC5/USBFS_std.c ****     /***************************************************************************
 385:Generated_Source\PSoC5/USBFS_std.c ****     * Function Name: USBFS_ReadDieID
 386:Generated_Source\PSoC5/USBFS_std.c ****     ************************************************************************//**
 387:Generated_Source\PSoC5/USBFS_std.c ****     *
 388:Generated_Source\PSoC5/USBFS_std.c ****     *  This routine read Die ID and generate Serial Number string descriptor.
 389:Generated_Source\PSoC5/USBFS_std.c ****     *
 390:Generated_Source\PSoC5/USBFS_std.c ****     *  \param descr:  pointer on string descriptor. This string size has to be equal or
 391:Generated_Source\PSoC5/USBFS_std.c ****     *          greater than USBFS_IDSN_DESCR_LENGTH.
ARM GAS  C:\Users\r\AppData\Local\Temp\ccDuGy4S.s 			page 22


 392:Generated_Source\PSoC5/USBFS_std.c ****     *
 393:Generated_Source\PSoC5/USBFS_std.c ****     *
 394:Generated_Source\PSoC5/USBFS_std.c ****     * \reentrant
 395:Generated_Source\PSoC5/USBFS_std.c ****     *  No.
 396:Generated_Source\PSoC5/USBFS_std.c ****     *
 397:Generated_Source\PSoC5/USBFS_std.c ****     ***************************************************************************/
 398:Generated_Source\PSoC5/USBFS_std.c ****     void USBFS_ReadDieID(uint8 descr[]) 
 399:Generated_Source\PSoC5/USBFS_std.c ****     {
 400:Generated_Source\PSoC5/USBFS_std.c ****         const char8 CYCODE hex[] = "0123456789ABCDEF";
 401:Generated_Source\PSoC5/USBFS_std.c ****         uint8 i;
 402:Generated_Source\PSoC5/USBFS_std.c ****         uint8 j = 0u;
 403:Generated_Source\PSoC5/USBFS_std.c ****         uint8 uniqueId[8u];
 404:Generated_Source\PSoC5/USBFS_std.c **** 
 405:Generated_Source\PSoC5/USBFS_std.c ****         if (NULL != descr)
 406:Generated_Source\PSoC5/USBFS_std.c ****         {
 407:Generated_Source\PSoC5/USBFS_std.c ****             /* Initialize descriptor header. */
 408:Generated_Source\PSoC5/USBFS_std.c ****             descr[0u] = USBFS_IDSN_DESCR_LENGTH;
 409:Generated_Source\PSoC5/USBFS_std.c ****             descr[1u] = USBFS_DESCR_STRING;
 410:Generated_Source\PSoC5/USBFS_std.c ****             
 411:Generated_Source\PSoC5/USBFS_std.c ****             /* Unique ID size is 8 bytes. */
 412:Generated_Source\PSoC5/USBFS_std.c ****             CyGetUniqueId((uint32 *) uniqueId);
 413:Generated_Source\PSoC5/USBFS_std.c **** 
 414:Generated_Source\PSoC5/USBFS_std.c ****             /* Fill descriptor with unique device ID. */
 415:Generated_Source\PSoC5/USBFS_std.c ****             for (i = 2u; i < USBFS_IDSN_DESCR_LENGTH; i += 4u)
 416:Generated_Source\PSoC5/USBFS_std.c ****             {
 417:Generated_Source\PSoC5/USBFS_std.c ****                 descr[i]      = (uint8) hex[(uniqueId[j] >> 4u)];
 418:Generated_Source\PSoC5/USBFS_std.c ****                 descr[i + 1u] = 0u;
 419:Generated_Source\PSoC5/USBFS_std.c ****                 descr[i + 2u] = (uint8) hex[(uniqueId[j] & 0x0Fu)];
 420:Generated_Source\PSoC5/USBFS_std.c ****                 descr[i + 3u] = 0u;
 421:Generated_Source\PSoC5/USBFS_std.c ****                 ++j;
 422:Generated_Source\PSoC5/USBFS_std.c ****             }
 423:Generated_Source\PSoC5/USBFS_std.c ****         }
 424:Generated_Source\PSoC5/USBFS_std.c ****     }
 425:Generated_Source\PSoC5/USBFS_std.c **** #endif /* (USBFS_ENABLE_IDSN_STRING) */
 426:Generated_Source\PSoC5/USBFS_std.c **** 
 427:Generated_Source\PSoC5/USBFS_std.c **** 
 428:Generated_Source\PSoC5/USBFS_std.c **** /*******************************************************************************
 429:Generated_Source\PSoC5/USBFS_std.c **** * Function Name: USBFS_ConfigReg
 430:Generated_Source\PSoC5/USBFS_std.c **** ****************************************************************************//**
 431:Generated_Source\PSoC5/USBFS_std.c **** *
 432:Generated_Source\PSoC5/USBFS_std.c **** *  This routine configures hardware registers from the variables.
 433:Generated_Source\PSoC5/USBFS_std.c **** *  It is called from USBFS_Config() function and from RestoreConfig
 434:Generated_Source\PSoC5/USBFS_std.c **** *  after Wakeup.
 435:Generated_Source\PSoC5/USBFS_std.c **** *
 436:Generated_Source\PSoC5/USBFS_std.c **** *******************************************************************************/
 437:Generated_Source\PSoC5/USBFS_std.c **** void USBFS_ConfigReg(void) 
 438:Generated_Source\PSoC5/USBFS_std.c **** {
 737              		.loc 1 438 0
 738              		.cfi_startproc
 739              		@ args = 0, pretend = 0, frame = 8
 740              		@ frame_needed = 1, uses_anonymous_args = 0
 741              		@ link register save eliminated.
 742 0000 90B4     		push	{r4, r7}
 743              		.cfi_def_cfa_offset 8
 744              		.cfi_offset 4, -8
 745              		.cfi_offset 7, -4
 746 0002 82B0     		sub	sp, sp, #8
ARM GAS  C:\Users\r\AppData\Local\Temp\ccDuGy4S.s 			page 23


 747              		.cfi_def_cfa_offset 16
 748 0004 00AF     		add	r7, sp, #0
 749              		.cfi_def_cfa_register 7
 439:Generated_Source\PSoC5/USBFS_std.c ****     uint8 ep;
 440:Generated_Source\PSoC5/USBFS_std.c **** 
 441:Generated_Source\PSoC5/USBFS_std.c **** #if (USBFS_EP_MANAGEMENT_DMA_AUTO)
 442:Generated_Source\PSoC5/USBFS_std.c ****     uint8 epType = 0u;
 443:Generated_Source\PSoC5/USBFS_std.c **** #endif /* (USBFS_EP_MANAGEMENT_DMA_AUTO) */
 444:Generated_Source\PSoC5/USBFS_std.c **** 
 445:Generated_Source\PSoC5/USBFS_std.c ****     /* Go thought all endpoints and set hardware configuration */
 446:Generated_Source\PSoC5/USBFS_std.c ****     for (ep = USBFS_EP1; ep < USBFS_MAX_EP; ++ep)
 750              		.loc 1 446 0
 751 0006 0123     		movs	r3, #1
 752 0008 FB71     		strb	r3, [r7, #7]
 753 000a 80E0     		b	.L72
 754              	.L77:
 447:Generated_Source\PSoC5/USBFS_std.c ****     {
 448:Generated_Source\PSoC5/USBFS_std.c ****         USBFS_ARB_EP_BASE.arbEp[ep].epCfg = USBFS_ARB_EPX_CFG_DEFAULT;
 755              		.loc 1 448 0
 756 000c 464A     		ldr	r2, .L78
 757 000e FB79     		ldrb	r3, [r7, #7]	@ zero_extendqisi2
 758 0010 1B01     		lsls	r3, r3, #4
 759 0012 1344     		add	r3, r3, r2
 760 0014 0C22     		movs	r2, #12
 761 0016 1A70     		strb	r2, [r3]
 449:Generated_Source\PSoC5/USBFS_std.c ****         
 450:Generated_Source\PSoC5/USBFS_std.c ****     #if (USBFS_EP_MANAGEMENT_DMA)
 451:Generated_Source\PSoC5/USBFS_std.c ****         /* Enable arbiter endpoint interrupt sources */
 452:Generated_Source\PSoC5/USBFS_std.c ****         USBFS_ARB_EP_BASE.arbEp[ep].epIntEn = USBFS_ARB_EPX_INT_MASK;
 453:Generated_Source\PSoC5/USBFS_std.c ****     #endif /* (USBFS_EP_MANAGEMENT_DMA) */
 454:Generated_Source\PSoC5/USBFS_std.c ****     
 455:Generated_Source\PSoC5/USBFS_std.c ****         if (USBFS_EP[ep].epMode != USBFS_MODE_DISABLE)
 762              		.loc 1 455 0
 763 0018 FA79     		ldrb	r2, [r7, #7]	@ zero_extendqisi2
 764 001a 4449     		ldr	r1, .L78+4
 765 001c 1346     		mov	r3, r2
 766 001e 5B00     		lsls	r3, r3, #1
 767 0020 1344     		add	r3, r3, r2
 768 0022 9B00     		lsls	r3, r3, #2
 769 0024 0B44     		add	r3, r3, r1
 770 0026 0533     		adds	r3, r3, #5
 771 0028 1B78     		ldrb	r3, [r3]
 772 002a DBB2     		uxtb	r3, r3
 773 002c 002B     		cmp	r3, #0
 774 002e 1CD0     		beq	.L73
 456:Generated_Source\PSoC5/USBFS_std.c ****         {
 457:Generated_Source\PSoC5/USBFS_std.c ****             if (0u != (USBFS_EP[ep].addr & USBFS_DIR_IN))
 775              		.loc 1 457 0
 776 0030 FA79     		ldrb	r2, [r7, #7]	@ zero_extendqisi2
 777 0032 3E49     		ldr	r1, .L78+4
 778 0034 1346     		mov	r3, r2
 779 0036 5B00     		lsls	r3, r3, #1
 780 0038 1344     		add	r3, r3, r2
 781 003a 9B00     		lsls	r3, r3, #2
 782 003c 0B44     		add	r3, r3, r1
 783 003e 0433     		adds	r3, r3, #4
 784 0040 1B78     		ldrb	r3, [r3]
ARM GAS  C:\Users\r\AppData\Local\Temp\ccDuGy4S.s 			page 24


 785 0042 DBB2     		uxtb	r3, r3
 786 0044 5BB2     		sxtb	r3, r3
 787 0046 002B     		cmp	r3, #0
 788 0048 07DA     		bge	.L74
 458:Generated_Source\PSoC5/USBFS_std.c ****             {
 459:Generated_Source\PSoC5/USBFS_std.c ****                 USBFS_SIE_EP_BASE.sieEp[ep].epCr0 = USBFS_MODE_NAK_IN;
 789              		.loc 1 459 0
 790 004a 394A     		ldr	r2, .L78+8
 791 004c FB79     		ldrb	r3, [r7, #7]	@ zero_extendqisi2
 792 004e 1B01     		lsls	r3, r3, #4
 793 0050 1344     		add	r3, r3, r2
 794 0052 0233     		adds	r3, r3, #2
 795 0054 0C22     		movs	r2, #12
 796 0056 1A70     		strb	r2, [r3]
 797 0058 0EE0     		b	.L76
 798              	.L74:
 460:Generated_Source\PSoC5/USBFS_std.c ****                 
 461:Generated_Source\PSoC5/USBFS_std.c ****             #if (USBFS_EP_MANAGEMENT_DMA_AUTO && CY_PSOC4)
 462:Generated_Source\PSoC5/USBFS_std.c ****                 /* Clear DMA_TERMIN for IN endpoint. */
 463:Generated_Source\PSoC5/USBFS_std.c ****                 USBFS_ARB_EP_BASE.arbEp[ep].epIntEn &= (uint32) ~USBFS_ARB_EPX_INT_DMA_TERMIN;
 464:Generated_Source\PSoC5/USBFS_std.c ****             #endif /* (USBFS_EP_MANAGEMENT_DMA_AUTO && CY_PSOC4) */
 465:Generated_Source\PSoC5/USBFS_std.c ****             }
 466:Generated_Source\PSoC5/USBFS_std.c ****             else
 467:Generated_Source\PSoC5/USBFS_std.c ****             {
 468:Generated_Source\PSoC5/USBFS_std.c ****                 USBFS_SIE_EP_BASE.sieEp[ep].epCr0 = USBFS_MODE_NAK_OUT;
 799              		.loc 1 468 0
 800 005a 354A     		ldr	r2, .L78+8
 801 005c FB79     		ldrb	r3, [r7, #7]	@ zero_extendqisi2
 802 005e 1B01     		lsls	r3, r3, #4
 803 0060 1344     		add	r3, r3, r2
 804 0062 0233     		adds	r3, r3, #2
 805 0064 0822     		movs	r2, #8
 806 0066 1A70     		strb	r2, [r3]
 807 0068 06E0     		b	.L76
 808              	.L73:
 469:Generated_Source\PSoC5/USBFS_std.c **** 
 470:Generated_Source\PSoC5/USBFS_std.c ****             #if (USBFS_EP_MANAGEMENT_DMA_AUTO)
 471:Generated_Source\PSoC5/USBFS_std.c ****                 /* (CY_PSOC4): DMA_TERMIN for OUT endpoint is set above. */
 472:Generated_Source\PSoC5/USBFS_std.c ****                 
 473:Generated_Source\PSoC5/USBFS_std.c ****                 /* Prepare endpoint type mask. */
 474:Generated_Source\PSoC5/USBFS_std.c ****                 epType |= (uint8) (0x01u << (ep - USBFS_EP1));
 475:Generated_Source\PSoC5/USBFS_std.c ****             #endif /* (USBFS_EP_MANAGEMENT_DMA_AUTO) */
 476:Generated_Source\PSoC5/USBFS_std.c ****             }
 477:Generated_Source\PSoC5/USBFS_std.c ****         }
 478:Generated_Source\PSoC5/USBFS_std.c ****         else
 479:Generated_Source\PSoC5/USBFS_std.c ****         {
 480:Generated_Source\PSoC5/USBFS_std.c ****             USBFS_SIE_EP_BASE.sieEp[ep].epCr0 = USBFS_MODE_STALL_DATA_EP;
 809              		.loc 1 480 0
 810 006a 314A     		ldr	r2, .L78+8
 811 006c FB79     		ldrb	r3, [r7, #7]	@ zero_extendqisi2
 812 006e 1B01     		lsls	r3, r3, #4
 813 0070 1344     		add	r3, r3, r2
 814 0072 0233     		adds	r3, r3, #2
 815 0074 8022     		movs	r2, #128
 816 0076 1A70     		strb	r2, [r3]
 817              	.L76:
 481:Generated_Source\PSoC5/USBFS_std.c ****         }
ARM GAS  C:\Users\r\AppData\Local\Temp\ccDuGy4S.s 			page 25


 482:Generated_Source\PSoC5/USBFS_std.c ****         
 483:Generated_Source\PSoC5/USBFS_std.c ****     #if (!USBFS_EP_MANAGEMENT_DMA_AUTO)
 484:Generated_Source\PSoC5/USBFS_std.c ****         #if (CY_PSOC4)
 485:Generated_Source\PSoC5/USBFS_std.c ****             USBFS_ARB_EP16_BASE.arbEp[ep].rwRa16  = (uint32) USBFS_EP[ep].buffOffset;
 486:Generated_Source\PSoC5/USBFS_std.c ****             USBFS_ARB_EP16_BASE.arbEp[ep].rwWa16  = (uint32) USBFS_EP[ep].buffOffset;
 487:Generated_Source\PSoC5/USBFS_std.c ****         #else
 488:Generated_Source\PSoC5/USBFS_std.c ****             USBFS_ARB_EP_BASE.arbEp[ep].rwRa    = LO8(USBFS_EP[ep].buffOffset);
 818              		.loc 1 488 0 discriminator 2
 819 0078 2B48     		ldr	r0, .L78
 820 007a F979     		ldrb	r1, [r7, #7]	@ zero_extendqisi2
 821 007c FA79     		ldrb	r2, [r7, #7]	@ zero_extendqisi2
 822 007e 2B4C     		ldr	r4, .L78+4
 823 0080 1346     		mov	r3, r2
 824 0082 5B00     		lsls	r3, r3, #1
 825 0084 1344     		add	r3, r3, r2
 826 0086 9B00     		lsls	r3, r3, #2
 827 0088 2344     		add	r3, r3, r4
 828 008a 0633     		adds	r3, r3, #6
 829 008c 1B88     		ldrh	r3, [r3]	@ movhi
 830 008e 9BB2     		uxth	r3, r3
 831 0090 DAB2     		uxtb	r2, r3
 832 0092 0B01     		lsls	r3, r1, #4
 833 0094 0344     		add	r3, r3, r0
 834 0096 0633     		adds	r3, r3, #6
 835 0098 1A70     		strb	r2, [r3]
 489:Generated_Source\PSoC5/USBFS_std.c ****             USBFS_ARB_EP_BASE.arbEp[ep].rwRaMsb = HI8(USBFS_EP[ep].buffOffset);
 836              		.loc 1 489 0 discriminator 2
 837 009a 2348     		ldr	r0, .L78
 838 009c F979     		ldrb	r1, [r7, #7]	@ zero_extendqisi2
 839 009e FA79     		ldrb	r2, [r7, #7]	@ zero_extendqisi2
 840 00a0 224C     		ldr	r4, .L78+4
 841 00a2 1346     		mov	r3, r2
 842 00a4 5B00     		lsls	r3, r3, #1
 843 00a6 1344     		add	r3, r3, r2
 844 00a8 9B00     		lsls	r3, r3, #2
 845 00aa 2344     		add	r3, r3, r4
 846 00ac 0633     		adds	r3, r3, #6
 847 00ae 1B88     		ldrh	r3, [r3]	@ movhi
 848 00b0 9BB2     		uxth	r3, r3
 849 00b2 1B0A     		lsrs	r3, r3, #8
 850 00b4 9BB2     		uxth	r3, r3
 851 00b6 DAB2     		uxtb	r2, r3
 852 00b8 0B01     		lsls	r3, r1, #4
 853 00ba 0344     		add	r3, r3, r0
 854 00bc 0733     		adds	r3, r3, #7
 855 00be 1A70     		strb	r2, [r3]
 490:Generated_Source\PSoC5/USBFS_std.c ****             USBFS_ARB_EP_BASE.arbEp[ep].rwWa    = LO8(USBFS_EP[ep].buffOffset);
 856              		.loc 1 490 0 discriminator 2
 857 00c0 1948     		ldr	r0, .L78
 858 00c2 F979     		ldrb	r1, [r7, #7]	@ zero_extendqisi2
 859 00c4 FA79     		ldrb	r2, [r7, #7]	@ zero_extendqisi2
 860 00c6 194C     		ldr	r4, .L78+4
 861 00c8 1346     		mov	r3, r2
 862 00ca 5B00     		lsls	r3, r3, #1
 863 00cc 1344     		add	r3, r3, r2
 864 00ce 9B00     		lsls	r3, r3, #2
 865 00d0 2344     		add	r3, r3, r4
ARM GAS  C:\Users\r\AppData\Local\Temp\ccDuGy4S.s 			page 26


 866 00d2 0633     		adds	r3, r3, #6
 867 00d4 1B88     		ldrh	r3, [r3]	@ movhi
 868 00d6 9BB2     		uxth	r3, r3
 869 00d8 DAB2     		uxtb	r2, r3
 870 00da 0B01     		lsls	r3, r1, #4
 871 00dc 0344     		add	r3, r3, r0
 872 00de 0433     		adds	r3, r3, #4
 873 00e0 1A70     		strb	r2, [r3]
 491:Generated_Source\PSoC5/USBFS_std.c ****             USBFS_ARB_EP_BASE.arbEp[ep].rwWaMsb = HI8(USBFS_EP[ep].buffOffset);
 874              		.loc 1 491 0 discriminator 2
 875 00e2 1148     		ldr	r0, .L78
 876 00e4 F979     		ldrb	r1, [r7, #7]	@ zero_extendqisi2
 877 00e6 FA79     		ldrb	r2, [r7, #7]	@ zero_extendqisi2
 878 00e8 104C     		ldr	r4, .L78+4
 879 00ea 1346     		mov	r3, r2
 880 00ec 5B00     		lsls	r3, r3, #1
 881 00ee 1344     		add	r3, r3, r2
 882 00f0 9B00     		lsls	r3, r3, #2
 883 00f2 2344     		add	r3, r3, r4
 884 00f4 0633     		adds	r3, r3, #6
 885 00f6 1B88     		ldrh	r3, [r3]	@ movhi
 886 00f8 9BB2     		uxth	r3, r3
 887 00fa 1B0A     		lsrs	r3, r3, #8
 888 00fc 9BB2     		uxth	r3, r3
 889 00fe DAB2     		uxtb	r2, r3
 890 0100 0B01     		lsls	r3, r1, #4
 891 0102 0344     		add	r3, r3, r0
 892 0104 0533     		adds	r3, r3, #5
 893 0106 1A70     		strb	r2, [r3]
 446:Generated_Source\PSoC5/USBFS_std.c ****     {
 894              		.loc 1 446 0 discriminator 2
 895 0108 FB79     		ldrb	r3, [r7, #7]
 896 010a 0133     		adds	r3, r3, #1
 897 010c FB71     		strb	r3, [r7, #7]
 898              	.L72:
 446:Generated_Source\PSoC5/USBFS_std.c ****     {
 899              		.loc 1 446 0 is_stmt 0 discriminator 1
 900 010e FB79     		ldrb	r3, [r7, #7]	@ zero_extendqisi2
 901 0110 082B     		cmp	r3, #8
 902 0112 7FF67BAF 		bls	.L77
 492:Generated_Source\PSoC5/USBFS_std.c ****         #endif /* (CY_PSOC4) */
 493:Generated_Source\PSoC5/USBFS_std.c ****     #endif /* (!USBFS_EP_MANAGEMENT_DMA_AUTO) */
 494:Generated_Source\PSoC5/USBFS_std.c ****     }
 495:Generated_Source\PSoC5/USBFS_std.c **** 
 496:Generated_Source\PSoC5/USBFS_std.c **** #if (USBFS_EP_MANAGEMENT_DMA_AUTO)
 497:Generated_Source\PSoC5/USBFS_std.c ****      /* BUF_SIZE depend on DMA_THRESS value:0x55-32 bytes  0x44-16 bytes 0x33-8 bytes 0x22-4 bytes 
 498:Generated_Source\PSoC5/USBFS_std.c ****     USBFS_BUF_SIZE_REG = USBFS_DMA_BUF_SIZE;
 499:Generated_Source\PSoC5/USBFS_std.c **** 
 500:Generated_Source\PSoC5/USBFS_std.c ****     /* Configure DMA burst threshold */
 501:Generated_Source\PSoC5/USBFS_std.c **** #if (CY_PSOC4)
 502:Generated_Source\PSoC5/USBFS_std.c ****     USBFS_DMA_THRES16_REG   = USBFS_DMA_BYTES_PER_BURST;
 503:Generated_Source\PSoC5/USBFS_std.c **** #else
 504:Generated_Source\PSoC5/USBFS_std.c ****     USBFS_DMA_THRES_REG     = USBFS_DMA_BYTES_PER_BURST;
 505:Generated_Source\PSoC5/USBFS_std.c ****     USBFS_DMA_THRES_MSB_REG = 0u;
 506:Generated_Source\PSoC5/USBFS_std.c **** #endif /* (CY_PSOC4) */
 507:Generated_Source\PSoC5/USBFS_std.c ****     USBFS_EP_ACTIVE_REG = USBFS_DEFAULT_ARB_INT_EN;
 508:Generated_Source\PSoC5/USBFS_std.c ****     USBFS_EP_TYPE_REG   = epType;
ARM GAS  C:\Users\r\AppData\Local\Temp\ccDuGy4S.s 			page 27


 509:Generated_Source\PSoC5/USBFS_std.c ****     
 510:Generated_Source\PSoC5/USBFS_std.c ****     /* Cfg_cmp bit set to 1 once configuration is complete. */
 511:Generated_Source\PSoC5/USBFS_std.c ****     /* Lock arbiter configtuation */
 512:Generated_Source\PSoC5/USBFS_std.c ****     USBFS_ARB_CFG_REG |= (uint8)  USBFS_ARB_CFG_CFG_CMP;
 513:Generated_Source\PSoC5/USBFS_std.c ****     /* Cfg_cmp bit set to 0 during configuration of PFSUSB Registers. */
 514:Generated_Source\PSoC5/USBFS_std.c ****     USBFS_ARB_CFG_REG &= (uint8) ~USBFS_ARB_CFG_CFG_CMP;
 515:Generated_Source\PSoC5/USBFS_std.c **** 
 516:Generated_Source\PSoC5/USBFS_std.c **** #endif /* (USBFS_EP_MANAGEMENT_DMA_AUTO) */
 517:Generated_Source\PSoC5/USBFS_std.c **** 
 518:Generated_Source\PSoC5/USBFS_std.c ****     /* Enable interrupt SIE interurpt source from EP0-EP1 */
 519:Generated_Source\PSoC5/USBFS_std.c ****     USBFS_SIE_EP_INT_EN_REG = (uint8) USBFS_DEFAULT_SIE_EP_INT_EN;
 903              		.loc 1 519 0 is_stmt 1
 904 0116 074B     		ldr	r3, .L78+12
 905 0118 FF22     		movs	r2, #255
 906 011a 1A70     		strb	r2, [r3]
 520:Generated_Source\PSoC5/USBFS_std.c **** }
 907              		.loc 1 520 0
 908 011c 00BF     		nop
 909 011e 0837     		adds	r7, r7, #8
 910              		.cfi_def_cfa_offset 8
 911 0120 BD46     		mov	sp, r7
 912              		.cfi_def_cfa_register 13
 913              		@ sp needed
 914 0122 90BC     		pop	{r4, r7}
 915              		.cfi_restore 7
 916              		.cfi_restore 4
 917              		.cfi_def_cfa_offset 0
 918 0124 7047     		bx	lr
 919              	.L79:
 920 0126 00BF     		.align	2
 921              	.L78:
 922 0128 70600040 		.word	1073766512
 923 012c 00000000 		.word	USBFS_EP
 924 0130 FC5F0040 		.word	1073766396
 925 0134 0A600040 		.word	1073766410
 926              		.cfi_endproc
 927              	.LFE1:
 928              		.size	USBFS_ConfigReg, .-USBFS_ConfigReg
 929              		.section	.text.USBFS_EpStateInit,"ax",%progbits
 930              		.align	2
 931              		.global	USBFS_EpStateInit
 932              		.thumb
 933              		.thumb_func
 934              		.type	USBFS_EpStateInit, %function
 935              	USBFS_EpStateInit:
 936              	.LFB2:
 521:Generated_Source\PSoC5/USBFS_std.c **** 
 522:Generated_Source\PSoC5/USBFS_std.c **** 
 523:Generated_Source\PSoC5/USBFS_std.c **** /*******************************************************************************
 524:Generated_Source\PSoC5/USBFS_std.c **** * Function Name: USBFS_EpStateInit
 525:Generated_Source\PSoC5/USBFS_std.c **** ****************************************************************************//**
 526:Generated_Source\PSoC5/USBFS_std.c **** *
 527:Generated_Source\PSoC5/USBFS_std.c **** *  This routine initialize state of Data end points based of its type: 
 528:Generated_Source\PSoC5/USBFS_std.c **** *   IN  - USBFS_IN_BUFFER_EMPTY (USBFS_EVENT_PENDING)
 529:Generated_Source\PSoC5/USBFS_std.c **** *   OUT - USBFS_OUT_BUFFER_EMPTY (USBFS_NO_EVENT_PENDING)
 530:Generated_Source\PSoC5/USBFS_std.c **** *
 531:Generated_Source\PSoC5/USBFS_std.c **** *******************************************************************************/
ARM GAS  C:\Users\r\AppData\Local\Temp\ccDuGy4S.s 			page 28


 532:Generated_Source\PSoC5/USBFS_std.c **** void USBFS_EpStateInit(void) 
 533:Generated_Source\PSoC5/USBFS_std.c **** {
 937              		.loc 1 533 0
 938              		.cfi_startproc
 939              		@ args = 0, pretend = 0, frame = 8
 940              		@ frame_needed = 1, uses_anonymous_args = 0
 941              		@ link register save eliminated.
 942 0000 80B4     		push	{r7}
 943              		.cfi_def_cfa_offset 4
 944              		.cfi_offset 7, -4
 945 0002 83B0     		sub	sp, sp, #12
 946              		.cfi_def_cfa_offset 16
 947 0004 00AF     		add	r7, sp, #0
 948              		.cfi_def_cfa_register 7
 534:Generated_Source\PSoC5/USBFS_std.c ****     uint8 i;
 535:Generated_Source\PSoC5/USBFS_std.c **** 
 536:Generated_Source\PSoC5/USBFS_std.c ****     for (i = USBFS_EP1; i < USBFS_MAX_EP; i++)
 949              		.loc 1 536 0
 950 0006 0123     		movs	r3, #1
 951 0008 FB71     		strb	r3, [r7, #7]
 952 000a 24E0     		b	.L81
 953              	.L84:
 537:Generated_Source\PSoC5/USBFS_std.c ****     { 
 538:Generated_Source\PSoC5/USBFS_std.c ****         if (0u != (USBFS_EP[i].addr & USBFS_DIR_IN))
 954              		.loc 1 538 0
 955 000c FA79     		ldrb	r2, [r7, #7]	@ zero_extendqisi2
 956 000e 1649     		ldr	r1, .L85
 957 0010 1346     		mov	r3, r2
 958 0012 5B00     		lsls	r3, r3, #1
 959 0014 1344     		add	r3, r3, r2
 960 0016 9B00     		lsls	r3, r3, #2
 961 0018 0B44     		add	r3, r3, r1
 962 001a 0433     		adds	r3, r3, #4
 963 001c 1B78     		ldrb	r3, [r3]
 964 001e DBB2     		uxtb	r3, r3
 965 0020 5BB2     		sxtb	r3, r3
 966 0022 002B     		cmp	r3, #0
 967 0024 0ADA     		bge	.L82
 539:Generated_Source\PSoC5/USBFS_std.c ****         {
 540:Generated_Source\PSoC5/USBFS_std.c ****             /* IN Endpoint */
 541:Generated_Source\PSoC5/USBFS_std.c ****             USBFS_EP[i].apiEpState = USBFS_EVENT_PENDING;
 968              		.loc 1 541 0
 969 0026 FA79     		ldrb	r2, [r7, #7]	@ zero_extendqisi2
 970 0028 0F49     		ldr	r1, .L85
 971 002a 1346     		mov	r3, r2
 972 002c 5B00     		lsls	r3, r3, #1
 973 002e 1344     		add	r3, r3, r2
 974 0030 9B00     		lsls	r3, r3, #2
 975 0032 0B44     		add	r3, r3, r1
 976 0034 0133     		adds	r3, r3, #1
 977 0036 0122     		movs	r2, #1
 978 0038 1A70     		strb	r2, [r3]
 979 003a 09E0     		b	.L83
 980              	.L82:
 542:Generated_Source\PSoC5/USBFS_std.c ****         }
 543:Generated_Source\PSoC5/USBFS_std.c ****         else
 544:Generated_Source\PSoC5/USBFS_std.c ****         {
ARM GAS  C:\Users\r\AppData\Local\Temp\ccDuGy4S.s 			page 29


 545:Generated_Source\PSoC5/USBFS_std.c ****             /* OUT Endpoint */
 546:Generated_Source\PSoC5/USBFS_std.c ****             USBFS_EP[i].apiEpState = USBFS_NO_EVENT_PENDING;
 981              		.loc 1 546 0
 982 003c FA79     		ldrb	r2, [r7, #7]	@ zero_extendqisi2
 983 003e 0A49     		ldr	r1, .L85
 984 0040 1346     		mov	r3, r2
 985 0042 5B00     		lsls	r3, r3, #1
 986 0044 1344     		add	r3, r3, r2
 987 0046 9B00     		lsls	r3, r3, #2
 988 0048 0B44     		add	r3, r3, r1
 989 004a 0133     		adds	r3, r3, #1
 990 004c 0022     		movs	r2, #0
 991 004e 1A70     		strb	r2, [r3]
 992              	.L83:
 536:Generated_Source\PSoC5/USBFS_std.c ****     { 
 993              		.loc 1 536 0 discriminator 2
 994 0050 FB79     		ldrb	r3, [r7, #7]	@ zero_extendqisi2
 995 0052 0133     		adds	r3, r3, #1
 996 0054 FB71     		strb	r3, [r7, #7]
 997              	.L81:
 536:Generated_Source\PSoC5/USBFS_std.c ****     { 
 998              		.loc 1 536 0 is_stmt 0 discriminator 1
 999 0056 FB79     		ldrb	r3, [r7, #7]	@ zero_extendqisi2
 1000 0058 082B     		cmp	r3, #8
 1001 005a D7D9     		bls	.L84
 547:Generated_Source\PSoC5/USBFS_std.c ****         }
 548:Generated_Source\PSoC5/USBFS_std.c ****     }
 549:Generated_Source\PSoC5/USBFS_std.c ****                     
 550:Generated_Source\PSoC5/USBFS_std.c **** }
 1002              		.loc 1 550 0 is_stmt 1
 1003 005c 00BF     		nop
 1004 005e 0C37     		adds	r7, r7, #12
 1005              		.cfi_def_cfa_offset 4
 1006 0060 BD46     		mov	sp, r7
 1007              		.cfi_def_cfa_register 13
 1008              		@ sp needed
 1009 0062 80BC     		pop	{r7}
 1010              		.cfi_restore 7
 1011              		.cfi_def_cfa_offset 0
 1012 0064 7047     		bx	lr
 1013              	.L86:
 1014 0066 00BF     		.align	2
 1015              	.L85:
 1016 0068 00000000 		.word	USBFS_EP
 1017              		.cfi_endproc
 1018              	.LFE2:
 1019              		.size	USBFS_EpStateInit, .-USBFS_EpStateInit
 1020              		.section	.text.USBFS_Config,"ax",%progbits
 1021              		.align	2
 1022              		.global	USBFS_Config
 1023              		.thumb
 1024              		.thumb_func
 1025              		.type	USBFS_Config, %function
 1026              	USBFS_Config:
 1027              	.LFB3:
 551:Generated_Source\PSoC5/USBFS_std.c **** 
 552:Generated_Source\PSoC5/USBFS_std.c **** 
ARM GAS  C:\Users\r\AppData\Local\Temp\ccDuGy4S.s 			page 30


 553:Generated_Source\PSoC5/USBFS_std.c **** /*******************************************************************************
 554:Generated_Source\PSoC5/USBFS_std.c **** * Function Name: USBFS_Config
 555:Generated_Source\PSoC5/USBFS_std.c **** ****************************************************************************//**
 556:Generated_Source\PSoC5/USBFS_std.c **** *
 557:Generated_Source\PSoC5/USBFS_std.c **** *  This routine configures endpoints for the entire configuration by scanning
 558:Generated_Source\PSoC5/USBFS_std.c **** *  the configuration descriptor.
 559:Generated_Source\PSoC5/USBFS_std.c **** *
 560:Generated_Source\PSoC5/USBFS_std.c **** *  \param clearAltSetting: It configures the bAlternateSetting 0 for each interface.
 561:Generated_Source\PSoC5/USBFS_std.c **** *
 562:Generated_Source\PSoC5/USBFS_std.c **** * USBFS_interfaceClass - Initialized class array for each interface.
 563:Generated_Source\PSoC5/USBFS_std.c **** *   It is used for handling Class specific requests depend on interface class.
 564:Generated_Source\PSoC5/USBFS_std.c **** *   Different classes in multiple Alternate settings does not supported.
 565:Generated_Source\PSoC5/USBFS_std.c **** *
 566:Generated_Source\PSoC5/USBFS_std.c **** * \reentrant
 567:Generated_Source\PSoC5/USBFS_std.c **** *  No.
 568:Generated_Source\PSoC5/USBFS_std.c **** *
 569:Generated_Source\PSoC5/USBFS_std.c **** *******************************************************************************/
 570:Generated_Source\PSoC5/USBFS_std.c **** void USBFS_Config(uint8 clearAltSetting) 
 571:Generated_Source\PSoC5/USBFS_std.c **** {
 1028              		.loc 1 571 0
 1029              		.cfi_startproc
 1030              		@ args = 0, pretend = 0, frame = 32
 1031              		@ frame_needed = 1, uses_anonymous_args = 0
 1032 0000 80B5     		push	{r7, lr}
 1033              		.cfi_def_cfa_offset 8
 1034              		.cfi_offset 7, -8
 1035              		.cfi_offset 14, -4
 1036 0002 88B0     		sub	sp, sp, #32
 1037              		.cfi_def_cfa_offset 40
 1038 0004 00AF     		add	r7, sp, #0
 1039              		.cfi_def_cfa_register 7
 1040 0006 0346     		mov	r3, r0
 1041 0008 FB71     		strb	r3, [r7, #7]
 572:Generated_Source\PSoC5/USBFS_std.c ****     uint8 ep;
 573:Generated_Source\PSoC5/USBFS_std.c ****     uint8 curEp;
 574:Generated_Source\PSoC5/USBFS_std.c ****     uint8 i;
 575:Generated_Source\PSoC5/USBFS_std.c ****     uint8 epType;
 576:Generated_Source\PSoC5/USBFS_std.c ****     const uint8 *pDescr;
 577:Generated_Source\PSoC5/USBFS_std.c ****     
 578:Generated_Source\PSoC5/USBFS_std.c ****     #if (!USBFS_EP_MANAGEMENT_DMA_AUTO)
 579:Generated_Source\PSoC5/USBFS_std.c ****         uint16 buffCount = 0u;
 1042              		.loc 1 579 0
 1043 000a 0023     		movs	r3, #0
 1044 000c 7B83     		strh	r3, [r7, #26]	@ movhi
 580:Generated_Source\PSoC5/USBFS_std.c ****     #endif /* (!USBFS_EP_MANAGEMENT_DMA_AUTO) */
 581:Generated_Source\PSoC5/USBFS_std.c **** 
 582:Generated_Source\PSoC5/USBFS_std.c ****     const T_USBFS_LUT CYCODE *pTmp;
 583:Generated_Source\PSoC5/USBFS_std.c ****     const T_USBFS_EP_SETTINGS_BLOCK CYCODE *pEP;
 584:Generated_Source\PSoC5/USBFS_std.c **** 
 585:Generated_Source\PSoC5/USBFS_std.c ****     /* Clear endpoints settings */
 586:Generated_Source\PSoC5/USBFS_std.c ****     for (ep = 0u; ep < USBFS_MAX_EP; ++ep)
 1045              		.loc 1 586 0
 1046 000e 0023     		movs	r3, #0
 1047 0010 FB77     		strb	r3, [r7, #31]
 1048 0012 47E0     		b	.L88
 1049              	.L89:
 587:Generated_Source\PSoC5/USBFS_std.c ****     {
ARM GAS  C:\Users\r\AppData\Local\Temp\ccDuGy4S.s 			page 31


 588:Generated_Source\PSoC5/USBFS_std.c ****         USBFS_EP[ep].attrib     = 0u;
 1050              		.loc 1 588 0 discriminator 3
 1051 0014 FA7F     		ldrb	r2, [r7, #31]	@ zero_extendqisi2
 1052 0016 A949     		ldr	r1, .L112
 1053 0018 1346     		mov	r3, r2
 1054 001a 5B00     		lsls	r3, r3, #1
 1055 001c 1344     		add	r3, r3, r2
 1056 001e 9B00     		lsls	r3, r3, #2
 1057 0020 0B44     		add	r3, r3, r1
 1058 0022 0022     		movs	r2, #0
 1059 0024 1A70     		strb	r2, [r3]
 589:Generated_Source\PSoC5/USBFS_std.c ****         USBFS_EP[ep].hwEpState  = 0u;
 1060              		.loc 1 589 0 discriminator 3
 1061 0026 FA7F     		ldrb	r2, [r7, #31]	@ zero_extendqisi2
 1062 0028 A449     		ldr	r1, .L112
 1063 002a 1346     		mov	r3, r2
 1064 002c 5B00     		lsls	r3, r3, #1
 1065 002e 1344     		add	r3, r3, r2
 1066 0030 9B00     		lsls	r3, r3, #2
 1067 0032 0B44     		add	r3, r3, r1
 1068 0034 0233     		adds	r3, r3, #2
 1069 0036 0022     		movs	r2, #0
 1070 0038 1A70     		strb	r2, [r3]
 590:Generated_Source\PSoC5/USBFS_std.c ****         USBFS_EP[ep].epToggle   = 0u;
 1071              		.loc 1 590 0 discriminator 3
 1072 003a FA7F     		ldrb	r2, [r7, #31]	@ zero_extendqisi2
 1073 003c 9F49     		ldr	r1, .L112
 1074 003e 1346     		mov	r3, r2
 1075 0040 5B00     		lsls	r3, r3, #1
 1076 0042 1344     		add	r3, r3, r2
 1077 0044 9B00     		lsls	r3, r3, #2
 1078 0046 0B44     		add	r3, r3, r1
 1079 0048 0333     		adds	r3, r3, #3
 1080 004a 0022     		movs	r2, #0
 1081 004c 1A70     		strb	r2, [r3]
 591:Generated_Source\PSoC5/USBFS_std.c ****         USBFS_EP[ep].bufferSize = 0u;
 1082              		.loc 1 591 0 discriminator 3
 1083 004e FA7F     		ldrb	r2, [r7, #31]	@ zero_extendqisi2
 1084 0050 9A49     		ldr	r1, .L112
 1085 0052 1346     		mov	r3, r2
 1086 0054 5B00     		lsls	r3, r3, #1
 1087 0056 1344     		add	r3, r3, r2
 1088 0058 9B00     		lsls	r3, r3, #2
 1089 005a 0B44     		add	r3, r3, r1
 1090 005c 0833     		adds	r3, r3, #8
 1091 005e 0022     		movs	r2, #0
 1092 0060 1A80     		strh	r2, [r3]	@ movhi
 592:Generated_Source\PSoC5/USBFS_std.c ****         USBFS_EP[ep].interface  = 0u;
 1093              		.loc 1 592 0 discriminator 3
 1094 0062 FA7F     		ldrb	r2, [r7, #31]	@ zero_extendqisi2
 1095 0064 9549     		ldr	r1, .L112
 1096 0066 1346     		mov	r3, r2
 1097 0068 5B00     		lsls	r3, r3, #1
 1098 006a 1344     		add	r3, r3, r2
 1099 006c 9B00     		lsls	r3, r3, #2
 1100 006e 0B44     		add	r3, r3, r1
 1101 0070 0A33     		adds	r3, r3, #10
ARM GAS  C:\Users\r\AppData\Local\Temp\ccDuGy4S.s 			page 32


 1102 0072 0022     		movs	r2, #0
 1103 0074 1A70     		strb	r2, [r3]
 593:Generated_Source\PSoC5/USBFS_std.c ****         USBFS_EP[ep].apiEpState = USBFS_NO_EVENT_PENDING;
 1104              		.loc 1 593 0 discriminator 3
 1105 0076 FA7F     		ldrb	r2, [r7, #31]	@ zero_extendqisi2
 1106 0078 9049     		ldr	r1, .L112
 1107 007a 1346     		mov	r3, r2
 1108 007c 5B00     		lsls	r3, r3, #1
 1109 007e 1344     		add	r3, r3, r2
 1110 0080 9B00     		lsls	r3, r3, #2
 1111 0082 0B44     		add	r3, r3, r1
 1112 0084 0133     		adds	r3, r3, #1
 1113 0086 0022     		movs	r2, #0
 1114 0088 1A70     		strb	r2, [r3]
 594:Generated_Source\PSoC5/USBFS_std.c ****         USBFS_EP[ep].epMode     = USBFS_MODE_DISABLE;   
 1115              		.loc 1 594 0 discriminator 3
 1116 008a FA7F     		ldrb	r2, [r7, #31]	@ zero_extendqisi2
 1117 008c 8B49     		ldr	r1, .L112
 1118 008e 1346     		mov	r3, r2
 1119 0090 5B00     		lsls	r3, r3, #1
 1120 0092 1344     		add	r3, r3, r2
 1121 0094 9B00     		lsls	r3, r3, #2
 1122 0096 0B44     		add	r3, r3, r1
 1123 0098 0533     		adds	r3, r3, #5
 1124 009a 0022     		movs	r2, #0
 1125 009c 1A70     		strb	r2, [r3]
 586:Generated_Source\PSoC5/USBFS_std.c ****     {
 1126              		.loc 1 586 0 discriminator 3
 1127 009e FB7F     		ldrb	r3, [r7, #31]
 1128 00a0 0133     		adds	r3, r3, #1
 1129 00a2 FB77     		strb	r3, [r7, #31]
 1130              	.L88:
 586:Generated_Source\PSoC5/USBFS_std.c ****     {
 1131              		.loc 1 586 0 is_stmt 0 discriminator 1
 1132 00a4 FB7F     		ldrb	r3, [r7, #31]	@ zero_extendqisi2
 1133 00a6 082B     		cmp	r3, #8
 1134 00a8 B4D9     		bls	.L89
 595:Generated_Source\PSoC5/USBFS_std.c ****     }
 596:Generated_Source\PSoC5/USBFS_std.c **** 
 597:Generated_Source\PSoC5/USBFS_std.c ****     /* Clear Alternate settings for all interfaces. */
 598:Generated_Source\PSoC5/USBFS_std.c ****     if (0u != clearAltSetting)
 1135              		.loc 1 598 0 is_stmt 1
 1136 00aa FB79     		ldrb	r3, [r7, #7]	@ zero_extendqisi2
 1137 00ac 002B     		cmp	r3, #0
 1138 00ae 10D0     		beq	.L90
 599:Generated_Source\PSoC5/USBFS_std.c ****     {
 600:Generated_Source\PSoC5/USBFS_std.c ****         for (i = 0u; i < USBFS_MAX_INTERFACES_NUMBER; ++i)
 1139              		.loc 1 600 0
 1140 00b0 0023     		movs	r3, #0
 1141 00b2 7B77     		strb	r3, [r7, #29]
 1142 00b4 0AE0     		b	.L91
 1143              	.L92:
 601:Generated_Source\PSoC5/USBFS_std.c ****         {
 602:Generated_Source\PSoC5/USBFS_std.c ****             USBFS_interfaceSetting[i]     = 0u;
 1144              		.loc 1 602 0 discriminator 3
 1145 00b6 7B7F     		ldrb	r3, [r7, #29]	@ zero_extendqisi2
 1146 00b8 814A     		ldr	r2, .L112+4
ARM GAS  C:\Users\r\AppData\Local\Temp\ccDuGy4S.s 			page 33


 1147 00ba 0021     		movs	r1, #0
 1148 00bc D154     		strb	r1, [r2, r3]
 603:Generated_Source\PSoC5/USBFS_std.c ****             USBFS_interfaceSettingLast[i] = 0u;
 1149              		.loc 1 603 0 discriminator 3
 1150 00be 7B7F     		ldrb	r3, [r7, #29]	@ zero_extendqisi2
 1151 00c0 804A     		ldr	r2, .L112+8
 1152 00c2 0021     		movs	r1, #0
 1153 00c4 D154     		strb	r1, [r2, r3]
 600:Generated_Source\PSoC5/USBFS_std.c ****         {
 1154              		.loc 1 600 0 discriminator 3
 1155 00c6 7B7F     		ldrb	r3, [r7, #29]
 1156 00c8 0133     		adds	r3, r3, #1
 1157 00ca 7B77     		strb	r3, [r7, #29]
 1158              	.L91:
 600:Generated_Source\PSoC5/USBFS_std.c ****         {
 1159              		.loc 1 600 0 is_stmt 0 discriminator 1
 1160 00cc 7B7F     		ldrb	r3, [r7, #29]	@ zero_extendqisi2
 1161 00ce 012B     		cmp	r3, #1
 1162 00d0 F1D9     		bls	.L92
 1163              	.L90:
 604:Generated_Source\PSoC5/USBFS_std.c ****         }
 605:Generated_Source\PSoC5/USBFS_std.c ****     }
 606:Generated_Source\PSoC5/USBFS_std.c **** 
 607:Generated_Source\PSoC5/USBFS_std.c ****     /* Init Endpoints and Device Status if configured */
 608:Generated_Source\PSoC5/USBFS_std.c ****     if (USBFS_configuration > 0u)
 1164              		.loc 1 608 0 is_stmt 1
 1165 00d2 7D4B     		ldr	r3, .L112+12
 1166 00d4 1B78     		ldrb	r3, [r3]
 1167 00d6 DBB2     		uxtb	r3, r3
 1168 00d8 002B     		cmp	r3, #0
 1169 00da 00F01A81 		beq	.L111
 609:Generated_Source\PSoC5/USBFS_std.c ****     {
 610:Generated_Source\PSoC5/USBFS_std.c ****         #if defined(USBFS_ENABLE_CDC_CLASS)
 611:Generated_Source\PSoC5/USBFS_std.c ****             uint8 cdcComNums = 0u;
 612:Generated_Source\PSoC5/USBFS_std.c ****         #endif  /* (USBFS_ENABLE_CDC_CLASS) */  
 613:Generated_Source\PSoC5/USBFS_std.c **** 
 614:Generated_Source\PSoC5/USBFS_std.c ****         pTmp = USBFS_GetConfigTablePtr(USBFS_configuration - 1u);
 1170              		.loc 1 614 0
 1171 00de 7A4B     		ldr	r3, .L112+12
 1172 00e0 1B78     		ldrb	r3, [r3]
 1173 00e2 DBB2     		uxtb	r3, r3
 1174 00e4 013B     		subs	r3, r3, #1
 1175 00e6 DBB2     		uxtb	r3, r3
 1176 00e8 1846     		mov	r0, r3
 1177 00ea FFF7FEFF 		bl	USBFS_GetConfigTablePtr
 1178 00ee 3861     		str	r0, [r7, #16]
 615:Generated_Source\PSoC5/USBFS_std.c ****         
 616:Generated_Source\PSoC5/USBFS_std.c ****         /* Set Power status for current configuration */
 617:Generated_Source\PSoC5/USBFS_std.c ****         pDescr = (const uint8 *)pTmp->p_list;
 1179              		.loc 1 617 0
 1180 00f0 3B69     		ldr	r3, [r7, #16]
 1181 00f2 5B68     		ldr	r3, [r3, #4]
 1182 00f4 FB60     		str	r3, [r7, #12]
 618:Generated_Source\PSoC5/USBFS_std.c ****         if ((pDescr[USBFS_CONFIG_DESCR_ATTRIB] & USBFS_CONFIG_DESCR_ATTRIB_SELF_POWERED) != 0u)
 1183              		.loc 1 618 0
 1184 00f6 FB68     		ldr	r3, [r7, #12]
 1185 00f8 0733     		adds	r3, r3, #7
ARM GAS  C:\Users\r\AppData\Local\Temp\ccDuGy4S.s 			page 34


 1186 00fa 1B78     		ldrb	r3, [r3]	@ zero_extendqisi2
 1187 00fc 03F04003 		and	r3, r3, #64
 1188 0100 002B     		cmp	r3, #0
 1189 0102 08D0     		beq	.L94
 619:Generated_Source\PSoC5/USBFS_std.c ****         {
 620:Generated_Source\PSoC5/USBFS_std.c ****             USBFS_deviceStatus |= (uint8)  USBFS_DEVICE_STATUS_SELF_POWERED;
 1190              		.loc 1 620 0
 1191 0104 714B     		ldr	r3, .L112+16
 1192 0106 1B78     		ldrb	r3, [r3]
 1193 0108 DBB2     		uxtb	r3, r3
 1194 010a 43F00103 		orr	r3, r3, #1
 1195 010e DAB2     		uxtb	r2, r3
 1196 0110 6E4B     		ldr	r3, .L112+16
 1197 0112 1A70     		strb	r2, [r3]
 1198 0114 07E0     		b	.L95
 1199              	.L94:
 621:Generated_Source\PSoC5/USBFS_std.c ****         }
 622:Generated_Source\PSoC5/USBFS_std.c ****         else
 623:Generated_Source\PSoC5/USBFS_std.c ****         {
 624:Generated_Source\PSoC5/USBFS_std.c ****             USBFS_deviceStatus &= (uint8) ~USBFS_DEVICE_STATUS_SELF_POWERED;
 1200              		.loc 1 624 0
 1201 0116 6D4B     		ldr	r3, .L112+16
 1202 0118 1B78     		ldrb	r3, [r3]
 1203 011a DBB2     		uxtb	r3, r3
 1204 011c 23F00103 		bic	r3, r3, #1
 1205 0120 DAB2     		uxtb	r2, r3
 1206 0122 6A4B     		ldr	r3, .L112+16
 1207 0124 1A70     		strb	r2, [r3]
 1208              	.L95:
 625:Generated_Source\PSoC5/USBFS_std.c ****         }
 626:Generated_Source\PSoC5/USBFS_std.c ****         
 627:Generated_Source\PSoC5/USBFS_std.c ****         /* Move to next element */
 628:Generated_Source\PSoC5/USBFS_std.c ****         pTmp = &pTmp[1u];
 1209              		.loc 1 628 0
 1210 0126 3B69     		ldr	r3, [r7, #16]
 1211 0128 0833     		adds	r3, r3, #8
 1212 012a 3B61     		str	r3, [r7, #16]
 629:Generated_Source\PSoC5/USBFS_std.c ****         ep = pTmp->c;  /* For this table, c is the number of endpoints configurations  */
 1213              		.loc 1 629 0
 1214 012c 3B69     		ldr	r3, [r7, #16]
 1215 012e 1B78     		ldrb	r3, [r3]
 1216 0130 FB77     		strb	r3, [r7, #31]
 630:Generated_Source\PSoC5/USBFS_std.c **** 
 631:Generated_Source\PSoC5/USBFS_std.c ****         #if (USBFS_EP_MANAGEMENT_MANUAL && USBFS_EP_ALLOC_DYNAMIC)
 632:Generated_Source\PSoC5/USBFS_std.c ****             /* Configure for dynamic EP memory allocation */
 633:Generated_Source\PSoC5/USBFS_std.c ****             /* p_list points the endpoint setting table. */
 634:Generated_Source\PSoC5/USBFS_std.c ****             pEP = (T_USBFS_EP_SETTINGS_BLOCK *) pTmp->p_list;
 635:Generated_Source\PSoC5/USBFS_std.c ****             
 636:Generated_Source\PSoC5/USBFS_std.c ****             for (i = 0u; i < ep; i++)
 637:Generated_Source\PSoC5/USBFS_std.c ****             {     
 638:Generated_Source\PSoC5/USBFS_std.c ****                 /* Compare current Alternate setting with EP Alt */
 639:Generated_Source\PSoC5/USBFS_std.c ****                 if (USBFS_interfaceSetting[pEP->interface] == pEP->altSetting)
 640:Generated_Source\PSoC5/USBFS_std.c ****                 {                                                          
 641:Generated_Source\PSoC5/USBFS_std.c ****                     curEp  = pEP->addr & USBFS_DIR_UNUSED;
 642:Generated_Source\PSoC5/USBFS_std.c ****                     epType = pEP->attributes & USBFS_EP_TYPE_MASK;
 643:Generated_Source\PSoC5/USBFS_std.c ****                     
 644:Generated_Source\PSoC5/USBFS_std.c ****                     USBFS_EP[curEp].addr       = pEP->addr;
ARM GAS  C:\Users\r\AppData\Local\Temp\ccDuGy4S.s 			page 35


 645:Generated_Source\PSoC5/USBFS_std.c ****                     USBFS_EP[curEp].attrib     = pEP->attributes;
 646:Generated_Source\PSoC5/USBFS_std.c ****                     USBFS_EP[curEp].bufferSize = pEP->bufferSize;
 647:Generated_Source\PSoC5/USBFS_std.c **** 
 648:Generated_Source\PSoC5/USBFS_std.c ****                     if (0u != (pEP->addr & USBFS_DIR_IN))
 649:Generated_Source\PSoC5/USBFS_std.c ****                     {
 650:Generated_Source\PSoC5/USBFS_std.c ****                         /* IN Endpoint */
 651:Generated_Source\PSoC5/USBFS_std.c ****                         USBFS_EP[curEp].epMode     = USBFS_GET_ACTIVE_IN_EP_CR0_MODE(epType);
 652:Generated_Source\PSoC5/USBFS_std.c ****                         USBFS_EP[curEp].apiEpState = USBFS_EVENT_PENDING;
 653:Generated_Source\PSoC5/USBFS_std.c ****                     
 654:Generated_Source\PSoC5/USBFS_std.c ****                     #if (defined(USBFS_ENABLE_MIDI_STREAMING) && (USBFS_MIDI_IN_BUFF_SIZE > 0))
 655:Generated_Source\PSoC5/USBFS_std.c ****                         if ((pEP->bMisc == USBFS_CLASS_AUDIO) && (epType == USBFS_EP_TYPE_BULK))
 656:Generated_Source\PSoC5/USBFS_std.c ****                         {
 657:Generated_Source\PSoC5/USBFS_std.c ****                             USBFS_midi_in_ep = curEp;
 658:Generated_Source\PSoC5/USBFS_std.c ****                         }
 659:Generated_Source\PSoC5/USBFS_std.c ****                     #endif  /* (USBFS_ENABLE_MIDI_STREAMING) */
 660:Generated_Source\PSoC5/USBFS_std.c ****                     }
 661:Generated_Source\PSoC5/USBFS_std.c ****                     else
 662:Generated_Source\PSoC5/USBFS_std.c ****                     {
 663:Generated_Source\PSoC5/USBFS_std.c ****                         /* OUT Endpoint */
 664:Generated_Source\PSoC5/USBFS_std.c ****                         USBFS_EP[curEp].epMode     = USBFS_GET_ACTIVE_OUT_EP_CR0_MODE(epType);
 665:Generated_Source\PSoC5/USBFS_std.c ****                         USBFS_EP[curEp].apiEpState = USBFS_NO_EVENT_PENDING;
 666:Generated_Source\PSoC5/USBFS_std.c ****                         
 667:Generated_Source\PSoC5/USBFS_std.c ****                     #if (defined(USBFS_ENABLE_MIDI_STREAMING) && (USBFS_MIDI_OUT_BUFF_SIZE > 0))
 668:Generated_Source\PSoC5/USBFS_std.c ****                         if ((pEP->bMisc == USBFS_CLASS_AUDIO) && (epType == USBFS_EP_TYPE_BULK))
 669:Generated_Source\PSoC5/USBFS_std.c ****                         {
 670:Generated_Source\PSoC5/USBFS_std.c ****                             USBFS_midi_out_ep = curEp;
 671:Generated_Source\PSoC5/USBFS_std.c ****                         }
 672:Generated_Source\PSoC5/USBFS_std.c ****                     #endif  /* (USBFS_ENABLE_MIDI_STREAMING) */
 673:Generated_Source\PSoC5/USBFS_std.c ****                     }
 674:Generated_Source\PSoC5/USBFS_std.c **** 
 675:Generated_Source\PSoC5/USBFS_std.c ****                 #if(defined (USBFS_ENABLE_CDC_CLASS))
 676:Generated_Source\PSoC5/USBFS_std.c ****                     if((pEP->bMisc == USBFS_CLASS_CDC_DATA) ||(pEP->bMisc == USBFS_CLASS_CDC))
 677:Generated_Source\PSoC5/USBFS_std.c ****                     {
 678:Generated_Source\PSoC5/USBFS_std.c ****                         cdcComNums = USBFS_Cdc_EpInit(pEP, curEp, cdcComNums);
 679:Generated_Source\PSoC5/USBFS_std.c ****                     }
 680:Generated_Source\PSoC5/USBFS_std.c ****                 #endif  /* (USBFS_ENABLE_CDC_CLASS) */
 681:Generated_Source\PSoC5/USBFS_std.c ****                 }
 682:Generated_Source\PSoC5/USBFS_std.c ****                 
 683:Generated_Source\PSoC5/USBFS_std.c ****                 pEP = &pEP[1u];
 684:Generated_Source\PSoC5/USBFS_std.c ****             }
 685:Generated_Source\PSoC5/USBFS_std.c ****             
 686:Generated_Source\PSoC5/USBFS_std.c ****         #else
 687:Generated_Source\PSoC5/USBFS_std.c ****             for (i = USBFS_EP1; i < USBFS_MAX_EP; ++i)
 1217              		.loc 1 687 0
 1218 0132 0123     		movs	r3, #1
 1219 0134 7B77     		strb	r3, [r7, #29]
 1220 0136 94E0     		b	.L96
 1221              	.L106:
 688:Generated_Source\PSoC5/USBFS_std.c ****             {
 689:Generated_Source\PSoC5/USBFS_std.c ****                 /* p_list points the endpoint setting table. */
 690:Generated_Source\PSoC5/USBFS_std.c ****                 pEP = (const T_USBFS_EP_SETTINGS_BLOCK CYCODE *) pTmp->p_list;
 1222              		.loc 1 690 0
 1223 0138 3B69     		ldr	r3, [r7, #16]
 1224 013a 5B68     		ldr	r3, [r3, #4]
 1225 013c 7B61     		str	r3, [r7, #20]
 691:Generated_Source\PSoC5/USBFS_std.c ****                 /* Find max length for each EP and select it (length could be different in differen
 692:Generated_Source\PSoC5/USBFS_std.c ****                 /* but other settings should be correct with regards to Interface alt Setting */
ARM GAS  C:\Users\r\AppData\Local\Temp\ccDuGy4S.s 			page 36


 693:Generated_Source\PSoC5/USBFS_std.c ****                 
 694:Generated_Source\PSoC5/USBFS_std.c ****                 for (curEp = 0u; curEp < ep; ++curEp)
 1226              		.loc 1 694 0
 1227 013e 0023     		movs	r3, #0
 1228 0140 BB77     		strb	r3, [r7, #30]
 1229 0142 86E0     		b	.L97
 1230              	.L105:
 695:Generated_Source\PSoC5/USBFS_std.c ****                 {
 696:Generated_Source\PSoC5/USBFS_std.c ****                     if (i == (pEP->addr & USBFS_DIR_UNUSED))
 1231              		.loc 1 696 0
 1232 0144 7A7F     		ldrb	r2, [r7, #29]	@ zero_extendqisi2
 1233 0146 7B69     		ldr	r3, [r7, #20]
 1234 0148 9B78     		ldrb	r3, [r3, #2]	@ zero_extendqisi2
 1235 014a 03F07F03 		and	r3, r3, #127
 1236 014e 9A42     		cmp	r2, r3
 1237 0150 79D1     		bne	.L98
 697:Generated_Source\PSoC5/USBFS_std.c ****                     {
 698:Generated_Source\PSoC5/USBFS_std.c ****                         /* Compare endpoint buffers size with current size to find greater. */
 699:Generated_Source\PSoC5/USBFS_std.c ****                         if (USBFS_EP[i].bufferSize < pEP->bufferSize)
 1238              		.loc 1 699 0
 1239 0152 7A7F     		ldrb	r2, [r7, #29]	@ zero_extendqisi2
 1240 0154 5949     		ldr	r1, .L112
 1241 0156 1346     		mov	r3, r2
 1242 0158 5B00     		lsls	r3, r3, #1
 1243 015a 1344     		add	r3, r3, r2
 1244 015c 9B00     		lsls	r3, r3, #2
 1245 015e 0B44     		add	r3, r3, r1
 1246 0160 0833     		adds	r3, r3, #8
 1247 0162 1B88     		ldrh	r3, [r3]	@ movhi
 1248 0164 9AB2     		uxth	r2, r3
 1249 0166 7B69     		ldr	r3, [r7, #20]
 1250 0168 9B88     		ldrh	r3, [r3, #4]
 1251 016a 9A42     		cmp	r2, r3
 1252 016c 0BD2     		bcs	.L99
 700:Generated_Source\PSoC5/USBFS_std.c ****                         {
 701:Generated_Source\PSoC5/USBFS_std.c ****                             USBFS_EP[i].bufferSize = pEP->bufferSize;
 1253              		.loc 1 701 0
 1254 016e 7A7F     		ldrb	r2, [r7, #29]	@ zero_extendqisi2
 1255 0170 7B69     		ldr	r3, [r7, #20]
 1256 0172 9888     		ldrh	r0, [r3, #4]
 1257 0174 5149     		ldr	r1, .L112
 1258 0176 1346     		mov	r3, r2
 1259 0178 5B00     		lsls	r3, r3, #1
 1260 017a 1344     		add	r3, r3, r2
 1261 017c 9B00     		lsls	r3, r3, #2
 1262 017e 0B44     		add	r3, r3, r1
 1263 0180 0833     		adds	r3, r3, #8
 1264 0182 0246     		mov	r2, r0	@ movhi
 1265 0184 1A80     		strh	r2, [r3]	@ movhi
 1266              	.L99:
 702:Generated_Source\PSoC5/USBFS_std.c ****                         }
 703:Generated_Source\PSoC5/USBFS_std.c ****                         
 704:Generated_Source\PSoC5/USBFS_std.c ****                         /* Compare current Alternate setting with EP Alt */
 705:Generated_Source\PSoC5/USBFS_std.c ****                         if (USBFS_interfaceSetting[pEP->interface] == pEP->altSetting)
 1267              		.loc 1 705 0
 1268 0186 7B69     		ldr	r3, [r7, #20]
 1269 0188 1B78     		ldrb	r3, [r3]	@ zero_extendqisi2
ARM GAS  C:\Users\r\AppData\Local\Temp\ccDuGy4S.s 			page 37


 1270 018a 1A46     		mov	r2, r3
 1271 018c 4C4B     		ldr	r3, .L112+4
 1272 018e 9B5C     		ldrb	r3, [r3, r2]
 1273 0190 DAB2     		uxtb	r2, r3
 1274 0192 7B69     		ldr	r3, [r7, #20]
 1275 0194 5B78     		ldrb	r3, [r3, #1]	@ zero_extendqisi2
 1276 0196 9A42     		cmp	r2, r3
 1277 0198 55D1     		bne	.L98
 706:Generated_Source\PSoC5/USBFS_std.c ****                         {                            
 707:Generated_Source\PSoC5/USBFS_std.c ****                             USBFS_EP[i].addr = pEP->addr;
 1278              		.loc 1 707 0
 1279 019a 7A7F     		ldrb	r2, [r7, #29]	@ zero_extendqisi2
 1280 019c 7B69     		ldr	r3, [r7, #20]
 1281 019e 9878     		ldrb	r0, [r3, #2]	@ zero_extendqisi2
 1282 01a0 4649     		ldr	r1, .L112
 1283 01a2 1346     		mov	r3, r2
 1284 01a4 5B00     		lsls	r3, r3, #1
 1285 01a6 1344     		add	r3, r3, r2
 1286 01a8 9B00     		lsls	r3, r3, #2
 1287 01aa 0B44     		add	r3, r3, r1
 1288 01ac 0433     		adds	r3, r3, #4
 1289 01ae 0246     		mov	r2, r0
 1290 01b0 1A70     		strb	r2, [r3]
 708:Generated_Source\PSoC5/USBFS_std.c ****                             USBFS_EP[i].attrib = pEP->attributes;
 1291              		.loc 1 708 0
 1292 01b2 7A7F     		ldrb	r2, [r7, #29]	@ zero_extendqisi2
 1293 01b4 7B69     		ldr	r3, [r7, #20]
 1294 01b6 D878     		ldrb	r0, [r3, #3]	@ zero_extendqisi2
 1295 01b8 4049     		ldr	r1, .L112
 1296 01ba 1346     		mov	r3, r2
 1297 01bc 5B00     		lsls	r3, r3, #1
 1298 01be 1344     		add	r3, r3, r2
 1299 01c0 9B00     		lsls	r3, r3, #2
 1300 01c2 0B44     		add	r3, r3, r1
 1301 01c4 0246     		mov	r2, r0
 1302 01c6 1A70     		strb	r2, [r3]
 709:Generated_Source\PSoC5/USBFS_std.c ****                             
 710:Generated_Source\PSoC5/USBFS_std.c ****                             epType = pEP->attributes & USBFS_EP_TYPE_MASK;
 1303              		.loc 1 710 0
 1304 01c8 7B69     		ldr	r3, [r7, #20]
 1305 01ca DB78     		ldrb	r3, [r3, #3]	@ zero_extendqisi2
 1306 01cc 03F00303 		and	r3, r3, #3
 1307 01d0 FB72     		strb	r3, [r7, #11]
 711:Generated_Source\PSoC5/USBFS_std.c ****                             
 712:Generated_Source\PSoC5/USBFS_std.c ****                             if (0u != (pEP->addr & USBFS_DIR_IN))
 1308              		.loc 1 712 0
 1309 01d2 7B69     		ldr	r3, [r7, #20]
 1310 01d4 9B78     		ldrb	r3, [r3, #2]	@ zero_extendqisi2
 1311 01d6 5BB2     		sxtb	r3, r3
 1312 01d8 002B     		cmp	r3, #0
 1313 01da 1ADA     		bge	.L100
 713:Generated_Source\PSoC5/USBFS_std.c ****                             {
 714:Generated_Source\PSoC5/USBFS_std.c ****                                 /* IN Endpoint */
 715:Generated_Source\PSoC5/USBFS_std.c ****                                 USBFS_EP[i].epMode     = USBFS_GET_ACTIVE_IN_EP_CR0_MODE(epType);
 1314              		.loc 1 715 0
 1315 01dc 7A7F     		ldrb	r2, [r7, #29]	@ zero_extendqisi2
 1316 01de FB7A     		ldrb	r3, [r7, #11]	@ zero_extendqisi2
ARM GAS  C:\Users\r\AppData\Local\Temp\ccDuGy4S.s 			page 38


 1317 01e0 012B     		cmp	r3, #1
 1318 01e2 01D1     		bne	.L101
 1319              		.loc 1 715 0 is_stmt 0 discriminator 1
 1320 01e4 0720     		movs	r0, #7
 1321 01e6 00E0     		b	.L102
 1322              	.L101:
 1323              		.loc 1 715 0 discriminator 2
 1324 01e8 0D20     		movs	r0, #13
 1325              	.L102:
 1326              		.loc 1 715 0 discriminator 4
 1327 01ea 3449     		ldr	r1, .L112
 1328 01ec 1346     		mov	r3, r2
 1329 01ee 5B00     		lsls	r3, r3, #1
 1330 01f0 1344     		add	r3, r3, r2
 1331 01f2 9B00     		lsls	r3, r3, #2
 1332 01f4 0B44     		add	r3, r3, r1
 1333 01f6 0533     		adds	r3, r3, #5
 1334 01f8 0246     		mov	r2, r0
 1335 01fa 1A70     		strb	r2, [r3]
 716:Generated_Source\PSoC5/USBFS_std.c ****                                 USBFS_EP[i].apiEpState = USBFS_EVENT_PENDING;
 1336              		.loc 1 716 0 is_stmt 1 discriminator 4
 1337 01fc 7A7F     		ldrb	r2, [r7, #29]	@ zero_extendqisi2
 1338 01fe 2F49     		ldr	r1, .L112
 1339 0200 1346     		mov	r3, r2
 1340 0202 5B00     		lsls	r3, r3, #1
 1341 0204 1344     		add	r3, r3, r2
 1342 0206 9B00     		lsls	r3, r3, #2
 1343 0208 0B44     		add	r3, r3, r1
 1344 020a 0133     		adds	r3, r3, #1
 1345 020c 0122     		movs	r2, #1
 1346 020e 1A70     		strb	r2, [r3]
 1347 0210 19E0     		b	.L98
 1348              	.L100:
 717:Generated_Source\PSoC5/USBFS_std.c ****                                 
 718:Generated_Source\PSoC5/USBFS_std.c ****                             #if (defined(USBFS_ENABLE_MIDI_STREAMING) && (USBFS_MIDI_IN_BUFF_SIZE >
 719:Generated_Source\PSoC5/USBFS_std.c ****                                 if ((pEP->bMisc == USBFS_CLASS_AUDIO) && (epType == USBFS_EP_TYPE_B
 720:Generated_Source\PSoC5/USBFS_std.c ****                                 {
 721:Generated_Source\PSoC5/USBFS_std.c ****                                     USBFS_midi_in_ep = i;
 722:Generated_Source\PSoC5/USBFS_std.c ****                                 }
 723:Generated_Source\PSoC5/USBFS_std.c ****                             #endif  /* (USBFS_ENABLE_MIDI_STREAMING) */
 724:Generated_Source\PSoC5/USBFS_std.c ****                             }
 725:Generated_Source\PSoC5/USBFS_std.c ****                             else
 726:Generated_Source\PSoC5/USBFS_std.c ****                             {
 727:Generated_Source\PSoC5/USBFS_std.c ****                                 /* OUT Endpoint */
 728:Generated_Source\PSoC5/USBFS_std.c ****                                 USBFS_EP[i].epMode     = USBFS_GET_ACTIVE_OUT_EP_CR0_MODE(epType);
 1349              		.loc 1 728 0
 1350 0212 7A7F     		ldrb	r2, [r7, #29]	@ zero_extendqisi2
 1351 0214 FB7A     		ldrb	r3, [r7, #11]	@ zero_extendqisi2
 1352 0216 012B     		cmp	r3, #1
 1353 0218 01D1     		bne	.L103
 1354              		.loc 1 728 0 is_stmt 0 discriminator 1
 1355 021a 0520     		movs	r0, #5
 1356 021c 00E0     		b	.L104
 1357              	.L103:
 1358              		.loc 1 728 0 discriminator 2
 1359 021e 0920     		movs	r0, #9
 1360              	.L104:
ARM GAS  C:\Users\r\AppData\Local\Temp\ccDuGy4S.s 			page 39


 1361              		.loc 1 728 0 discriminator 4
 1362 0220 2649     		ldr	r1, .L112
 1363 0222 1346     		mov	r3, r2
 1364 0224 5B00     		lsls	r3, r3, #1
 1365 0226 1344     		add	r3, r3, r2
 1366 0228 9B00     		lsls	r3, r3, #2
 1367 022a 0B44     		add	r3, r3, r1
 1368 022c 0533     		adds	r3, r3, #5
 1369 022e 0246     		mov	r2, r0
 1370 0230 1A70     		strb	r2, [r3]
 729:Generated_Source\PSoC5/USBFS_std.c ****                                 USBFS_EP[i].apiEpState = USBFS_NO_EVENT_PENDING;
 1371              		.loc 1 729 0 is_stmt 1 discriminator 4
 1372 0232 7A7F     		ldrb	r2, [r7, #29]	@ zero_extendqisi2
 1373 0234 2149     		ldr	r1, .L112
 1374 0236 1346     		mov	r3, r2
 1375 0238 5B00     		lsls	r3, r3, #1
 1376 023a 1344     		add	r3, r3, r2
 1377 023c 9B00     		lsls	r3, r3, #2
 1378 023e 0B44     		add	r3, r3, r1
 1379 0240 0133     		adds	r3, r3, #1
 1380 0242 0022     		movs	r2, #0
 1381 0244 1A70     		strb	r2, [r3]
 1382              	.L98:
 730:Generated_Source\PSoC5/USBFS_std.c ****                                 
 731:Generated_Source\PSoC5/USBFS_std.c ****                             #if (defined(USBFS_ENABLE_MIDI_STREAMING) && (USBFS_MIDI_OUT_BUFF_SIZE 
 732:Generated_Source\PSoC5/USBFS_std.c ****                                 if ((pEP->bMisc == USBFS_CLASS_AUDIO) && (epType == USBFS_EP_TYPE_B
 733:Generated_Source\PSoC5/USBFS_std.c ****                                 {
 734:Generated_Source\PSoC5/USBFS_std.c ****                                     USBFS_midi_out_ep = i;
 735:Generated_Source\PSoC5/USBFS_std.c ****                                 }
 736:Generated_Source\PSoC5/USBFS_std.c ****                             #endif  /* (USBFS_ENABLE_MIDI_STREAMING) */
 737:Generated_Source\PSoC5/USBFS_std.c ****                             }
 738:Generated_Source\PSoC5/USBFS_std.c **** 
 739:Generated_Source\PSoC5/USBFS_std.c ****                         #if (defined(USBFS_ENABLE_CDC_CLASS))
 740:Generated_Source\PSoC5/USBFS_std.c ****                             if((pEP->bMisc == USBFS_CLASS_CDC_DATA) ||(pEP->bMisc == USBFS_CLASS_CD
 741:Generated_Source\PSoC5/USBFS_std.c ****                             {
 742:Generated_Source\PSoC5/USBFS_std.c ****                                 cdcComNums = USBFS_Cdc_EpInit(pEP, i, cdcComNums);
 743:Generated_Source\PSoC5/USBFS_std.c ****                             }
 744:Generated_Source\PSoC5/USBFS_std.c ****                         #endif  /* (USBFS_ENABLE_CDC_CLASS) */
 745:Generated_Source\PSoC5/USBFS_std.c **** 
 746:Generated_Source\PSoC5/USBFS_std.c ****                             #if (USBFS_EP_MANAGEMENT_DMA_AUTO)
 747:Generated_Source\PSoC5/USBFS_std.c ****                                 break;  /* Use first EP setting in Auto memory management */
 748:Generated_Source\PSoC5/USBFS_std.c ****                             #endif /* (USBFS_EP_MANAGEMENT_DMA_AUTO) */
 749:Generated_Source\PSoC5/USBFS_std.c ****                         }
 750:Generated_Source\PSoC5/USBFS_std.c ****                     }
 751:Generated_Source\PSoC5/USBFS_std.c ****                     
 752:Generated_Source\PSoC5/USBFS_std.c ****                     pEP = &pEP[1u];
 1383              		.loc 1 752 0 discriminator 2
 1384 0246 7B69     		ldr	r3, [r7, #20]
 1385 0248 0833     		adds	r3, r3, #8
 1386 024a 7B61     		str	r3, [r7, #20]
 694:Generated_Source\PSoC5/USBFS_std.c ****                 {
 1387              		.loc 1 694 0 discriminator 2
 1388 024c BB7F     		ldrb	r3, [r7, #30]
 1389 024e 0133     		adds	r3, r3, #1
 1390 0250 BB77     		strb	r3, [r7, #30]
 1391              	.L97:
 694:Generated_Source\PSoC5/USBFS_std.c ****                 {
ARM GAS  C:\Users\r\AppData\Local\Temp\ccDuGy4S.s 			page 40


 1392              		.loc 1 694 0 is_stmt 0 discriminator 1
 1393 0252 BA7F     		ldrb	r2, [r7, #30]	@ zero_extendqisi2
 1394 0254 FB7F     		ldrb	r3, [r7, #31]	@ zero_extendqisi2
 1395 0256 9A42     		cmp	r2, r3
 1396 0258 FFF474AF 		bcc	.L105
 687:Generated_Source\PSoC5/USBFS_std.c ****             {
 1397              		.loc 1 687 0 is_stmt 1 discriminator 2
 1398 025c 7B7F     		ldrb	r3, [r7, #29]
 1399 025e 0133     		adds	r3, r3, #1
 1400 0260 7B77     		strb	r3, [r7, #29]
 1401              	.L96:
 687:Generated_Source\PSoC5/USBFS_std.c ****             {
 1402              		.loc 1 687 0 is_stmt 0 discriminator 1
 1403 0262 7B7F     		ldrb	r3, [r7, #29]	@ zero_extendqisi2
 1404 0264 082B     		cmp	r3, #8
 1405 0266 7FF667AF 		bls	.L106
 753:Generated_Source\PSoC5/USBFS_std.c ****                 }
 754:Generated_Source\PSoC5/USBFS_std.c ****             }
 755:Generated_Source\PSoC5/USBFS_std.c ****         #endif /*  (USBFS_EP_MANAGEMENT_MANUAL && USBFS_EP_ALLOC_DYNAMIC) */
 756:Generated_Source\PSoC5/USBFS_std.c **** 
 757:Generated_Source\PSoC5/USBFS_std.c ****         /* Init class array for each interface and interface number for each EP.
 758:Generated_Source\PSoC5/USBFS_std.c ****         *  It is used for handling Class specific requests directed to either an
 759:Generated_Source\PSoC5/USBFS_std.c ****         *  interface or the endpoint.
 760:Generated_Source\PSoC5/USBFS_std.c ****         */
 761:Generated_Source\PSoC5/USBFS_std.c ****         /* p_list points the endpoint setting table. */
 762:Generated_Source\PSoC5/USBFS_std.c ****         pEP = (const T_USBFS_EP_SETTINGS_BLOCK CYCODE *) pTmp->p_list;
 1406              		.loc 1 762 0 is_stmt 1
 1407 026a 3B69     		ldr	r3, [r7, #16]
 1408 026c 5B68     		ldr	r3, [r3, #4]
 1409 026e 7B61     		str	r3, [r7, #20]
 763:Generated_Source\PSoC5/USBFS_std.c ****         for (i = 0u; i < ep; i++)
 1410              		.loc 1 763 0
 1411 0270 0023     		movs	r3, #0
 1412 0272 7B77     		strb	r3, [r7, #29]
 1413 0274 14E0     		b	.L107
 1414              	.L108:
 764:Generated_Source\PSoC5/USBFS_std.c ****         {
 765:Generated_Source\PSoC5/USBFS_std.c ****             /* Configure interface number for each EP */
 766:Generated_Source\PSoC5/USBFS_std.c ****             USBFS_EP[pEP->addr & USBFS_DIR_UNUSED].interface = pEP->interface;
 1415              		.loc 1 766 0 discriminator 3
 1416 0276 7B69     		ldr	r3, [r7, #20]
 1417 0278 9B78     		ldrb	r3, [r3, #2]	@ zero_extendqisi2
 1418 027a 03F07F02 		and	r2, r3, #127
 1419 027e 7B69     		ldr	r3, [r7, #20]
 1420 0280 1878     		ldrb	r0, [r3]	@ zero_extendqisi2
 1421 0282 0E49     		ldr	r1, .L112
 1422 0284 1346     		mov	r3, r2
 1423 0286 5B00     		lsls	r3, r3, #1
 1424 0288 1344     		add	r3, r3, r2
 1425 028a 9B00     		lsls	r3, r3, #2
 1426 028c 0B44     		add	r3, r3, r1
 1427 028e 0A33     		adds	r3, r3, #10
 1428 0290 0246     		mov	r2, r0
 1429 0292 1A70     		strb	r2, [r3]
 767:Generated_Source\PSoC5/USBFS_std.c ****             pEP = &pEP[1u];
 1430              		.loc 1 767 0 discriminator 3
 1431 0294 7B69     		ldr	r3, [r7, #20]
ARM GAS  C:\Users\r\AppData\Local\Temp\ccDuGy4S.s 			page 41


 1432 0296 0833     		adds	r3, r3, #8
 1433 0298 7B61     		str	r3, [r7, #20]
 763:Generated_Source\PSoC5/USBFS_std.c ****         for (i = 0u; i < ep; i++)
 1434              		.loc 1 763 0 discriminator 3
 1435 029a 7B7F     		ldrb	r3, [r7, #29]	@ zero_extendqisi2
 1436 029c 0133     		adds	r3, r3, #1
 1437 029e 7B77     		strb	r3, [r7, #29]
 1438              	.L107:
 763:Generated_Source\PSoC5/USBFS_std.c ****         for (i = 0u; i < ep; i++)
 1439              		.loc 1 763 0 is_stmt 0 discriminator 1
 1440 02a0 7A7F     		ldrb	r2, [r7, #29]	@ zero_extendqisi2
 1441 02a2 FB7F     		ldrb	r3, [r7, #31]	@ zero_extendqisi2
 1442 02a4 9A42     		cmp	r2, r3
 1443 02a6 E6D3     		bcc	.L108
 768:Generated_Source\PSoC5/USBFS_std.c ****         }
 769:Generated_Source\PSoC5/USBFS_std.c ****         
 770:Generated_Source\PSoC5/USBFS_std.c ****         /* Init pointer on interface class table */
 771:Generated_Source\PSoC5/USBFS_std.c ****         USBFS_interfaceClass = USBFS_GetInterfaceClassTablePtr();
 1444              		.loc 1 771 0 is_stmt 1
 1445 02a8 FFF7FEFF 		bl	USBFS_GetInterfaceClassTablePtr
 1446 02ac 0246     		mov	r2, r0
 1447 02ae 084B     		ldr	r3, .L112+20
 1448 02b0 1A60     		str	r2, [r3]
 772:Generated_Source\PSoC5/USBFS_std.c ****         
 773:Generated_Source\PSoC5/USBFS_std.c ****     /* Set the endpoint buffer addresses */
 774:Generated_Source\PSoC5/USBFS_std.c ****     #if (!USBFS_EP_MANAGEMENT_DMA_AUTO)
 775:Generated_Source\PSoC5/USBFS_std.c ****         buffCount = 0u;
 1449              		.loc 1 775 0
 1450 02b2 0023     		movs	r3, #0
 1451 02b4 7B83     		strh	r3, [r7, #26]	@ movhi
 776:Generated_Source\PSoC5/USBFS_std.c ****         for (ep = USBFS_EP1; ep < USBFS_MAX_EP; ++ep)
 1452              		.loc 1 776 0
 1453 02b6 0123     		movs	r3, #1
 1454 02b8 FB77     		strb	r3, [r7, #31]
 1455 02ba 25E0     		b	.L109
 1456              	.L113:
 1457              		.align	2
 1458              	.L112:
 1459 02bc 00000000 		.word	USBFS_EP
 1460 02c0 00000000 		.word	USBFS_interfaceSetting
 1461 02c4 00000000 		.word	USBFS_interfaceSettingLast
 1462 02c8 00000000 		.word	USBFS_configuration
 1463 02cc 00000000 		.word	USBFS_deviceStatus
 1464 02d0 00000000 		.word	USBFS_interfaceClass
 1465              	.L110:
 777:Generated_Source\PSoC5/USBFS_std.c ****         {
 778:Generated_Source\PSoC5/USBFS_std.c ****             USBFS_EP[ep].buffOffset = buffCount;        
 1466              		.loc 1 778 0 discriminator 3
 1467 02d4 FA7F     		ldrb	r2, [r7, #31]	@ zero_extendqisi2
 1468 02d6 1149     		ldr	r1, .L114
 1469 02d8 1346     		mov	r3, r2
 1470 02da 5B00     		lsls	r3, r3, #1
 1471 02dc 1344     		add	r3, r3, r2
 1472 02de 9B00     		lsls	r3, r3, #2
 1473 02e0 0B44     		add	r3, r3, r1
 1474 02e2 0633     		adds	r3, r3, #6
 1475 02e4 7A8B     		ldrh	r2, [r7, #26]	@ movhi
ARM GAS  C:\Users\r\AppData\Local\Temp\ccDuGy4S.s 			page 42


 1476 02e6 1A80     		strh	r2, [r3]	@ movhi
 779:Generated_Source\PSoC5/USBFS_std.c ****             buffCount += USBFS_EP[ep].bufferSize;
 1477              		.loc 1 779 0 discriminator 3
 1478 02e8 FA7F     		ldrb	r2, [r7, #31]	@ zero_extendqisi2
 1479 02ea 0C49     		ldr	r1, .L114
 1480 02ec 1346     		mov	r3, r2
 1481 02ee 5B00     		lsls	r3, r3, #1
 1482 02f0 1344     		add	r3, r3, r2
 1483 02f2 9B00     		lsls	r3, r3, #2
 1484 02f4 0B44     		add	r3, r3, r1
 1485 02f6 0833     		adds	r3, r3, #8
 1486 02f8 1B88     		ldrh	r3, [r3]	@ movhi
 1487 02fa 9AB2     		uxth	r2, r3
 1488 02fc 7B8B     		ldrh	r3, [r7, #26]	@ movhi
 1489 02fe 1344     		add	r3, r3, r2
 1490 0300 7B83     		strh	r3, [r7, #26]	@ movhi
 776:Generated_Source\PSoC5/USBFS_std.c ****         for (ep = USBFS_EP1; ep < USBFS_MAX_EP; ++ep)
 1491              		.loc 1 776 0 discriminator 3
 1492 0302 FB7F     		ldrb	r3, [r7, #31]
 1493 0304 0133     		adds	r3, r3, #1
 1494 0306 FB77     		strb	r3, [r7, #31]
 1495              	.L109:
 776:Generated_Source\PSoC5/USBFS_std.c ****         for (ep = USBFS_EP1; ep < USBFS_MAX_EP; ++ep)
 1496              		.loc 1 776 0 is_stmt 0 discriminator 1
 1497 0308 FB7F     		ldrb	r3, [r7, #31]	@ zero_extendqisi2
 1498 030a 082B     		cmp	r3, #8
 1499 030c E2D9     		bls	.L110
 780:Generated_Source\PSoC5/USBFS_std.c ****             
 781:Generated_Source\PSoC5/USBFS_std.c ****         #if (USBFS_GEN_16BITS_EP_ACCESS)
 782:Generated_Source\PSoC5/USBFS_std.c ****             /* Align EP buffers to be event size to access 16-bits DR register. */
 783:Generated_Source\PSoC5/USBFS_std.c ****             buffCount += (0u != (buffCount & 0x01u)) ? 1u : 0u;
 784:Generated_Source\PSoC5/USBFS_std.c ****         #endif /* (USBFS_GEN_16BITS_EP_ACCESS) */            
 785:Generated_Source\PSoC5/USBFS_std.c ****         }
 786:Generated_Source\PSoC5/USBFS_std.c ****     #endif /* (!USBFS_EP_MANAGEMENT_DMA_AUTO) */
 787:Generated_Source\PSoC5/USBFS_std.c **** 
 788:Generated_Source\PSoC5/USBFS_std.c ****         /* Configure hardware registers */
 789:Generated_Source\PSoC5/USBFS_std.c ****         USBFS_ConfigReg();
 1500              		.loc 1 789 0 is_stmt 1
 1501 030e FFF7FEFF 		bl	USBFS_ConfigReg
 1502              	.L111:
 790:Generated_Source\PSoC5/USBFS_std.c ****     }
 791:Generated_Source\PSoC5/USBFS_std.c **** }
 1503              		.loc 1 791 0
 1504 0312 00BF     		nop
 1505 0314 2037     		adds	r7, r7, #32
 1506              		.cfi_def_cfa_offset 8
 1507 0316 BD46     		mov	sp, r7
 1508              		.cfi_def_cfa_register 13
 1509              		@ sp needed
 1510 0318 80BD     		pop	{r7, pc}
 1511              	.L115:
 1512 031a 00BF     		.align	2
 1513              	.L114:
 1514 031c 00000000 		.word	USBFS_EP
 1515              		.cfi_endproc
 1516              	.LFE3:
 1517              		.size	USBFS_Config, .-USBFS_Config
ARM GAS  C:\Users\r\AppData\Local\Temp\ccDuGy4S.s 			page 43


 1518              		.section	.text.USBFS_ConfigAltChanged,"ax",%progbits
 1519              		.align	2
 1520              		.global	USBFS_ConfigAltChanged
 1521              		.thumb
 1522              		.thumb_func
 1523              		.type	USBFS_ConfigAltChanged, %function
 1524              	USBFS_ConfigAltChanged:
 1525              	.LFB4:
 792:Generated_Source\PSoC5/USBFS_std.c **** 
 793:Generated_Source\PSoC5/USBFS_std.c **** 
 794:Generated_Source\PSoC5/USBFS_std.c **** /*******************************************************************************
 795:Generated_Source\PSoC5/USBFS_std.c **** * Function Name: USBFS_ConfigAltChanged
 796:Generated_Source\PSoC5/USBFS_std.c **** ****************************************************************************//**
 797:Generated_Source\PSoC5/USBFS_std.c **** *
 798:Generated_Source\PSoC5/USBFS_std.c **** *  This routine update configuration for the required endpoints only.
 799:Generated_Source\PSoC5/USBFS_std.c **** *  It is called after SET_INTERFACE request when Static memory allocation used.
 800:Generated_Source\PSoC5/USBFS_std.c **** *
 801:Generated_Source\PSoC5/USBFS_std.c **** * \reentrant
 802:Generated_Source\PSoC5/USBFS_std.c **** *  No.
 803:Generated_Source\PSoC5/USBFS_std.c **** *
 804:Generated_Source\PSoC5/USBFS_std.c **** *******************************************************************************/
 805:Generated_Source\PSoC5/USBFS_std.c **** void USBFS_ConfigAltChanged(void) 
 806:Generated_Source\PSoC5/USBFS_std.c **** {
 1526              		.loc 1 806 0
 1527              		.cfi_startproc
 1528              		@ args = 0, pretend = 0, frame = 16
 1529              		@ frame_needed = 1, uses_anonymous_args = 0
 1530 0000 90B5     		push	{r4, r7, lr}
 1531              		.cfi_def_cfa_offset 12
 1532              		.cfi_offset 4, -12
 1533              		.cfi_offset 7, -8
 1534              		.cfi_offset 14, -4
 1535 0002 85B0     		sub	sp, sp, #20
 1536              		.cfi_def_cfa_offset 32
 1537 0004 00AF     		add	r7, sp, #0
 1538              		.cfi_def_cfa_register 7
 807:Generated_Source\PSoC5/USBFS_std.c ****     uint8 ep;
 808:Generated_Source\PSoC5/USBFS_std.c ****     uint8 curEp;
 809:Generated_Source\PSoC5/USBFS_std.c ****     uint8 epType;
 810:Generated_Source\PSoC5/USBFS_std.c ****     uint8 i;
 811:Generated_Source\PSoC5/USBFS_std.c ****     uint8 interfaceNum;
 812:Generated_Source\PSoC5/USBFS_std.c **** 
 813:Generated_Source\PSoC5/USBFS_std.c ****     const T_USBFS_LUT CYCODE *pTmp;
 814:Generated_Source\PSoC5/USBFS_std.c ****     const T_USBFS_EP_SETTINGS_BLOCK CYCODE *pEP;
 815:Generated_Source\PSoC5/USBFS_std.c **** 
 816:Generated_Source\PSoC5/USBFS_std.c ****     /* Init Endpoints and Device Status if configured */
 817:Generated_Source\PSoC5/USBFS_std.c ****     if (USBFS_configuration > 0u)
 1539              		.loc 1 817 0
 1540 0006 8F4B     		ldr	r3, .L128
 1541 0008 1B78     		ldrb	r3, [r3]
 1542 000a DBB2     		uxtb	r3, r3
 1543 000c 002B     		cmp	r3, #0
 1544 000e 00F01581 		beq	.L127
 818:Generated_Source\PSoC5/USBFS_std.c ****     {
 819:Generated_Source\PSoC5/USBFS_std.c ****         /* Get number of endpoints configurations (ep). */
 820:Generated_Source\PSoC5/USBFS_std.c ****         pTmp = USBFS_GetConfigTablePtr(USBFS_configuration - 1u);
 1545              		.loc 1 820 0
ARM GAS  C:\Users\r\AppData\Local\Temp\ccDuGy4S.s 			page 44


 1546 0012 8C4B     		ldr	r3, .L128
 1547 0014 1B78     		ldrb	r3, [r3]
 1548 0016 DBB2     		uxtb	r3, r3
 1549 0018 013B     		subs	r3, r3, #1
 1550 001a DBB2     		uxtb	r3, r3
 1551 001c 1846     		mov	r0, r3
 1552 001e FFF7FEFF 		bl	USBFS_GetConfigTablePtr
 1553 0022 7860     		str	r0, [r7, #4]
 821:Generated_Source\PSoC5/USBFS_std.c ****         pTmp = &pTmp[1u];
 1554              		.loc 1 821 0
 1555 0024 7B68     		ldr	r3, [r7, #4]
 1556 0026 0833     		adds	r3, r3, #8
 1557 0028 7B60     		str	r3, [r7, #4]
 822:Generated_Source\PSoC5/USBFS_std.c ****         ep = pTmp->c;
 1558              		.loc 1 822 0
 1559 002a 7B68     		ldr	r3, [r7, #4]
 1560 002c 1B78     		ldrb	r3, [r3]
 1561 002e FB70     		strb	r3, [r7, #3]
 823:Generated_Source\PSoC5/USBFS_std.c **** 
 824:Generated_Source\PSoC5/USBFS_std.c ****         /* Get pointer to endpoints setting table (pEP). */
 825:Generated_Source\PSoC5/USBFS_std.c ****         pEP = (const T_USBFS_EP_SETTINGS_BLOCK CYCODE *) pTmp->p_list;
 1562              		.loc 1 825 0
 1563 0030 7B68     		ldr	r3, [r7, #4]
 1564 0032 5B68     		ldr	r3, [r3, #4]
 1565 0034 BB60     		str	r3, [r7, #8]
 826:Generated_Source\PSoC5/USBFS_std.c ****         
 827:Generated_Source\PSoC5/USBFS_std.c ****         /* Look through all possible endpoint configurations. Find endpoints 
 828:Generated_Source\PSoC5/USBFS_std.c ****         * which belong to current interface and alternate settings for 
 829:Generated_Source\PSoC5/USBFS_std.c ****         * re-configuration.
 830:Generated_Source\PSoC5/USBFS_std.c ****         */
 831:Generated_Source\PSoC5/USBFS_std.c ****         interfaceNum = USBFS_interfaceNumber;
 1566              		.loc 1 831 0
 1567 0036 844B     		ldr	r3, .L128+4
 1568 0038 1B78     		ldrb	r3, [r3]
 1569 003a BB70     		strb	r3, [r7, #2]
 832:Generated_Source\PSoC5/USBFS_std.c ****         for (i = 0u; i < ep; i++)
 1570              		.loc 1 832 0
 1571 003c 0023     		movs	r3, #0
 1572 003e FB73     		strb	r3, [r7, #15]
 1573 0040 F7E0     		b	.L118
 1574              	.L126:
 833:Generated_Source\PSoC5/USBFS_std.c ****         {
 834:Generated_Source\PSoC5/USBFS_std.c ****             /* Find endpoints which belong to current interface and alternate settings. */
 835:Generated_Source\PSoC5/USBFS_std.c ****             if ((interfaceNum == pEP->interface) && 
 1575              		.loc 1 835 0
 1576 0042 BB68     		ldr	r3, [r7, #8]
 1577 0044 1B78     		ldrb	r3, [r3]	@ zero_extendqisi2
 1578 0046 BA78     		ldrb	r2, [r7, #2]	@ zero_extendqisi2
 1579 0048 9A42     		cmp	r2, r3
 1580 004a 40F0EC80 		bne	.L119
 836:Generated_Source\PSoC5/USBFS_std.c ****                 (USBFS_interfaceSetting[interfaceNum] == pEP->altSetting))
 1581              		.loc 1 836 0 discriminator 1
 1582 004e BB78     		ldrb	r3, [r7, #2]	@ zero_extendqisi2
 1583 0050 7E4A     		ldr	r2, .L128+8
 1584 0052 D35C     		ldrb	r3, [r2, r3]
 1585 0054 DAB2     		uxtb	r2, r3
 1586 0056 BB68     		ldr	r3, [r7, #8]
ARM GAS  C:\Users\r\AppData\Local\Temp\ccDuGy4S.s 			page 45


 1587 0058 5B78     		ldrb	r3, [r3, #1]	@ zero_extendqisi2
 835:Generated_Source\PSoC5/USBFS_std.c ****                 (USBFS_interfaceSetting[interfaceNum] == pEP->altSetting))
 1588              		.loc 1 835 0 discriminator 1
 1589 005a 9A42     		cmp	r2, r3
 1590 005c 40F0E380 		bne	.L119
 837:Generated_Source\PSoC5/USBFS_std.c ****             {
 838:Generated_Source\PSoC5/USBFS_std.c ****                 curEp  = ((uint8) pEP->addr & USBFS_DIR_UNUSED);
 1591              		.loc 1 838 0
 1592 0060 BB68     		ldr	r3, [r7, #8]
 1593 0062 9B78     		ldrb	r3, [r3, #2]	@ zero_extendqisi2
 1594 0064 03F07F03 		and	r3, r3, #127
 1595 0068 7B70     		strb	r3, [r7, #1]
 839:Generated_Source\PSoC5/USBFS_std.c ****                 epType = ((uint8) pEP->attributes & USBFS_EP_TYPE_MASK);
 1596              		.loc 1 839 0
 1597 006a BB68     		ldr	r3, [r7, #8]
 1598 006c DB78     		ldrb	r3, [r3, #3]	@ zero_extendqisi2
 1599 006e 03F00303 		and	r3, r3, #3
 1600 0072 3B70     		strb	r3, [r7]
 840:Generated_Source\PSoC5/USBFS_std.c ****                 
 841:Generated_Source\PSoC5/USBFS_std.c ****                 /* Change the SIE mode for the selected EP to NAK ALL */
 842:Generated_Source\PSoC5/USBFS_std.c ****                 USBFS_EP[curEp].epToggle   = 0u;
 1601              		.loc 1 842 0
 1602 0074 7A78     		ldrb	r2, [r7, #1]	@ zero_extendqisi2
 1603 0076 7649     		ldr	r1, .L128+12
 1604 0078 1346     		mov	r3, r2
 1605 007a 5B00     		lsls	r3, r3, #1
 1606 007c 1344     		add	r3, r3, r2
 1607 007e 9B00     		lsls	r3, r3, #2
 1608 0080 0B44     		add	r3, r3, r1
 1609 0082 0333     		adds	r3, r3, #3
 1610 0084 0022     		movs	r2, #0
 1611 0086 1A70     		strb	r2, [r3]
 843:Generated_Source\PSoC5/USBFS_std.c ****                 USBFS_EP[curEp].addr       = pEP->addr;
 1612              		.loc 1 843 0
 1613 0088 7A78     		ldrb	r2, [r7, #1]	@ zero_extendqisi2
 1614 008a BB68     		ldr	r3, [r7, #8]
 1615 008c 9878     		ldrb	r0, [r3, #2]	@ zero_extendqisi2
 1616 008e 7049     		ldr	r1, .L128+12
 1617 0090 1346     		mov	r3, r2
 1618 0092 5B00     		lsls	r3, r3, #1
 1619 0094 1344     		add	r3, r3, r2
 1620 0096 9B00     		lsls	r3, r3, #2
 1621 0098 0B44     		add	r3, r3, r1
 1622 009a 0433     		adds	r3, r3, #4
 1623 009c 0246     		mov	r2, r0
 1624 009e 1A70     		strb	r2, [r3]
 844:Generated_Source\PSoC5/USBFS_std.c ****                 USBFS_EP[curEp].attrib     = pEP->attributes;
 1625              		.loc 1 844 0
 1626 00a0 7A78     		ldrb	r2, [r7, #1]	@ zero_extendqisi2
 1627 00a2 BB68     		ldr	r3, [r7, #8]
 1628 00a4 D878     		ldrb	r0, [r3, #3]	@ zero_extendqisi2
 1629 00a6 6A49     		ldr	r1, .L128+12
 1630 00a8 1346     		mov	r3, r2
 1631 00aa 5B00     		lsls	r3, r3, #1
 1632 00ac 1344     		add	r3, r3, r2
 1633 00ae 9B00     		lsls	r3, r3, #2
 1634 00b0 0B44     		add	r3, r3, r1
ARM GAS  C:\Users\r\AppData\Local\Temp\ccDuGy4S.s 			page 46


 1635 00b2 0246     		mov	r2, r0
 1636 00b4 1A70     		strb	r2, [r3]
 845:Generated_Source\PSoC5/USBFS_std.c ****                 USBFS_EP[curEp].bufferSize = pEP->bufferSize;
 1637              		.loc 1 845 0
 1638 00b6 7A78     		ldrb	r2, [r7, #1]	@ zero_extendqisi2
 1639 00b8 BB68     		ldr	r3, [r7, #8]
 1640 00ba 9888     		ldrh	r0, [r3, #4]
 1641 00bc 6449     		ldr	r1, .L128+12
 1642 00be 1346     		mov	r3, r2
 1643 00c0 5B00     		lsls	r3, r3, #1
 1644 00c2 1344     		add	r3, r3, r2
 1645 00c4 9B00     		lsls	r3, r3, #2
 1646 00c6 0B44     		add	r3, r3, r1
 1647 00c8 0833     		adds	r3, r3, #8
 1648 00ca 0246     		mov	r2, r0	@ movhi
 1649 00cc 1A80     		strh	r2, [r3]	@ movhi
 846:Generated_Source\PSoC5/USBFS_std.c **** 
 847:Generated_Source\PSoC5/USBFS_std.c ****                 if (0u != (pEP->addr & USBFS_DIR_IN))
 1650              		.loc 1 847 0
 1651 00ce BB68     		ldr	r3, [r7, #8]
 1652 00d0 9B78     		ldrb	r3, [r3, #2]	@ zero_extendqisi2
 1653 00d2 5BB2     		sxtb	r3, r3
 1654 00d4 002B     		cmp	r3, #0
 1655 00d6 1ADA     		bge	.L120
 848:Generated_Source\PSoC5/USBFS_std.c ****                 {
 849:Generated_Source\PSoC5/USBFS_std.c ****                     /* IN Endpoint */
 850:Generated_Source\PSoC5/USBFS_std.c ****                     USBFS_EP[curEp].epMode     = USBFS_GET_ACTIVE_IN_EP_CR0_MODE(epType);
 1656              		.loc 1 850 0
 1657 00d8 7A78     		ldrb	r2, [r7, #1]	@ zero_extendqisi2
 1658 00da 3B78     		ldrb	r3, [r7]	@ zero_extendqisi2
 1659 00dc 012B     		cmp	r3, #1
 1660 00de 01D1     		bne	.L121
 1661              		.loc 1 850 0 is_stmt 0 discriminator 1
 1662 00e0 0720     		movs	r0, #7
 1663 00e2 00E0     		b	.L122
 1664              	.L121:
 1665              		.loc 1 850 0 discriminator 2
 1666 00e4 0D20     		movs	r0, #13
 1667              	.L122:
 1668              		.loc 1 850 0 discriminator 4
 1669 00e6 5A49     		ldr	r1, .L128+12
 1670 00e8 1346     		mov	r3, r2
 1671 00ea 5B00     		lsls	r3, r3, #1
 1672 00ec 1344     		add	r3, r3, r2
 1673 00ee 9B00     		lsls	r3, r3, #2
 1674 00f0 0B44     		add	r3, r3, r1
 1675 00f2 0533     		adds	r3, r3, #5
 1676 00f4 0246     		mov	r2, r0
 1677 00f6 1A70     		strb	r2, [r3]
 851:Generated_Source\PSoC5/USBFS_std.c ****                     USBFS_EP[curEp].apiEpState = USBFS_EVENT_PENDING;
 1678              		.loc 1 851 0 is_stmt 1 discriminator 4
 1679 00f8 7A78     		ldrb	r2, [r7, #1]	@ zero_extendqisi2
 1680 00fa 5549     		ldr	r1, .L128+12
 1681 00fc 1346     		mov	r3, r2
 1682 00fe 5B00     		lsls	r3, r3, #1
 1683 0100 1344     		add	r3, r3, r2
 1684 0102 9B00     		lsls	r3, r3, #2
ARM GAS  C:\Users\r\AppData\Local\Temp\ccDuGy4S.s 			page 47


 1685 0104 0B44     		add	r3, r3, r1
 1686 0106 0133     		adds	r3, r3, #1
 1687 0108 0122     		movs	r2, #1
 1688 010a 1A70     		strb	r2, [r3]
 1689 010c 19E0     		b	.L123
 1690              	.L120:
 852:Generated_Source\PSoC5/USBFS_std.c ****                 }
 853:Generated_Source\PSoC5/USBFS_std.c ****                 else
 854:Generated_Source\PSoC5/USBFS_std.c ****                 {
 855:Generated_Source\PSoC5/USBFS_std.c ****                     /* OUT Endpoint */
 856:Generated_Source\PSoC5/USBFS_std.c ****                     USBFS_EP[curEp].epMode     = USBFS_GET_ACTIVE_OUT_EP_CR0_MODE(epType);
 1691              		.loc 1 856 0
 1692 010e 7A78     		ldrb	r2, [r7, #1]	@ zero_extendqisi2
 1693 0110 3B78     		ldrb	r3, [r7]	@ zero_extendqisi2
 1694 0112 012B     		cmp	r3, #1
 1695 0114 01D1     		bne	.L124
 1696              		.loc 1 856 0 is_stmt 0 discriminator 1
 1697 0116 0520     		movs	r0, #5
 1698 0118 00E0     		b	.L125
 1699              	.L124:
 1700              		.loc 1 856 0 discriminator 2
 1701 011a 0920     		movs	r0, #9
 1702              	.L125:
 1703              		.loc 1 856 0 discriminator 4
 1704 011c 4C49     		ldr	r1, .L128+12
 1705 011e 1346     		mov	r3, r2
 1706 0120 5B00     		lsls	r3, r3, #1
 1707 0122 1344     		add	r3, r3, r2
 1708 0124 9B00     		lsls	r3, r3, #2
 1709 0126 0B44     		add	r3, r3, r1
 1710 0128 0533     		adds	r3, r3, #5
 1711 012a 0246     		mov	r2, r0
 1712 012c 1A70     		strb	r2, [r3]
 857:Generated_Source\PSoC5/USBFS_std.c ****                     USBFS_EP[curEp].apiEpState = USBFS_NO_EVENT_PENDING;
 1713              		.loc 1 857 0 is_stmt 1 discriminator 4
 1714 012e 7A78     		ldrb	r2, [r7, #1]	@ zero_extendqisi2
 1715 0130 4749     		ldr	r1, .L128+12
 1716 0132 1346     		mov	r3, r2
 1717 0134 5B00     		lsls	r3, r3, #1
 1718 0136 1344     		add	r3, r3, r2
 1719 0138 9B00     		lsls	r3, r3, #2
 1720 013a 0B44     		add	r3, r3, r1
 1721 013c 0133     		adds	r3, r3, #1
 1722 013e 0022     		movs	r2, #0
 1723 0140 1A70     		strb	r2, [r3]
 1724              	.L123:
 858:Generated_Source\PSoC5/USBFS_std.c ****                 }
 859:Generated_Source\PSoC5/USBFS_std.c ****                 
 860:Generated_Source\PSoC5/USBFS_std.c ****                 /* Make SIE to NAK any endpoint requests */
 861:Generated_Source\PSoC5/USBFS_std.c ****                 USBFS_SIE_EP_BASE.sieEp[curEp].epCr0 = USBFS_MODE_NAK_IN_OUT;
 1725              		.loc 1 861 0
 1726 0142 444A     		ldr	r2, .L128+16
 1727 0144 7B78     		ldrb	r3, [r7, #1]	@ zero_extendqisi2
 1728 0146 1B01     		lsls	r3, r3, #4
 1729 0148 1344     		add	r3, r3, r2
 1730 014a 0233     		adds	r3, r3, #2
 1731 014c 0122     		movs	r2, #1
ARM GAS  C:\Users\r\AppData\Local\Temp\ccDuGy4S.s 			page 48


 1732 014e 1A70     		strb	r2, [r3]
 862:Generated_Source\PSoC5/USBFS_std.c **** 
 863:Generated_Source\PSoC5/USBFS_std.c ****             #if (USBFS_EP_MANAGEMENT_DMA_AUTO)
 864:Generated_Source\PSoC5/USBFS_std.c ****                 /* Clear IN data ready. */
 865:Generated_Source\PSoC5/USBFS_std.c ****                 USBFS_ARB_EP_BASE.arbEp[curEp].epCfg &= (uint8) ~USBFS_ARB_EPX_CFG_IN_DATA_RDY;
 866:Generated_Source\PSoC5/USBFS_std.c **** 
 867:Generated_Source\PSoC5/USBFS_std.c ****                 /* Select endpoint number of reconfiguration */
 868:Generated_Source\PSoC5/USBFS_std.c ****                 USBFS_DYN_RECONFIG_REG = (uint8) ((curEp - 1u) << USBFS_DYN_RECONFIG_EP_SHIFT);
 869:Generated_Source\PSoC5/USBFS_std.c ****                 
 870:Generated_Source\PSoC5/USBFS_std.c ****                 /* Request for dynamic re-configuration of endpoint. */
 871:Generated_Source\PSoC5/USBFS_std.c ****                 USBFS_DYN_RECONFIG_REG |= USBFS_DYN_RECONFIG_ENABLE;
 872:Generated_Source\PSoC5/USBFS_std.c ****                 
 873:Generated_Source\PSoC5/USBFS_std.c ****                 /* Wait until block is ready for re-configuration */
 874:Generated_Source\PSoC5/USBFS_std.c ****                 while (0u == (USBFS_DYN_RECONFIG_REG & USBFS_DYN_RECONFIG_RDY_STS))
 875:Generated_Source\PSoC5/USBFS_std.c ****                 {
 876:Generated_Source\PSoC5/USBFS_std.c ****                 }
 877:Generated_Source\PSoC5/USBFS_std.c ****                 
 878:Generated_Source\PSoC5/USBFS_std.c ****                 /* Once DYN_RECONFIG_RDY_STS bit is set, FW can change the EP configuration. */
 879:Generated_Source\PSoC5/USBFS_std.c ****                 /* Change EP Type with new direction */
 880:Generated_Source\PSoC5/USBFS_std.c ****                 if (0u != (pEP->addr & USBFS_DIR_IN))
 881:Generated_Source\PSoC5/USBFS_std.c ****                 {
 882:Generated_Source\PSoC5/USBFS_std.c ****                     /* Set endpoint type: 0 - IN and 1 - OUT. */
 883:Generated_Source\PSoC5/USBFS_std.c ****                     USBFS_EP_TYPE_REG &= (uint8) ~(uint8)((uint8) 0x01u << (curEp - 1u));
 884:Generated_Source\PSoC5/USBFS_std.c ****                     
 885:Generated_Source\PSoC5/USBFS_std.c ****                 #if (CY_PSOC4)
 886:Generated_Source\PSoC5/USBFS_std.c ****                     /* Clear DMA_TERMIN for IN endpoint */
 887:Generated_Source\PSoC5/USBFS_std.c ****                     USBFS_ARB_EP_BASE.arbEp[curEp].epIntEn &= (uint32) ~USBFS_ARB_EPX_INT_DMA_TERMI
 888:Generated_Source\PSoC5/USBFS_std.c ****                 #endif /* (CY_PSOC4) */
 889:Generated_Source\PSoC5/USBFS_std.c ****                 }
 890:Generated_Source\PSoC5/USBFS_std.c ****                 else
 891:Generated_Source\PSoC5/USBFS_std.c ****                 {
 892:Generated_Source\PSoC5/USBFS_std.c ****                     /* Set endpoint type: 0 - IN and 1- OUT. */
 893:Generated_Source\PSoC5/USBFS_std.c ****                     USBFS_EP_TYPE_REG |= (uint8) ((uint8) 0x01u << (curEp - 1u));
 894:Generated_Source\PSoC5/USBFS_std.c ****                     
 895:Generated_Source\PSoC5/USBFS_std.c ****                 #if (CY_PSOC4)
 896:Generated_Source\PSoC5/USBFS_std.c ****                     /* Set DMA_TERMIN for OUT endpoint */
 897:Generated_Source\PSoC5/USBFS_std.c ****                     USBFS_ARB_EP_BASE.arbEp[curEp].epIntEn |= (uint32) USBFS_ARB_EPX_INT_DMA_TERMIN
 898:Generated_Source\PSoC5/USBFS_std.c ****                 #endif /* (CY_PSOC4) */
 899:Generated_Source\PSoC5/USBFS_std.c ****                 }
 900:Generated_Source\PSoC5/USBFS_std.c ****                 
 901:Generated_Source\PSoC5/USBFS_std.c ****                 /* Complete dynamic re-configuration: all endpoint related status and signals 
 902:Generated_Source\PSoC5/USBFS_std.c ****                 * are set into the default state.
 903:Generated_Source\PSoC5/USBFS_std.c ****                 */
 904:Generated_Source\PSoC5/USBFS_std.c ****                 USBFS_DYN_RECONFIG_REG &= (uint8) ~USBFS_DYN_RECONFIG_ENABLE;
 905:Generated_Source\PSoC5/USBFS_std.c **** 
 906:Generated_Source\PSoC5/USBFS_std.c ****             #else
 907:Generated_Source\PSoC5/USBFS_std.c ****                 USBFS_SIE_EP_BASE.sieEp[curEp].epCnt0 = HI8(USBFS_EP[curEp].bufferSize);
 1733              		.loc 1 907 0
 1734 0150 4048     		ldr	r0, .L128+16
 1735 0152 7978     		ldrb	r1, [r7, #1]	@ zero_extendqisi2
 1736 0154 7A78     		ldrb	r2, [r7, #1]	@ zero_extendqisi2
 1737 0156 3E4C     		ldr	r4, .L128+12
 1738 0158 1346     		mov	r3, r2
 1739 015a 5B00     		lsls	r3, r3, #1
 1740 015c 1344     		add	r3, r3, r2
 1741 015e 9B00     		lsls	r3, r3, #2
 1742 0160 2344     		add	r3, r3, r4
ARM GAS  C:\Users\r\AppData\Local\Temp\ccDuGy4S.s 			page 49


 1743 0162 0833     		adds	r3, r3, #8
 1744 0164 1B88     		ldrh	r3, [r3]	@ movhi
 1745 0166 9BB2     		uxth	r3, r3
 1746 0168 1B0A     		lsrs	r3, r3, #8
 1747 016a 9BB2     		uxth	r3, r3
 1748 016c DAB2     		uxtb	r2, r3
 1749 016e 0B01     		lsls	r3, r1, #4
 1750 0170 0344     		add	r3, r3, r0
 1751 0172 1A70     		strb	r2, [r3]
 908:Generated_Source\PSoC5/USBFS_std.c ****                 USBFS_SIE_EP_BASE.sieEp[curEp].epCnt1 = LO8(USBFS_EP[curEp].bufferSize);
 1752              		.loc 1 908 0
 1753 0174 3748     		ldr	r0, .L128+16
 1754 0176 7978     		ldrb	r1, [r7, #1]	@ zero_extendqisi2
 1755 0178 7A78     		ldrb	r2, [r7, #1]	@ zero_extendqisi2
 1756 017a 354C     		ldr	r4, .L128+12
 1757 017c 1346     		mov	r3, r2
 1758 017e 5B00     		lsls	r3, r3, #1
 1759 0180 1344     		add	r3, r3, r2
 1760 0182 9B00     		lsls	r3, r3, #2
 1761 0184 2344     		add	r3, r3, r4
 1762 0186 0833     		adds	r3, r3, #8
 1763 0188 1B88     		ldrh	r3, [r3]	@ movhi
 1764 018a 9BB2     		uxth	r3, r3
 1765 018c DAB2     		uxtb	r2, r3
 1766 018e 0B01     		lsls	r3, r1, #4
 1767 0190 0344     		add	r3, r3, r0
 1768 0192 0133     		adds	r3, r3, #1
 1769 0194 1A70     		strb	r2, [r3]
 909:Generated_Source\PSoC5/USBFS_std.c ****                 
 910:Generated_Source\PSoC5/USBFS_std.c ****                 #if (CY_PSOC4)
 911:Generated_Source\PSoC5/USBFS_std.c ****                     USBFS_ARB_EP16_BASE.arbEp[curEp].rwRa16  = (uint32) USBFS_EP[curEp].buffOffset;
 912:Generated_Source\PSoC5/USBFS_std.c ****                     USBFS_ARB_EP16_BASE.arbEp[curEp].rwWa16  = (uint32) USBFS_EP[curEp].buffOffset;
 913:Generated_Source\PSoC5/USBFS_std.c ****                 #else
 914:Generated_Source\PSoC5/USBFS_std.c ****                     USBFS_ARB_EP_BASE.arbEp[curEp].rwRa    = LO8(USBFS_EP[curEp].buffOffset);
 1770              		.loc 1 914 0
 1771 0196 3048     		ldr	r0, .L128+20
 1772 0198 7978     		ldrb	r1, [r7, #1]	@ zero_extendqisi2
 1773 019a 7A78     		ldrb	r2, [r7, #1]	@ zero_extendqisi2
 1774 019c 2C4C     		ldr	r4, .L128+12
 1775 019e 1346     		mov	r3, r2
 1776 01a0 5B00     		lsls	r3, r3, #1
 1777 01a2 1344     		add	r3, r3, r2
 1778 01a4 9B00     		lsls	r3, r3, #2
 1779 01a6 2344     		add	r3, r3, r4
 1780 01a8 0633     		adds	r3, r3, #6
 1781 01aa 1B88     		ldrh	r3, [r3]	@ movhi
 1782 01ac 9BB2     		uxth	r3, r3
 1783 01ae DAB2     		uxtb	r2, r3
 1784 01b0 0B01     		lsls	r3, r1, #4
 1785 01b2 0344     		add	r3, r3, r0
 1786 01b4 0633     		adds	r3, r3, #6
 1787 01b6 1A70     		strb	r2, [r3]
 915:Generated_Source\PSoC5/USBFS_std.c ****                     USBFS_ARB_EP_BASE.arbEp[curEp].rwRaMsb = HI8(USBFS_EP[curEp].buffOffset);
 1788              		.loc 1 915 0
 1789 01b8 2748     		ldr	r0, .L128+20
 1790 01ba 7978     		ldrb	r1, [r7, #1]	@ zero_extendqisi2
 1791 01bc 7A78     		ldrb	r2, [r7, #1]	@ zero_extendqisi2
ARM GAS  C:\Users\r\AppData\Local\Temp\ccDuGy4S.s 			page 50


 1792 01be 244C     		ldr	r4, .L128+12
 1793 01c0 1346     		mov	r3, r2
 1794 01c2 5B00     		lsls	r3, r3, #1
 1795 01c4 1344     		add	r3, r3, r2
 1796 01c6 9B00     		lsls	r3, r3, #2
 1797 01c8 2344     		add	r3, r3, r4
 1798 01ca 0633     		adds	r3, r3, #6
 1799 01cc 1B88     		ldrh	r3, [r3]	@ movhi
 1800 01ce 9BB2     		uxth	r3, r3
 1801 01d0 1B0A     		lsrs	r3, r3, #8
 1802 01d2 9BB2     		uxth	r3, r3
 1803 01d4 DAB2     		uxtb	r2, r3
 1804 01d6 0B01     		lsls	r3, r1, #4
 1805 01d8 0344     		add	r3, r3, r0
 1806 01da 0733     		adds	r3, r3, #7
 1807 01dc 1A70     		strb	r2, [r3]
 916:Generated_Source\PSoC5/USBFS_std.c ****                     USBFS_ARB_EP_BASE.arbEp[curEp].rwWa    = LO8(USBFS_EP[curEp].buffOffset);
 1808              		.loc 1 916 0
 1809 01de 1E48     		ldr	r0, .L128+20
 1810 01e0 7978     		ldrb	r1, [r7, #1]	@ zero_extendqisi2
 1811 01e2 7A78     		ldrb	r2, [r7, #1]	@ zero_extendqisi2
 1812 01e4 1A4C     		ldr	r4, .L128+12
 1813 01e6 1346     		mov	r3, r2
 1814 01e8 5B00     		lsls	r3, r3, #1
 1815 01ea 1344     		add	r3, r3, r2
 1816 01ec 9B00     		lsls	r3, r3, #2
 1817 01ee 2344     		add	r3, r3, r4
 1818 01f0 0633     		adds	r3, r3, #6
 1819 01f2 1B88     		ldrh	r3, [r3]	@ movhi
 1820 01f4 9BB2     		uxth	r3, r3
 1821 01f6 DAB2     		uxtb	r2, r3
 1822 01f8 0B01     		lsls	r3, r1, #4
 1823 01fa 0344     		add	r3, r3, r0
 1824 01fc 0433     		adds	r3, r3, #4
 1825 01fe 1A70     		strb	r2, [r3]
 917:Generated_Source\PSoC5/USBFS_std.c ****                     USBFS_ARB_EP_BASE.arbEp[curEp].rwWaMsb = HI8(USBFS_EP[curEp].buffOffset);
 1826              		.loc 1 917 0
 1827 0200 1548     		ldr	r0, .L128+20
 1828 0202 7978     		ldrb	r1, [r7, #1]	@ zero_extendqisi2
 1829 0204 7A78     		ldrb	r2, [r7, #1]	@ zero_extendqisi2
 1830 0206 124C     		ldr	r4, .L128+12
 1831 0208 1346     		mov	r3, r2
 1832 020a 5B00     		lsls	r3, r3, #1
 1833 020c 1344     		add	r3, r3, r2
 1834 020e 9B00     		lsls	r3, r3, #2
 1835 0210 2344     		add	r3, r3, r4
 1836 0212 0633     		adds	r3, r3, #6
 1837 0214 1B88     		ldrh	r3, [r3]	@ movhi
 1838 0216 9BB2     		uxth	r3, r3
 1839 0218 1B0A     		lsrs	r3, r3, #8
 1840 021a 9BB2     		uxth	r3, r3
 1841 021c DAB2     		uxtb	r2, r3
 1842 021e 0B01     		lsls	r3, r1, #4
 1843 0220 0344     		add	r3, r3, r0
 1844 0222 0533     		adds	r3, r3, #5
 1845 0224 1A70     		strb	r2, [r3]
 1846              	.L119:
ARM GAS  C:\Users\r\AppData\Local\Temp\ccDuGy4S.s 			page 51


 918:Generated_Source\PSoC5/USBFS_std.c ****                 #endif /* (CY_PSOC4) */                
 919:Generated_Source\PSoC5/USBFS_std.c ****             #endif /* (USBFS_EP_MANAGEMENT_DMA_AUTO) */
 920:Generated_Source\PSoC5/USBFS_std.c ****             }
 921:Generated_Source\PSoC5/USBFS_std.c ****             
 922:Generated_Source\PSoC5/USBFS_std.c ****             pEP = &pEP[1u]; /* Get next EP element */
 1847              		.loc 1 922 0 discriminator 2
 1848 0226 BB68     		ldr	r3, [r7, #8]
 1849 0228 0833     		adds	r3, r3, #8
 1850 022a BB60     		str	r3, [r7, #8]
 832:Generated_Source\PSoC5/USBFS_std.c ****         {
 1851              		.loc 1 832 0 discriminator 2
 1852 022c FB7B     		ldrb	r3, [r7, #15]	@ zero_extendqisi2
 1853 022e 0133     		adds	r3, r3, #1
 1854 0230 FB73     		strb	r3, [r7, #15]
 1855              	.L118:
 832:Generated_Source\PSoC5/USBFS_std.c ****         {
 1856              		.loc 1 832 0 is_stmt 0 discriminator 1
 1857 0232 FA7B     		ldrb	r2, [r7, #15]	@ zero_extendqisi2
 1858 0234 FB78     		ldrb	r3, [r7, #3]	@ zero_extendqisi2
 1859 0236 9A42     		cmp	r2, r3
 1860 0238 FFF403AF 		bcc	.L126
 1861              	.L127:
 923:Generated_Source\PSoC5/USBFS_std.c ****         }
 924:Generated_Source\PSoC5/USBFS_std.c ****         
 925:Generated_Source\PSoC5/USBFS_std.c ****         /* The main loop has to re-enable DMA and OUT endpoint */
 926:Generated_Source\PSoC5/USBFS_std.c ****     }
 927:Generated_Source\PSoC5/USBFS_std.c **** }
 1862              		.loc 1 927 0 is_stmt 1
 1863 023c 00BF     		nop
 1864 023e 1437     		adds	r7, r7, #20
 1865              		.cfi_def_cfa_offset 12
 1866 0240 BD46     		mov	sp, r7
 1867              		.cfi_def_cfa_register 13
 1868              		@ sp needed
 1869 0242 90BD     		pop	{r4, r7, pc}
 1870              	.L129:
 1871              		.align	2
 1872              	.L128:
 1873 0244 00000000 		.word	USBFS_configuration
 1874 0248 00000000 		.word	USBFS_interfaceNumber
 1875 024c 00000000 		.word	USBFS_interfaceSetting
 1876 0250 00000000 		.word	USBFS_EP
 1877 0254 FC5F0040 		.word	1073766396
 1878 0258 70600040 		.word	1073766512
 1879              		.cfi_endproc
 1880              	.LFE4:
 1881              		.size	USBFS_ConfigAltChanged, .-USBFS_ConfigAltChanged
 1882              		.section	.text.USBFS_GetConfigTablePtr,"ax",%progbits
 1883              		.align	2
 1884              		.global	USBFS_GetConfigTablePtr
 1885              		.thumb
 1886              		.thumb_func
 1887              		.type	USBFS_GetConfigTablePtr, %function
 1888              	USBFS_GetConfigTablePtr:
 1889              	.LFB5:
 928:Generated_Source\PSoC5/USBFS_std.c **** 
 929:Generated_Source\PSoC5/USBFS_std.c **** 
ARM GAS  C:\Users\r\AppData\Local\Temp\ccDuGy4S.s 			page 52


 930:Generated_Source\PSoC5/USBFS_std.c **** /*******************************************************************************
 931:Generated_Source\PSoC5/USBFS_std.c **** * Function Name: USBFS_GetConfigTablePtr
 932:Generated_Source\PSoC5/USBFS_std.c **** ****************************************************************************//**
 933:Generated_Source\PSoC5/USBFS_std.c **** *
 934:Generated_Source\PSoC5/USBFS_std.c **** *  This routine returns a pointer a configuration table entry
 935:Generated_Source\PSoC5/USBFS_std.c **** *
 936:Generated_Source\PSoC5/USBFS_std.c **** *  \param confIndex:  Configuration Index
 937:Generated_Source\PSoC5/USBFS_std.c **** *
 938:Generated_Source\PSoC5/USBFS_std.c **** * \return
 939:Generated_Source\PSoC5/USBFS_std.c **** *  Device Descriptor pointer or NULL when descriptor does not exist.
 940:Generated_Source\PSoC5/USBFS_std.c **** *
 941:Generated_Source\PSoC5/USBFS_std.c **** *******************************************************************************/
 942:Generated_Source\PSoC5/USBFS_std.c **** const T_USBFS_LUT CYCODE *USBFS_GetConfigTablePtr(uint8 confIndex)
 943:Generated_Source\PSoC5/USBFS_std.c ****                                                         
 944:Generated_Source\PSoC5/USBFS_std.c **** {
 1890              		.loc 1 944 0
 1891              		.cfi_startproc
 1892              		@ args = 0, pretend = 0, frame = 16
 1893              		@ frame_needed = 1, uses_anonymous_args = 0
 1894              		@ link register save eliminated.
 1895 0000 80B4     		push	{r7}
 1896              		.cfi_def_cfa_offset 4
 1897              		.cfi_offset 7, -4
 1898 0002 85B0     		sub	sp, sp, #20
 1899              		.cfi_def_cfa_offset 24
 1900 0004 00AF     		add	r7, sp, #0
 1901              		.cfi_def_cfa_register 7
 1902 0006 0346     		mov	r3, r0
 1903 0008 FB71     		strb	r3, [r7, #7]
 945:Generated_Source\PSoC5/USBFS_std.c ****     /* Device Table */
 946:Generated_Source\PSoC5/USBFS_std.c ****     const T_USBFS_LUT CYCODE *pTmp;
 947:Generated_Source\PSoC5/USBFS_std.c **** 
 948:Generated_Source\PSoC5/USBFS_std.c ****     pTmp = (const T_USBFS_LUT CYCODE *) USBFS_TABLE[USBFS_device].p_list;
 1904              		.loc 1 948 0
 1905 000a 0F4B     		ldr	r3, .L134
 1906 000c 1B78     		ldrb	r3, [r3]
 1907 000e DBB2     		uxtb	r3, r3
 1908 0010 0E4A     		ldr	r2, .L134+4
 1909 0012 DB00     		lsls	r3, r3, #3
 1910 0014 1344     		add	r3, r3, r2
 1911 0016 5B68     		ldr	r3, [r3, #4]
 1912 0018 FB60     		str	r3, [r7, #12]
 949:Generated_Source\PSoC5/USBFS_std.c **** 
 950:Generated_Source\PSoC5/USBFS_std.c ****     /* The first entry points to the Device Descriptor,
 951:Generated_Source\PSoC5/USBFS_std.c ****     *  the second entry point to the BOS Descriptor
 952:Generated_Source\PSoC5/USBFS_std.c ****     *  the rest configuration entries.
 953:Generated_Source\PSoC5/USBFS_std.c ****     *  Set pointer to the first Configuration Descriptor
 954:Generated_Source\PSoC5/USBFS_std.c ****     */
 955:Generated_Source\PSoC5/USBFS_std.c ****     pTmp = &pTmp[2u];
 1913              		.loc 1 955 0
 1914 001a FB68     		ldr	r3, [r7, #12]
 1915 001c 1033     		adds	r3, r3, #16
 1916 001e FB60     		str	r3, [r7, #12]
 956:Generated_Source\PSoC5/USBFS_std.c ****     /* For this table, c is the number of configuration descriptors  */
 957:Generated_Source\PSoC5/USBFS_std.c ****     if(confIndex >= pTmp->c)   /* Verify that required configuration descriptor exists */
 1917              		.loc 1 957 0
 1918 0020 FB68     		ldr	r3, [r7, #12]
ARM GAS  C:\Users\r\AppData\Local\Temp\ccDuGy4S.s 			page 53


 1919 0022 1B78     		ldrb	r3, [r3]	@ zero_extendqisi2
 1920 0024 FA79     		ldrb	r2, [r7, #7]	@ zero_extendqisi2
 1921 0026 9A42     		cmp	r2, r3
 1922 0028 02D3     		bcc	.L131
 958:Generated_Source\PSoC5/USBFS_std.c ****     {
 959:Generated_Source\PSoC5/USBFS_std.c ****         pTmp = (const T_USBFS_LUT CYCODE *) NULL;
 1923              		.loc 1 959 0
 1924 002a 0023     		movs	r3, #0
 1925 002c FB60     		str	r3, [r7, #12]
 1926 002e 05E0     		b	.L132
 1927              	.L131:
 960:Generated_Source\PSoC5/USBFS_std.c ****     }
 961:Generated_Source\PSoC5/USBFS_std.c ****     else
 962:Generated_Source\PSoC5/USBFS_std.c ****     {
 963:Generated_Source\PSoC5/USBFS_std.c ****         pTmp = (const T_USBFS_LUT CYCODE *) pTmp[confIndex].p_list;
 1928              		.loc 1 963 0
 1929 0030 FB79     		ldrb	r3, [r7, #7]	@ zero_extendqisi2
 1930 0032 DB00     		lsls	r3, r3, #3
 1931 0034 FA68     		ldr	r2, [r7, #12]
 1932 0036 1344     		add	r3, r3, r2
 1933 0038 5B68     		ldr	r3, [r3, #4]
 1934 003a FB60     		str	r3, [r7, #12]
 1935              	.L132:
 964:Generated_Source\PSoC5/USBFS_std.c ****     }
 965:Generated_Source\PSoC5/USBFS_std.c **** 
 966:Generated_Source\PSoC5/USBFS_std.c ****     return (pTmp);
 1936              		.loc 1 966 0
 1937 003c FB68     		ldr	r3, [r7, #12]
 967:Generated_Source\PSoC5/USBFS_std.c **** }
 1938              		.loc 1 967 0
 1939 003e 1846     		mov	r0, r3
 1940 0040 1437     		adds	r7, r7, #20
 1941              		.cfi_def_cfa_offset 4
 1942 0042 BD46     		mov	sp, r7
 1943              		.cfi_def_cfa_register 13
 1944              		@ sp needed
 1945 0044 80BC     		pop	{r7}
 1946              		.cfi_restore 7
 1947              		.cfi_def_cfa_offset 0
 1948 0046 7047     		bx	lr
 1949              	.L135:
 1950              		.align	2
 1951              	.L134:
 1952 0048 00000000 		.word	USBFS_device
 1953 004c 00000000 		.word	USBFS_TABLE
 1954              		.cfi_endproc
 1955              	.LFE5:
 1956              		.size	USBFS_GetConfigTablePtr, .-USBFS_GetConfigTablePtr
 1957              		.section	.text.USBFS_GetDeviceTablePtr,"ax",%progbits
 1958              		.align	2
 1959              		.global	USBFS_GetDeviceTablePtr
 1960              		.thumb
 1961              		.thumb_func
 1962              		.type	USBFS_GetDeviceTablePtr, %function
 1963              	USBFS_GetDeviceTablePtr:
 1964              	.LFB6:
 968:Generated_Source\PSoC5/USBFS_std.c **** 
ARM GAS  C:\Users\r\AppData\Local\Temp\ccDuGy4S.s 			page 54


 969:Generated_Source\PSoC5/USBFS_std.c **** 
 970:Generated_Source\PSoC5/USBFS_std.c **** #if (USBFS_BOS_ENABLE)
 971:Generated_Source\PSoC5/USBFS_std.c ****     /*******************************************************************************
 972:Generated_Source\PSoC5/USBFS_std.c ****     * Function Name: USBFS_GetBOSPtr
 973:Generated_Source\PSoC5/USBFS_std.c ****     ****************************************************************************//**
 974:Generated_Source\PSoC5/USBFS_std.c ****     *
 975:Generated_Source\PSoC5/USBFS_std.c ****     *  This routine returns a pointer a BOS table entry
 976:Generated_Source\PSoC5/USBFS_std.c ****     *
 977:Generated_Source\PSoC5/USBFS_std.c ****     *  
 978:Generated_Source\PSoC5/USBFS_std.c ****     *
 979:Generated_Source\PSoC5/USBFS_std.c ****     * \return
 980:Generated_Source\PSoC5/USBFS_std.c ****     *  BOS Descriptor pointer or NULL when descriptor does not exist.
 981:Generated_Source\PSoC5/USBFS_std.c ****     *
 982:Generated_Source\PSoC5/USBFS_std.c ****     *******************************************************************************/
 983:Generated_Source\PSoC5/USBFS_std.c ****     const T_USBFS_LUT CYCODE *USBFS_GetBOSPtr(void)
 984:Generated_Source\PSoC5/USBFS_std.c ****                                                             
 985:Generated_Source\PSoC5/USBFS_std.c ****     {
 986:Generated_Source\PSoC5/USBFS_std.c ****         /* Device Table */
 987:Generated_Source\PSoC5/USBFS_std.c ****         const T_USBFS_LUT CYCODE *pTmp;
 988:Generated_Source\PSoC5/USBFS_std.c **** 
 989:Generated_Source\PSoC5/USBFS_std.c ****         pTmp = (const T_USBFS_LUT CYCODE *) USBFS_TABLE[USBFS_device].p_list;
 990:Generated_Source\PSoC5/USBFS_std.c **** 
 991:Generated_Source\PSoC5/USBFS_std.c ****         /* The first entry points to the Device Descriptor,
 992:Generated_Source\PSoC5/USBFS_std.c ****         *  the second entry points to the BOS Descriptor
 993:Generated_Source\PSoC5/USBFS_std.c ****         */
 994:Generated_Source\PSoC5/USBFS_std.c ****         pTmp = &pTmp[1u];
 995:Generated_Source\PSoC5/USBFS_std.c ****         pTmp = (const T_USBFS_LUT CYCODE *) pTmp->p_list;
 996:Generated_Source\PSoC5/USBFS_std.c ****         return (pTmp);
 997:Generated_Source\PSoC5/USBFS_std.c ****     }
 998:Generated_Source\PSoC5/USBFS_std.c **** #endif /* (USBFS_BOS_ENABLE) */
 999:Generated_Source\PSoC5/USBFS_std.c **** 
1000:Generated_Source\PSoC5/USBFS_std.c **** 
1001:Generated_Source\PSoC5/USBFS_std.c **** /*******************************************************************************
1002:Generated_Source\PSoC5/USBFS_std.c **** * Function Name: USBFS_GetDeviceTablePtr
1003:Generated_Source\PSoC5/USBFS_std.c **** ****************************************************************************//**
1004:Generated_Source\PSoC5/USBFS_std.c **** *
1005:Generated_Source\PSoC5/USBFS_std.c **** *  This routine returns a pointer to the Device table
1006:Generated_Source\PSoC5/USBFS_std.c **** *
1007:Generated_Source\PSoC5/USBFS_std.c **** * \return
1008:Generated_Source\PSoC5/USBFS_std.c **** *  Device Table pointer
1009:Generated_Source\PSoC5/USBFS_std.c **** *
1010:Generated_Source\PSoC5/USBFS_std.c **** *******************************************************************************/
1011:Generated_Source\PSoC5/USBFS_std.c **** const T_USBFS_LUT CYCODE *USBFS_GetDeviceTablePtr(void)
1012:Generated_Source\PSoC5/USBFS_std.c ****                                                             
1013:Generated_Source\PSoC5/USBFS_std.c **** {
 1965              		.loc 1 1013 0
 1966              		.cfi_startproc
 1967              		@ args = 0, pretend = 0, frame = 0
 1968              		@ frame_needed = 1, uses_anonymous_args = 0
 1969              		@ link register save eliminated.
 1970 0000 80B4     		push	{r7}
 1971              		.cfi_def_cfa_offset 4
 1972              		.cfi_offset 7, -4
 1973 0002 00AF     		add	r7, sp, #0
 1974              		.cfi_def_cfa_register 7
1014:Generated_Source\PSoC5/USBFS_std.c ****     /* Device Table */
1015:Generated_Source\PSoC5/USBFS_std.c ****     return( (const T_USBFS_LUT CYCODE *) USBFS_TABLE[USBFS_device].p_list );
ARM GAS  C:\Users\r\AppData\Local\Temp\ccDuGy4S.s 			page 55


 1975              		.loc 1 1015 0
 1976 0004 054B     		ldr	r3, .L138
 1977 0006 1B78     		ldrb	r3, [r3]
 1978 0008 DBB2     		uxtb	r3, r3
 1979 000a 054A     		ldr	r2, .L138+4
 1980 000c DB00     		lsls	r3, r3, #3
 1981 000e 1344     		add	r3, r3, r2
 1982 0010 5B68     		ldr	r3, [r3, #4]
1016:Generated_Source\PSoC5/USBFS_std.c **** }
 1983              		.loc 1 1016 0
 1984 0012 1846     		mov	r0, r3
 1985 0014 BD46     		mov	sp, r7
 1986              		.cfi_def_cfa_register 13
 1987              		@ sp needed
 1988 0016 80BC     		pop	{r7}
 1989              		.cfi_restore 7
 1990              		.cfi_def_cfa_offset 0
 1991 0018 7047     		bx	lr
 1992              	.L139:
 1993 001a 00BF     		.align	2
 1994              	.L138:
 1995 001c 00000000 		.word	USBFS_device
 1996 0020 00000000 		.word	USBFS_TABLE
 1997              		.cfi_endproc
 1998              	.LFE6:
 1999              		.size	USBFS_GetDeviceTablePtr, .-USBFS_GetDeviceTablePtr
 2000              		.section	.text.USBFS_GetInterfaceClassTablePtr,"ax",%progbits
 2001              		.align	2
 2002              		.global	USBFS_GetInterfaceClassTablePtr
 2003              		.thumb
 2004              		.thumb_func
 2005              		.type	USBFS_GetInterfaceClassTablePtr, %function
 2006              	USBFS_GetInterfaceClassTablePtr:
 2007              	.LFB7:
1017:Generated_Source\PSoC5/USBFS_std.c **** 
1018:Generated_Source\PSoC5/USBFS_std.c **** 
1019:Generated_Source\PSoC5/USBFS_std.c **** /*******************************************************************************
1020:Generated_Source\PSoC5/USBFS_std.c **** * Function Name: USB_GetInterfaceClassTablePtr
1021:Generated_Source\PSoC5/USBFS_std.c **** ****************************************************************************//**
1022:Generated_Source\PSoC5/USBFS_std.c **** *
1023:Generated_Source\PSoC5/USBFS_std.c **** *  This routine returns Interface Class table pointer, which contains
1024:Generated_Source\PSoC5/USBFS_std.c **** *  the relation between interface number and interface class.
1025:Generated_Source\PSoC5/USBFS_std.c **** *
1026:Generated_Source\PSoC5/USBFS_std.c **** * \return
1027:Generated_Source\PSoC5/USBFS_std.c **** *  Interface Class table pointer.
1028:Generated_Source\PSoC5/USBFS_std.c **** *
1029:Generated_Source\PSoC5/USBFS_std.c **** *******************************************************************************/
1030:Generated_Source\PSoC5/USBFS_std.c **** const uint8 CYCODE *USBFS_GetInterfaceClassTablePtr(void)
1031:Generated_Source\PSoC5/USBFS_std.c ****                                                         
1032:Generated_Source\PSoC5/USBFS_std.c **** {
 2008              		.loc 1 1032 0
 2009              		.cfi_startproc
 2010              		@ args = 0, pretend = 0, frame = 16
 2011              		@ frame_needed = 1, uses_anonymous_args = 0
 2012 0000 80B5     		push	{r7, lr}
 2013              		.cfi_def_cfa_offset 8
 2014              		.cfi_offset 7, -8
ARM GAS  C:\Users\r\AppData\Local\Temp\ccDuGy4S.s 			page 56


 2015              		.cfi_offset 14, -4
 2016 0002 84B0     		sub	sp, sp, #16
 2017              		.cfi_def_cfa_offset 24
 2018 0004 00AF     		add	r7, sp, #0
 2019              		.cfi_def_cfa_register 7
1033:Generated_Source\PSoC5/USBFS_std.c ****     const T_USBFS_LUT CYCODE *pTmp;
1034:Generated_Source\PSoC5/USBFS_std.c ****     const uint8 CYCODE *pInterfaceClass;
1035:Generated_Source\PSoC5/USBFS_std.c ****     uint8 currentInterfacesNum;
1036:Generated_Source\PSoC5/USBFS_std.c **** 
1037:Generated_Source\PSoC5/USBFS_std.c ****     pTmp = USBFS_GetConfigTablePtr(USBFS_configuration - 1u);
 2020              		.loc 1 1037 0
 2021 0006 104B     		ldr	r3, .L144
 2022 0008 1B78     		ldrb	r3, [r3]
 2023 000a DBB2     		uxtb	r3, r3
 2024 000c 013B     		subs	r3, r3, #1
 2025 000e DBB2     		uxtb	r3, r3
 2026 0010 1846     		mov	r0, r3
 2027 0012 FFF7FEFF 		bl	USBFS_GetConfigTablePtr
 2028 0016 B860     		str	r0, [r7, #8]
1038:Generated_Source\PSoC5/USBFS_std.c ****     if (pTmp != NULL)
 2029              		.loc 1 1038 0
 2030 0018 BB68     		ldr	r3, [r7, #8]
 2031 001a 002B     		cmp	r3, #0
 2032 001c 0DD0     		beq	.L141
1039:Generated_Source\PSoC5/USBFS_std.c ****     {
1040:Generated_Source\PSoC5/USBFS_std.c ****         currentInterfacesNum  = ((const uint8 *) pTmp->p_list)[USBFS_CONFIG_DESCR_NUM_INTERFACES];
 2033              		.loc 1 1040 0
 2034 001e BB68     		ldr	r3, [r7, #8]
 2035 0020 5B68     		ldr	r3, [r3, #4]
 2036 0022 1B79     		ldrb	r3, [r3, #4]
 2037 0024 FB71     		strb	r3, [r7, #7]
1041:Generated_Source\PSoC5/USBFS_std.c ****         /* Third entry in the LUT starts the Interface Table pointers */
1042:Generated_Source\PSoC5/USBFS_std.c ****         /* The INTERFACE_CLASS table is located after all interfaces */
1043:Generated_Source\PSoC5/USBFS_std.c ****         pTmp = &pTmp[currentInterfacesNum + 2u];
 2038              		.loc 1 1043 0
 2039 0026 FB79     		ldrb	r3, [r7, #7]	@ zero_extendqisi2
 2040 0028 0233     		adds	r3, r3, #2
 2041 002a DB00     		lsls	r3, r3, #3
 2042 002c BA68     		ldr	r2, [r7, #8]
 2043 002e 1344     		add	r3, r3, r2
 2044 0030 BB60     		str	r3, [r7, #8]
1044:Generated_Source\PSoC5/USBFS_std.c ****         pInterfaceClass = (const uint8 CYCODE *) pTmp->p_list;
 2045              		.loc 1 1044 0
 2046 0032 BB68     		ldr	r3, [r7, #8]
 2047 0034 5B68     		ldr	r3, [r3, #4]
 2048 0036 FB60     		str	r3, [r7, #12]
 2049 0038 01E0     		b	.L142
 2050              	.L141:
1045:Generated_Source\PSoC5/USBFS_std.c ****     }
1046:Generated_Source\PSoC5/USBFS_std.c ****     else
1047:Generated_Source\PSoC5/USBFS_std.c ****     {
1048:Generated_Source\PSoC5/USBFS_std.c ****         pInterfaceClass = (const uint8 CYCODE *) NULL;
 2051              		.loc 1 1048 0
 2052 003a 0023     		movs	r3, #0
 2053 003c FB60     		str	r3, [r7, #12]
 2054              	.L142:
1049:Generated_Source\PSoC5/USBFS_std.c ****     }
ARM GAS  C:\Users\r\AppData\Local\Temp\ccDuGy4S.s 			page 57


1050:Generated_Source\PSoC5/USBFS_std.c **** 
1051:Generated_Source\PSoC5/USBFS_std.c ****     return (pInterfaceClass);
 2055              		.loc 1 1051 0
 2056 003e FB68     		ldr	r3, [r7, #12]
1052:Generated_Source\PSoC5/USBFS_std.c **** }
 2057              		.loc 1 1052 0
 2058 0040 1846     		mov	r0, r3
 2059 0042 1037     		adds	r7, r7, #16
 2060              		.cfi_def_cfa_offset 8
 2061 0044 BD46     		mov	sp, r7
 2062              		.cfi_def_cfa_register 13
 2063              		@ sp needed
 2064 0046 80BD     		pop	{r7, pc}
 2065              	.L145:
 2066              		.align	2
 2067              	.L144:
 2068 0048 00000000 		.word	USBFS_configuration
 2069              		.cfi_endproc
 2070              	.LFE7:
 2071              		.size	USBFS_GetInterfaceClassTablePtr, .-USBFS_GetInterfaceClassTablePtr
 2072              		.section	.text.USBFS_TerminateEP,"ax",%progbits
 2073              		.align	2
 2074              		.global	USBFS_TerminateEP
 2075              		.thumb
 2076              		.thumb_func
 2077              		.type	USBFS_TerminateEP, %function
 2078              	USBFS_TerminateEP:
 2079              	.LFB8:
1053:Generated_Source\PSoC5/USBFS_std.c **** 
1054:Generated_Source\PSoC5/USBFS_std.c **** 
1055:Generated_Source\PSoC5/USBFS_std.c **** /*******************************************************************************
1056:Generated_Source\PSoC5/USBFS_std.c **** * Function Name: USBFS_TerminateEP
1057:Generated_Source\PSoC5/USBFS_std.c **** ****************************************************************************//**
1058:Generated_Source\PSoC5/USBFS_std.c **** *
1059:Generated_Source\PSoC5/USBFS_std.c **** *  This function terminates the specified USBFS endpoint.
1060:Generated_Source\PSoC5/USBFS_std.c **** *  This function should be used before endpoint reconfiguration.
1061:Generated_Source\PSoC5/USBFS_std.c **** *
1062:Generated_Source\PSoC5/USBFS_std.c **** *  \param ep Contains the data endpoint number.
1063:Generated_Source\PSoC5/USBFS_std.c **** *
1064:Generated_Source\PSoC5/USBFS_std.c **** *  \reentrant
1065:Generated_Source\PSoC5/USBFS_std.c **** *  No.
1066:Generated_Source\PSoC5/USBFS_std.c **** *
1067:Generated_Source\PSoC5/USBFS_std.c **** * \sideeffect
1068:Generated_Source\PSoC5/USBFS_std.c **** * 
1069:Generated_Source\PSoC5/USBFS_std.c **** * The device responds with a NAK for any transactions on the selected endpoint.
1070:Generated_Source\PSoC5/USBFS_std.c **** *   
1071:Generated_Source\PSoC5/USBFS_std.c **** *******************************************************************************/
1072:Generated_Source\PSoC5/USBFS_std.c **** void USBFS_TerminateEP(uint8 epNumber) 
1073:Generated_Source\PSoC5/USBFS_std.c **** {
 2080              		.loc 1 1073 0
 2081              		.cfi_startproc
 2082              		@ args = 0, pretend = 0, frame = 8
 2083              		@ frame_needed = 1, uses_anonymous_args = 0
 2084              		@ link register save eliminated.
 2085 0000 80B4     		push	{r7}
 2086              		.cfi_def_cfa_offset 4
 2087              		.cfi_offset 7, -4
ARM GAS  C:\Users\r\AppData\Local\Temp\ccDuGy4S.s 			page 58


 2088 0002 83B0     		sub	sp, sp, #12
 2089              		.cfi_def_cfa_offset 16
 2090 0004 00AF     		add	r7, sp, #0
 2091              		.cfi_def_cfa_register 7
 2092 0006 0346     		mov	r3, r0
 2093 0008 FB71     		strb	r3, [r7, #7]
1074:Generated_Source\PSoC5/USBFS_std.c ****     /* Get endpoint number */
1075:Generated_Source\PSoC5/USBFS_std.c ****     epNumber &= USBFS_DIR_UNUSED;
 2094              		.loc 1 1075 0
 2095 000a FB79     		ldrb	r3, [r7, #7]
 2096 000c 03F07F03 		and	r3, r3, #127
 2097 0010 FB71     		strb	r3, [r7, #7]
1076:Generated_Source\PSoC5/USBFS_std.c **** 
1077:Generated_Source\PSoC5/USBFS_std.c ****     if ((epNumber > USBFS_EP0) && (epNumber < USBFS_MAX_EP))
 2098              		.loc 1 1077 0
 2099 0012 FB79     		ldrb	r3, [r7, #7]	@ zero_extendqisi2
 2100 0014 002B     		cmp	r3, #0
 2101 0016 49D0     		beq	.L149
 2102              		.loc 1 1077 0 is_stmt 0 discriminator 1
 2103 0018 FB79     		ldrb	r3, [r7, #7]	@ zero_extendqisi2
 2104 001a 082B     		cmp	r3, #8
 2105 001c 46D8     		bhi	.L149
1078:Generated_Source\PSoC5/USBFS_std.c ****     {
1079:Generated_Source\PSoC5/USBFS_std.c ****         /* Set the endpoint Halt */
1080:Generated_Source\PSoC5/USBFS_std.c ****         USBFS_EP[epNumber].hwEpState |= USBFS_ENDPOINT_STATUS_HALT;
 2106              		.loc 1 1080 0 is_stmt 1
 2107 001e FA79     		ldrb	r2, [r7, #7]	@ zero_extendqisi2
 2108 0020 F979     		ldrb	r1, [r7, #7]	@ zero_extendqisi2
 2109 0022 2548     		ldr	r0, .L150
 2110 0024 0B46     		mov	r3, r1
 2111 0026 5B00     		lsls	r3, r3, #1
 2112 0028 0B44     		add	r3, r3, r1
 2113 002a 9B00     		lsls	r3, r3, #2
 2114 002c 0344     		add	r3, r3, r0
 2115 002e 0233     		adds	r3, r3, #2
 2116 0030 1B78     		ldrb	r3, [r3]
 2117 0032 DBB2     		uxtb	r3, r3
 2118 0034 43F00103 		orr	r3, r3, #1
 2119 0038 D8B2     		uxtb	r0, r3
 2120 003a 1F49     		ldr	r1, .L150
 2121 003c 1346     		mov	r3, r2
 2122 003e 5B00     		lsls	r3, r3, #1
 2123 0040 1344     		add	r3, r3, r2
 2124 0042 9B00     		lsls	r3, r3, #2
 2125 0044 0B44     		add	r3, r3, r1
 2126 0046 0233     		adds	r3, r3, #2
 2127 0048 0246     		mov	r2, r0
 2128 004a 1A70     		strb	r2, [r3]
1081:Generated_Source\PSoC5/USBFS_std.c **** 
1082:Generated_Source\PSoC5/USBFS_std.c ****         /* Clear the data toggle */
1083:Generated_Source\PSoC5/USBFS_std.c ****         USBFS_EP[epNumber].epToggle = 0u;
 2129              		.loc 1 1083 0
 2130 004c FA79     		ldrb	r2, [r7, #7]	@ zero_extendqisi2
 2131 004e 1A49     		ldr	r1, .L150
 2132 0050 1346     		mov	r3, r2
 2133 0052 5B00     		lsls	r3, r3, #1
 2134 0054 1344     		add	r3, r3, r2
ARM GAS  C:\Users\r\AppData\Local\Temp\ccDuGy4S.s 			page 59


 2135 0056 9B00     		lsls	r3, r3, #2
 2136 0058 0B44     		add	r3, r3, r1
 2137 005a 0333     		adds	r3, r3, #3
 2138 005c 0022     		movs	r2, #0
 2139 005e 1A70     		strb	r2, [r3]
1084:Generated_Source\PSoC5/USBFS_std.c ****         USBFS_EP[epNumber].apiEpState = USBFS_NO_EVENT_ALLOWED;
 2140              		.loc 1 1084 0
 2141 0060 FA79     		ldrb	r2, [r7, #7]	@ zero_extendqisi2
 2142 0062 1549     		ldr	r1, .L150
 2143 0064 1346     		mov	r3, r2
 2144 0066 5B00     		lsls	r3, r3, #1
 2145 0068 1344     		add	r3, r3, r2
 2146 006a 9B00     		lsls	r3, r3, #2
 2147 006c 0B44     		add	r3, r3, r1
 2148 006e 0133     		adds	r3, r3, #1
 2149 0070 0222     		movs	r2, #2
 2150 0072 1A70     		strb	r2, [r3]
1085:Generated_Source\PSoC5/USBFS_std.c **** 
1086:Generated_Source\PSoC5/USBFS_std.c ****         if ((USBFS_EP[epNumber].addr & USBFS_DIR_IN) != 0u)
 2151              		.loc 1 1086 0
 2152 0074 FA79     		ldrb	r2, [r7, #7]	@ zero_extendqisi2
 2153 0076 1049     		ldr	r1, .L150
 2154 0078 1346     		mov	r3, r2
 2155 007a 5B00     		lsls	r3, r3, #1
 2156 007c 1344     		add	r3, r3, r2
 2157 007e 9B00     		lsls	r3, r3, #2
 2158 0080 0B44     		add	r3, r3, r1
 2159 0082 0433     		adds	r3, r3, #4
 2160 0084 1B78     		ldrb	r3, [r3]
 2161 0086 DBB2     		uxtb	r3, r3
 2162 0088 5BB2     		sxtb	r3, r3
 2163 008a 002B     		cmp	r3, #0
 2164 008c 07DA     		bge	.L148
1087:Generated_Source\PSoC5/USBFS_std.c ****         {   
1088:Generated_Source\PSoC5/USBFS_std.c ****             /* IN Endpoint */
1089:Generated_Source\PSoC5/USBFS_std.c ****             USBFS_SIE_EP_BASE.sieEp[epNumber].epCr0 = USBFS_MODE_NAK_IN;
 2165              		.loc 1 1089 0
 2166 008e 0B4A     		ldr	r2, .L150+4
 2167 0090 FB79     		ldrb	r3, [r7, #7]	@ zero_extendqisi2
 2168 0092 1B01     		lsls	r3, r3, #4
 2169 0094 1344     		add	r3, r3, r2
 2170 0096 0233     		adds	r3, r3, #2
 2171 0098 0C22     		movs	r2, #12
 2172 009a 1A70     		strb	r2, [r3]
1090:Generated_Source\PSoC5/USBFS_std.c ****         }
1091:Generated_Source\PSoC5/USBFS_std.c ****         else
1092:Generated_Source\PSoC5/USBFS_std.c ****         {
1093:Generated_Source\PSoC5/USBFS_std.c ****             /* OUT Endpoint */
1094:Generated_Source\PSoC5/USBFS_std.c ****             USBFS_SIE_EP_BASE.sieEp[epNumber].epCr0 = USBFS_MODE_NAK_OUT;
1095:Generated_Source\PSoC5/USBFS_std.c ****         }
1096:Generated_Source\PSoC5/USBFS_std.c ****     }
1097:Generated_Source\PSoC5/USBFS_std.c **** }
 2173              		.loc 1 1097 0
 2174 009c 06E0     		b	.L149
 2175              	.L148:
1094:Generated_Source\PSoC5/USBFS_std.c ****         }
 2176              		.loc 1 1094 0
ARM GAS  C:\Users\r\AppData\Local\Temp\ccDuGy4S.s 			page 60


 2177 009e 074A     		ldr	r2, .L150+4
 2178 00a0 FB79     		ldrb	r3, [r7, #7]	@ zero_extendqisi2
 2179 00a2 1B01     		lsls	r3, r3, #4
 2180 00a4 1344     		add	r3, r3, r2
 2181 00a6 0233     		adds	r3, r3, #2
 2182 00a8 0822     		movs	r2, #8
 2183 00aa 1A70     		strb	r2, [r3]
 2184              	.L149:
 2185              		.loc 1 1097 0
 2186 00ac 00BF     		nop
 2187 00ae 0C37     		adds	r7, r7, #12
 2188              		.cfi_def_cfa_offset 4
 2189 00b0 BD46     		mov	sp, r7
 2190              		.cfi_def_cfa_register 13
 2191              		@ sp needed
 2192 00b2 80BC     		pop	{r7}
 2193              		.cfi_restore 7
 2194              		.cfi_def_cfa_offset 0
 2195 00b4 7047     		bx	lr
 2196              	.L151:
 2197 00b6 00BF     		.align	2
 2198              	.L150:
 2199 00b8 00000000 		.word	USBFS_EP
 2200 00bc FC5F0040 		.word	1073766396
 2201              		.cfi_endproc
 2202              	.LFE8:
 2203              		.size	USBFS_TerminateEP, .-USBFS_TerminateEP
 2204              		.section	.text.USBFS_SetEndpointHalt,"ax",%progbits
 2205              		.align	2
 2206              		.global	USBFS_SetEndpointHalt
 2207              		.thumb
 2208              		.thumb_func
 2209              		.type	USBFS_SetEndpointHalt, %function
 2210              	USBFS_SetEndpointHalt:
 2211              	.LFB9:
1098:Generated_Source\PSoC5/USBFS_std.c **** 
1099:Generated_Source\PSoC5/USBFS_std.c **** 
1100:Generated_Source\PSoC5/USBFS_std.c **** /*******************************************************************************
1101:Generated_Source\PSoC5/USBFS_std.c **** * Function Name: USBFS_SetEndpointHalt
1102:Generated_Source\PSoC5/USBFS_std.c **** ****************************************************************************//**
1103:Generated_Source\PSoC5/USBFS_std.c **** *
1104:Generated_Source\PSoC5/USBFS_std.c **** *  This routine handles set endpoint halt.
1105:Generated_Source\PSoC5/USBFS_std.c **** *
1106:Generated_Source\PSoC5/USBFS_std.c **** * \return
1107:Generated_Source\PSoC5/USBFS_std.c **** *  requestHandled.
1108:Generated_Source\PSoC5/USBFS_std.c **** *
1109:Generated_Source\PSoC5/USBFS_std.c **** * \reentrant
1110:Generated_Source\PSoC5/USBFS_std.c **** *  No.
1111:Generated_Source\PSoC5/USBFS_std.c **** *
1112:Generated_Source\PSoC5/USBFS_std.c **** *******************************************************************************/
1113:Generated_Source\PSoC5/USBFS_std.c **** uint8 USBFS_SetEndpointHalt(void) 
1114:Generated_Source\PSoC5/USBFS_std.c **** {
 2212              		.loc 1 1114 0
 2213              		.cfi_startproc
 2214              		@ args = 0, pretend = 0, frame = 8
 2215              		@ frame_needed = 1, uses_anonymous_args = 0
 2216 0000 80B5     		push	{r7, lr}
ARM GAS  C:\Users\r\AppData\Local\Temp\ccDuGy4S.s 			page 61


 2217              		.cfi_def_cfa_offset 8
 2218              		.cfi_offset 7, -8
 2219              		.cfi_offset 14, -4
 2220 0002 82B0     		sub	sp, sp, #8
 2221              		.cfi_def_cfa_offset 16
 2222 0004 00AF     		add	r7, sp, #0
 2223              		.cfi_def_cfa_register 7
1115:Generated_Source\PSoC5/USBFS_std.c ****     uint8 requestHandled = USBFS_FALSE;
 2224              		.loc 1 1115 0
 2225 0006 0023     		movs	r3, #0
 2226 0008 FB71     		strb	r3, [r7, #7]
1116:Generated_Source\PSoC5/USBFS_std.c ****     uint8 ep;
1117:Generated_Source\PSoC5/USBFS_std.c ****     
1118:Generated_Source\PSoC5/USBFS_std.c ****     /* Set endpoint halt */
1119:Generated_Source\PSoC5/USBFS_std.c ****     ep = USBFS_wIndexLoReg & USBFS_DIR_UNUSED;
 2227              		.loc 1 1119 0
 2228 000a 344B     		ldr	r3, .L157
 2229 000c 1B79     		ldrb	r3, [r3, #4]
 2230 000e DBB2     		uxtb	r3, r3
 2231 0010 03F07F03 		and	r3, r3, #127
 2232 0014 BB71     		strb	r3, [r7, #6]
1120:Generated_Source\PSoC5/USBFS_std.c **** 
1121:Generated_Source\PSoC5/USBFS_std.c ****     if ((ep > USBFS_EP0) && (ep < USBFS_MAX_EP))
 2233              		.loc 1 1121 0
 2234 0016 BB79     		ldrb	r3, [r7, #6]	@ zero_extendqisi2
 2235 0018 002B     		cmp	r3, #0
 2236 001a 5AD0     		beq	.L153
 2237              		.loc 1 1121 0 is_stmt 0 discriminator 1
 2238 001c BB79     		ldrb	r3, [r7, #6]	@ zero_extendqisi2
 2239 001e 082B     		cmp	r3, #8
 2240 0020 57D8     		bhi	.L153
1122:Generated_Source\PSoC5/USBFS_std.c ****     {
1123:Generated_Source\PSoC5/USBFS_std.c ****         /* Set the endpoint Halt */
1124:Generated_Source\PSoC5/USBFS_std.c ****         USBFS_EP[ep].hwEpState |= (USBFS_ENDPOINT_STATUS_HALT);
 2241              		.loc 1 1124 0 is_stmt 1
 2242 0022 BA79     		ldrb	r2, [r7, #6]	@ zero_extendqisi2
 2243 0024 B979     		ldrb	r1, [r7, #6]	@ zero_extendqisi2
 2244 0026 2E48     		ldr	r0, .L157+4
 2245 0028 0B46     		mov	r3, r1
 2246 002a 5B00     		lsls	r3, r3, #1
 2247 002c 0B44     		add	r3, r3, r1
 2248 002e 9B00     		lsls	r3, r3, #2
 2249 0030 0344     		add	r3, r3, r0
 2250 0032 0233     		adds	r3, r3, #2
 2251 0034 1B78     		ldrb	r3, [r3]
 2252 0036 DBB2     		uxtb	r3, r3
 2253 0038 43F00103 		orr	r3, r3, #1
 2254 003c D8B2     		uxtb	r0, r3
 2255 003e 2849     		ldr	r1, .L157+4
 2256 0040 1346     		mov	r3, r2
 2257 0042 5B00     		lsls	r3, r3, #1
 2258 0044 1344     		add	r3, r3, r2
 2259 0046 9B00     		lsls	r3, r3, #2
 2260 0048 0B44     		add	r3, r3, r1
 2261 004a 0233     		adds	r3, r3, #2
 2262 004c 0246     		mov	r2, r0
 2263 004e 1A70     		strb	r2, [r3]
ARM GAS  C:\Users\r\AppData\Local\Temp\ccDuGy4S.s 			page 62


1125:Generated_Source\PSoC5/USBFS_std.c **** 
1126:Generated_Source\PSoC5/USBFS_std.c ****         /* Clear the data toggle */
1127:Generated_Source\PSoC5/USBFS_std.c ****         USBFS_EP[ep].epToggle = 0u;
 2264              		.loc 1 1127 0
 2265 0050 BA79     		ldrb	r2, [r7, #6]	@ zero_extendqisi2
 2266 0052 2349     		ldr	r1, .L157+4
 2267 0054 1346     		mov	r3, r2
 2268 0056 5B00     		lsls	r3, r3, #1
 2269 0058 1344     		add	r3, r3, r2
 2270 005a 9B00     		lsls	r3, r3, #2
 2271 005c 0B44     		add	r3, r3, r1
 2272 005e 0333     		adds	r3, r3, #3
 2273 0060 0022     		movs	r2, #0
 2274 0062 1A70     		strb	r2, [r3]
1128:Generated_Source\PSoC5/USBFS_std.c ****         USBFS_EP[ep].apiEpState |= USBFS_NO_EVENT_ALLOWED;
 2275              		.loc 1 1128 0
 2276 0064 BA79     		ldrb	r2, [r7, #6]	@ zero_extendqisi2
 2277 0066 B979     		ldrb	r1, [r7, #6]	@ zero_extendqisi2
 2278 0068 1D48     		ldr	r0, .L157+4
 2279 006a 0B46     		mov	r3, r1
 2280 006c 5B00     		lsls	r3, r3, #1
 2281 006e 0B44     		add	r3, r3, r1
 2282 0070 9B00     		lsls	r3, r3, #2
 2283 0072 0344     		add	r3, r3, r0
 2284 0074 0133     		adds	r3, r3, #1
 2285 0076 1B78     		ldrb	r3, [r3]
 2286 0078 DBB2     		uxtb	r3, r3
 2287 007a 43F00203 		orr	r3, r3, #2
 2288 007e D8B2     		uxtb	r0, r3
 2289 0080 1749     		ldr	r1, .L157+4
 2290 0082 1346     		mov	r3, r2
 2291 0084 5B00     		lsls	r3, r3, #1
 2292 0086 1344     		add	r3, r3, r2
 2293 0088 9B00     		lsls	r3, r3, #2
 2294 008a 0B44     		add	r3, r3, r1
 2295 008c 0133     		adds	r3, r3, #1
 2296 008e 0246     		mov	r2, r0
 2297 0090 1A70     		strb	r2, [r3]
1129:Generated_Source\PSoC5/USBFS_std.c **** 
1130:Generated_Source\PSoC5/USBFS_std.c ****         if ((USBFS_EP[ep].addr & USBFS_DIR_IN) != 0u)
 2298              		.loc 1 1130 0
 2299 0092 BA79     		ldrb	r2, [r7, #6]	@ zero_extendqisi2
 2300 0094 1249     		ldr	r1, .L157+4
 2301 0096 1346     		mov	r3, r2
 2302 0098 5B00     		lsls	r3, r3, #1
 2303 009a 1344     		add	r3, r3, r2
 2304 009c 9B00     		lsls	r3, r3, #2
 2305 009e 0B44     		add	r3, r3, r1
 2306 00a0 0433     		adds	r3, r3, #4
 2307 00a2 1B78     		ldrb	r3, [r3]
 2308 00a4 DBB2     		uxtb	r3, r3
 2309 00a6 5BB2     		sxtb	r3, r3
 2310 00a8 002B     		cmp	r3, #0
 2311 00aa 07DA     		bge	.L154
1131:Generated_Source\PSoC5/USBFS_std.c ****         {
1132:Generated_Source\PSoC5/USBFS_std.c ****             /* IN Endpoint */
1133:Generated_Source\PSoC5/USBFS_std.c ****             USBFS_SIE_EP_BASE.sieEp[ep].epCr0 = (USBFS_MODE_STALL_DATA_EP | 
ARM GAS  C:\Users\r\AppData\Local\Temp\ccDuGy4S.s 			page 63


 2312              		.loc 1 1133 0
 2313 00ac 0D4A     		ldr	r2, .L157+8
 2314 00ae BB79     		ldrb	r3, [r7, #6]	@ zero_extendqisi2
 2315 00b0 1B01     		lsls	r3, r3, #4
 2316 00b2 1344     		add	r3, r3, r2
 2317 00b4 0233     		adds	r3, r3, #2
 2318 00b6 8D22     		movs	r2, #141
 2319 00b8 1A70     		strb	r2, [r3]
 2320 00ba 06E0     		b	.L155
 2321              	.L154:
1134:Generated_Source\PSoC5/USBFS_std.c ****                                                             USBFS_MODE_ACK_IN);
1135:Generated_Source\PSoC5/USBFS_std.c ****         }
1136:Generated_Source\PSoC5/USBFS_std.c ****         else
1137:Generated_Source\PSoC5/USBFS_std.c ****         {
1138:Generated_Source\PSoC5/USBFS_std.c ****             /* OUT Endpoint */
1139:Generated_Source\PSoC5/USBFS_std.c ****             USBFS_SIE_EP_BASE.sieEp[ep].epCr0 = (USBFS_MODE_STALL_DATA_EP | 
 2322              		.loc 1 1139 0
 2323 00bc 094A     		ldr	r2, .L157+8
 2324 00be BB79     		ldrb	r3, [r7, #6]	@ zero_extendqisi2
 2325 00c0 1B01     		lsls	r3, r3, #4
 2326 00c2 1344     		add	r3, r3, r2
 2327 00c4 0233     		adds	r3, r3, #2
 2328 00c6 8922     		movs	r2, #137
 2329 00c8 1A70     		strb	r2, [r3]
 2330              	.L155:
1140:Generated_Source\PSoC5/USBFS_std.c ****                                                             USBFS_MODE_ACK_OUT);
1141:Generated_Source\PSoC5/USBFS_std.c ****         }
1142:Generated_Source\PSoC5/USBFS_std.c ****         requestHandled = USBFS_InitNoDataControlTransfer();
 2331              		.loc 1 1142 0
 2332 00ca FFF7FEFF 		bl	USBFS_InitNoDataControlTransfer
 2333 00ce 0346     		mov	r3, r0
 2334 00d0 FB71     		strb	r3, [r7, #7]
 2335              	.L153:
1143:Generated_Source\PSoC5/USBFS_std.c ****     }
1144:Generated_Source\PSoC5/USBFS_std.c **** 
1145:Generated_Source\PSoC5/USBFS_std.c ****     return (requestHandled);
 2336              		.loc 1 1145 0
 2337 00d2 FB79     		ldrb	r3, [r7, #7]	@ zero_extendqisi2
1146:Generated_Source\PSoC5/USBFS_std.c **** }
 2338              		.loc 1 1146 0
 2339 00d4 1846     		mov	r0, r3
 2340 00d6 0837     		adds	r7, r7, #8
 2341              		.cfi_def_cfa_offset 8
 2342 00d8 BD46     		mov	sp, r7
 2343              		.cfi_def_cfa_register 13
 2344              		@ sp needed
 2345 00da 80BD     		pop	{r7, pc}
 2346              	.L158:
 2347              		.align	2
 2348              	.L157:
 2349 00dc 00600040 		.word	1073766400
 2350 00e0 00000000 		.word	USBFS_EP
 2351 00e4 FC5F0040 		.word	1073766396
 2352              		.cfi_endproc
 2353              	.LFE9:
 2354              		.size	USBFS_SetEndpointHalt, .-USBFS_SetEndpointHalt
 2355              		.section	.text.USBFS_ClearEndpointHalt,"ax",%progbits
ARM GAS  C:\Users\r\AppData\Local\Temp\ccDuGy4S.s 			page 64


 2356              		.align	2
 2357              		.global	USBFS_ClearEndpointHalt
 2358              		.thumb
 2359              		.thumb_func
 2360              		.type	USBFS_ClearEndpointHalt, %function
 2361              	USBFS_ClearEndpointHalt:
 2362              	.LFB10:
1147:Generated_Source\PSoC5/USBFS_std.c **** 
1148:Generated_Source\PSoC5/USBFS_std.c **** 
1149:Generated_Source\PSoC5/USBFS_std.c **** /*******************************************************************************
1150:Generated_Source\PSoC5/USBFS_std.c **** * Function Name: USBFS_ClearEndpointHalt
1151:Generated_Source\PSoC5/USBFS_std.c **** ****************************************************************************//**
1152:Generated_Source\PSoC5/USBFS_std.c **** *
1153:Generated_Source\PSoC5/USBFS_std.c **** *  This routine handles clear endpoint halt.
1154:Generated_Source\PSoC5/USBFS_std.c **** *
1155:Generated_Source\PSoC5/USBFS_std.c **** * \return
1156:Generated_Source\PSoC5/USBFS_std.c **** *  requestHandled.
1157:Generated_Source\PSoC5/USBFS_std.c **** *
1158:Generated_Source\PSoC5/USBFS_std.c **** * \reentrant
1159:Generated_Source\PSoC5/USBFS_std.c **** *  No.
1160:Generated_Source\PSoC5/USBFS_std.c **** *
1161:Generated_Source\PSoC5/USBFS_std.c **** *******************************************************************************/
1162:Generated_Source\PSoC5/USBFS_std.c **** uint8 USBFS_ClearEndpointHalt(void) 
1163:Generated_Source\PSoC5/USBFS_std.c **** {
 2363              		.loc 1 1163 0
 2364              		.cfi_startproc
 2365              		@ args = 0, pretend = 0, frame = 8
 2366              		@ frame_needed = 1, uses_anonymous_args = 0
 2367 0000 80B5     		push	{r7, lr}
 2368              		.cfi_def_cfa_offset 8
 2369              		.cfi_offset 7, -8
 2370              		.cfi_offset 14, -4
 2371 0002 82B0     		sub	sp, sp, #8
 2372              		.cfi_def_cfa_offset 16
 2373 0004 00AF     		add	r7, sp, #0
 2374              		.cfi_def_cfa_register 7
1164:Generated_Source\PSoC5/USBFS_std.c ****     uint8 requestHandled = USBFS_FALSE;
 2375              		.loc 1 1164 0
 2376 0006 0023     		movs	r3, #0
 2377 0008 FB71     		strb	r3, [r7, #7]
1165:Generated_Source\PSoC5/USBFS_std.c ****     uint8 ep;
1166:Generated_Source\PSoC5/USBFS_std.c **** 
1167:Generated_Source\PSoC5/USBFS_std.c ****     /* Clear endpoint halt */
1168:Generated_Source\PSoC5/USBFS_std.c ****     ep = USBFS_wIndexLoReg & USBFS_DIR_UNUSED;
 2378              		.loc 1 1168 0
 2379 000a 504B     		ldr	r3, .L167
 2380 000c 1B79     		ldrb	r3, [r3, #4]
 2381 000e DBB2     		uxtb	r3, r3
 2382 0010 03F07F03 		and	r3, r3, #127
 2383 0014 BB71     		strb	r3, [r7, #6]
1169:Generated_Source\PSoC5/USBFS_std.c **** 
1170:Generated_Source\PSoC5/USBFS_std.c ****     if ((ep > USBFS_EP0) && (ep < USBFS_MAX_EP))
 2384              		.loc 1 1170 0
 2385 0016 BB79     		ldrb	r3, [r7, #6]	@ zero_extendqisi2
 2386 0018 002B     		cmp	r3, #0
 2387 001a 00F09280 		beq	.L160
 2388              		.loc 1 1170 0 is_stmt 0 discriminator 1
ARM GAS  C:\Users\r\AppData\Local\Temp\ccDuGy4S.s 			page 65


 2389 001e BB79     		ldrb	r3, [r7, #6]	@ zero_extendqisi2
 2390 0020 082B     		cmp	r3, #8
 2391 0022 00F28E80 		bhi	.L160
1171:Generated_Source\PSoC5/USBFS_std.c ****     {
1172:Generated_Source\PSoC5/USBFS_std.c ****         /* Clear the endpoint Halt */
1173:Generated_Source\PSoC5/USBFS_std.c ****         USBFS_EP[ep].hwEpState &= (uint8) ~USBFS_ENDPOINT_STATUS_HALT;
 2392              		.loc 1 1173 0 is_stmt 1
 2393 0026 BA79     		ldrb	r2, [r7, #6]	@ zero_extendqisi2
 2394 0028 B979     		ldrb	r1, [r7, #6]	@ zero_extendqisi2
 2395 002a 4948     		ldr	r0, .L167+4
 2396 002c 0B46     		mov	r3, r1
 2397 002e 5B00     		lsls	r3, r3, #1
 2398 0030 0B44     		add	r3, r3, r1
 2399 0032 9B00     		lsls	r3, r3, #2
 2400 0034 0344     		add	r3, r3, r0
 2401 0036 0233     		adds	r3, r3, #2
 2402 0038 1B78     		ldrb	r3, [r3]
 2403 003a DBB2     		uxtb	r3, r3
 2404 003c 23F00103 		bic	r3, r3, #1
 2405 0040 D8B2     		uxtb	r0, r3
 2406 0042 4349     		ldr	r1, .L167+4
 2407 0044 1346     		mov	r3, r2
 2408 0046 5B00     		lsls	r3, r3, #1
 2409 0048 1344     		add	r3, r3, r2
 2410 004a 9B00     		lsls	r3, r3, #2
 2411 004c 0B44     		add	r3, r3, r1
 2412 004e 0233     		adds	r3, r3, #2
 2413 0050 0246     		mov	r2, r0
 2414 0052 1A70     		strb	r2, [r3]
1174:Generated_Source\PSoC5/USBFS_std.c **** 
1175:Generated_Source\PSoC5/USBFS_std.c ****         /* Clear the data toggle */
1176:Generated_Source\PSoC5/USBFS_std.c ****         USBFS_EP[ep].epToggle = 0u;
 2415              		.loc 1 1176 0
 2416 0054 BA79     		ldrb	r2, [r7, #6]	@ zero_extendqisi2
 2417 0056 3E49     		ldr	r1, .L167+4
 2418 0058 1346     		mov	r3, r2
 2419 005a 5B00     		lsls	r3, r3, #1
 2420 005c 1344     		add	r3, r3, r2
 2421 005e 9B00     		lsls	r3, r3, #2
 2422 0060 0B44     		add	r3, r3, r1
 2423 0062 0333     		adds	r3, r3, #3
 2424 0064 0022     		movs	r2, #0
 2425 0066 1A70     		strb	r2, [r3]
1177:Generated_Source\PSoC5/USBFS_std.c ****         
1178:Generated_Source\PSoC5/USBFS_std.c ****         /* Clear toggle bit for already armed packet */
1179:Generated_Source\PSoC5/USBFS_std.c ****         USBFS_SIE_EP_BASE.sieEp[ep].epCnt0 &= (uint8) ~(uint8)USBFS_EPX_CNT_DATA_TOGGLE;
 2426              		.loc 1 1179 0
 2427 0068 3A49     		ldr	r1, .L167+8
 2428 006a BB79     		ldrb	r3, [r7, #6]	@ zero_extendqisi2
 2429 006c 3948     		ldr	r0, .L167+8
 2430 006e BA79     		ldrb	r2, [r7, #6]	@ zero_extendqisi2
 2431 0070 1201     		lsls	r2, r2, #4
 2432 0072 0244     		add	r2, r2, r0
 2433 0074 1278     		ldrb	r2, [r2]
 2434 0076 D2B2     		uxtb	r2, r2
 2435 0078 02F07F02 		and	r2, r2, #127
 2436 007c D2B2     		uxtb	r2, r2
ARM GAS  C:\Users\r\AppData\Local\Temp\ccDuGy4S.s 			page 66


 2437 007e 1B01     		lsls	r3, r3, #4
 2438 0080 0B44     		add	r3, r3, r1
 2439 0082 1A70     		strb	r2, [r3]
1180:Generated_Source\PSoC5/USBFS_std.c ****         
1181:Generated_Source\PSoC5/USBFS_std.c ****         /* Return API State as it was defined before */
1182:Generated_Source\PSoC5/USBFS_std.c ****         USBFS_EP[ep].apiEpState &= (uint8) ~USBFS_NO_EVENT_ALLOWED;
 2440              		.loc 1 1182 0
 2441 0084 BA79     		ldrb	r2, [r7, #6]	@ zero_extendqisi2
 2442 0086 B979     		ldrb	r1, [r7, #6]	@ zero_extendqisi2
 2443 0088 3148     		ldr	r0, .L167+4
 2444 008a 0B46     		mov	r3, r1
 2445 008c 5B00     		lsls	r3, r3, #1
 2446 008e 0B44     		add	r3, r3, r1
 2447 0090 9B00     		lsls	r3, r3, #2
 2448 0092 0344     		add	r3, r3, r0
 2449 0094 0133     		adds	r3, r3, #1
 2450 0096 1B78     		ldrb	r3, [r3]
 2451 0098 DBB2     		uxtb	r3, r3
 2452 009a 23F00203 		bic	r3, r3, #2
 2453 009e D8B2     		uxtb	r0, r3
 2454 00a0 2B49     		ldr	r1, .L167+4
 2455 00a2 1346     		mov	r3, r2
 2456 00a4 5B00     		lsls	r3, r3, #1
 2457 00a6 1344     		add	r3, r3, r2
 2458 00a8 9B00     		lsls	r3, r3, #2
 2459 00aa 0B44     		add	r3, r3, r1
 2460 00ac 0133     		adds	r3, r3, #1
 2461 00ae 0246     		mov	r2, r0
 2462 00b0 1A70     		strb	r2, [r3]
1183:Generated_Source\PSoC5/USBFS_std.c **** 
1184:Generated_Source\PSoC5/USBFS_std.c ****         if ((USBFS_EP[ep].addr & USBFS_DIR_IN) != 0u)
 2463              		.loc 1 1184 0
 2464 00b2 BA79     		ldrb	r2, [r7, #6]	@ zero_extendqisi2
 2465 00b4 2649     		ldr	r1, .L167+4
 2466 00b6 1346     		mov	r3, r2
 2467 00b8 5B00     		lsls	r3, r3, #1
 2468 00ba 1344     		add	r3, r3, r2
 2469 00bc 9B00     		lsls	r3, r3, #2
 2470 00be 0B44     		add	r3, r3, r1
 2471 00c0 0433     		adds	r3, r3, #4
 2472 00c2 1B78     		ldrb	r3, [r3]
 2473 00c4 DBB2     		uxtb	r3, r3
 2474 00c6 5BB2     		sxtb	r3, r3
 2475 00c8 002B     		cmp	r3, #0
 2476 00ca 1BDA     		bge	.L161
1185:Generated_Source\PSoC5/USBFS_std.c ****         {
1186:Generated_Source\PSoC5/USBFS_std.c ****             /* IN Endpoint */
1187:Generated_Source\PSoC5/USBFS_std.c ****             if(USBFS_EP[ep].apiEpState == USBFS_IN_BUFFER_EMPTY)
 2477              		.loc 1 1187 0
 2478 00cc BA79     		ldrb	r2, [r7, #6]	@ zero_extendqisi2
 2479 00ce 2049     		ldr	r1, .L167+4
 2480 00d0 1346     		mov	r3, r2
 2481 00d2 5B00     		lsls	r3, r3, #1
 2482 00d4 1344     		add	r3, r3, r2
 2483 00d6 9B00     		lsls	r3, r3, #2
 2484 00d8 0B44     		add	r3, r3, r1
 2485 00da 0133     		adds	r3, r3, #1
ARM GAS  C:\Users\r\AppData\Local\Temp\ccDuGy4S.s 			page 67


 2486 00dc 1B78     		ldrb	r3, [r3]
 2487 00de DBB2     		uxtb	r3, r3
 2488 00e0 012B     		cmp	r3, #1
 2489 00e2 07D1     		bne	.L162
1188:Generated_Source\PSoC5/USBFS_std.c ****             {       
1189:Generated_Source\PSoC5/USBFS_std.c ****                 /* Wait for next packet from application */
1190:Generated_Source\PSoC5/USBFS_std.c ****                 USBFS_SIE_EP_BASE.sieEp[ep].epCr0 = USBFS_MODE_NAK_IN;
 2490              		.loc 1 1190 0
 2491 00e4 1B4A     		ldr	r2, .L167+8
 2492 00e6 BB79     		ldrb	r3, [r7, #6]	@ zero_extendqisi2
 2493 00e8 1B01     		lsls	r3, r3, #4
 2494 00ea 1344     		add	r3, r3, r2
 2495 00ec 0233     		adds	r3, r3, #2
 2496 00ee 0C22     		movs	r2, #12
 2497 00f0 1A70     		strb	r2, [r3]
 2498 00f2 22E0     		b	.L164
 2499              	.L162:
1191:Generated_Source\PSoC5/USBFS_std.c ****             }
1192:Generated_Source\PSoC5/USBFS_std.c ****             else    /* Continue armed transfer */
1193:Generated_Source\PSoC5/USBFS_std.c ****             {
1194:Generated_Source\PSoC5/USBFS_std.c ****                 USBFS_SIE_EP_BASE.sieEp[ep].epCr0 = USBFS_MODE_ACK_IN;
 2500              		.loc 1 1194 0
 2501 00f4 174A     		ldr	r2, .L167+8
 2502 00f6 BB79     		ldrb	r3, [r7, #6]	@ zero_extendqisi2
 2503 00f8 1B01     		lsls	r3, r3, #4
 2504 00fa 1344     		add	r3, r3, r2
 2505 00fc 0233     		adds	r3, r3, #2
 2506 00fe 0D22     		movs	r2, #13
 2507 0100 1A70     		strb	r2, [r3]
 2508 0102 1AE0     		b	.L164
 2509              	.L161:
1195:Generated_Source\PSoC5/USBFS_std.c ****             }
1196:Generated_Source\PSoC5/USBFS_std.c ****         }
1197:Generated_Source\PSoC5/USBFS_std.c ****         else
1198:Generated_Source\PSoC5/USBFS_std.c ****         {
1199:Generated_Source\PSoC5/USBFS_std.c ****             /* OUT Endpoint */
1200:Generated_Source\PSoC5/USBFS_std.c ****             if (USBFS_EP[ep].apiEpState == USBFS_OUT_BUFFER_FULL)
 2510              		.loc 1 1200 0
 2511 0104 BA79     		ldrb	r2, [r7, #6]	@ zero_extendqisi2
 2512 0106 1249     		ldr	r1, .L167+4
 2513 0108 1346     		mov	r3, r2
 2514 010a 5B00     		lsls	r3, r3, #1
 2515 010c 1344     		add	r3, r3, r2
 2516 010e 9B00     		lsls	r3, r3, #2
 2517 0110 0B44     		add	r3, r3, r1
 2518 0112 0133     		adds	r3, r3, #1
 2519 0114 1B78     		ldrb	r3, [r3]
 2520 0116 DBB2     		uxtb	r3, r3
 2521 0118 012B     		cmp	r3, #1
 2522 011a 07D1     		bne	.L165
1201:Generated_Source\PSoC5/USBFS_std.c ****             {       
1202:Generated_Source\PSoC5/USBFS_std.c ****                 /* Allow application to read full buffer */
1203:Generated_Source\PSoC5/USBFS_std.c ****                 USBFS_SIE_EP_BASE.sieEp[ep].epCr0 = USBFS_MODE_NAK_OUT;
 2523              		.loc 1 1203 0
 2524 011c 0D4A     		ldr	r2, .L167+8
 2525 011e BB79     		ldrb	r3, [r7, #6]	@ zero_extendqisi2
 2526 0120 1B01     		lsls	r3, r3, #4
ARM GAS  C:\Users\r\AppData\Local\Temp\ccDuGy4S.s 			page 68


 2527 0122 1344     		add	r3, r3, r2
 2528 0124 0233     		adds	r3, r3, #2
 2529 0126 0822     		movs	r2, #8
 2530 0128 1A70     		strb	r2, [r3]
 2531 012a 06E0     		b	.L164
 2532              	.L165:
1204:Generated_Source\PSoC5/USBFS_std.c ****             }
1205:Generated_Source\PSoC5/USBFS_std.c ****             else    /* Mark endpoint as empty, so it will be reloaded */
1206:Generated_Source\PSoC5/USBFS_std.c ****             {
1207:Generated_Source\PSoC5/USBFS_std.c ****                 USBFS_SIE_EP_BASE.sieEp[ep].epCr0 = USBFS_MODE_ACK_OUT;
 2533              		.loc 1 1207 0
 2534 012c 094A     		ldr	r2, .L167+8
 2535 012e BB79     		ldrb	r3, [r7, #6]	@ zero_extendqisi2
 2536 0130 1B01     		lsls	r3, r3, #4
 2537 0132 1344     		add	r3, r3, r2
 2538 0134 0233     		adds	r3, r3, #2
 2539 0136 0922     		movs	r2, #9
 2540 0138 1A70     		strb	r2, [r3]
 2541              	.L164:
1208:Generated_Source\PSoC5/USBFS_std.c ****             }
1209:Generated_Source\PSoC5/USBFS_std.c ****         }
1210:Generated_Source\PSoC5/USBFS_std.c ****         
1211:Generated_Source\PSoC5/USBFS_std.c ****         requestHandled = USBFS_InitNoDataControlTransfer();
 2542              		.loc 1 1211 0
 2543 013a FFF7FEFF 		bl	USBFS_InitNoDataControlTransfer
 2544 013e 0346     		mov	r3, r0
 2545 0140 FB71     		strb	r3, [r7, #7]
 2546              	.L160:
1212:Generated_Source\PSoC5/USBFS_std.c ****     }
1213:Generated_Source\PSoC5/USBFS_std.c **** 
1214:Generated_Source\PSoC5/USBFS_std.c ****     return(requestHandled);
 2547              		.loc 1 1214 0
 2548 0142 FB79     		ldrb	r3, [r7, #7]	@ zero_extendqisi2
1215:Generated_Source\PSoC5/USBFS_std.c **** }
 2549              		.loc 1 1215 0
 2550 0144 1846     		mov	r0, r3
 2551 0146 0837     		adds	r7, r7, #8
 2552              		.cfi_def_cfa_offset 8
 2553 0148 BD46     		mov	sp, r7
 2554              		.cfi_def_cfa_register 13
 2555              		@ sp needed
 2556 014a 80BD     		pop	{r7, pc}
 2557              	.L168:
 2558              		.align	2
 2559              	.L167:
 2560 014c 00600040 		.word	1073766400
 2561 0150 00000000 		.word	USBFS_EP
 2562 0154 FC5F0040 		.word	1073766396
 2563              		.cfi_endproc
 2564              	.LFE10:
 2565              		.size	USBFS_ClearEndpointHalt, .-USBFS_ClearEndpointHalt
 2566              		.section	.text.USBFS_ValidateAlternateSetting,"ax",%progbits
 2567              		.align	2
 2568              		.global	USBFS_ValidateAlternateSetting
 2569              		.thumb
 2570              		.thumb_func
 2571              		.type	USBFS_ValidateAlternateSetting, %function
ARM GAS  C:\Users\r\AppData\Local\Temp\ccDuGy4S.s 			page 69


 2572              	USBFS_ValidateAlternateSetting:
 2573              	.LFB11:
1216:Generated_Source\PSoC5/USBFS_std.c **** 
1217:Generated_Source\PSoC5/USBFS_std.c **** 
1218:Generated_Source\PSoC5/USBFS_std.c **** /*******************************************************************************
1219:Generated_Source\PSoC5/USBFS_std.c **** * Function Name: USBFS_ValidateAlternateSetting
1220:Generated_Source\PSoC5/USBFS_std.c **** ****************************************************************************//**
1221:Generated_Source\PSoC5/USBFS_std.c **** *
1222:Generated_Source\PSoC5/USBFS_std.c **** *  Validates (and records) a SET INTERFACE request.
1223:Generated_Source\PSoC5/USBFS_std.c **** *
1224:Generated_Source\PSoC5/USBFS_std.c **** * \return
1225:Generated_Source\PSoC5/USBFS_std.c **** *  requestHandled.
1226:Generated_Source\PSoC5/USBFS_std.c **** *
1227:Generated_Source\PSoC5/USBFS_std.c **** * \reentrant
1228:Generated_Source\PSoC5/USBFS_std.c **** *  No.
1229:Generated_Source\PSoC5/USBFS_std.c **** *
1230:Generated_Source\PSoC5/USBFS_std.c **** *******************************************************************************/
1231:Generated_Source\PSoC5/USBFS_std.c **** uint8 USBFS_ValidateAlternateSetting(void) 
1232:Generated_Source\PSoC5/USBFS_std.c **** {
 2574              		.loc 1 1232 0
 2575              		.cfi_startproc
 2576              		@ args = 0, pretend = 0, frame = 16
 2577              		@ frame_needed = 1, uses_anonymous_args = 0
 2578 0000 80B5     		push	{r7, lr}
 2579              		.cfi_def_cfa_offset 8
 2580              		.cfi_offset 7, -8
 2581              		.cfi_offset 14, -4
 2582 0002 84B0     		sub	sp, sp, #16
 2583              		.cfi_def_cfa_offset 24
 2584 0004 00AF     		add	r7, sp, #0
 2585              		.cfi_def_cfa_register 7
1233:Generated_Source\PSoC5/USBFS_std.c ****     uint8 requestHandled = USBFS_FALSE;
 2586              		.loc 1 1233 0
 2587 0006 0023     		movs	r3, #0
 2588 0008 FB73     		strb	r3, [r7, #15]
1234:Generated_Source\PSoC5/USBFS_std.c ****     
1235:Generated_Source\PSoC5/USBFS_std.c ****     uint8 interfaceNum;
1236:Generated_Source\PSoC5/USBFS_std.c ****     uint8 curInterfacesNum;
1237:Generated_Source\PSoC5/USBFS_std.c ****     const T_USBFS_LUT CYCODE *pTmp;
1238:Generated_Source\PSoC5/USBFS_std.c ****     
1239:Generated_Source\PSoC5/USBFS_std.c ****     /* Get interface number from the request. */
1240:Generated_Source\PSoC5/USBFS_std.c ****     interfaceNum = (uint8) USBFS_wIndexLoReg;
 2589              		.loc 1 1240 0
 2590 000a 154B     		ldr	r3, .L173
 2591 000c 1B79     		ldrb	r3, [r3, #4]
 2592 000e BB73     		strb	r3, [r7, #14]
1241:Generated_Source\PSoC5/USBFS_std.c ****     
1242:Generated_Source\PSoC5/USBFS_std.c ****     /* Get number of interfaces for current configuration. */
1243:Generated_Source\PSoC5/USBFS_std.c ****     pTmp = USBFS_GetConfigTablePtr(USBFS_configuration - 1u);
 2593              		.loc 1 1243 0
 2594 0010 144B     		ldr	r3, .L173+4
 2595 0012 1B78     		ldrb	r3, [r3]
 2596 0014 DBB2     		uxtb	r3, r3
 2597 0016 013B     		subs	r3, r3, #1
 2598 0018 DBB2     		uxtb	r3, r3
 2599 001a 1846     		mov	r0, r3
 2600 001c FFF7FEFF 		bl	USBFS_GetConfigTablePtr
ARM GAS  C:\Users\r\AppData\Local\Temp\ccDuGy4S.s 			page 70


 2601 0020 B860     		str	r0, [r7, #8]
1244:Generated_Source\PSoC5/USBFS_std.c ****     curInterfacesNum  = ((const uint8 *) pTmp->p_list)[USBFS_CONFIG_DESCR_NUM_INTERFACES];
 2602              		.loc 1 1244 0
 2603 0022 BB68     		ldr	r3, [r7, #8]
 2604 0024 5B68     		ldr	r3, [r3, #4]
 2605 0026 1B79     		ldrb	r3, [r3, #4]
 2606 0028 FB71     		strb	r3, [r7, #7]
1245:Generated_Source\PSoC5/USBFS_std.c **** 
1246:Generated_Source\PSoC5/USBFS_std.c ****     /* Validate that interface number is within range. */
1247:Generated_Source\PSoC5/USBFS_std.c ****     if ((interfaceNum <= curInterfacesNum) || (interfaceNum <= USBFS_MAX_INTERFACES_NUMBER))
 2607              		.loc 1 1247 0
 2608 002a BA7B     		ldrb	r2, [r7, #14]	@ zero_extendqisi2
 2609 002c FB79     		ldrb	r3, [r7, #7]	@ zero_extendqisi2
 2610 002e 9A42     		cmp	r2, r3
 2611 0030 02D9     		bls	.L170
 2612              		.loc 1 1247 0 is_stmt 0 discriminator 1
 2613 0032 BB7B     		ldrb	r3, [r7, #14]	@ zero_extendqisi2
 2614 0034 022B     		cmp	r3, #2
 2615 0036 0ED8     		bhi	.L171
 2616              	.L170:
1248:Generated_Source\PSoC5/USBFS_std.c ****     {
1249:Generated_Source\PSoC5/USBFS_std.c ****         /* Save current and new alternate settings (come with request) to make 
1250:Generated_Source\PSoC5/USBFS_std.c ****         * desicion about following endpoint re-configuration.
1251:Generated_Source\PSoC5/USBFS_std.c ****         */
1252:Generated_Source\PSoC5/USBFS_std.c ****         USBFS_interfaceSettingLast[interfaceNum] = USBFS_interfaceSetting[interfaceNum];
 2617              		.loc 1 1252 0 is_stmt 1
 2618 0038 BB7B     		ldrb	r3, [r7, #14]	@ zero_extendqisi2
 2619 003a BA7B     		ldrb	r2, [r7, #14]	@ zero_extendqisi2
 2620 003c 0A49     		ldr	r1, .L173+8
 2621 003e 8A5C     		ldrb	r2, [r1, r2]
 2622 0040 D1B2     		uxtb	r1, r2
 2623 0042 0A4A     		ldr	r2, .L173+12
 2624 0044 D154     		strb	r1, [r2, r3]
1253:Generated_Source\PSoC5/USBFS_std.c ****         USBFS_interfaceSetting[interfaceNum]     = (uint8) USBFS_wValueLoReg;
 2625              		.loc 1 1253 0
 2626 0046 BB7B     		ldrb	r3, [r7, #14]	@ zero_extendqisi2
 2627 0048 054A     		ldr	r2, .L173
 2628 004a 9278     		ldrb	r2, [r2, #2]
 2629 004c D1B2     		uxtb	r1, r2
 2630 004e 064A     		ldr	r2, .L173+8
 2631 0050 D154     		strb	r1, [r2, r3]
1254:Generated_Source\PSoC5/USBFS_std.c ****         
1255:Generated_Source\PSoC5/USBFS_std.c ****         requestHandled = USBFS_TRUE;
 2632              		.loc 1 1255 0
 2633 0052 0123     		movs	r3, #1
 2634 0054 FB73     		strb	r3, [r7, #15]
 2635              	.L171:
1256:Generated_Source\PSoC5/USBFS_std.c ****     }
1257:Generated_Source\PSoC5/USBFS_std.c **** 
1258:Generated_Source\PSoC5/USBFS_std.c ****     return (requestHandled);
 2636              		.loc 1 1258 0
 2637 0056 FB7B     		ldrb	r3, [r7, #15]	@ zero_extendqisi2
1259:Generated_Source\PSoC5/USBFS_std.c **** }
 2638              		.loc 1 1259 0
 2639 0058 1846     		mov	r0, r3
 2640 005a 1037     		adds	r7, r7, #16
 2641              		.cfi_def_cfa_offset 8
ARM GAS  C:\Users\r\AppData\Local\Temp\ccDuGy4S.s 			page 71


 2642 005c BD46     		mov	sp, r7
 2643              		.cfi_def_cfa_register 13
 2644              		@ sp needed
 2645 005e 80BD     		pop	{r7, pc}
 2646              	.L174:
 2647              		.align	2
 2648              	.L173:
 2649 0060 00600040 		.word	1073766400
 2650 0064 00000000 		.word	USBFS_configuration
 2651 0068 00000000 		.word	USBFS_interfaceSetting
 2652 006c 00000000 		.word	USBFS_interfaceSettingLast
 2653              		.cfi_endproc
 2654              	.LFE11:
 2655              		.size	USBFS_ValidateAlternateSetting, .-USBFS_ValidateAlternateSetting
 2656              		.bss
 2657              		.align	2
 2658              	USBFS_tBuffer.5206:
 2659 0000 0000     		.space	2
 2660              		.text
 2661              	.Letext0:
 2662              		.file 2 "Generated_Source\\PSoC5\\cytypes.h"
 2663              		.file 3 "Generated_Source\\PSoC5\\USBFS.h"
 2664              		.file 4 "Generated_Source\\PSoC5\\USBFS_pvt.h"
 2665              		.section	.debug_info,"",%progbits
 2666              	.Ldebug_info0:
 2667 0000 A3080000 		.4byte	0x8a3
 2668 0004 0400     		.2byte	0x4
 2669 0006 00000000 		.4byte	.Ldebug_abbrev0
 2670 000a 04       		.byte	0x4
 2671 000b 01       		.uleb128 0x1
 2672 000c 3C000000 		.4byte	.LASF107
 2673 0010 0C       		.byte	0xc
 2674 0011 B3020000 		.4byte	.LASF108
 2675 0015 EB040000 		.4byte	.LASF109
 2676 0019 00000000 		.4byte	.Ldebug_ranges0+0
 2677 001d 00000000 		.4byte	0
 2678 0021 00000000 		.4byte	.Ldebug_line0
 2679 0025 02       		.uleb128 0x2
 2680 0026 01       		.byte	0x1
 2681 0027 06       		.byte	0x6
 2682 0028 4D010000 		.4byte	.LASF0
 2683 002c 02       		.uleb128 0x2
 2684 002d 01       		.byte	0x1
 2685 002e 08       		.byte	0x8
 2686 002f B6040000 		.4byte	.LASF1
 2687 0033 02       		.uleb128 0x2
 2688 0034 02       		.byte	0x2
 2689 0035 05       		.byte	0x5
 2690 0036 D6040000 		.4byte	.LASF2
 2691 003a 02       		.uleb128 0x2
 2692 003b 02       		.byte	0x2
 2693 003c 07       		.byte	0x7
 2694 003d D6020000 		.4byte	.LASF3
 2695 0041 02       		.uleb128 0x2
 2696 0042 04       		.byte	0x4
 2697 0043 05       		.byte	0x5
 2698 0044 EA010000 		.4byte	.LASF4
ARM GAS  C:\Users\r\AppData\Local\Temp\ccDuGy4S.s 			page 72


 2699 0048 02       		.uleb128 0x2
 2700 0049 04       		.byte	0x4
 2701 004a 07       		.byte	0x7
 2702 004b 81020000 		.4byte	.LASF5
 2703 004f 02       		.uleb128 0x2
 2704 0050 08       		.byte	0x8
 2705 0051 05       		.byte	0x5
 2706 0052 3F010000 		.4byte	.LASF6
 2707 0056 02       		.uleb128 0x2
 2708 0057 08       		.byte	0x8
 2709 0058 07       		.byte	0x7
 2710 0059 D4000000 		.4byte	.LASF7
 2711 005d 03       		.uleb128 0x3
 2712 005e 04       		.byte	0x4
 2713 005f 05       		.byte	0x5
 2714 0060 696E7400 		.ascii	"int\000"
 2715 0064 02       		.uleb128 0x2
 2716 0065 04       		.byte	0x4
 2717 0066 07       		.byte	0x7
 2718 0067 74020000 		.4byte	.LASF8
 2719 006b 04       		.uleb128 0x4
 2720 006c F3010000 		.4byte	.LASF9
 2721 0070 02       		.byte	0x2
 2722 0071 E401     		.2byte	0x1e4
 2723 0073 2C000000 		.4byte	0x2c
 2724 0077 04       		.uleb128 0x4
 2725 0078 13000000 		.4byte	.LASF10
 2726 007c 02       		.byte	0x2
 2727 007d E501     		.2byte	0x1e5
 2728 007f 3A000000 		.4byte	0x3a
 2729 0083 02       		.uleb128 0x2
 2730 0084 04       		.byte	0x4
 2731 0085 04       		.byte	0x4
 2732 0086 6A040000 		.4byte	.LASF11
 2733 008a 02       		.uleb128 0x2
 2734 008b 08       		.byte	0x8
 2735 008c 04       		.byte	0x4
 2736 008d 07020000 		.4byte	.LASF12
 2737 0091 02       		.uleb128 0x2
 2738 0092 01       		.byte	0x1
 2739 0093 08       		.byte	0x8
 2740 0094 9C050000 		.4byte	.LASF13
 2741 0098 04       		.uleb128 0x4
 2742 0099 B1040000 		.4byte	.LASF14
 2743 009d 02       		.byte	0x2
 2744 009e 8E02     		.2byte	0x28e
 2745 00a0 A4000000 		.4byte	0xa4
 2746 00a4 05       		.uleb128 0x5
 2747 00a5 6B000000 		.4byte	0x6b
 2748 00a9 02       		.uleb128 0x2
 2749 00aa 08       		.byte	0x8
 2750 00ab 04       		.byte	0x4
 2751 00ac AC030000 		.4byte	.LASF15
 2752 00b0 02       		.uleb128 0x2
 2753 00b1 04       		.byte	0x4
 2754 00b2 07       		.byte	0x7
 2755 00b3 A3030000 		.4byte	.LASF16
ARM GAS  C:\Users\r\AppData\Local\Temp\ccDuGy4S.s 			page 73


 2756 00b7 06       		.uleb128 0x6
 2757 00b8 0C       		.byte	0xc
 2758 00b9 03       		.byte	0x3
 2759 00ba 9A       		.byte	0x9a
 2760 00bb 2C010000 		.4byte	0x12c
 2761 00bf 07       		.uleb128 0x7
 2762 00c0 CE030000 		.4byte	.LASF17
 2763 00c4 03       		.byte	0x3
 2764 00c5 9C       		.byte	0x9c
 2765 00c6 6B000000 		.4byte	0x6b
 2766 00ca 00       		.byte	0
 2767 00cb 07       		.uleb128 0x7
 2768 00cc 89040000 		.4byte	.LASF18
 2769 00d0 03       		.byte	0x3
 2770 00d1 9D       		.byte	0x9d
 2771 00d2 6B000000 		.4byte	0x6b
 2772 00d6 01       		.byte	0x1
 2773 00d7 07       		.uleb128 0x7
 2774 00d8 8D030000 		.4byte	.LASF19
 2775 00dc 03       		.byte	0x3
 2776 00dd 9E       		.byte	0x9e
 2777 00de 6B000000 		.4byte	0x6b
 2778 00e2 02       		.byte	0x2
 2779 00e3 07       		.uleb128 0x7
 2780 00e4 F9010000 		.4byte	.LASF20
 2781 00e8 03       		.byte	0x3
 2782 00e9 9F       		.byte	0x9f
 2783 00ea 6B000000 		.4byte	0x6b
 2784 00ee 03       		.byte	0x3
 2785 00ef 07       		.uleb128 0x7
 2786 00f0 EB000000 		.4byte	.LASF21
 2787 00f4 03       		.byte	0x3
 2788 00f5 A0       		.byte	0xa0
 2789 00f6 6B000000 		.4byte	0x6b
 2790 00fa 04       		.byte	0x4
 2791 00fb 07       		.uleb128 0x7
 2792 00fc 4F020000 		.4byte	.LASF22
 2793 0100 03       		.byte	0x3
 2794 0101 A1       		.byte	0xa1
 2795 0102 6B000000 		.4byte	0x6b
 2796 0106 05       		.byte	0x5
 2797 0107 07       		.uleb128 0x7
 2798 0108 D0050000 		.4byte	.LASF23
 2799 010c 03       		.byte	0x3
 2800 010d A2       		.byte	0xa2
 2801 010e 77000000 		.4byte	0x77
 2802 0112 06       		.byte	0x6
 2803 0113 07       		.uleb128 0x7
 2804 0114 A1050000 		.4byte	.LASF24
 2805 0118 03       		.byte	0x3
 2806 0119 A3       		.byte	0xa3
 2807 011a 77000000 		.4byte	0x77
 2808 011e 08       		.byte	0x8
 2809 011f 07       		.uleb128 0x7
 2810 0120 1A030000 		.4byte	.LASF25
 2811 0124 03       		.byte	0x3
 2812 0125 A4       		.byte	0xa4
ARM GAS  C:\Users\r\AppData\Local\Temp\ccDuGy4S.s 			page 74


 2813 0126 6B000000 		.4byte	0x6b
 2814 012a 0A       		.byte	0xa
 2815 012b 00       		.byte	0
 2816 012c 08       		.uleb128 0x8
 2817 012d 64050000 		.4byte	.LASF26
 2818 0131 03       		.byte	0x3
 2819 0132 A5       		.byte	0xa5
 2820 0133 B7000000 		.4byte	0xb7
 2821 0137 06       		.uleb128 0x6
 2822 0138 08       		.byte	0x8
 2823 0139 03       		.byte	0x3
 2824 013a A7       		.byte	0xa7
 2825 013b 88010000 		.4byte	0x188
 2826 013f 07       		.uleb128 0x7
 2827 0140 1A030000 		.4byte	.LASF25
 2828 0144 03       		.byte	0x3
 2829 0145 A9       		.byte	0xa9
 2830 0146 6B000000 		.4byte	0x6b
 2831 014a 00       		.byte	0
 2832 014b 07       		.uleb128 0x7
 2833 014c 91050000 		.4byte	.LASF27
 2834 0150 03       		.byte	0x3
 2835 0151 AA       		.byte	0xaa
 2836 0152 6B000000 		.4byte	0x6b
 2837 0156 01       		.byte	0x1
 2838 0157 07       		.uleb128 0x7
 2839 0158 EB000000 		.4byte	.LASF21
 2840 015c 03       		.byte	0x3
 2841 015d AB       		.byte	0xab
 2842 015e 6B000000 		.4byte	0x6b
 2843 0162 02       		.byte	0x2
 2844 0163 07       		.uleb128 0x7
 2845 0164 86050000 		.4byte	.LASF28
 2846 0168 03       		.byte	0x3
 2847 0169 AC       		.byte	0xac
 2848 016a 6B000000 		.4byte	0x6b
 2849 016e 03       		.byte	0x3
 2850 016f 07       		.uleb128 0x7
 2851 0170 A1050000 		.4byte	.LASF24
 2852 0174 03       		.byte	0x3
 2853 0175 AD       		.byte	0xad
 2854 0176 77000000 		.4byte	0x77
 2855 017a 04       		.byte	0x4
 2856 017b 07       		.uleb128 0x7
 2857 017c 46060000 		.4byte	.LASF29
 2858 0180 03       		.byte	0x3
 2859 0181 AE       		.byte	0xae
 2860 0182 6B000000 		.4byte	0x6b
 2861 0186 06       		.byte	0x6
 2862 0187 00       		.byte	0
 2863 0188 08       		.uleb128 0x8
 2864 0189 13020000 		.4byte	.LASF30
 2865 018d 03       		.byte	0x3
 2866 018e AF       		.byte	0xaf
 2867 018f 37010000 		.4byte	0x137
 2868 0193 06       		.uleb128 0x6
 2869 0194 04       		.byte	0x4
ARM GAS  C:\Users\r\AppData\Local\Temp\ccDuGy4S.s 			page 75


 2870 0195 03       		.byte	0x3
 2871 0196 B1       		.byte	0xb1
 2872 0197 B4010000 		.4byte	0x1b4
 2873 019b 07       		.uleb128 0x7
 2874 019c 22060000 		.4byte	.LASF31
 2875 01a0 03       		.byte	0x3
 2876 01a1 B3       		.byte	0xb3
 2877 01a2 6B000000 		.4byte	0x6b
 2878 01a6 00       		.byte	0
 2879 01a7 07       		.uleb128 0x7
 2880 01a8 16060000 		.4byte	.LASF32
 2881 01ac 03       		.byte	0x3
 2882 01ad B4       		.byte	0xb4
 2883 01ae 77000000 		.4byte	0x77
 2884 01b2 02       		.byte	0x2
 2885 01b3 00       		.byte	0
 2886 01b4 08       		.uleb128 0x8
 2887 01b5 29040000 		.4byte	.LASF33
 2888 01b9 03       		.byte	0x3
 2889 01ba B5       		.byte	0xb5
 2890 01bb 93010000 		.4byte	0x193
 2891 01bf 06       		.uleb128 0x6
 2892 01c0 0C       		.byte	0xc
 2893 01c1 03       		.byte	0x3
 2894 01c2 B7       		.byte	0xb7
 2895 01c3 EC010000 		.4byte	0x1ec
 2896 01c7 07       		.uleb128 0x7
 2897 01c8 0D000000 		.4byte	.LASF34
 2898 01cc 03       		.byte	0x3
 2899 01cd B9       		.byte	0xb9
 2900 01ce 77000000 		.4byte	0x77
 2901 01d2 00       		.byte	0
 2902 01d3 07       		.uleb128 0x7
 2903 01d4 43020000 		.4byte	.LASF35
 2904 01d8 03       		.byte	0x3
 2905 01d9 BA       		.byte	0xba
 2906 01da EC010000 		.4byte	0x1ec
 2907 01de 04       		.byte	0x4
 2908 01df 07       		.uleb128 0x7
 2909 01e0 00000000 		.4byte	.LASF36
 2910 01e4 03       		.byte	0x3
 2911 01e5 BB       		.byte	0xbb
 2912 01e6 F2010000 		.4byte	0x1f2
 2913 01ea 08       		.byte	0x8
 2914 01eb 00       		.byte	0
 2915 01ec 09       		.uleb128 0x9
 2916 01ed 04       		.byte	0x4
 2917 01ee A4000000 		.4byte	0xa4
 2918 01f2 09       		.uleb128 0x9
 2919 01f3 04       		.byte	0x4
 2920 01f4 B4010000 		.4byte	0x1b4
 2921 01f8 08       		.uleb128 0x8
 2922 01f9 E0040000 		.4byte	.LASF37
 2923 01fd 03       		.byte	0x3
 2924 01fe BC       		.byte	0xbc
 2925 01ff BF010000 		.4byte	0x1bf
 2926 0203 06       		.uleb128 0x6
ARM GAS  C:\Users\r\AppData\Local\Temp\ccDuGy4S.s 			page 76


 2927 0204 08       		.byte	0x8
 2928 0205 03       		.byte	0x3
 2929 0206 BE       		.byte	0xbe
 2930 0207 22020000 		.4byte	0x222
 2931 020b 0A       		.uleb128 0xa
 2932 020c 6300     		.ascii	"c\000"
 2933 020e 03       		.byte	0x3
 2934 020f C0       		.byte	0xc0
 2935 0210 6B000000 		.4byte	0x6b
 2936 0214 00       		.byte	0
 2937 0215 07       		.uleb128 0x7
 2938 0216 BD030000 		.4byte	.LASF38
 2939 021a 03       		.byte	0x3
 2940 021b C1       		.byte	0xc1
 2941 021c 22020000 		.4byte	0x222
 2942 0220 04       		.byte	0x4
 2943 0221 00       		.byte	0
 2944 0222 09       		.uleb128 0x9
 2945 0223 04       		.byte	0x4
 2946 0224 28020000 		.4byte	0x228
 2947 0228 0B       		.uleb128 0xb
 2948 0229 08       		.uleb128 0x8
 2949 022a A6060000 		.4byte	.LASF39
 2950 022e 03       		.byte	0x3
 2951 022f C2       		.byte	0xc2
 2952 0230 03020000 		.4byte	0x203
 2953 0234 06       		.uleb128 0x6
 2954 0235 08       		.byte	0x8
 2955 0236 03       		.byte	0x3
 2956 0237 D2       		.byte	0xd2
 2957 0238 49020000 		.4byte	0x249
 2958 023c 07       		.uleb128 0x7
 2959 023d 3F060000 		.4byte	.LASF40
 2960 0241 03       		.byte	0x3
 2961 0242 D4       		.byte	0xd4
 2962 0243 49020000 		.4byte	0x249
 2963 0247 00       		.byte	0
 2964 0248 00       		.byte	0
 2965 0249 0C       		.uleb128 0xc
 2966 024a 6B000000 		.4byte	0x6b
 2967 024e 59020000 		.4byte	0x259
 2968 0252 0D       		.uleb128 0xd
 2969 0253 B0000000 		.4byte	0xb0
 2970 0257 07       		.byte	0x7
 2971 0258 00       		.byte	0
 2972 0259 08       		.uleb128 0x8
 2973 025a F0000000 		.4byte	.LASF41
 2974 025e 03       		.byte	0x3
 2975 025f D5       		.byte	0xd5
 2976 0260 34020000 		.4byte	0x234
 2977 0264 06       		.uleb128 0x6
 2978 0265 10       		.byte	0x10
 2979 0266 03       		.byte	0x3
 2980 0267 E1       		.byte	0xe1
 2981 0268 9D020000 		.4byte	0x29d
 2982 026c 07       		.uleb128 0x7
 2983 026d 04040000 		.4byte	.LASF42
ARM GAS  C:\Users\r\AppData\Local\Temp\ccDuGy4S.s 			page 77


 2984 0271 03       		.byte	0x3
 2985 0272 E3       		.byte	0xe3
 2986 0273 6B000000 		.4byte	0x6b
 2987 0277 00       		.byte	0
 2988 0278 07       		.uleb128 0x7
 2989 0279 0B040000 		.4byte	.LASF43
 2990 027d 03       		.byte	0x3
 2991 027e E4       		.byte	0xe4
 2992 027f 6B000000 		.4byte	0x6b
 2993 0283 01       		.byte	0x1
 2994 0284 07       		.uleb128 0x7
 2995 0285 43040000 		.4byte	.LASF44
 2996 0289 03       		.byte	0x3
 2997 028a E5       		.byte	0xe5
 2998 028b 6B000000 		.4byte	0x6b
 2999 028f 02       		.byte	0x2
 3000 0290 0A       		.uleb128 0xa
 3001 0291 67617000 		.ascii	"gap\000"
 3002 0295 03       		.byte	0x3
 3003 0296 E6       		.byte	0xe6
 3004 0297 9D020000 		.4byte	0x29d
 3005 029b 03       		.byte	0x3
 3006 029c 00       		.byte	0
 3007 029d 0C       		.uleb128 0xc
 3008 029e 6B000000 		.4byte	0x6b
 3009 02a2 AD020000 		.4byte	0x2ad
 3010 02a6 0D       		.uleb128 0xd
 3011 02a7 B0000000 		.4byte	0xb0
 3012 02ab 0C       		.byte	0xc
 3013 02ac 00       		.byte	0
 3014 02ad 08       		.uleb128 0x8
 3015 02ae F0020000 		.4byte	.LASF45
 3016 02b2 03       		.byte	0x3
 3017 02b3 E7       		.byte	0xe7
 3018 02b4 64020000 		.4byte	0x264
 3019 02b8 06       		.uleb128 0x6
 3020 02b9 10       		.byte	0x10
 3021 02ba 03       		.byte	0x3
 3022 02bb F3       		.byte	0xf3
 3023 02bc 39030000 		.4byte	0x339
 3024 02c0 07       		.uleb128 0x7
 3025 02c1 06010000 		.4byte	.LASF46
 3026 02c5 03       		.byte	0x3
 3027 02c6 F5       		.byte	0xf5
 3028 02c7 6B000000 		.4byte	0x6b
 3029 02cb 00       		.byte	0
 3030 02cc 07       		.uleb128 0x7
 3031 02cd 6A060000 		.4byte	.LASF47
 3032 02d1 03       		.byte	0x3
 3033 02d2 F6       		.byte	0xf6
 3034 02d3 6B000000 		.4byte	0x6b
 3035 02d7 01       		.byte	0x1
 3036 02d8 07       		.uleb128 0x7
 3037 02d9 0E020000 		.4byte	.LASF48
 3038 02dd 03       		.byte	0x3
 3039 02de F7       		.byte	0xf7
 3040 02df 6B000000 		.4byte	0x6b
ARM GAS  C:\Users\r\AppData\Local\Temp\ccDuGy4S.s 			page 78


 3041 02e3 02       		.byte	0x2
 3042 02e4 07       		.uleb128 0x7
 3043 02e5 6B020000 		.4byte	.LASF49
 3044 02e9 03       		.byte	0x3
 3045 02ea F8       		.byte	0xf8
 3046 02eb 6B000000 		.4byte	0x6b
 3047 02ef 03       		.byte	0x3
 3048 02f0 07       		.uleb128 0x7
 3049 02f1 02020000 		.4byte	.LASF50
 3050 02f5 03       		.byte	0x3
 3051 02f6 F9       		.byte	0xf9
 3052 02f7 6B000000 		.4byte	0x6b
 3053 02fb 04       		.byte	0x4
 3054 02fc 07       		.uleb128 0x7
 3055 02fd 4C060000 		.4byte	.LASF51
 3056 0301 03       		.byte	0x3
 3057 0302 FA       		.byte	0xfa
 3058 0303 6B000000 		.4byte	0x6b
 3059 0307 05       		.byte	0x5
 3060 0308 07       		.uleb128 0x7
 3061 0309 48050000 		.4byte	.LASF52
 3062 030d 03       		.byte	0x3
 3063 030e FB       		.byte	0xfb
 3064 030f 6B000000 		.4byte	0x6b
 3065 0313 06       		.byte	0x6
 3066 0314 07       		.uleb128 0x7
 3067 0315 FC030000 		.4byte	.LASF53
 3068 0319 03       		.byte	0x3
 3069 031a FC       		.byte	0xfc
 3070 031b 6B000000 		.4byte	0x6b
 3071 031f 07       		.byte	0x7
 3072 0320 07       		.uleb128 0x7
 3073 0321 29060000 		.4byte	.LASF54
 3074 0325 03       		.byte	0x3
 3075 0326 FD       		.byte	0xfd
 3076 0327 6B000000 		.4byte	0x6b
 3077 032b 08       		.byte	0x8
 3078 032c 0A       		.uleb128 0xa
 3079 032d 67617000 		.ascii	"gap\000"
 3080 0331 03       		.byte	0x3
 3081 0332 FE       		.byte	0xfe
 3082 0333 39030000 		.4byte	0x339
 3083 0337 09       		.byte	0x9
 3084 0338 00       		.byte	0
 3085 0339 0C       		.uleb128 0xc
 3086 033a 6B000000 		.4byte	0x6b
 3087 033e 49030000 		.4byte	0x349
 3088 0342 0D       		.uleb128 0xd
 3089 0343 B0000000 		.4byte	0xb0
 3090 0347 06       		.byte	0x6
 3091 0348 00       		.byte	0
 3092 0349 08       		.uleb128 0x8
 3093 034a C6010000 		.4byte	.LASF55
 3094 034e 03       		.byte	0x3
 3095 034f FF       		.byte	0xff
 3096 0350 B8020000 		.4byte	0x2b8
 3097 0354 0E       		.uleb128 0xe
ARM GAS  C:\Users\r\AppData\Local\Temp\ccDuGy4S.s 			page 79


 3098 0355 90       		.byte	0x90
 3099 0356 03       		.byte	0x3
 3100 0357 1B01     		.2byte	0x11b
 3101 0359 6B030000 		.4byte	0x36b
 3102 035d 0F       		.uleb128 0xf
 3103 035e 49020000 		.4byte	.LASF56
 3104 0362 03       		.byte	0x3
 3105 0363 1D01     		.2byte	0x11d
 3106 0365 6B030000 		.4byte	0x36b
 3107 0369 00       		.byte	0
 3108 036a 00       		.byte	0
 3109 036b 0C       		.uleb128 0xc
 3110 036c AD020000 		.4byte	0x2ad
 3111 0370 7B030000 		.4byte	0x37b
 3112 0374 0D       		.uleb128 0xd
 3113 0375 B0000000 		.4byte	0xb0
 3114 0379 08       		.byte	0x8
 3115 037a 00       		.byte	0
 3116 037b 04       		.uleb128 0x4
 3117 037c 0C010000 		.4byte	.LASF57
 3118 0380 03       		.byte	0x3
 3119 0381 1E01     		.2byte	0x11e
 3120 0383 54030000 		.4byte	0x354
 3121 0387 0E       		.uleb128 0xe
 3122 0388 90       		.byte	0x90
 3123 0389 03       		.byte	0x3
 3124 038a 2101     		.2byte	0x121
 3125 038c 9E030000 		.4byte	0x39e
 3126 0390 0F       		.uleb128 0xf
 3127 0391 14030000 		.4byte	.LASF58
 3128 0395 03       		.byte	0x3
 3129 0396 2301     		.2byte	0x123
 3130 0398 9E030000 		.4byte	0x39e
 3131 039c 00       		.byte	0
 3132 039d 00       		.byte	0
 3133 039e 0C       		.uleb128 0xc
 3134 039f 49030000 		.4byte	0x349
 3135 03a3 AE030000 		.4byte	0x3ae
 3136 03a7 0D       		.uleb128 0xd
 3137 03a8 B0000000 		.4byte	0xb0
 3138 03ac 08       		.byte	0x8
 3139 03ad 00       		.byte	0
 3140 03ae 04       		.uleb128 0x4
 3141 03af 21010000 		.4byte	.LASF59
 3142 03b3 03       		.byte	0x3
 3143 03b4 2401     		.2byte	0x124
 3144 03b6 87030000 		.4byte	0x387
 3145 03ba 10       		.uleb128 0x10
 3146 03bb 8D060000 		.4byte	.LASF78
 3147 03bf 01       		.byte	0x1
 3148 03c0 54       		.byte	0x54
 3149 03c1 6B000000 		.4byte	0x6b
 3150 03c5 00000000 		.4byte	.LFB0
 3151 03c9 8C040000 		.4byte	.LFE0-.LFB0
 3152 03cd 01       		.uleb128 0x1
 3153 03ce 9C       		.byte	0x9c
 3154 03cf 55040000 		.4byte	0x455
ARM GAS  C:\Users\r\AppData\Local\Temp\ccDuGy4S.s 			page 80


 3155 03d3 11       		.uleb128 0x11
 3156 03d4 AC050000 		.4byte	.LASF60
 3157 03d8 01       		.byte	0x1
 3158 03d9 56       		.byte	0x56
 3159 03da 6B000000 		.4byte	0x6b
 3160 03de 02       		.uleb128 0x2
 3161 03df 91       		.byte	0x91
 3162 03e0 77       		.sleb128 -9
 3163 03e1 11       		.uleb128 0x11
 3164 03e2 F3050000 		.4byte	.LASF61
 3165 03e6 01       		.byte	0x1
 3166 03e7 57       		.byte	0x57
 3167 03e8 6B000000 		.4byte	0x6b
 3168 03ec 02       		.uleb128 0x2
 3169 03ed 91       		.byte	0x91
 3170 03ee 64       		.sleb128 -28
 3171 03ef 11       		.uleb128 0x11
 3172 03f0 94040000 		.4byte	.LASF62
 3173 03f4 01       		.byte	0x1
 3174 03f5 58       		.byte	0x58
 3175 03f6 6B000000 		.4byte	0x6b
 3176 03fa 02       		.uleb128 0x2
 3177 03fb 91       		.byte	0x91
 3178 03fc 65       		.sleb128 -27
 3179 03fd 11       		.uleb128 0x11
 3180 03fe 5D020000 		.4byte	.LASF63
 3181 0402 01       		.byte	0x1
 3182 0403 59       		.byte	0x59
 3183 0404 6B000000 		.4byte	0x6b
 3184 0408 02       		.uleb128 0x2
 3185 0409 91       		.byte	0x91
 3186 040a 67       		.sleb128 -25
 3187 040b 11       		.uleb128 0x11
 3188 040c AC040000 		.4byte	.LASF64
 3189 0410 01       		.byte	0x1
 3190 0411 5C       		.byte	0x5c
 3191 0412 EC010000 		.4byte	0x1ec
 3192 0416 02       		.uleb128 0x2
 3193 0417 91       		.byte	0x91
 3194 0418 70       		.sleb128 -16
 3195 0419 11       		.uleb128 0x11
 3196 041a 1D060000 		.4byte	.LASF65
 3197 041e 01       		.byte	0x1
 3198 041f 5E       		.byte	0x5e
 3199 0420 6B000000 		.4byte	0x6b
 3200 0424 02       		.uleb128 0x2
 3201 0425 91       		.byte	0x91
 3202 0426 6F       		.sleb128 -17
 3203 0427 11       		.uleb128 0x11
 3204 0428 97030000 		.4byte	.LASF66
 3205 042c 01       		.byte	0x1
 3206 042d 5F       		.byte	0x5f
 3207 042e 6B000000 		.4byte	0x6b
 3208 0432 02       		.uleb128 0x2
 3209 0433 91       		.byte	0x91
 3210 0434 66       		.sleb128 -26
 3211 0435 11       		.uleb128 0x11
ARM GAS  C:\Users\r\AppData\Local\Temp\ccDuGy4S.s 			page 81


 3212 0436 59010000 		.4byte	.LASF67
 3213 043a 01       		.byte	0x1
 3214 043b 63       		.byte	0x63
 3215 043c 65040000 		.4byte	0x465
 3216 0440 05       		.uleb128 0x5
 3217 0441 03       		.byte	0x3
 3218 0442 00000000 		.4byte	USBFS_tBuffer.5206
 3219 0446 11       		.uleb128 0x11
 3220 0447 B8030000 		.4byte	.LASF68
 3221 044b 01       		.byte	0x1
 3222 044c 64       		.byte	0x64
 3223 044d 6A040000 		.4byte	0x46a
 3224 0451 02       		.uleb128 0x2
 3225 0452 91       		.byte	0x91
 3226 0453 68       		.sleb128 -24
 3227 0454 00       		.byte	0
 3228 0455 0C       		.uleb128 0xc
 3229 0456 A4000000 		.4byte	0xa4
 3230 045a 65040000 		.4byte	0x465
 3231 045e 0D       		.uleb128 0xd
 3232 045f B0000000 		.4byte	0xb0
 3233 0463 01       		.byte	0x1
 3234 0464 00       		.byte	0
 3235 0465 05       		.uleb128 0x5
 3236 0466 55040000 		.4byte	0x455
 3237 046a 09       		.uleb128 0x9
 3238 046b 04       		.byte	0x4
 3239 046c 70040000 		.4byte	0x470
 3240 0470 12       		.uleb128 0x12
 3241 0471 29020000 		.4byte	0x229
 3242 0475 13       		.uleb128 0x13
 3243 0476 DA010000 		.4byte	.LASF69
 3244 047a 01       		.byte	0x1
 3245 047b B501     		.2byte	0x1b5
 3246 047d 00000000 		.4byte	.LFB1
 3247 0481 38010000 		.4byte	.LFE1-.LFB1
 3248 0485 01       		.uleb128 0x1
 3249 0486 9C       		.byte	0x9c
 3250 0487 9A040000 		.4byte	0x49a
 3251 048b 14       		.uleb128 0x14
 3252 048c 657000   		.ascii	"ep\000"
 3253 048f 01       		.byte	0x1
 3254 0490 B701     		.2byte	0x1b7
 3255 0492 6B000000 		.4byte	0x6b
 3256 0496 02       		.uleb128 0x2
 3257 0497 91       		.byte	0x91
 3258 0498 77       		.sleb128 -9
 3259 0499 00       		.byte	0
 3260 049a 13       		.uleb128 0x13
 3261 049b C4040000 		.4byte	.LASF70
 3262 049f 01       		.byte	0x1
 3263 04a0 1402     		.2byte	0x214
 3264 04a2 00000000 		.4byte	.LFB2
 3265 04a6 6C000000 		.4byte	.LFE2-.LFB2
 3266 04aa 01       		.uleb128 0x1
 3267 04ab 9C       		.byte	0x9c
 3268 04ac BE040000 		.4byte	0x4be
ARM GAS  C:\Users\r\AppData\Local\Temp\ccDuGy4S.s 			page 82


 3269 04b0 14       		.uleb128 0x14
 3270 04b1 6900     		.ascii	"i\000"
 3271 04b3 01       		.byte	0x1
 3272 04b4 1602     		.2byte	0x216
 3273 04b6 6B000000 		.4byte	0x6b
 3274 04ba 02       		.uleb128 0x2
 3275 04bb 91       		.byte	0x91
 3276 04bc 77       		.sleb128 -9
 3277 04bd 00       		.byte	0
 3278 04be 15       		.uleb128 0x15
 3279 04bf B9010000 		.4byte	.LASF71
 3280 04c3 01       		.byte	0x1
 3281 04c4 3A02     		.2byte	0x23a
 3282 04c6 00000000 		.4byte	.LFB3
 3283 04ca 20030000 		.4byte	.LFE3-.LFB3
 3284 04ce 01       		.uleb128 0x1
 3285 04cf 9C       		.byte	0x9c
 3286 04d0 59050000 		.4byte	0x559
 3287 04d4 16       		.uleb128 0x16
 3288 04d5 67010000 		.4byte	.LASF80
 3289 04d9 01       		.byte	0x1
 3290 04da 3A02     		.2byte	0x23a
 3291 04dc 6B000000 		.4byte	0x6b
 3292 04e0 02       		.uleb128 0x2
 3293 04e1 91       		.byte	0x91
 3294 04e2 5F       		.sleb128 -33
 3295 04e3 14       		.uleb128 0x14
 3296 04e4 657000   		.ascii	"ep\000"
 3297 04e7 01       		.byte	0x1
 3298 04e8 3C02     		.2byte	0x23c
 3299 04ea 6B000000 		.4byte	0x6b
 3300 04ee 02       		.uleb128 0x2
 3301 04ef 91       		.byte	0x91
 3302 04f0 77       		.sleb128 -9
 3303 04f1 17       		.uleb128 0x17
 3304 04f2 87030000 		.4byte	.LASF72
 3305 04f6 01       		.byte	0x1
 3306 04f7 3D02     		.2byte	0x23d
 3307 04f9 6B000000 		.4byte	0x6b
 3308 04fd 02       		.uleb128 0x2
 3309 04fe 91       		.byte	0x91
 3310 04ff 76       		.sleb128 -10
 3311 0500 14       		.uleb128 0x14
 3312 0501 6900     		.ascii	"i\000"
 3313 0503 01       		.byte	0x1
 3314 0504 3E02     		.2byte	0x23e
 3315 0506 6B000000 		.4byte	0x6b
 3316 050a 02       		.uleb128 0x2
 3317 050b 91       		.byte	0x91
 3318 050c 75       		.sleb128 -11
 3319 050d 17       		.uleb128 0x17
 3320 050e 56020000 		.4byte	.LASF73
 3321 0512 01       		.byte	0x1
 3322 0513 3F02     		.2byte	0x23f
 3323 0515 6B000000 		.4byte	0x6b
 3324 0519 02       		.uleb128 0x2
 3325 051a 91       		.byte	0x91
ARM GAS  C:\Users\r\AppData\Local\Temp\ccDuGy4S.s 			page 83


 3326 051b 63       		.sleb128 -29
 3327 051c 17       		.uleb128 0x17
 3328 051d E9020000 		.4byte	.LASF74
 3329 0521 01       		.byte	0x1
 3330 0522 4002     		.2byte	0x240
 3331 0524 59050000 		.4byte	0x559
 3332 0528 02       		.uleb128 0x2
 3333 0529 91       		.byte	0x91
 3334 052a 64       		.sleb128 -28
 3335 052b 17       		.uleb128 0x17
 3336 052c C4030000 		.4byte	.LASF75
 3337 0530 01       		.byte	0x1
 3338 0531 4302     		.2byte	0x243
 3339 0533 77000000 		.4byte	0x77
 3340 0537 02       		.uleb128 0x2
 3341 0538 91       		.byte	0x91
 3342 0539 72       		.sleb128 -14
 3343 053a 17       		.uleb128 0x17
 3344 053b B8030000 		.4byte	.LASF68
 3345 053f 01       		.byte	0x1
 3346 0540 4602     		.2byte	0x246
 3347 0542 6A040000 		.4byte	0x46a
 3348 0546 02       		.uleb128 0x2
 3349 0547 91       		.byte	0x91
 3350 0548 68       		.sleb128 -24
 3351 0549 14       		.uleb128 0x14
 3352 054a 70455000 		.ascii	"pEP\000"
 3353 054e 01       		.byte	0x1
 3354 054f 4702     		.2byte	0x247
 3355 0551 64050000 		.4byte	0x564
 3356 0555 02       		.uleb128 0x2
 3357 0556 91       		.byte	0x91
 3358 0557 6C       		.sleb128 -20
 3359 0558 00       		.byte	0
 3360 0559 09       		.uleb128 0x9
 3361 055a 04       		.byte	0x4
 3362 055b 5F050000 		.4byte	0x55f
 3363 055f 12       		.uleb128 0x12
 3364 0560 6B000000 		.4byte	0x6b
 3365 0564 09       		.uleb128 0x9
 3366 0565 04       		.byte	0x4
 3367 0566 6A050000 		.4byte	0x56a
 3368 056a 12       		.uleb128 0x12
 3369 056b 88010000 		.4byte	0x188
 3370 056f 15       		.uleb128 0x15
 3371 0570 12040000 		.4byte	.LASF76
 3372 0574 01       		.byte	0x1
 3373 0575 2503     		.2byte	0x325
 3374 0577 00000000 		.4byte	.LFB4
 3375 057b 5C020000 		.4byte	.LFE4-.LFB4
 3376 057f 01       		.uleb128 0x1
 3377 0580 9C       		.byte	0x9c
 3378 0581 EC050000 		.4byte	0x5ec
 3379 0585 14       		.uleb128 0x14
 3380 0586 657000   		.ascii	"ep\000"
 3381 0589 01       		.byte	0x1
 3382 058a 2703     		.2byte	0x327
ARM GAS  C:\Users\r\AppData\Local\Temp\ccDuGy4S.s 			page 84


 3383 058c 6B000000 		.4byte	0x6b
 3384 0590 02       		.uleb128 0x2
 3385 0591 91       		.byte	0x91
 3386 0592 63       		.sleb128 -29
 3387 0593 17       		.uleb128 0x17
 3388 0594 87030000 		.4byte	.LASF72
 3389 0598 01       		.byte	0x1
 3390 0599 2803     		.2byte	0x328
 3391 059b 6B000000 		.4byte	0x6b
 3392 059f 02       		.uleb128 0x2
 3393 05a0 91       		.byte	0x91
 3394 05a1 61       		.sleb128 -31
 3395 05a2 17       		.uleb128 0x17
 3396 05a3 56020000 		.4byte	.LASF73
 3397 05a7 01       		.byte	0x1
 3398 05a8 2903     		.2byte	0x329
 3399 05aa 6B000000 		.4byte	0x6b
 3400 05ae 02       		.uleb128 0x2
 3401 05af 91       		.byte	0x91
 3402 05b0 60       		.sleb128 -32
 3403 05b1 14       		.uleb128 0x14
 3404 05b2 6900     		.ascii	"i\000"
 3405 05b4 01       		.byte	0x1
 3406 05b5 2A03     		.2byte	0x32a
 3407 05b7 6B000000 		.4byte	0x6b
 3408 05bb 02       		.uleb128 0x2
 3409 05bc 91       		.byte	0x91
 3410 05bd 6F       		.sleb128 -17
 3411 05be 17       		.uleb128 0x17
 3412 05bf 49040000 		.4byte	.LASF77
 3413 05c3 01       		.byte	0x1
 3414 05c4 2B03     		.2byte	0x32b
 3415 05c6 6B000000 		.4byte	0x6b
 3416 05ca 02       		.uleb128 0x2
 3417 05cb 91       		.byte	0x91
 3418 05cc 62       		.sleb128 -30
 3419 05cd 17       		.uleb128 0x17
 3420 05ce B8030000 		.4byte	.LASF68
 3421 05d2 01       		.byte	0x1
 3422 05d3 2D03     		.2byte	0x32d
 3423 05d5 6A040000 		.4byte	0x46a
 3424 05d9 02       		.uleb128 0x2
 3425 05da 91       		.byte	0x91
 3426 05db 64       		.sleb128 -28
 3427 05dc 14       		.uleb128 0x14
 3428 05dd 70455000 		.ascii	"pEP\000"
 3429 05e1 01       		.byte	0x1
 3430 05e2 2E03     		.2byte	0x32e
 3431 05e4 64050000 		.4byte	0x564
 3432 05e8 02       		.uleb128 0x2
 3433 05e9 91       		.byte	0x91
 3434 05ea 68       		.sleb128 -24
 3435 05eb 00       		.byte	0
 3436 05ec 18       		.uleb128 0x18
 3437 05ed 30050000 		.4byte	.LASF79
 3438 05f1 01       		.byte	0x1
 3439 05f2 AE03     		.2byte	0x3ae
ARM GAS  C:\Users\r\AppData\Local\Temp\ccDuGy4S.s 			page 85


 3440 05f4 6A040000 		.4byte	0x46a
 3441 05f8 00000000 		.4byte	.LFB5
 3442 05fc 50000000 		.4byte	.LFE5-.LFB5
 3443 0600 01       		.uleb128 0x1
 3444 0601 9C       		.byte	0x9c
 3445 0602 25060000 		.4byte	0x625
 3446 0606 16       		.uleb128 0x16
 3447 0607 CA000000 		.4byte	.LASF81
 3448 060b 01       		.byte	0x1
 3449 060c AE03     		.2byte	0x3ae
 3450 060e 6B000000 		.4byte	0x6b
 3451 0612 02       		.uleb128 0x2
 3452 0613 91       		.byte	0x91
 3453 0614 6F       		.sleb128 -17
 3454 0615 17       		.uleb128 0x17
 3455 0616 B8030000 		.4byte	.LASF68
 3456 061a 01       		.byte	0x1
 3457 061b B203     		.2byte	0x3b2
 3458 061d 6A040000 		.4byte	0x46a
 3459 0621 02       		.uleb128 0x2
 3460 0622 91       		.byte	0x91
 3461 0623 74       		.sleb128 -12
 3462 0624 00       		.byte	0
 3463 0625 19       		.uleb128 0x19
 3464 0626 DB050000 		.4byte	.LASF110
 3465 062a 01       		.byte	0x1
 3466 062b F303     		.2byte	0x3f3
 3467 062d 6A040000 		.4byte	0x46a
 3468 0631 00000000 		.4byte	.LFB6
 3469 0635 24000000 		.4byte	.LFE6-.LFB6
 3470 0639 01       		.uleb128 0x1
 3471 063a 9C       		.byte	0x9c
 3472 063b 1A       		.uleb128 0x1a
 3473 063c 93020000 		.4byte	.LASF82
 3474 0640 01       		.byte	0x1
 3475 0641 0604     		.2byte	0x406
 3476 0643 59050000 		.4byte	0x559
 3477 0647 00000000 		.4byte	.LFB7
 3478 064b 4C000000 		.4byte	.LFE7-.LFB7
 3479 064f 01       		.uleb128 0x1
 3480 0650 9C       		.byte	0x9c
 3481 0651 83060000 		.4byte	0x683
 3482 0655 17       		.uleb128 0x17
 3483 0656 B8030000 		.4byte	.LASF68
 3484 065a 01       		.byte	0x1
 3485 065b 0904     		.2byte	0x409
 3486 065d 6A040000 		.4byte	0x46a
 3487 0661 02       		.uleb128 0x2
 3488 0662 91       		.byte	0x91
 3489 0663 70       		.sleb128 -16
 3490 0664 17       		.uleb128 0x17
 3491 0665 04030000 		.4byte	.LASF83
 3492 0669 01       		.byte	0x1
 3493 066a 0A04     		.2byte	0x40a
 3494 066c 59050000 		.4byte	0x559
 3495 0670 02       		.uleb128 0x2
 3496 0671 91       		.byte	0x91
ARM GAS  C:\Users\r\AppData\Local\Temp\ccDuGy4S.s 			page 86


 3497 0672 74       		.sleb128 -12
 3498 0673 17       		.uleb128 0x17
 3499 0674 BB050000 		.4byte	.LASF84
 3500 0678 01       		.byte	0x1
 3501 0679 0B04     		.2byte	0x40b
 3502 067b 6B000000 		.4byte	0x6b
 3503 067f 02       		.uleb128 0x2
 3504 0680 91       		.byte	0x91
 3505 0681 6F       		.sleb128 -17
 3506 0682 00       		.byte	0
 3507 0683 13       		.uleb128 0x13
 3508 0684 1A000000 		.4byte	.LASF85
 3509 0688 01       		.byte	0x1
 3510 0689 3004     		.2byte	0x430
 3511 068b 00000000 		.4byte	.LFB8
 3512 068f C0000000 		.4byte	.LFE8-.LFB8
 3513 0693 01       		.uleb128 0x1
 3514 0694 9C       		.byte	0x9c
 3515 0695 A9060000 		.4byte	0x6a9
 3516 0699 16       		.uleb128 0x16
 3517 069a 36010000 		.4byte	.LASF86
 3518 069e 01       		.byte	0x1
 3519 069f 3004     		.2byte	0x430
 3520 06a1 6B000000 		.4byte	0x6b
 3521 06a5 02       		.uleb128 0x2
 3522 06a6 91       		.byte	0x91
 3523 06a7 77       		.sleb128 -9
 3524 06a8 00       		.byte	0
 3525 06a9 1A       		.uleb128 0x1a
 3526 06aa 2D020000 		.4byte	.LASF87
 3527 06ae 01       		.byte	0x1
 3528 06af 5904     		.2byte	0x459
 3529 06b1 6B000000 		.4byte	0x6b
 3530 06b5 00000000 		.4byte	.LFB9
 3531 06b9 E8000000 		.4byte	.LFE9-.LFB9
 3532 06bd 01       		.uleb128 0x1
 3533 06be 9C       		.byte	0x9c
 3534 06bf E1060000 		.4byte	0x6e1
 3535 06c3 17       		.uleb128 0x17
 3536 06c4 AC050000 		.4byte	.LASF60
 3537 06c8 01       		.byte	0x1
 3538 06c9 5B04     		.2byte	0x45b
 3539 06cb 6B000000 		.4byte	0x6b
 3540 06cf 02       		.uleb128 0x2
 3541 06d0 91       		.byte	0x91
 3542 06d1 77       		.sleb128 -9
 3543 06d2 14       		.uleb128 0x14
 3544 06d3 657000   		.ascii	"ep\000"
 3545 06d6 01       		.byte	0x1
 3546 06d7 5C04     		.2byte	0x45c
 3547 06d9 6B000000 		.4byte	0x6b
 3548 06dd 02       		.uleb128 0x2
 3549 06de 91       		.byte	0x91
 3550 06df 76       		.sleb128 -10
 3551 06e0 00       		.byte	0
 3552 06e1 1A       		.uleb128 0x1a
 3553 06e2 8B010000 		.4byte	.LASF88
ARM GAS  C:\Users\r\AppData\Local\Temp\ccDuGy4S.s 			page 87


 3554 06e6 01       		.byte	0x1
 3555 06e7 8A04     		.2byte	0x48a
 3556 06e9 6B000000 		.4byte	0x6b
 3557 06ed 00000000 		.4byte	.LFB10
 3558 06f1 58010000 		.4byte	.LFE10-.LFB10
 3559 06f5 01       		.uleb128 0x1
 3560 06f6 9C       		.byte	0x9c
 3561 06f7 19070000 		.4byte	0x719
 3562 06fb 17       		.uleb128 0x17
 3563 06fc AC050000 		.4byte	.LASF60
 3564 0700 01       		.byte	0x1
 3565 0701 8C04     		.2byte	0x48c
 3566 0703 6B000000 		.4byte	0x6b
 3567 0707 02       		.uleb128 0x2
 3568 0708 91       		.byte	0x91
 3569 0709 77       		.sleb128 -9
 3570 070a 14       		.uleb128 0x14
 3571 070b 657000   		.ascii	"ep\000"
 3572 070e 01       		.byte	0x1
 3573 070f 8D04     		.2byte	0x48d
 3574 0711 6B000000 		.4byte	0x6b
 3575 0715 02       		.uleb128 0x2
 3576 0716 91       		.byte	0x91
 3577 0717 76       		.sleb128 -10
 3578 0718 00       		.byte	0
 3579 0719 1A       		.uleb128 0x1a
 3580 071a 38030000 		.4byte	.LASF89
 3581 071e 01       		.byte	0x1
 3582 071f CF04     		.2byte	0x4cf
 3583 0721 6B000000 		.4byte	0x6b
 3584 0725 00000000 		.4byte	.LFB11
 3585 0729 70000000 		.4byte	.LFE11-.LFB11
 3586 072d 01       		.uleb128 0x1
 3587 072e 9C       		.byte	0x9c
 3588 072f 70070000 		.4byte	0x770
 3589 0733 17       		.uleb128 0x17
 3590 0734 AC050000 		.4byte	.LASF60
 3591 0738 01       		.byte	0x1
 3592 0739 D104     		.2byte	0x4d1
 3593 073b 6B000000 		.4byte	0x6b
 3594 073f 02       		.uleb128 0x2
 3595 0740 91       		.byte	0x91
 3596 0741 77       		.sleb128 -9
 3597 0742 17       		.uleb128 0x17
 3598 0743 49040000 		.4byte	.LASF77
 3599 0747 01       		.byte	0x1
 3600 0748 D304     		.2byte	0x4d3
 3601 074a 6B000000 		.4byte	0x6b
 3602 074e 02       		.uleb128 0x2
 3603 074f 91       		.byte	0x91
 3604 0750 76       		.sleb128 -10
 3605 0751 17       		.uleb128 0x17
 3606 0752 2E060000 		.4byte	.LASF90
 3607 0756 01       		.byte	0x1
 3608 0757 D404     		.2byte	0x4d4
 3609 0759 6B000000 		.4byte	0x6b
 3610 075d 02       		.uleb128 0x2
ARM GAS  C:\Users\r\AppData\Local\Temp\ccDuGy4S.s 			page 88


 3611 075e 91       		.byte	0x91
 3612 075f 6F       		.sleb128 -17
 3613 0760 17       		.uleb128 0x17
 3614 0761 B8030000 		.4byte	.LASF68
 3615 0765 01       		.byte	0x1
 3616 0766 D504     		.2byte	0x4d5
 3617 0768 6A040000 		.4byte	0x46a
 3618 076c 02       		.uleb128 0x2
 3619 076d 91       		.byte	0x91
 3620 076e 70       		.sleb128 -16
 3621 076f 00       		.byte	0
 3622 0770 1B       		.uleb128 0x1b
 3623 0771 79050000 		.4byte	.LASF91
 3624 0775 03       		.byte	0x3
 3625 0776 DF02     		.2byte	0x2df
 3626 0778 A4000000 		.4byte	0xa4
 3627 077c 1B       		.uleb128 0x1b
 3628 077d 24030000 		.4byte	.LASF92
 3629 0781 03       		.byte	0x3
 3630 0782 E102     		.2byte	0x2e1
 3631 0784 A4000000 		.4byte	0xa4
 3632 0788 1B       		.uleb128 0x1b
 3633 0789 57030000 		.4byte	.LASF93
 3634 078d 03       		.byte	0x3
 3635 078e E202     		.2byte	0x2e2
 3636 0790 A4000000 		.4byte	0xa4
 3637 0794 1B       		.uleb128 0x1b
 3638 0795 03060000 		.4byte	.LASF94
 3639 0799 03       		.byte	0x3
 3640 079a E302     		.2byte	0x2e3
 3641 079c A4000000 		.4byte	0xa4
 3642 07a0 0C       		.uleb128 0xc
 3643 07a1 5F050000 		.4byte	0x55f
 3644 07a5 B0070000 		.4byte	0x7b0
 3645 07a9 0D       		.uleb128 0xd
 3646 07aa B0000000 		.4byte	0xb0
 3647 07ae 11       		.byte	0x11
 3648 07af 00       		.byte	0
 3649 07b0 1C       		.uleb128 0x1c
 3650 07b1 56040000 		.4byte	.LASF95
 3651 07b5 04       		.byte	0x4
 3652 07b6 61       		.byte	0x61
 3653 07b7 BB070000 		.4byte	0x7bb
 3654 07bb 12       		.uleb128 0x12
 3655 07bc A0070000 		.4byte	0x7a0
 3656 07c0 0C       		.uleb128 0xc
 3657 07c1 70040000 		.4byte	0x470
 3658 07c5 D0070000 		.4byte	0x7d0
 3659 07c9 0D       		.uleb128 0xd
 3660 07ca B0000000 		.4byte	0xb0
 3661 07ce 00       		.byte	0
 3662 07cf 00       		.byte	0
 3663 07d0 1C       		.uleb128 0x1c
 3664 07d1 D5030000 		.4byte	.LASF96
 3665 07d5 04       		.byte	0x4
 3666 07d6 69       		.byte	0x69
 3667 07d7 DB070000 		.4byte	0x7db
ARM GAS  C:\Users\r\AppData\Local\Temp\ccDuGy4S.s 			page 89


 3668 07db 12       		.uleb128 0x12
 3669 07dc C0070000 		.4byte	0x7c0
 3670 07e0 0C       		.uleb128 0xc
 3671 07e1 5F050000 		.4byte	0x55f
 3672 07e5 F0070000 		.4byte	0x7f0
 3673 07e9 0D       		.uleb128 0xd
 3674 07ea B0000000 		.4byte	0xb0
 3675 07ee 09       		.byte	0x9
 3676 07ef 00       		.byte	0
 3677 07f0 1C       		.uleb128 0x1c
 3678 07f1 E1030000 		.4byte	.LASF97
 3679 07f5 04       		.byte	0x4
 3680 07f6 6A       		.byte	0x6a
 3681 07f7 FB070000 		.4byte	0x7fb
 3682 07fb 12       		.uleb128 0x12
 3683 07fc E0070000 		.4byte	0x7e0
 3684 0800 0C       		.uleb128 0xc
 3685 0801 5F050000 		.4byte	0x55f
 3686 0805 10080000 		.4byte	0x810
 3687 0809 0D       		.uleb128 0xd
 3688 080a B0000000 		.4byte	0xb0
 3689 080e 2C       		.byte	0x2c
 3690 080f 00       		.byte	0
 3691 0810 1C       		.uleb128 0x1c
 3692 0811 70040000 		.4byte	.LASF98
 3693 0815 04       		.byte	0x4
 3694 0816 6B       		.byte	0x6b
 3695 0817 1B080000 		.4byte	0x81b
 3696 081b 12       		.uleb128 0x12
 3697 081c 00080000 		.4byte	0x800
 3698 0820 1C       		.uleb128 0x1c
 3699 0821 A3010000 		.4byte	.LASF99
 3700 0825 04       		.byte	0x4
 3701 0826 88       		.byte	0x88
 3702 0827 A4000000 		.4byte	0xa4
 3703 082b 1C       		.uleb128 0x1c
 3704 082c 4D050000 		.4byte	.LASF100
 3705 0830 04       		.byte	0x4
 3706 0831 89       		.byte	0x89
 3707 0832 36080000 		.4byte	0x836
 3708 0836 05       		.uleb128 0x5
 3709 0837 55040000 		.4byte	0x455
 3710 083b 1C       		.uleb128 0x1c
 3711 083c 72060000 		.4byte	.LASF101
 3712 0840 04       		.byte	0x4
 3713 0841 8A       		.byte	0x8a
 3714 0842 46080000 		.4byte	0x846
 3715 0846 05       		.uleb128 0x5
 3716 0847 55040000 		.4byte	0x455
 3717 084b 1C       		.uleb128 0x1c
 3718 084c 77010000 		.4byte	.LASF102
 3719 0850 04       		.byte	0x4
 3720 0851 8B       		.byte	0x8b
 3721 0852 A4000000 		.4byte	0xa4
 3722 0856 1C       		.uleb128 0x1c
 3723 0857 54060000 		.4byte	.LASF103
 3724 085b 04       		.byte	0x4
ARM GAS  C:\Users\r\AppData\Local\Temp\ccDuGy4S.s 			page 90


 3725 085c 8C       		.byte	0x8c
 3726 085d 61080000 		.4byte	0x861
 3727 0861 05       		.uleb128 0x5
 3728 0862 55040000 		.4byte	0x455
 3729 0866 1C       		.uleb128 0x1c
 3730 0867 72030000 		.4byte	.LASF104
 3731 086b 04       		.byte	0x4
 3732 086c 8D       		.byte	0x8d
 3733 086d 59050000 		.4byte	0x559
 3734 0871 0C       		.uleb128 0xc
 3735 0872 81080000 		.4byte	0x881
 3736 0876 81080000 		.4byte	0x881
 3737 087a 0D       		.uleb128 0xd
 3738 087b B0000000 		.4byte	0xb0
 3739 087f 08       		.byte	0x8
 3740 0880 00       		.byte	0
 3741 0881 05       		.uleb128 0x5
 3742 0882 2C010000 		.4byte	0x12c
 3743 0886 1C       		.uleb128 0x1c
 3744 0887 A3040000 		.4byte	.LASF105
 3745 088b 04       		.byte	0x4
 3746 088c 8F       		.byte	0x8f
 3747 088d 91080000 		.4byte	0x891
 3748 0891 05       		.uleb128 0x5
 3749 0892 71080000 		.4byte	0x871
 3750 0896 1C       		.uleb128 0x1c
 3751 0897 2C000000 		.4byte	.LASF106
 3752 089b 04       		.byte	0x4
 3753 089c 90       		.byte	0x90
 3754 089d A1080000 		.4byte	0x8a1
 3755 08a1 05       		.uleb128 0x5
 3756 08a2 F8010000 		.4byte	0x1f8
 3757 08a6 00       		.byte	0
 3758              		.section	.debug_abbrev,"",%progbits
 3759              	.Ldebug_abbrev0:
 3760 0000 01       		.uleb128 0x1
 3761 0001 11       		.uleb128 0x11
 3762 0002 01       		.byte	0x1
 3763 0003 25       		.uleb128 0x25
 3764 0004 0E       		.uleb128 0xe
 3765 0005 13       		.uleb128 0x13
 3766 0006 0B       		.uleb128 0xb
 3767 0007 03       		.uleb128 0x3
 3768 0008 0E       		.uleb128 0xe
 3769 0009 1B       		.uleb128 0x1b
 3770 000a 0E       		.uleb128 0xe
 3771 000b 55       		.uleb128 0x55
 3772 000c 17       		.uleb128 0x17
 3773 000d 11       		.uleb128 0x11
 3774 000e 01       		.uleb128 0x1
 3775 000f 10       		.uleb128 0x10
 3776 0010 17       		.uleb128 0x17
 3777 0011 00       		.byte	0
 3778 0012 00       		.byte	0
 3779 0013 02       		.uleb128 0x2
 3780 0014 24       		.uleb128 0x24
 3781 0015 00       		.byte	0
ARM GAS  C:\Users\r\AppData\Local\Temp\ccDuGy4S.s 			page 91


 3782 0016 0B       		.uleb128 0xb
 3783 0017 0B       		.uleb128 0xb
 3784 0018 3E       		.uleb128 0x3e
 3785 0019 0B       		.uleb128 0xb
 3786 001a 03       		.uleb128 0x3
 3787 001b 0E       		.uleb128 0xe
 3788 001c 00       		.byte	0
 3789 001d 00       		.byte	0
 3790 001e 03       		.uleb128 0x3
 3791 001f 24       		.uleb128 0x24
 3792 0020 00       		.byte	0
 3793 0021 0B       		.uleb128 0xb
 3794 0022 0B       		.uleb128 0xb
 3795 0023 3E       		.uleb128 0x3e
 3796 0024 0B       		.uleb128 0xb
 3797 0025 03       		.uleb128 0x3
 3798 0026 08       		.uleb128 0x8
 3799 0027 00       		.byte	0
 3800 0028 00       		.byte	0
 3801 0029 04       		.uleb128 0x4
 3802 002a 16       		.uleb128 0x16
 3803 002b 00       		.byte	0
 3804 002c 03       		.uleb128 0x3
 3805 002d 0E       		.uleb128 0xe
 3806 002e 3A       		.uleb128 0x3a
 3807 002f 0B       		.uleb128 0xb
 3808 0030 3B       		.uleb128 0x3b
 3809 0031 05       		.uleb128 0x5
 3810 0032 49       		.uleb128 0x49
 3811 0033 13       		.uleb128 0x13
 3812 0034 00       		.byte	0
 3813 0035 00       		.byte	0
 3814 0036 05       		.uleb128 0x5
 3815 0037 35       		.uleb128 0x35
 3816 0038 00       		.byte	0
 3817 0039 49       		.uleb128 0x49
 3818 003a 13       		.uleb128 0x13
 3819 003b 00       		.byte	0
 3820 003c 00       		.byte	0
 3821 003d 06       		.uleb128 0x6
 3822 003e 13       		.uleb128 0x13
 3823 003f 01       		.byte	0x1
 3824 0040 0B       		.uleb128 0xb
 3825 0041 0B       		.uleb128 0xb
 3826 0042 3A       		.uleb128 0x3a
 3827 0043 0B       		.uleb128 0xb
 3828 0044 3B       		.uleb128 0x3b
 3829 0045 0B       		.uleb128 0xb
 3830 0046 01       		.uleb128 0x1
 3831 0047 13       		.uleb128 0x13
 3832 0048 00       		.byte	0
 3833 0049 00       		.byte	0
 3834 004a 07       		.uleb128 0x7
 3835 004b 0D       		.uleb128 0xd
 3836 004c 00       		.byte	0
 3837 004d 03       		.uleb128 0x3
 3838 004e 0E       		.uleb128 0xe
ARM GAS  C:\Users\r\AppData\Local\Temp\ccDuGy4S.s 			page 92


 3839 004f 3A       		.uleb128 0x3a
 3840 0050 0B       		.uleb128 0xb
 3841 0051 3B       		.uleb128 0x3b
 3842 0052 0B       		.uleb128 0xb
 3843 0053 49       		.uleb128 0x49
 3844 0054 13       		.uleb128 0x13
 3845 0055 38       		.uleb128 0x38
 3846 0056 0B       		.uleb128 0xb
 3847 0057 00       		.byte	0
 3848 0058 00       		.byte	0
 3849 0059 08       		.uleb128 0x8
 3850 005a 16       		.uleb128 0x16
 3851 005b 00       		.byte	0
 3852 005c 03       		.uleb128 0x3
 3853 005d 0E       		.uleb128 0xe
 3854 005e 3A       		.uleb128 0x3a
 3855 005f 0B       		.uleb128 0xb
 3856 0060 3B       		.uleb128 0x3b
 3857 0061 0B       		.uleb128 0xb
 3858 0062 49       		.uleb128 0x49
 3859 0063 13       		.uleb128 0x13
 3860 0064 00       		.byte	0
 3861 0065 00       		.byte	0
 3862 0066 09       		.uleb128 0x9
 3863 0067 0F       		.uleb128 0xf
 3864 0068 00       		.byte	0
 3865 0069 0B       		.uleb128 0xb
 3866 006a 0B       		.uleb128 0xb
 3867 006b 49       		.uleb128 0x49
 3868 006c 13       		.uleb128 0x13
 3869 006d 00       		.byte	0
 3870 006e 00       		.byte	0
 3871 006f 0A       		.uleb128 0xa
 3872 0070 0D       		.uleb128 0xd
 3873 0071 00       		.byte	0
 3874 0072 03       		.uleb128 0x3
 3875 0073 08       		.uleb128 0x8
 3876 0074 3A       		.uleb128 0x3a
 3877 0075 0B       		.uleb128 0xb
 3878 0076 3B       		.uleb128 0x3b
 3879 0077 0B       		.uleb128 0xb
 3880 0078 49       		.uleb128 0x49
 3881 0079 13       		.uleb128 0x13
 3882 007a 38       		.uleb128 0x38
 3883 007b 0B       		.uleb128 0xb
 3884 007c 00       		.byte	0
 3885 007d 00       		.byte	0
 3886 007e 0B       		.uleb128 0xb
 3887 007f 26       		.uleb128 0x26
 3888 0080 00       		.byte	0
 3889 0081 00       		.byte	0
 3890 0082 00       		.byte	0
 3891 0083 0C       		.uleb128 0xc
 3892 0084 01       		.uleb128 0x1
 3893 0085 01       		.byte	0x1
 3894 0086 49       		.uleb128 0x49
 3895 0087 13       		.uleb128 0x13
ARM GAS  C:\Users\r\AppData\Local\Temp\ccDuGy4S.s 			page 93


 3896 0088 01       		.uleb128 0x1
 3897 0089 13       		.uleb128 0x13
 3898 008a 00       		.byte	0
 3899 008b 00       		.byte	0
 3900 008c 0D       		.uleb128 0xd
 3901 008d 21       		.uleb128 0x21
 3902 008e 00       		.byte	0
 3903 008f 49       		.uleb128 0x49
 3904 0090 13       		.uleb128 0x13
 3905 0091 2F       		.uleb128 0x2f
 3906 0092 0B       		.uleb128 0xb
 3907 0093 00       		.byte	0
 3908 0094 00       		.byte	0
 3909 0095 0E       		.uleb128 0xe
 3910 0096 13       		.uleb128 0x13
 3911 0097 01       		.byte	0x1
 3912 0098 0B       		.uleb128 0xb
 3913 0099 0B       		.uleb128 0xb
 3914 009a 3A       		.uleb128 0x3a
 3915 009b 0B       		.uleb128 0xb
 3916 009c 3B       		.uleb128 0x3b
 3917 009d 05       		.uleb128 0x5
 3918 009e 01       		.uleb128 0x1
 3919 009f 13       		.uleb128 0x13
 3920 00a0 00       		.byte	0
 3921 00a1 00       		.byte	0
 3922 00a2 0F       		.uleb128 0xf
 3923 00a3 0D       		.uleb128 0xd
 3924 00a4 00       		.byte	0
 3925 00a5 03       		.uleb128 0x3
 3926 00a6 0E       		.uleb128 0xe
 3927 00a7 3A       		.uleb128 0x3a
 3928 00a8 0B       		.uleb128 0xb
 3929 00a9 3B       		.uleb128 0x3b
 3930 00aa 05       		.uleb128 0x5
 3931 00ab 49       		.uleb128 0x49
 3932 00ac 13       		.uleb128 0x13
 3933 00ad 38       		.uleb128 0x38
 3934 00ae 0B       		.uleb128 0xb
 3935 00af 00       		.byte	0
 3936 00b0 00       		.byte	0
 3937 00b1 10       		.uleb128 0x10
 3938 00b2 2E       		.uleb128 0x2e
 3939 00b3 01       		.byte	0x1
 3940 00b4 3F       		.uleb128 0x3f
 3941 00b5 19       		.uleb128 0x19
 3942 00b6 03       		.uleb128 0x3
 3943 00b7 0E       		.uleb128 0xe
 3944 00b8 3A       		.uleb128 0x3a
 3945 00b9 0B       		.uleb128 0xb
 3946 00ba 3B       		.uleb128 0x3b
 3947 00bb 0B       		.uleb128 0xb
 3948 00bc 27       		.uleb128 0x27
 3949 00bd 19       		.uleb128 0x19
 3950 00be 49       		.uleb128 0x49
 3951 00bf 13       		.uleb128 0x13
 3952 00c0 11       		.uleb128 0x11
ARM GAS  C:\Users\r\AppData\Local\Temp\ccDuGy4S.s 			page 94


 3953 00c1 01       		.uleb128 0x1
 3954 00c2 12       		.uleb128 0x12
 3955 00c3 06       		.uleb128 0x6
 3956 00c4 40       		.uleb128 0x40
 3957 00c5 18       		.uleb128 0x18
 3958 00c6 9642     		.uleb128 0x2116
 3959 00c8 19       		.uleb128 0x19
 3960 00c9 01       		.uleb128 0x1
 3961 00ca 13       		.uleb128 0x13
 3962 00cb 00       		.byte	0
 3963 00cc 00       		.byte	0
 3964 00cd 11       		.uleb128 0x11
 3965 00ce 34       		.uleb128 0x34
 3966 00cf 00       		.byte	0
 3967 00d0 03       		.uleb128 0x3
 3968 00d1 0E       		.uleb128 0xe
 3969 00d2 3A       		.uleb128 0x3a
 3970 00d3 0B       		.uleb128 0xb
 3971 00d4 3B       		.uleb128 0x3b
 3972 00d5 0B       		.uleb128 0xb
 3973 00d6 49       		.uleb128 0x49
 3974 00d7 13       		.uleb128 0x13
 3975 00d8 02       		.uleb128 0x2
 3976 00d9 18       		.uleb128 0x18
 3977 00da 00       		.byte	0
 3978 00db 00       		.byte	0
 3979 00dc 12       		.uleb128 0x12
 3980 00dd 26       		.uleb128 0x26
 3981 00de 00       		.byte	0
 3982 00df 49       		.uleb128 0x49
 3983 00e0 13       		.uleb128 0x13
 3984 00e1 00       		.byte	0
 3985 00e2 00       		.byte	0
 3986 00e3 13       		.uleb128 0x13
 3987 00e4 2E       		.uleb128 0x2e
 3988 00e5 01       		.byte	0x1
 3989 00e6 3F       		.uleb128 0x3f
 3990 00e7 19       		.uleb128 0x19
 3991 00e8 03       		.uleb128 0x3
 3992 00e9 0E       		.uleb128 0xe
 3993 00ea 3A       		.uleb128 0x3a
 3994 00eb 0B       		.uleb128 0xb
 3995 00ec 3B       		.uleb128 0x3b
 3996 00ed 05       		.uleb128 0x5
 3997 00ee 27       		.uleb128 0x27
 3998 00ef 19       		.uleb128 0x19
 3999 00f0 11       		.uleb128 0x11
 4000 00f1 01       		.uleb128 0x1
 4001 00f2 12       		.uleb128 0x12
 4002 00f3 06       		.uleb128 0x6
 4003 00f4 40       		.uleb128 0x40
 4004 00f5 18       		.uleb128 0x18
 4005 00f6 9742     		.uleb128 0x2117
 4006 00f8 19       		.uleb128 0x19
 4007 00f9 01       		.uleb128 0x1
 4008 00fa 13       		.uleb128 0x13
 4009 00fb 00       		.byte	0
ARM GAS  C:\Users\r\AppData\Local\Temp\ccDuGy4S.s 			page 95


 4010 00fc 00       		.byte	0
 4011 00fd 14       		.uleb128 0x14
 4012 00fe 34       		.uleb128 0x34
 4013 00ff 00       		.byte	0
 4014 0100 03       		.uleb128 0x3
 4015 0101 08       		.uleb128 0x8
 4016 0102 3A       		.uleb128 0x3a
 4017 0103 0B       		.uleb128 0xb
 4018 0104 3B       		.uleb128 0x3b
 4019 0105 05       		.uleb128 0x5
 4020 0106 49       		.uleb128 0x49
 4021 0107 13       		.uleb128 0x13
 4022 0108 02       		.uleb128 0x2
 4023 0109 18       		.uleb128 0x18
 4024 010a 00       		.byte	0
 4025 010b 00       		.byte	0
 4026 010c 15       		.uleb128 0x15
 4027 010d 2E       		.uleb128 0x2e
 4028 010e 01       		.byte	0x1
 4029 010f 3F       		.uleb128 0x3f
 4030 0110 19       		.uleb128 0x19
 4031 0111 03       		.uleb128 0x3
 4032 0112 0E       		.uleb128 0xe
 4033 0113 3A       		.uleb128 0x3a
 4034 0114 0B       		.uleb128 0xb
 4035 0115 3B       		.uleb128 0x3b
 4036 0116 05       		.uleb128 0x5
 4037 0117 27       		.uleb128 0x27
 4038 0118 19       		.uleb128 0x19
 4039 0119 11       		.uleb128 0x11
 4040 011a 01       		.uleb128 0x1
 4041 011b 12       		.uleb128 0x12
 4042 011c 06       		.uleb128 0x6
 4043 011d 40       		.uleb128 0x40
 4044 011e 18       		.uleb128 0x18
 4045 011f 9642     		.uleb128 0x2116
 4046 0121 19       		.uleb128 0x19
 4047 0122 01       		.uleb128 0x1
 4048 0123 13       		.uleb128 0x13
 4049 0124 00       		.byte	0
 4050 0125 00       		.byte	0
 4051 0126 16       		.uleb128 0x16
 4052 0127 05       		.uleb128 0x5
 4053 0128 00       		.byte	0
 4054 0129 03       		.uleb128 0x3
 4055 012a 0E       		.uleb128 0xe
 4056 012b 3A       		.uleb128 0x3a
 4057 012c 0B       		.uleb128 0xb
 4058 012d 3B       		.uleb128 0x3b
 4059 012e 05       		.uleb128 0x5
 4060 012f 49       		.uleb128 0x49
 4061 0130 13       		.uleb128 0x13
 4062 0131 02       		.uleb128 0x2
 4063 0132 18       		.uleb128 0x18
 4064 0133 00       		.byte	0
 4065 0134 00       		.byte	0
 4066 0135 17       		.uleb128 0x17
ARM GAS  C:\Users\r\AppData\Local\Temp\ccDuGy4S.s 			page 96


 4067 0136 34       		.uleb128 0x34
 4068 0137 00       		.byte	0
 4069 0138 03       		.uleb128 0x3
 4070 0139 0E       		.uleb128 0xe
 4071 013a 3A       		.uleb128 0x3a
 4072 013b 0B       		.uleb128 0xb
 4073 013c 3B       		.uleb128 0x3b
 4074 013d 05       		.uleb128 0x5
 4075 013e 49       		.uleb128 0x49
 4076 013f 13       		.uleb128 0x13
 4077 0140 02       		.uleb128 0x2
 4078 0141 18       		.uleb128 0x18
 4079 0142 00       		.byte	0
 4080 0143 00       		.byte	0
 4081 0144 18       		.uleb128 0x18
 4082 0145 2E       		.uleb128 0x2e
 4083 0146 01       		.byte	0x1
 4084 0147 3F       		.uleb128 0x3f
 4085 0148 19       		.uleb128 0x19
 4086 0149 03       		.uleb128 0x3
 4087 014a 0E       		.uleb128 0xe
 4088 014b 3A       		.uleb128 0x3a
 4089 014c 0B       		.uleb128 0xb
 4090 014d 3B       		.uleb128 0x3b
 4091 014e 05       		.uleb128 0x5
 4092 014f 27       		.uleb128 0x27
 4093 0150 19       		.uleb128 0x19
 4094 0151 49       		.uleb128 0x49
 4095 0152 13       		.uleb128 0x13
 4096 0153 11       		.uleb128 0x11
 4097 0154 01       		.uleb128 0x1
 4098 0155 12       		.uleb128 0x12
 4099 0156 06       		.uleb128 0x6
 4100 0157 40       		.uleb128 0x40
 4101 0158 18       		.uleb128 0x18
 4102 0159 9742     		.uleb128 0x2117
 4103 015b 19       		.uleb128 0x19
 4104 015c 01       		.uleb128 0x1
 4105 015d 13       		.uleb128 0x13
 4106 015e 00       		.byte	0
 4107 015f 00       		.byte	0
 4108 0160 19       		.uleb128 0x19
 4109 0161 2E       		.uleb128 0x2e
 4110 0162 00       		.byte	0
 4111 0163 3F       		.uleb128 0x3f
 4112 0164 19       		.uleb128 0x19
 4113 0165 03       		.uleb128 0x3
 4114 0166 0E       		.uleb128 0xe
 4115 0167 3A       		.uleb128 0x3a
 4116 0168 0B       		.uleb128 0xb
 4117 0169 3B       		.uleb128 0x3b
 4118 016a 05       		.uleb128 0x5
 4119 016b 27       		.uleb128 0x27
 4120 016c 19       		.uleb128 0x19
 4121 016d 49       		.uleb128 0x49
 4122 016e 13       		.uleb128 0x13
 4123 016f 11       		.uleb128 0x11
ARM GAS  C:\Users\r\AppData\Local\Temp\ccDuGy4S.s 			page 97


 4124 0170 01       		.uleb128 0x1
 4125 0171 12       		.uleb128 0x12
 4126 0172 06       		.uleb128 0x6
 4127 0173 40       		.uleb128 0x40
 4128 0174 18       		.uleb128 0x18
 4129 0175 9742     		.uleb128 0x2117
 4130 0177 19       		.uleb128 0x19
 4131 0178 00       		.byte	0
 4132 0179 00       		.byte	0
 4133 017a 1A       		.uleb128 0x1a
 4134 017b 2E       		.uleb128 0x2e
 4135 017c 01       		.byte	0x1
 4136 017d 3F       		.uleb128 0x3f
 4137 017e 19       		.uleb128 0x19
 4138 017f 03       		.uleb128 0x3
 4139 0180 0E       		.uleb128 0xe
 4140 0181 3A       		.uleb128 0x3a
 4141 0182 0B       		.uleb128 0xb
 4142 0183 3B       		.uleb128 0x3b
 4143 0184 05       		.uleb128 0x5
 4144 0185 27       		.uleb128 0x27
 4145 0186 19       		.uleb128 0x19
 4146 0187 49       		.uleb128 0x49
 4147 0188 13       		.uleb128 0x13
 4148 0189 11       		.uleb128 0x11
 4149 018a 01       		.uleb128 0x1
 4150 018b 12       		.uleb128 0x12
 4151 018c 06       		.uleb128 0x6
 4152 018d 40       		.uleb128 0x40
 4153 018e 18       		.uleb128 0x18
 4154 018f 9642     		.uleb128 0x2116
 4155 0191 19       		.uleb128 0x19
 4156 0192 01       		.uleb128 0x1
 4157 0193 13       		.uleb128 0x13
 4158 0194 00       		.byte	0
 4159 0195 00       		.byte	0
 4160 0196 1B       		.uleb128 0x1b
 4161 0197 34       		.uleb128 0x34
 4162 0198 00       		.byte	0
 4163 0199 03       		.uleb128 0x3
 4164 019a 0E       		.uleb128 0xe
 4165 019b 3A       		.uleb128 0x3a
 4166 019c 0B       		.uleb128 0xb
 4167 019d 3B       		.uleb128 0x3b
 4168 019e 05       		.uleb128 0x5
 4169 019f 49       		.uleb128 0x49
 4170 01a0 13       		.uleb128 0x13
 4171 01a1 3F       		.uleb128 0x3f
 4172 01a2 19       		.uleb128 0x19
 4173 01a3 3C       		.uleb128 0x3c
 4174 01a4 19       		.uleb128 0x19
 4175 01a5 00       		.byte	0
 4176 01a6 00       		.byte	0
 4177 01a7 1C       		.uleb128 0x1c
 4178 01a8 34       		.uleb128 0x34
 4179 01a9 00       		.byte	0
 4180 01aa 03       		.uleb128 0x3
ARM GAS  C:\Users\r\AppData\Local\Temp\ccDuGy4S.s 			page 98


 4181 01ab 0E       		.uleb128 0xe
 4182 01ac 3A       		.uleb128 0x3a
 4183 01ad 0B       		.uleb128 0xb
 4184 01ae 3B       		.uleb128 0x3b
 4185 01af 0B       		.uleb128 0xb
 4186 01b0 49       		.uleb128 0x49
 4187 01b1 13       		.uleb128 0x13
 4188 01b2 3F       		.uleb128 0x3f
 4189 01b3 19       		.uleb128 0x19
 4190 01b4 3C       		.uleb128 0x3c
 4191 01b5 19       		.uleb128 0x19
 4192 01b6 00       		.byte	0
 4193 01b7 00       		.byte	0
 4194 01b8 00       		.byte	0
 4195              		.section	.debug_aranges,"",%progbits
 4196 0000 74000000 		.4byte	0x74
 4197 0004 0200     		.2byte	0x2
 4198 0006 00000000 		.4byte	.Ldebug_info0
 4199 000a 04       		.byte	0x4
 4200 000b 00       		.byte	0
 4201 000c 0000     		.2byte	0
 4202 000e 0000     		.2byte	0
 4203 0010 00000000 		.4byte	.LFB0
 4204 0014 8C040000 		.4byte	.LFE0-.LFB0
 4205 0018 00000000 		.4byte	.LFB1
 4206 001c 38010000 		.4byte	.LFE1-.LFB1
 4207 0020 00000000 		.4byte	.LFB2
 4208 0024 6C000000 		.4byte	.LFE2-.LFB2
 4209 0028 00000000 		.4byte	.LFB3
 4210 002c 20030000 		.4byte	.LFE3-.LFB3
 4211 0030 00000000 		.4byte	.LFB4
 4212 0034 5C020000 		.4byte	.LFE4-.LFB4
 4213 0038 00000000 		.4byte	.LFB5
 4214 003c 50000000 		.4byte	.LFE5-.LFB5
 4215 0040 00000000 		.4byte	.LFB6
 4216 0044 24000000 		.4byte	.LFE6-.LFB6
 4217 0048 00000000 		.4byte	.LFB7
 4218 004c 4C000000 		.4byte	.LFE7-.LFB7
 4219 0050 00000000 		.4byte	.LFB8
 4220 0054 C0000000 		.4byte	.LFE8-.LFB8
 4221 0058 00000000 		.4byte	.LFB9
 4222 005c E8000000 		.4byte	.LFE9-.LFB9
 4223 0060 00000000 		.4byte	.LFB10
 4224 0064 58010000 		.4byte	.LFE10-.LFB10
 4225 0068 00000000 		.4byte	.LFB11
 4226 006c 70000000 		.4byte	.LFE11-.LFB11
 4227 0070 00000000 		.4byte	0
 4228 0074 00000000 		.4byte	0
 4229              		.section	.debug_ranges,"",%progbits
 4230              	.Ldebug_ranges0:
 4231 0000 00000000 		.4byte	.LFB0
 4232 0004 8C040000 		.4byte	.LFE0
 4233 0008 00000000 		.4byte	.LFB1
 4234 000c 38010000 		.4byte	.LFE1
 4235 0010 00000000 		.4byte	.LFB2
 4236 0014 6C000000 		.4byte	.LFE2
 4237 0018 00000000 		.4byte	.LFB3
ARM GAS  C:\Users\r\AppData\Local\Temp\ccDuGy4S.s 			page 99


 4238 001c 20030000 		.4byte	.LFE3
 4239 0020 00000000 		.4byte	.LFB4
 4240 0024 5C020000 		.4byte	.LFE4
 4241 0028 00000000 		.4byte	.LFB5
 4242 002c 50000000 		.4byte	.LFE5
 4243 0030 00000000 		.4byte	.LFB6
 4244 0034 24000000 		.4byte	.LFE6
 4245 0038 00000000 		.4byte	.LFB7
 4246 003c 4C000000 		.4byte	.LFE7
 4247 0040 00000000 		.4byte	.LFB8
 4248 0044 C0000000 		.4byte	.LFE8
 4249 0048 00000000 		.4byte	.LFB9
 4250 004c E8000000 		.4byte	.LFE9
 4251 0050 00000000 		.4byte	.LFB10
 4252 0054 58010000 		.4byte	.LFE10
 4253 0058 00000000 		.4byte	.LFB11
 4254 005c 70000000 		.4byte	.LFE11
 4255 0060 00000000 		.4byte	0
 4256 0064 00000000 		.4byte	0
 4257              		.section	.debug_line,"",%progbits
 4258              	.Ldebug_line0:
 4259 0000 14040000 		.section	.debug_str,"MS",%progbits,1
 4259      02006000 
 4259      00000201 
 4259      FB0E0D00 
 4259      01010101 
 4260              	.LASF36:
 4261 0000 70537461 		.ascii	"pStatusBlock\000"
 4261      74757342 
 4261      6C6F636B 
 4261      00
 4262              	.LASF34:
 4263 000d 636F756E 		.ascii	"count\000"
 4263      7400
 4264              	.LASF10:
 4265 0013 75696E74 		.ascii	"uint16\000"
 4265      313600
 4266              	.LASF85:
 4267 001a 55534246 		.ascii	"USBFS_TerminateEP\000"
 4267      535F5465 
 4267      726D696E 
 4267      61746545 
 4267      5000
 4268              	.LASF106:
 4269 002c 55534246 		.ascii	"USBFS_currentTD\000"
 4269      535F6375 
 4269      7272656E 
 4269      74544400 
 4270              	.LASF107:
 4271 003c 474E5520 		.ascii	"GNU C11 5.4.1 20160609 (release) [ARM/embedded-5-br"
 4271      43313120 
 4271      352E342E 
 4271      31203230 
 4271      31363036 
 4272 006f 616E6368 		.ascii	"anch revision 237715] -mcpu=cortex-m3 -mthumb -g -O"
 4272      20726576 
 4272      6973696F 
ARM GAS  C:\Users\r\AppData\Local\Temp\ccDuGy4S.s 			page 100


 4272      6E203233 
 4272      37373135 
 4273 00a2 30202D66 		.ascii	"0 -ffunction-sections -ffat-lto-objects\000"
 4273      66756E63 
 4273      74696F6E 
 4273      2D736563 
 4273      74696F6E 
 4274              	.LASF81:
 4275 00ca 636F6E66 		.ascii	"confIndex\000"
 4275      496E6465 
 4275      7800
 4276              	.LASF7:
 4277 00d4 6C6F6E67 		.ascii	"long long unsigned int\000"
 4277      206C6F6E 
 4277      6720756E 
 4277      7369676E 
 4277      65642069 
 4278              	.LASF21:
 4279 00eb 61646472 		.ascii	"addr\000"
 4279      00
 4280              	.LASF41:
 4281 00f0 55534246 		.ascii	"USBFS_ep0_data_struct\000"
 4281      535F6570 
 4281      305F6461 
 4281      74615F73 
 4281      74727563 
 4282              	.LASF46:
 4283 0106 65704366 		.ascii	"epCfg\000"
 4283      6700
 4284              	.LASF57:
 4285 010c 55534246 		.ascii	"USBFS_sie_eps_struct\000"
 4285      535F7369 
 4285      655F6570 
 4285      735F7374 
 4285      72756374 
 4286              	.LASF59:
 4287 0121 55534246 		.ascii	"USBFS_arb_eps_struct\000"
 4287      535F6172 
 4287      625F6570 
 4287      735F7374 
 4287      72756374 
 4288              	.LASF86:
 4289 0136 65704E75 		.ascii	"epNumber\000"
 4289      6D626572 
 4289      00
 4290              	.LASF6:
 4291 013f 6C6F6E67 		.ascii	"long long int\000"
 4291      206C6F6E 
 4291      6720696E 
 4291      7400
 4292              	.LASF0:
 4293 014d 7369676E 		.ascii	"signed char\000"
 4293      65642063 
 4293      68617200 
 4294              	.LASF67:
 4295 0159 55534246 		.ascii	"USBFS_tBuffer\000"
 4295      535F7442 
ARM GAS  C:\Users\r\AppData\Local\Temp\ccDuGy4S.s 			page 101


 4295      75666665 
 4295      7200
 4296              	.LASF80:
 4297 0167 636C6561 		.ascii	"clearAltSetting\000"
 4297      72416C74 
 4297      53657474 
 4297      696E6700 
 4298              	.LASF102:
 4299 0177 55534246 		.ascii	"USBFS_deviceAddress\000"
 4299      535F6465 
 4299      76696365 
 4299      41646472 
 4299      65737300 
 4300              	.LASF88:
 4301 018b 55534246 		.ascii	"USBFS_ClearEndpointHalt\000"
 4301      535F436C 
 4301      65617245 
 4301      6E64706F 
 4301      696E7448 
 4302              	.LASF99:
 4303 01a3 55534246 		.ascii	"USBFS_interfaceNumber\000"
 4303      535F696E 
 4303      74657266 
 4303      6163654E 
 4303      756D6265 
 4304              	.LASF71:
 4305 01b9 55534246 		.ascii	"USBFS_Config\000"
 4305      535F436F 
 4305      6E666967 
 4305      00
 4306              	.LASF55:
 4307 01c6 55534246 		.ascii	"USBFS_arb_ep_struct\000"
 4307      535F6172 
 4307      625F6570 
 4307      5F737472 
 4307      75637400 
 4308              	.LASF69:
 4309 01da 55534246 		.ascii	"USBFS_ConfigReg\000"
 4309      535F436F 
 4309      6E666967 
 4309      52656700 
 4310              	.LASF4:
 4311 01ea 6C6F6E67 		.ascii	"long int\000"
 4311      20696E74 
 4311      00
 4312              	.LASF9:
 4313 01f3 75696E74 		.ascii	"uint8\000"
 4313      3800
 4314              	.LASF20:
 4315 01f9 6570546F 		.ascii	"epToggle\000"
 4315      67676C65 
 4315      00
 4316              	.LASF50:
 4317 0202 72775761 		.ascii	"rwWa\000"
 4317      00
 4318              	.LASF12:
 4319 0207 646F7562 		.ascii	"double\000"
ARM GAS  C:\Users\r\AppData\Local\Temp\ccDuGy4S.s 			page 102


 4319      6C6500
 4320              	.LASF48:
 4321 020e 65705372 		.ascii	"epSr\000"
 4321      00
 4322              	.LASF30:
 4323 0213 545F5553 		.ascii	"T_USBFS_EP_SETTINGS_BLOCK\000"
 4323      4246535F 
 4323      45505F53 
 4323      45545449 
 4323      4E47535F 
 4324              	.LASF87:
 4325 022d 55534246 		.ascii	"USBFS_SetEndpointHalt\000"
 4325      535F5365 
 4325      74456E64 
 4325      706F696E 
 4325      7448616C 
 4326              	.LASF35:
 4327 0243 70446174 		.ascii	"pData\000"
 4327      6100
 4328              	.LASF56:
 4329 0249 73696545 		.ascii	"sieEp\000"
 4329      7000
 4330              	.LASF22:
 4331 024f 65704D6F 		.ascii	"epMode\000"
 4331      646500
 4332              	.LASF73:
 4333 0256 65705479 		.ascii	"epType\000"
 4333      706500
 4334              	.LASF63:
 4335 025d 626D5265 		.ascii	"bmRequestType\000"
 4335      71756573 
 4335      74547970 
 4335      6500
 4336              	.LASF49:
 4337 026b 72657365 		.ascii	"reserved\000"
 4337      72766564 
 4337      00
 4338              	.LASF8:
 4339 0274 756E7369 		.ascii	"unsigned int\000"
 4339      676E6564 
 4339      20696E74 
 4339      00
 4340              	.LASF5:
 4341 0281 6C6F6E67 		.ascii	"long unsigned int\000"
 4341      20756E73 
 4341      69676E65 
 4341      6420696E 
 4341      7400
 4342              	.LASF82:
 4343 0293 55534246 		.ascii	"USBFS_GetInterfaceClassTablePtr\000"
 4343      535F4765 
 4343      74496E74 
 4343      65726661 
 4343      6365436C 
 4344              	.LASF108:
 4345 02b3 47656E65 		.ascii	"Generated_Source\\PSoC5\\USBFS_std.c\000"
 4345      72617465 
ARM GAS  C:\Users\r\AppData\Local\Temp\ccDuGy4S.s 			page 103


 4345      645F536F 
 4345      75726365 
 4345      5C50536F 
 4346              	.LASF3:
 4347 02d6 73686F72 		.ascii	"short unsigned int\000"
 4347      7420756E 
 4347      7369676E 
 4347      65642069 
 4347      6E7400
 4348              	.LASF74:
 4349 02e9 70446573 		.ascii	"pDescr\000"
 4349      637200
 4350              	.LASF45:
 4351 02f0 55534246 		.ascii	"USBFS_sie_ep_struct\000"
 4351      535F7369 
 4351      655F6570 
 4351      5F737472 
 4351      75637400 
 4352              	.LASF83:
 4353 0304 70496E74 		.ascii	"pInterfaceClass\000"
 4353      65726661 
 4353      6365436C 
 4353      61737300 
 4354              	.LASF58:
 4355 0314 61726245 		.ascii	"arbEp\000"
 4355      7000
 4356              	.LASF25:
 4357 031a 696E7465 		.ascii	"interface\000"
 4357      72666163 
 4357      6500
 4358              	.LASF92:
 4359 0324 55534246 		.ascii	"USBFS_configuration\000"
 4359      535F636F 
 4359      6E666967 
 4359      75726174 
 4359      696F6E00 
 4360              	.LASF89:
 4361 0338 55534246 		.ascii	"USBFS_ValidateAlternateSetting\000"
 4361      535F5661 
 4361      6C696461 
 4361      7465416C 
 4361      7465726E 
 4362              	.LASF93:
 4363 0357 55534246 		.ascii	"USBFS_configurationChanged\000"
 4363      535F636F 
 4363      6E666967 
 4363      75726174 
 4363      696F6E43 
 4364              	.LASF104:
 4365 0372 55534246 		.ascii	"USBFS_interfaceClass\000"
 4365      535F696E 
 4365      74657266 
 4365      61636543 
 4365      6C617373 
 4366              	.LASF72:
 4367 0387 63757245 		.ascii	"curEp\000"
 4367      7000
ARM GAS  C:\Users\r\AppData\Local\Temp\ccDuGy4S.s 			page 104


 4368              	.LASF19:
 4369 038d 68774570 		.ascii	"hwEpState\000"
 4369      53746174 
 4369      6500
 4370              	.LASF66:
 4371 0397 64657363 		.ascii	"descrLength\000"
 4371      724C656E 
 4371      67746800 
 4372              	.LASF16:
 4373 03a3 73697A65 		.ascii	"sizetype\000"
 4373      74797065 
 4373      00
 4374              	.LASF15:
 4375 03ac 6C6F6E67 		.ascii	"long double\000"
 4375      20646F75 
 4375      626C6500 
 4376              	.LASF68:
 4377 03b8 70546D70 		.ascii	"pTmp\000"
 4377      00
 4378              	.LASF38:
 4379 03bd 705F6C69 		.ascii	"p_list\000"
 4379      737400
 4380              	.LASF75:
 4381 03c4 62756666 		.ascii	"buffCount\000"
 4381      436F756E 
 4381      7400
 4382              	.LASF17:
 4383 03ce 61747472 		.ascii	"attrib\000"
 4383      696200
 4384              	.LASF96:
 4385 03d5 55534246 		.ascii	"USBFS_TABLE\000"
 4385      535F5441 
 4385      424C4500 
 4386              	.LASF97:
 4387 03e1 55534246 		.ascii	"USBFS_SN_STRING_DESCRIPTOR\000"
 4387      535F534E 
 4387      5F535452 
 4387      494E475F 
 4387      44455343 
 4388              	.LASF53:
 4389 03fc 72775261 		.ascii	"rwRaMsb\000"
 4389      4D736200 
 4390              	.LASF42:
 4391 0404 6570436E 		.ascii	"epCnt0\000"
 4391      743000
 4392              	.LASF43:
 4393 040b 6570436E 		.ascii	"epCnt1\000"
 4393      743100
 4394              	.LASF76:
 4395 0412 55534246 		.ascii	"USBFS_ConfigAltChanged\000"
 4395      535F436F 
 4395      6E666967 
 4395      416C7443 
 4395      68616E67 
 4396              	.LASF33:
 4397 0429 545F5553 		.ascii	"T_USBFS_XFER_STATUS_BLOCK\000"
 4397      4246535F 
ARM GAS  C:\Users\r\AppData\Local\Temp\ccDuGy4S.s 			page 105


 4397      58464552 
 4397      5F535441 
 4397      5455535F 
 4398              	.LASF44:
 4399 0443 65704372 		.ascii	"epCr0\000"
 4399      3000
 4400              	.LASF77:
 4401 0449 696E7465 		.ascii	"interfaceNum\000"
 4401      72666163 
 4401      654E756D 
 4401      00
 4402              	.LASF95:
 4403 0456 55534246 		.ascii	"USBFS_DEVICE0_DESCR\000"
 4403      535F4445 
 4403      56494345 
 4403      305F4445 
 4403      53435200 
 4404              	.LASF11:
 4405 046a 666C6F61 		.ascii	"float\000"
 4405      7400
 4406              	.LASF98:
 4407 0470 55534246 		.ascii	"USBFS_STRING_DESCRIPTORS\000"
 4407      535F5354 
 4407      52494E47 
 4407      5F444553 
 4407      43524950 
 4408              	.LASF18:
 4409 0489 61706945 		.ascii	"apiEpState\000"
 4409      70537461 
 4409      746500
 4410              	.LASF62:
 4411 0494 636F6E66 		.ascii	"configurationN\000"
 4411      69677572 
 4411      6174696F 
 4411      6E4E00
 4412              	.LASF105:
 4413 04a3 55534246 		.ascii	"USBFS_EP\000"
 4413      535F4550 
 4413      00
 4414              	.LASF64:
 4415 04ac 70537472 		.ascii	"pStr\000"
 4415      00
 4416              	.LASF14:
 4417 04b1 72656738 		.ascii	"reg8\000"
 4417      00
 4418              	.LASF1:
 4419 04b6 756E7369 		.ascii	"unsigned char\000"
 4419      676E6564 
 4419      20636861 
 4419      7200
 4420              	.LASF70:
 4421 04c4 55534246 		.ascii	"USBFS_EpStateInit\000"
 4421      535F4570 
 4421      53746174 
 4421      65496E69 
 4421      7400
 4422              	.LASF2:
ARM GAS  C:\Users\r\AppData\Local\Temp\ccDuGy4S.s 			page 106


 4423 04d6 73686F72 		.ascii	"short int\000"
 4423      7420696E 
 4423      7400
 4424              	.LASF37:
 4425 04e0 545F5553 		.ascii	"T_USBFS_TD\000"
 4425      4246535F 
 4425      544400
 4426              	.LASF109:
 4427 04eb 433A5C55 		.ascii	"C:\\Users\\r\\Documents\\Data Sheets\\apple\\SCSI2S"
 4427      73657273 
 4427      5C725C44 
 4427      6F63756D 
 4427      656E7473 
 4428 0518 445C5343 		.ascii	"D\\SCSI2SD_Copy_01.cydsn\000"
 4428      53493253 
 4428      445F436F 
 4428      70795F30 
 4428      312E6379 
 4429              	.LASF79:
 4430 0530 55534246 		.ascii	"USBFS_GetConfigTablePtr\000"
 4430      535F4765 
 4430      74436F6E 
 4430      66696754 
 4430      61626C65 
 4431              	.LASF52:
 4432 0548 72775261 		.ascii	"rwRa\000"
 4432      00
 4433              	.LASF100:
 4434 054d 55534246 		.ascii	"USBFS_interfaceSetting\000"
 4434      535F696E 
 4434      74657266 
 4434      61636553 
 4434      65747469 
 4435              	.LASF26:
 4436 0564 545F5553 		.ascii	"T_USBFS_EP_CTL_BLOCK\000"
 4436      4246535F 
 4436      45505F43 
 4436      544C5F42 
 4436      4C4F434B 
 4437              	.LASF91:
 4438 0579 55534246 		.ascii	"USBFS_device\000"
 4438      535F6465 
 4438      76696365 
 4438      00
 4439              	.LASF28:
 4440 0586 61747472 		.ascii	"attributes\000"
 4440      69627574 
 4440      657300
 4441              	.LASF27:
 4442 0591 616C7453 		.ascii	"altSetting\000"
 4442      65747469 
 4442      6E6700
 4443              	.LASF13:
 4444 059c 63686172 		.ascii	"char\000"
 4444      00
 4445              	.LASF24:
 4446 05a1 62756666 		.ascii	"bufferSize\000"
ARM GAS  C:\Users\r\AppData\Local\Temp\ccDuGy4S.s 			page 107


 4446      65725369 
 4446      7A6500
 4447              	.LASF60:
 4448 05ac 72657175 		.ascii	"requestHandled\000"
 4448      65737448 
 4448      616E646C 
 4448      656400
 4449              	.LASF84:
 4450 05bb 63757272 		.ascii	"currentInterfacesNum\000"
 4450      656E7449 
 4450      6E746572 
 4450      66616365 
 4450      734E756D 
 4451              	.LASF23:
 4452 05d0 62756666 		.ascii	"buffOffset\000"
 4452      4F666673 
 4452      657400
 4453              	.LASF110:
 4454 05db 55534246 		.ascii	"USBFS_GetDeviceTablePtr\000"
 4454      535F4765 
 4454      74446576 
 4454      69636554 
 4454      61626C65 
 4455              	.LASF61:
 4456 05f3 696E7465 		.ascii	"interfaceNumber\000"
 4456      72666163 
 4456      654E756D 
 4456      62657200 
 4457              	.LASF94:
 4458 0603 55534246 		.ascii	"USBFS_deviceStatus\000"
 4458      535F6465 
 4458      76696365 
 4458      53746174 
 4458      757300
 4459              	.LASF32:
 4460 0616 6C656E67 		.ascii	"length\000"
 4460      746800
 4461              	.LASF65:
 4462 061d 6E537472 		.ascii	"nStr\000"
 4462      00
 4463              	.LASF31:
 4464 0622 73746174 		.ascii	"status\000"
 4464      757300
 4465              	.LASF54:
 4466 0629 72774472 		.ascii	"rwDr\000"
 4466      00
 4467              	.LASF90:
 4468 062e 63757249 		.ascii	"curInterfacesNum\000"
 4468      6E746572 
 4468      66616365 
 4468      734E756D 
 4468      00
 4469              	.LASF40:
 4470 063f 65704461 		.ascii	"epData\000"
 4470      746100
 4471              	.LASF29:
 4472 0646 624D6973 		.ascii	"bMisc\000"
ARM GAS  C:\Users\r\AppData\Local\Temp\ccDuGy4S.s 			page 108


 4472      6300
 4473              	.LASF51:
 4474 064c 72775761 		.ascii	"rwWaMsb\000"
 4474      4D736200 
 4475              	.LASF103:
 4476 0654 55534246 		.ascii	"USBFS_interfaceStatus\000"
 4476      535F696E 
 4476      74657266 
 4476      61636553 
 4476      74617475 
 4477              	.LASF47:
 4478 066a 6570496E 		.ascii	"epIntEn\000"
 4478      74456E00 
 4479              	.LASF101:
 4480 0672 55534246 		.ascii	"USBFS_interfaceSettingLast\000"
 4480      535F696E 
 4480      74657266 
 4480      61636553 
 4480      65747469 
 4481              	.LASF78:
 4482 068d 55534246 		.ascii	"USBFS_HandleStandardRqst\000"
 4482      535F4861 
 4482      6E646C65 
 4482      5374616E 
 4482      64617264 
 4483              	.LASF39:
 4484 06a6 545F5553 		.ascii	"T_USBFS_LUT\000"
 4484      4246535F 
 4484      4C555400 
 4485              		.ident	"GCC: (GNU Tools for ARM Embedded Processors) 5.4.1 20160609 (release) [ARM/embedded-5-bran
