ARM GAS  C:\Users\r\AppData\Local\Temp\ccxcZsRd.s 			page 1


   1              		.syntax unified
   2              		.cpu cortex-m3
   3              		.fpu softvfp
   4              		.eabi_attribute 20, 1
   5              		.eabi_attribute 21, 1
   6              		.eabi_attribute 23, 3
   7              		.eabi_attribute 24, 1
   8              		.eabi_attribute 25, 1
   9              		.eabi_attribute 26, 1
  10              		.eabi_attribute 30, 6
  11              		.eabi_attribute 34, 1
  12              		.eabi_attribute 18, 4
  13              		.thumb
  14              		.syntax unified
  15              		.file	"VDAC8_1_PM.c"
  16              		.text
  17              	.Ltext0:
  18              		.cfi_sections	.debug_frame
  19              		.bss
  20              		.align	2
  21              	VDAC8_1_backup:
  22 0000 0000     		.space	2
  23              		.section	.text.VDAC8_1_SaveConfig,"ax",%progbits
  24              		.align	2
  25              		.global	VDAC8_1_SaveConfig
  26              		.thumb
  27              		.thumb_func
  28              		.type	VDAC8_1_SaveConfig, %function
  29              	VDAC8_1_SaveConfig:
  30              	.LFB0:
  31              		.file 1 "Generated_Source\\PSoC5\\VDAC8_1_PM.c"
   1:Generated_Source\PSoC5/VDAC8_1_PM.c **** /*******************************************************************************
   2:Generated_Source\PSoC5/VDAC8_1_PM.c **** * File Name: VDAC8_1_PM.c  
   3:Generated_Source\PSoC5/VDAC8_1_PM.c **** * Version 1.90
   4:Generated_Source\PSoC5/VDAC8_1_PM.c **** *
   5:Generated_Source\PSoC5/VDAC8_1_PM.c **** * Description:
   6:Generated_Source\PSoC5/VDAC8_1_PM.c **** *  This file provides the power management source code to API for the
   7:Generated_Source\PSoC5/VDAC8_1_PM.c **** *  VDAC8.  
   8:Generated_Source\PSoC5/VDAC8_1_PM.c **** *
   9:Generated_Source\PSoC5/VDAC8_1_PM.c **** * Note:
  10:Generated_Source\PSoC5/VDAC8_1_PM.c **** *  None
  11:Generated_Source\PSoC5/VDAC8_1_PM.c **** *
  12:Generated_Source\PSoC5/VDAC8_1_PM.c **** ********************************************************************************
  13:Generated_Source\PSoC5/VDAC8_1_PM.c **** * Copyright 2008-2012, Cypress Semiconductor Corporation.  All rights reserved.
  14:Generated_Source\PSoC5/VDAC8_1_PM.c **** * You may use this file only in accordance with the license, terms, conditions, 
  15:Generated_Source\PSoC5/VDAC8_1_PM.c **** * disclaimers, and limitations in the end user license agreement accompanying 
  16:Generated_Source\PSoC5/VDAC8_1_PM.c **** * the software package with which this file was provided.
  17:Generated_Source\PSoC5/VDAC8_1_PM.c **** *******************************************************************************/
  18:Generated_Source\PSoC5/VDAC8_1_PM.c **** 
  19:Generated_Source\PSoC5/VDAC8_1_PM.c **** #include "VDAC8_1.h"
  20:Generated_Source\PSoC5/VDAC8_1_PM.c **** 
  21:Generated_Source\PSoC5/VDAC8_1_PM.c **** static VDAC8_1_backupStruct VDAC8_1_backup;
  22:Generated_Source\PSoC5/VDAC8_1_PM.c **** 
  23:Generated_Source\PSoC5/VDAC8_1_PM.c **** 
  24:Generated_Source\PSoC5/VDAC8_1_PM.c **** /*******************************************************************************
  25:Generated_Source\PSoC5/VDAC8_1_PM.c **** * Function Name: VDAC8_1_SaveConfig
  26:Generated_Source\PSoC5/VDAC8_1_PM.c **** ********************************************************************************
ARM GAS  C:\Users\r\AppData\Local\Temp\ccxcZsRd.s 			page 2


  27:Generated_Source\PSoC5/VDAC8_1_PM.c **** * Summary:
  28:Generated_Source\PSoC5/VDAC8_1_PM.c **** *  Save the current user configuration
  29:Generated_Source\PSoC5/VDAC8_1_PM.c **** *
  30:Generated_Source\PSoC5/VDAC8_1_PM.c **** * Parameters:  
  31:Generated_Source\PSoC5/VDAC8_1_PM.c **** *  void  
  32:Generated_Source\PSoC5/VDAC8_1_PM.c **** *
  33:Generated_Source\PSoC5/VDAC8_1_PM.c **** * Return: 
  34:Generated_Source\PSoC5/VDAC8_1_PM.c **** *  void
  35:Generated_Source\PSoC5/VDAC8_1_PM.c **** *
  36:Generated_Source\PSoC5/VDAC8_1_PM.c **** *******************************************************************************/
  37:Generated_Source\PSoC5/VDAC8_1_PM.c **** void VDAC8_1_SaveConfig(void) 
  38:Generated_Source\PSoC5/VDAC8_1_PM.c **** {
  32              		.loc 1 38 0
  33              		.cfi_startproc
  34              		@ args = 0, pretend = 0, frame = 0
  35              		@ frame_needed = 1, uses_anonymous_args = 0
  36              		@ link register save eliminated.
  37 0000 80B4     		push	{r7}
  38              		.cfi_def_cfa_offset 4
  39              		.cfi_offset 7, -4
  40 0002 00AF     		add	r7, sp, #0
  41              		.cfi_def_cfa_register 7
  39:Generated_Source\PSoC5/VDAC8_1_PM.c ****     if (!((VDAC8_1_CR1 & VDAC8_1_SRC_MASK) == VDAC8_1_SRC_UDB))
  42              		.loc 1 39 0
  43 0004 074B     		ldr	r3, .L4
  44 0006 1B78     		ldrb	r3, [r3]
  45 0008 DBB2     		uxtb	r3, r3
  46 000a 03F02003 		and	r3, r3, #32
  47 000e 002B     		cmp	r3, #0
  48 0010 04D1     		bne	.L3
  40:Generated_Source\PSoC5/VDAC8_1_PM.c ****     {
  41:Generated_Source\PSoC5/VDAC8_1_PM.c ****         VDAC8_1_backup.data_value = VDAC8_1_Data;
  49              		.loc 1 41 0
  50 0012 054B     		ldr	r3, .L4+4
  51 0014 1B78     		ldrb	r3, [r3]
  52 0016 DAB2     		uxtb	r2, r3
  53 0018 044B     		ldr	r3, .L4+8
  54 001a 5A70     		strb	r2, [r3, #1]
  55              	.L3:
  42:Generated_Source\PSoC5/VDAC8_1_PM.c ****     }
  43:Generated_Source\PSoC5/VDAC8_1_PM.c **** }
  56              		.loc 1 43 0
  57 001c 00BF     		nop
  58 001e BD46     		mov	sp, r7
  59              		.cfi_def_cfa_register 13
  60              		@ sp needed
  61 0020 80BC     		pop	{r7}
  62              		.cfi_restore 7
  63              		.cfi_def_cfa_offset 0
  64 0022 7047     		bx	lr
  65              	.L5:
  66              		.align	2
  67              	.L4:
  68 0024 21580040 		.word	1073764385
  69 0028 805B0040 		.word	1073765248
  70 002c 00000000 		.word	VDAC8_1_backup
  71              		.cfi_endproc
ARM GAS  C:\Users\r\AppData\Local\Temp\ccxcZsRd.s 			page 3


  72              	.LFE0:
  73              		.size	VDAC8_1_SaveConfig, .-VDAC8_1_SaveConfig
  74              		.section	.text.VDAC8_1_RestoreConfig,"ax",%progbits
  75              		.align	2
  76              		.global	VDAC8_1_RestoreConfig
  77              		.thumb
  78              		.thumb_func
  79              		.type	VDAC8_1_RestoreConfig, %function
  80              	VDAC8_1_RestoreConfig:
  81              	.LFB1:
  44:Generated_Source\PSoC5/VDAC8_1_PM.c **** 
  45:Generated_Source\PSoC5/VDAC8_1_PM.c **** 
  46:Generated_Source\PSoC5/VDAC8_1_PM.c **** /*******************************************************************************
  47:Generated_Source\PSoC5/VDAC8_1_PM.c **** * Function Name: VDAC8_1_RestoreConfig
  48:Generated_Source\PSoC5/VDAC8_1_PM.c **** ********************************************************************************
  49:Generated_Source\PSoC5/VDAC8_1_PM.c **** *
  50:Generated_Source\PSoC5/VDAC8_1_PM.c **** * Summary:
  51:Generated_Source\PSoC5/VDAC8_1_PM.c **** *  Restores the current user configuration.
  52:Generated_Source\PSoC5/VDAC8_1_PM.c **** *
  53:Generated_Source\PSoC5/VDAC8_1_PM.c **** * Parameters:  
  54:Generated_Source\PSoC5/VDAC8_1_PM.c **** *  void
  55:Generated_Source\PSoC5/VDAC8_1_PM.c **** *
  56:Generated_Source\PSoC5/VDAC8_1_PM.c **** * Return: 
  57:Generated_Source\PSoC5/VDAC8_1_PM.c **** *  void
  58:Generated_Source\PSoC5/VDAC8_1_PM.c **** *
  59:Generated_Source\PSoC5/VDAC8_1_PM.c **** *******************************************************************************/
  60:Generated_Source\PSoC5/VDAC8_1_PM.c **** void VDAC8_1_RestoreConfig(void) 
  61:Generated_Source\PSoC5/VDAC8_1_PM.c **** {
  82              		.loc 1 61 0
  83              		.cfi_startproc
  84              		@ args = 0, pretend = 0, frame = 0
  85              		@ frame_needed = 1, uses_anonymous_args = 0
  86              		@ link register save eliminated.
  87 0000 80B4     		push	{r7}
  88              		.cfi_def_cfa_offset 4
  89              		.cfi_offset 7, -4
  90 0002 00AF     		add	r7, sp, #0
  91              		.cfi_def_cfa_register 7
  62:Generated_Source\PSoC5/VDAC8_1_PM.c ****     if (!((VDAC8_1_CR1 & VDAC8_1_SRC_MASK) == VDAC8_1_SRC_UDB))
  92              		.loc 1 62 0
  93 0004 154B     		ldr	r3, .L10
  94 0006 1B78     		ldrb	r3, [r3]
  95 0008 DBB2     		uxtb	r3, r3
  96 000a 03F02003 		and	r3, r3, #32
  97 000e 002B     		cmp	r3, #0
  98 0010 1FD1     		bne	.L9
  63:Generated_Source\PSoC5/VDAC8_1_PM.c ****     {
  64:Generated_Source\PSoC5/VDAC8_1_PM.c ****         if((VDAC8_1_Strobe & VDAC8_1_STRB_MASK) == VDAC8_1_STRB_EN)
  99              		.loc 1 64 0
 100 0012 134B     		ldr	r3, .L10+4
 101 0014 1B78     		ldrb	r3, [r3]
 102 0016 DBB2     		uxtb	r3, r3
 103 0018 03F00803 		and	r3, r3, #8
 104 001c 002B     		cmp	r3, #0
 105 001e 14D0     		beq	.L8
  65:Generated_Source\PSoC5/VDAC8_1_PM.c ****         {
  66:Generated_Source\PSoC5/VDAC8_1_PM.c ****             VDAC8_1_Strobe &= (uint8)(~VDAC8_1_STRB_MASK);
ARM GAS  C:\Users\r\AppData\Local\Temp\ccxcZsRd.s 			page 4


 106              		.loc 1 66 0
 107 0020 0F4A     		ldr	r2, .L10+4
 108 0022 0F4B     		ldr	r3, .L10+4
 109 0024 1B78     		ldrb	r3, [r3]
 110 0026 DBB2     		uxtb	r3, r3
 111 0028 23F00803 		bic	r3, r3, #8
 112 002c DBB2     		uxtb	r3, r3
 113 002e 1370     		strb	r3, [r2]
  67:Generated_Source\PSoC5/VDAC8_1_PM.c ****             VDAC8_1_Data = VDAC8_1_backup.data_value;
 114              		.loc 1 67 0
 115 0030 0C4B     		ldr	r3, .L10+8
 116 0032 0D4A     		ldr	r2, .L10+12
 117 0034 5278     		ldrb	r2, [r2, #1]	@ zero_extendqisi2
 118 0036 1A70     		strb	r2, [r3]
  68:Generated_Source\PSoC5/VDAC8_1_PM.c ****             VDAC8_1_Strobe |= VDAC8_1_STRB_EN;
 119              		.loc 1 68 0
 120 0038 094A     		ldr	r2, .L10+4
 121 003a 094B     		ldr	r3, .L10+4
 122 003c 1B78     		ldrb	r3, [r3]
 123 003e DBB2     		uxtb	r3, r3
 124 0040 43F00803 		orr	r3, r3, #8
 125 0044 DBB2     		uxtb	r3, r3
 126 0046 1370     		strb	r3, [r2]
  69:Generated_Source\PSoC5/VDAC8_1_PM.c ****         }
  70:Generated_Source\PSoC5/VDAC8_1_PM.c ****         else
  71:Generated_Source\PSoC5/VDAC8_1_PM.c ****         {
  72:Generated_Source\PSoC5/VDAC8_1_PM.c ****             VDAC8_1_Data = VDAC8_1_backup.data_value;
  73:Generated_Source\PSoC5/VDAC8_1_PM.c ****         }
  74:Generated_Source\PSoC5/VDAC8_1_PM.c ****     }
  75:Generated_Source\PSoC5/VDAC8_1_PM.c **** }
 127              		.loc 1 75 0
 128 0048 03E0     		b	.L9
 129              	.L8:
  72:Generated_Source\PSoC5/VDAC8_1_PM.c ****         }
 130              		.loc 1 72 0
 131 004a 064B     		ldr	r3, .L10+8
 132 004c 064A     		ldr	r2, .L10+12
 133 004e 5278     		ldrb	r2, [r2, #1]	@ zero_extendqisi2
 134 0050 1A70     		strb	r2, [r3]
 135              	.L9:
 136              		.loc 1 75 0
 137 0052 00BF     		nop
 138 0054 BD46     		mov	sp, r7
 139              		.cfi_def_cfa_register 13
 140              		@ sp needed
 141 0056 80BC     		pop	{r7}
 142              		.cfi_restore 7
 143              		.cfi_def_cfa_offset 0
 144 0058 7047     		bx	lr
 145              	.L11:
 146 005a 00BF     		.align	2
 147              	.L10:
 148 005c 21580040 		.word	1073764385
 149 0060 875A0040 		.word	1073764999
 150 0064 805B0040 		.word	1073765248
 151 0068 00000000 		.word	VDAC8_1_backup
 152              		.cfi_endproc
ARM GAS  C:\Users\r\AppData\Local\Temp\ccxcZsRd.s 			page 5


 153              	.LFE1:
 154              		.size	VDAC8_1_RestoreConfig, .-VDAC8_1_RestoreConfig
 155              		.section	.text.VDAC8_1_Sleep,"ax",%progbits
 156              		.align	2
 157              		.global	VDAC8_1_Sleep
 158              		.thumb
 159              		.thumb_func
 160              		.type	VDAC8_1_Sleep, %function
 161              	VDAC8_1_Sleep:
 162              	.LFB2:
  76:Generated_Source\PSoC5/VDAC8_1_PM.c **** 
  77:Generated_Source\PSoC5/VDAC8_1_PM.c **** 
  78:Generated_Source\PSoC5/VDAC8_1_PM.c **** /*******************************************************************************
  79:Generated_Source\PSoC5/VDAC8_1_PM.c **** * Function Name: VDAC8_1_Sleep
  80:Generated_Source\PSoC5/VDAC8_1_PM.c **** ********************************************************************************
  81:Generated_Source\PSoC5/VDAC8_1_PM.c **** * Summary:
  82:Generated_Source\PSoC5/VDAC8_1_PM.c **** *  Stop and Save the user configuration
  83:Generated_Source\PSoC5/VDAC8_1_PM.c **** *
  84:Generated_Source\PSoC5/VDAC8_1_PM.c **** * Parameters:  
  85:Generated_Source\PSoC5/VDAC8_1_PM.c **** *  void:  
  86:Generated_Source\PSoC5/VDAC8_1_PM.c **** *
  87:Generated_Source\PSoC5/VDAC8_1_PM.c **** * Return: 
  88:Generated_Source\PSoC5/VDAC8_1_PM.c **** *  void
  89:Generated_Source\PSoC5/VDAC8_1_PM.c **** *
  90:Generated_Source\PSoC5/VDAC8_1_PM.c **** * Global variables:
  91:Generated_Source\PSoC5/VDAC8_1_PM.c **** *  VDAC8_1_backup.enableState:  Is modified depending on the enable 
  92:Generated_Source\PSoC5/VDAC8_1_PM.c **** *  state  of the block before entering sleep mode.
  93:Generated_Source\PSoC5/VDAC8_1_PM.c **** *
  94:Generated_Source\PSoC5/VDAC8_1_PM.c **** *******************************************************************************/
  95:Generated_Source\PSoC5/VDAC8_1_PM.c **** void VDAC8_1_Sleep(void) 
  96:Generated_Source\PSoC5/VDAC8_1_PM.c **** {
 163              		.loc 1 96 0
 164              		.cfi_startproc
 165              		@ args = 0, pretend = 0, frame = 0
 166              		@ frame_needed = 1, uses_anonymous_args = 0
 167 0000 80B5     		push	{r7, lr}
 168              		.cfi_def_cfa_offset 8
 169              		.cfi_offset 7, -8
 170              		.cfi_offset 14, -4
 171 0002 00AF     		add	r7, sp, #0
 172              		.cfi_def_cfa_register 7
  97:Generated_Source\PSoC5/VDAC8_1_PM.c ****     /* Save VDAC8's enable state */    
  98:Generated_Source\PSoC5/VDAC8_1_PM.c ****     if(VDAC8_1_ACT_PWR_EN == (VDAC8_1_PWRMGR & VDAC8_1_ACT_PWR_EN))
 173              		.loc 1 98 0
 174 0004 094B     		ldr	r3, .L15
 175 0006 1B78     		ldrb	r3, [r3]
 176 0008 DBB2     		uxtb	r3, r3
 177 000a 03F00103 		and	r3, r3, #1
 178 000e 002B     		cmp	r3, #0
 179 0010 03D0     		beq	.L13
  99:Generated_Source\PSoC5/VDAC8_1_PM.c ****     {
 100:Generated_Source\PSoC5/VDAC8_1_PM.c ****         /* VDAC8 is enabled */
 101:Generated_Source\PSoC5/VDAC8_1_PM.c ****         VDAC8_1_backup.enableState = 1u;
 180              		.loc 1 101 0
 181 0012 074B     		ldr	r3, .L15+4
 182 0014 0122     		movs	r2, #1
 183 0016 1A70     		strb	r2, [r3]
ARM GAS  C:\Users\r\AppData\Local\Temp\ccxcZsRd.s 			page 6


 184 0018 02E0     		b	.L14
 185              	.L13:
 102:Generated_Source\PSoC5/VDAC8_1_PM.c ****     }
 103:Generated_Source\PSoC5/VDAC8_1_PM.c ****     else
 104:Generated_Source\PSoC5/VDAC8_1_PM.c ****     {
 105:Generated_Source\PSoC5/VDAC8_1_PM.c ****         /* VDAC8 is disabled */
 106:Generated_Source\PSoC5/VDAC8_1_PM.c ****         VDAC8_1_backup.enableState = 0u;
 186              		.loc 1 106 0
 187 001a 054B     		ldr	r3, .L15+4
 188 001c 0022     		movs	r2, #0
 189 001e 1A70     		strb	r2, [r3]
 190              	.L14:
 107:Generated_Source\PSoC5/VDAC8_1_PM.c ****     }
 108:Generated_Source\PSoC5/VDAC8_1_PM.c ****     
 109:Generated_Source\PSoC5/VDAC8_1_PM.c ****     VDAC8_1_Stop();
 191              		.loc 1 109 0
 192 0020 FFF7FEFF 		bl	VDAC8_1_Stop
 110:Generated_Source\PSoC5/VDAC8_1_PM.c ****     VDAC8_1_SaveConfig();
 193              		.loc 1 110 0
 194 0024 FFF7FEFF 		bl	VDAC8_1_SaveConfig
 111:Generated_Source\PSoC5/VDAC8_1_PM.c **** }
 195              		.loc 1 111 0
 196 0028 00BF     		nop
 197 002a 80BD     		pop	{r7, pc}
 198              	.L16:
 199              		.align	2
 200              	.L15:
 201 002c A8430040 		.word	1073759144
 202 0030 00000000 		.word	VDAC8_1_backup
 203              		.cfi_endproc
 204              	.LFE2:
 205              		.size	VDAC8_1_Sleep, .-VDAC8_1_Sleep
 206              		.section	.text.VDAC8_1_Wakeup,"ax",%progbits
 207              		.align	2
 208              		.global	VDAC8_1_Wakeup
 209              		.thumb
 210              		.thumb_func
 211              		.type	VDAC8_1_Wakeup, %function
 212              	VDAC8_1_Wakeup:
 213              	.LFB3:
 112:Generated_Source\PSoC5/VDAC8_1_PM.c **** 
 113:Generated_Source\PSoC5/VDAC8_1_PM.c **** 
 114:Generated_Source\PSoC5/VDAC8_1_PM.c **** /*******************************************************************************
 115:Generated_Source\PSoC5/VDAC8_1_PM.c **** * Function Name: VDAC8_1_Wakeup
 116:Generated_Source\PSoC5/VDAC8_1_PM.c **** ********************************************************************************
 117:Generated_Source\PSoC5/VDAC8_1_PM.c **** *
 118:Generated_Source\PSoC5/VDAC8_1_PM.c **** * Summary:
 119:Generated_Source\PSoC5/VDAC8_1_PM.c **** *  Restores and enables the user configuration
 120:Generated_Source\PSoC5/VDAC8_1_PM.c **** *  
 121:Generated_Source\PSoC5/VDAC8_1_PM.c **** * Parameters:  
 122:Generated_Source\PSoC5/VDAC8_1_PM.c **** *  void
 123:Generated_Source\PSoC5/VDAC8_1_PM.c **** *
 124:Generated_Source\PSoC5/VDAC8_1_PM.c **** * Return: 
 125:Generated_Source\PSoC5/VDAC8_1_PM.c **** *  void
 126:Generated_Source\PSoC5/VDAC8_1_PM.c **** *
 127:Generated_Source\PSoC5/VDAC8_1_PM.c **** * Global variables:
 128:Generated_Source\PSoC5/VDAC8_1_PM.c **** *  VDAC8_1_backup.enableState:  Is used to restore the enable state of 
ARM GAS  C:\Users\r\AppData\Local\Temp\ccxcZsRd.s 			page 7


 129:Generated_Source\PSoC5/VDAC8_1_PM.c **** *  block on wakeup from sleep mode.
 130:Generated_Source\PSoC5/VDAC8_1_PM.c **** *
 131:Generated_Source\PSoC5/VDAC8_1_PM.c **** *******************************************************************************/
 132:Generated_Source\PSoC5/VDAC8_1_PM.c **** void VDAC8_1_Wakeup(void) 
 133:Generated_Source\PSoC5/VDAC8_1_PM.c **** {
 214              		.loc 1 133 0
 215              		.cfi_startproc
 216              		@ args = 0, pretend = 0, frame = 0
 217              		@ frame_needed = 1, uses_anonymous_args = 0
 218 0000 80B5     		push	{r7, lr}
 219              		.cfi_def_cfa_offset 8
 220              		.cfi_offset 7, -8
 221              		.cfi_offset 14, -4
 222 0002 00AF     		add	r7, sp, #0
 223              		.cfi_def_cfa_register 7
 134:Generated_Source\PSoC5/VDAC8_1_PM.c ****     VDAC8_1_RestoreConfig();
 224              		.loc 1 134 0
 225 0004 FFF7FEFF 		bl	VDAC8_1_RestoreConfig
 135:Generated_Source\PSoC5/VDAC8_1_PM.c ****     
 136:Generated_Source\PSoC5/VDAC8_1_PM.c ****     if(VDAC8_1_backup.enableState == 1u)
 226              		.loc 1 136 0
 227 0008 064B     		ldr	r3, .L20
 228 000a 1B78     		ldrb	r3, [r3]	@ zero_extendqisi2
 229 000c 012B     		cmp	r3, #1
 230 000e 07D1     		bne	.L19
 137:Generated_Source\PSoC5/VDAC8_1_PM.c ****     {
 138:Generated_Source\PSoC5/VDAC8_1_PM.c ****         /* Enable VDAC8's operation */
 139:Generated_Source\PSoC5/VDAC8_1_PM.c ****         VDAC8_1_Enable();
 231              		.loc 1 139 0
 232 0010 FFF7FEFF 		bl	VDAC8_1_Enable
 140:Generated_Source\PSoC5/VDAC8_1_PM.c **** 
 141:Generated_Source\PSoC5/VDAC8_1_PM.c ****         /* Restore the data register */
 142:Generated_Source\PSoC5/VDAC8_1_PM.c ****         VDAC8_1_SetValue(VDAC8_1_Data);
 233              		.loc 1 142 0
 234 0014 044B     		ldr	r3, .L20+4
 235 0016 1B78     		ldrb	r3, [r3]
 236 0018 DBB2     		uxtb	r3, r3
 237 001a 1846     		mov	r0, r3
 238 001c FFF7FEFF 		bl	VDAC8_1_SetValue
 239              	.L19:
 143:Generated_Source\PSoC5/VDAC8_1_PM.c ****     } /* Do nothing if VDAC8 was disabled before */    
 144:Generated_Source\PSoC5/VDAC8_1_PM.c **** }
 240              		.loc 1 144 0
 241 0020 00BF     		nop
 242 0022 80BD     		pop	{r7, pc}
 243              	.L21:
 244              		.align	2
 245              	.L20:
 246 0024 00000000 		.word	VDAC8_1_backup
 247 0028 805B0040 		.word	1073765248
 248              		.cfi_endproc
 249              	.LFE3:
 250              		.size	VDAC8_1_Wakeup, .-VDAC8_1_Wakeup
 251              		.text
 252              	.Letext0:
 253              		.file 2 "Generated_Source\\PSoC5\\cytypes.h"
 254              		.file 3 "Generated_Source\\PSoC5\\VDAC8_1.h"
ARM GAS  C:\Users\r\AppData\Local\Temp\ccxcZsRd.s 			page 8

