ARM GAS  C:\Users\r\AppData\Local\Temp\ccFJt38u.s 			page 1


   1              		.syntax unified
   2              		.cpu cortex-m3
   3              		.fpu softvfp
   4              		.eabi_attribute 20, 1
   5              		.eabi_attribute 21, 1
   6              		.eabi_attribute 23, 3
   7              		.eabi_attribute 24, 1
   8              		.eabi_attribute 25, 1
   9              		.eabi_attribute 26, 1
  10              		.eabi_attribute 30, 6
  11              		.eabi_attribute 34, 1
  12              		.eabi_attribute 18, 4
  13              		.thumb
  14              		.syntax unified
  15              		.file	"vendor.c"
  16              		.text
  17              	.Ltext0:
  18              		.cfi_sections	.debug_frame
  19              		.section	.text.doAssignDiskParameters,"ax",%progbits
  20              		.align	2
  21              		.thumb
  22              		.thumb_func
  23              		.type	doAssignDiskParameters, %function
  24              	doAssignDiskParameters:
  25              	.LFB64:
  26              		.file 1 "..\\..\\src\\vendor.c"
   1:..\..\src/vendor.c **** //	Copyright (C) 2016 Michael McMaster <michael@codesrc.com>
   2:..\..\src/vendor.c **** //
   3:..\..\src/vendor.c **** //	This file is part of SCSI2SD.
   4:..\..\src/vendor.c **** //
   5:..\..\src/vendor.c **** //	SCSI2SD is free software: you can redistribute it and/or modify
   6:..\..\src/vendor.c **** //	it under the terms of the GNU General Public License as published by
   7:..\..\src/vendor.c **** //	the Free Software Foundation, either version 3 of the License, or
   8:..\..\src/vendor.c **** //	(at your option) any later version.
   9:..\..\src/vendor.c **** //
  10:..\..\src/vendor.c **** //	SCSI2SD is distributed in the hope that it will be useful,
  11:..\..\src/vendor.c **** //	but WITHOUT ANY WARRANTY; without even the implied warranty of
  12:..\..\src/vendor.c **** //	MERCHANTABILITY or FITNESS FOR A PARTICULAR PURPOSE.  See the
  13:..\..\src/vendor.c **** //	GNU General Public License for more details.
  14:..\..\src/vendor.c **** //
  15:..\..\src/vendor.c **** //	You should have received a copy of the GNU General Public License
  16:..\..\src/vendor.c **** //	along with SCSI2SD.  If not, see <http://www.gnu.org/licenses/>.
  17:..\..\src/vendor.c **** 
  18:..\..\src/vendor.c **** #include "device.h"
  19:..\..\src/vendor.c **** #include "scsi.h"
  20:..\..\src/vendor.c **** #include "vendor.h"
  21:..\..\src/vendor.c **** 
  22:..\..\src/vendor.c **** 
  23:..\..\src/vendor.c **** // Callback after the DATA OUT phase is complete.
  24:..\..\src/vendor.c **** static void doAssignDiskParameters(void)
  25:..\..\src/vendor.c **** {
  27              		.loc 1 25 0
  28              		.cfi_startproc
  29              		@ args = 0, pretend = 0, frame = 0
  30              		@ frame_needed = 1, uses_anonymous_args = 0
  31              		@ link register save eliminated.
  32 0000 80B4     		push	{r7}
ARM GAS  C:\Users\r\AppData\Local\Temp\ccFJt38u.s 			page 2


  33              		.cfi_def_cfa_offset 4
  34              		.cfi_offset 7, -4
  35 0002 00AF     		add	r7, sp, #0
  36              		.cfi_def_cfa_register 7
  26:..\..\src/vendor.c **** 	scsiDev.phase = STATUS;
  37              		.loc 1 26 0
  38 0004 034B     		ldr	r3, .L2
  39 0006 0622     		movs	r2, #6
  40 0008 C3F87821 		str	r2, [r3, #376]
  27:..\..\src/vendor.c **** }
  41              		.loc 1 27 0
  42 000c 00BF     		nop
  43 000e BD46     		mov	sp, r7
  44              		.cfi_def_cfa_register 13
  45              		@ sp needed
  46 0010 80BC     		pop	{r7}
  47              		.cfi_restore 7
  48              		.cfi_def_cfa_offset 0
  49 0012 7047     		bx	lr
  50              	.L3:
  51              		.align	2
  52              	.L2:
  53 0014 00000000 		.word	scsiDev
  54              		.cfi_endproc
  55              	.LFE64:
  56              		.size	doAssignDiskParameters, .-doAssignDiskParameters
  57              		.section	.text.scsiVendorCommand,"ax",%progbits
  58              		.align	2
  59              		.global	scsiVendorCommand
  60              		.thumb
  61              		.thumb_func
  62              		.type	scsiVendorCommand, %function
  63              	scsiVendorCommand:
  64              	.LFB65:
  28:..\..\src/vendor.c **** 
  29:..\..\src/vendor.c **** int scsiVendorCommand()
  30:..\..\src/vendor.c **** {
  65              		.loc 1 30 0
  66              		.cfi_startproc
  67              		@ args = 0, pretend = 0, frame = 8
  68              		@ frame_needed = 1, uses_anonymous_args = 0
  69              		@ link register save eliminated.
  70 0000 80B4     		push	{r7}
  71              		.cfi_def_cfa_offset 4
  72              		.cfi_offset 7, -4
  73 0002 83B0     		sub	sp, sp, #12
  74              		.cfi_def_cfa_offset 16
  75 0004 00AF     		add	r7, sp, #0
  76              		.cfi_def_cfa_register 7
  31:..\..\src/vendor.c **** 	int commandHandled = 1;
  77              		.loc 1 31 0
  78 0006 0123     		movs	r3, #1
  79 0008 7B60     		str	r3, [r7, #4]
  32:..\..\src/vendor.c **** 
  33:..\..\src/vendor.c **** 	uint8 command = scsiDev.cdb[0];
  80              		.loc 1 33 0
  81 000a 1C4B     		ldr	r3, .L9
ARM GAS  C:\Users\r\AppData\Local\Temp\ccFJt38u.s 			page 3


  82 000c 03F58343 		add	r3, r3, #16768
  83 0010 0833     		adds	r3, r3, #8
  84 0012 1B78     		ldrb	r3, [r3]
  85 0014 FB70     		strb	r3, [r7, #3]
  34:..\..\src/vendor.c **** 
  35:..\..\src/vendor.c **** 	if (command == 0xC0)
  86              		.loc 1 35 0
  87 0016 FB78     		ldrb	r3, [r7, #3]	@ zero_extendqisi2
  88 0018 C02B     		cmp	r3, #192
  89 001a 29D0     		beq	.L5
  36:..\..\src/vendor.c **** 	{
  37:..\..\src/vendor.c **** 		// Define flexible disk format
  38:..\..\src/vendor.c **** 		// OMTI-5204 controller
  39:..\..\src/vendor.c **** 		// http://bitsavers.informatik.uni-stuttgart.de/pdf/sms/OMTI_5x00.pdf
  40:..\..\src/vendor.c **** 		// Stub. Sectors-per-track should be configured by scsi2sd-util
  41:..\..\src/vendor.c **** 	}
  42:..\..\src/vendor.c **** 	else if (command == 0xC2)
  90              		.loc 1 42 0
  91 001c FB78     		ldrb	r3, [r7, #3]	@ zero_extendqisi2
  92 001e C22B     		cmp	r3, #194
  93 0020 10D1     		bne	.L6
  43:..\..\src/vendor.c **** 	{
  44:..\..\src/vendor.c **** 		// Assign Disk Parameters command
  45:..\..\src/vendor.c **** 		// OMTI-5204 controller
  46:..\..\src/vendor.c **** 		// http://bitsavers.informatik.uni-stuttgart.de/pdf/sms/OMTI_5x00.pdf
  47:..\..\src/vendor.c **** 		// Stub to read and discard 10 bytes.
  48:..\..\src/vendor.c **** 		scsiDev.dataLen = 10;
  94              		.loc 1 48 0
  95 0022 164B     		ldr	r3, .L9
  96 0024 03F58343 		add	r3, r3, #16768
  97 0028 0433     		adds	r3, r3, #4
  98 002a 0A22     		movs	r2, #10
  99 002c 1A60     		str	r2, [r3]
  49:..\..\src/vendor.c **** 		scsiDev.phase = DATA_OUT;
 100              		.loc 1 49 0
 101 002e 134B     		ldr	r3, .L9
 102 0030 0022     		movs	r2, #0
 103 0032 C3F87821 		str	r2, [r3, #376]
  50:..\..\src/vendor.c **** 		scsiDev.postDataOutHook = doAssignDiskParameters;
 104              		.loc 1 50 0
 105 0036 114B     		ldr	r3, .L9
 106 0038 03F58343 		add	r3, r3, #16768
 107 003c 2033     		adds	r3, r3, #32
 108 003e 104A     		ldr	r2, .L9+4
 109 0040 1A60     		str	r2, [r3]
 110 0042 15E0     		b	.L5
 111              	.L6:
  51:..\..\src/vendor.c **** 	}
  52:..\..\src/vendor.c **** 	else if (command == 0x0C)
 112              		.loc 1 52 0
 113 0044 FB78     		ldrb	r3, [r7, #3]	@ zero_extendqisi2
 114 0046 0C2B     		cmp	r3, #12
 115 0048 0AD1     		bne	.L7
  53:..\..\src/vendor.c **** 	{
  54:..\..\src/vendor.c **** 		// Initialize Drive Characteristics
  55:..\..\src/vendor.c **** 		// XEBEC S1410 controller
  56:..\..\src/vendor.c **** 		// http://bitsavers.informatik.uni-stuttgart.de/pdf/xebec/104524C_S1410Man_Aug83.pdf
ARM GAS  C:\Users\r\AppData\Local\Temp\ccFJt38u.s 			page 4


  57:..\..\src/vendor.c **** 		scsiDev.dataLen = 8;
 116              		.loc 1 57 0
 117 004a 0C4B     		ldr	r3, .L9
 118 004c 03F58343 		add	r3, r3, #16768
 119 0050 0433     		adds	r3, r3, #4
 120 0052 0822     		movs	r2, #8
 121 0054 1A60     		str	r2, [r3]
  58:..\..\src/vendor.c **** 		scsiDev.phase = DATA_OUT;
 122              		.loc 1 58 0
 123 0056 094B     		ldr	r3, .L9
 124 0058 0022     		movs	r2, #0
 125 005a C3F87821 		str	r2, [r3, #376]
 126 005e 07E0     		b	.L5
 127              	.L7:
  59:..\..\src/vendor.c **** 	}
  60:..\..\src/vendor.c **** 	else if (command == 0xE0)
 128              		.loc 1 60 0
 129 0060 FB78     		ldrb	r3, [r7, #3]	@ zero_extendqisi2
 130 0062 E02B     		cmp	r3, #224
 131 0064 04D0     		beq	.L5
  61:..\..\src/vendor.c **** 	{
  62:..\..\src/vendor.c **** 		// RAM Diagnostic
  63:..\..\src/vendor.c **** 		// XEBEC S1410 controller
  64:..\..\src/vendor.c **** 		// http://bitsavers.informatik.uni-stuttgart.de/pdf/xebec/104524C_S1410Man_Aug83.pdf
  65:..\..\src/vendor.c **** 		// Stub, return success
  66:..\..\src/vendor.c **** 	}
  67:..\..\src/vendor.c **** 	else if (command == 0xE4)
 132              		.loc 1 67 0
 133 0066 FB78     		ldrb	r3, [r7, #3]	@ zero_extendqisi2
 134 0068 E42B     		cmp	r3, #228
 135 006a 01D0     		beq	.L5
  68:..\..\src/vendor.c **** 	{
  69:..\..\src/vendor.c **** 		// Drive Diagnostic
  70:..\..\src/vendor.c **** 		// XEBEC S1410 controller
  71:..\..\src/vendor.c **** 		// Stub, return success
  72:..\..\src/vendor.c **** 	}
  73:..\..\src/vendor.c **** 	else
  74:..\..\src/vendor.c **** 	{
  75:..\..\src/vendor.c **** 		commandHandled = 0;
 136              		.loc 1 75 0
 137 006c 0023     		movs	r3, #0
 138 006e 7B60     		str	r3, [r7, #4]
 139              	.L5:
  76:..\..\src/vendor.c **** 	}
  77:..\..\src/vendor.c **** 
  78:..\..\src/vendor.c **** 	return commandHandled;
 140              		.loc 1 78 0
 141 0070 7B68     		ldr	r3, [r7, #4]
  79:..\..\src/vendor.c **** }
 142              		.loc 1 79 0
 143 0072 1846     		mov	r0, r3
 144 0074 0C37     		adds	r7, r7, #12
 145              		.cfi_def_cfa_offset 4
 146 0076 BD46     		mov	sp, r7
 147              		.cfi_def_cfa_register 13
 148              		@ sp needed
 149 0078 80BC     		pop	{r7}
ARM GAS  C:\Users\r\AppData\Local\Temp\ccFJt38u.s 			page 5


 150              		.cfi_restore 7
 151              		.cfi_def_cfa_offset 0
 152 007a 7047     		bx	lr
 153              	.L10:
 154              		.align	2
 155              	.L9:
 156 007c 00000000 		.word	scsiDev
 157 0080 00000000 		.word	doAssignDiskParameters
 158              		.cfi_endproc
 159              	.LFE65:
 160              		.size	scsiVendorCommand, .-scsiVendorCommand
 161              		.text
 162              	.Letext0:
 163              		.file 2 "c:\\program files (x86)\\cypress\\psoc creator\\4.2\\psoc creator\\import\\gnu\\arm\\5.4.
 164              		.file 3 "c:\\program files (x86)\\cypress\\psoc creator\\4.2\\psoc creator\\import\\gnu\\arm\\5.4.
 165              		.file 4 "Generated_Source\\PSoC5/cytypes.h"
 166              		.file 5 "../../../include/scsi2sd.h"
 167              		.file 6 "..\\..\\src\\sense.h"
 168              		.file 7 "..\\..\\src\\scsi.h"
 169              		.file 8 "Generated_Source\\PSoC5/core_cm3.h"